 FreeSia

 Timestamp is 5e7221ef (Wed Mar 18 18:28:15 2020)

 Preferred load address is 00400000

 Start         Length     Name                   Class
 0001:00000000 000f514aH .textbss                DATA
 0002:00000000 001ddaa6H .text                   CODE
 0002:001ddab0 0001720dH .text$x                 CODE
 0002:001f4cc0 00002154H .text$yc                CODE
 0002:001f6e20 000018e8H .text$yd                CODE
 0003:00000000 00000104H .CRT$XCA                DATA
 0003:00000104 00000104H .CRT$XCAA               DATA
 0003:00000208 0000010eH .CRT$XCC                DATA
 0003:00000318 0000018aH .CRT$XCL                DATA
 0003:000004a4 000001b0H .CRT$XCU                DATA
 0003:00000654 00000104H .CRT$XCZ                DATA
 0003:00000758 00000104H .CRT$XIA                DATA
 0003:0000085c 00000104H .CRT$XIAA               DATA
 0003:00000960 00000104H .CRT$XIC                DATA
 0003:00000a64 00000104H .CRT$XIY                DATA
 0003:00000b68 00000104H .CRT$XIZ                DATA
 0003:00000c70 0001f84fH .rdata                  DATA
 0003:000204c0 0000013fH .rdata$debug            DATA
 0003:00020600 00002ec0H .rdata$r                DATA
 0003:000234c0 00000104H .rtc$IAA                DATA
 0003:000235c4 00000310H .rtc$IMZ                DATA
 0003:000238d4 00000104H .rtc$IZZ                DATA
 0003:000239d8 00000104H .rtc$TAA                DATA
 0003:00023adc 00000310H .rtc$TMZ                DATA
 0003:00023dec 00000104H .rtc$TZZ                DATA
 0003:00023ef0 0000e017H .xdata$x                DATA
 0003:00031f08 00000104H ATL$__a                 DATA
 0003:0003200c 00000104H ATL$__z                 DATA
 0003:00032110 00000000H .edata                  DATA
 0004:00000000 00011c64H .data                   DATA
 0004:00011c68 001349a4H .bss                    DATA
 0005:00000000 000000b4H .idata$2                DATA
 0005:000000b4 00000014H .idata$3                DATA
 0005:000000c8 0000136cH .idata$4                DATA
 0005:00001434 0000136cH .idata$5                DATA
 0005:000027a0 000012feH .idata$6                DATA
 0006:00000000 00001960H .rsrc$01                DATA
 0006:00001960 000ae649H .rsrc$02                DATA

  Address         Publics by Value              Rva+Base       Lib:Object

 0000:00000000       ___safe_se_handler_table   00000000     <absolute>
 0000:00000000       ___safe_se_handler_count   00000000     <absolute>
 0000:00000000       __except_list              00000000     <absolute>
 0000:00009876       __fltused                  00009876     <absolute>
 0000:00009876       __ldused                   00009876     <absolute>
 0000:00000000       ___ImageBase               00400000     <linker-defined>
 0001:00000000       __enc$textbss$begin        00401000     <linker-defined>
 0001:000f514a       __enc$textbss$end          004f614a     <linker-defined>
 0002:0000afd0       ?AfxAssertFailedLine@@YGHPBDH@Z 00501fd0 f   afxasert.obj
 0002:0000b0c0       ??0Cuid@@QAE@XZ            005020c0 f   Cuid.obj
 0002:0000b1e0       ?GetNewUID@Cuid@@QAEHXZ    005021e0 f   Cuid.obj
 0002:0000b3c0       ?ReleaseUID@Cuid@@QAEXI@Z  005023c0 f   Cuid.obj
 0002:0000b4b0       ??0DRError@@QAE@XZ         005024b0 f   DesignRules.obj
 0002:0000b600       ??1DRError@@QAE@XZ         00502600 f   DesignRules.obj
 0002:0000b740       ??0DRErrorList@@QAE@XZ     00502740 f   DesignRules.obj
 0002:0000b7b0       ??1DRErrorList@@QAE@XZ     005027b0 f   DesignRules.obj
 0002:0000b860       ?SetLists@DRErrorList@@QAEXPAVCPartList@@PAVCNetList@@PAVCDisplayList@@PAVCTextList@@PAV?$CArray@VCPolyLine@@ABV1@@@@Z 00502860 f   DesignRules.obj
 0002:0000b8d0       ?Clear@DRErrorList@@QAEXXZ 005028d0 f   DesignRules.obj
 0002:0000b9a0       ??_GDRError@@QAEPAXI@Z     005029a0 f i DesignRules.obj
 0002:0000ba10       ?Remove@DRErrorList@@QAEXPAVDRError@@@Z 00502a10 f   DesignRules.obj
 0002:0000bae0       ?Add@DRErrorList@@QAEPAVDRError@@JHPAV?$CStringT@DV?$StrTraitMFC_DLL@DV?$ChTraitsCRT@D@ATL@@@@@ATL@@00Vid@@1HHHHHH@Z 00502ae0 f   DesignRules.obj
 0002:0000bfa0       ?GetPadElement@@YAPAVdl_element@@PAVpart_pin@@H@Z 00502fa0 f   DesignRules.obj
 0002:0000c080       ?HighLight@DRErrorList@@QAEXPAVDRError@@@Z 00503080 f   DesignRules.obj
 0002:0000c2b0       ?MakeSolidCircles@DRErrorList@@QAEXXZ 005032b0 f   DesignRules.obj
 0002:0000c430       ?MakeHollowCircles@DRErrorList@@QAEXXZ 00503430 f   DesignRules.obj
 0002:0000c630       ?GetSize@?$CArray@PAVdl_element@@ABQAV1@@@QBEHXZ 00503630 f i DesignRules.obj
 0002:0000c670       ??A?$CArray@PAVdl_element@@ABQAV1@@@QAEAAPAVdl_element@@H@Z 00503670 f i DesignRules.obj
 0002:0000c6d0       ?GetSize@?$CArray@VCPolyLine@@ABV1@@@QBEHXZ 005036d0 f i DesignRules.obj
 0002:0000c710       ?GetAt@?$CArray@VCPolyLine@@ABV1@@@QAEAAVCPolyLine@@H@Z 00503710 f i DesignRules.obj
 0002:0000c7c0       ?ElementAt@?$CArray@PAVdl_element@@ABQAV1@@@QAEAAPAVdl_element@@H@Z 005037c0 f i DesignRules.obj
 0002:0000c870       ??0id@@QAE@HHHHH@Z         00503870 f i DesignRules.obj
 0002:0000c8f0       ??0CDisplayList@@QAE@XZ    005038f0 f   DisplayList.obj
 0002:0000cc40       ??0dl_element@@QAE@XZ      00503c40 f i DisplayList.obj
 0002:0000ccb0       ??1dl_element@@QAE@XZ      00503cb0 f i DisplayList.obj
 0002:0000cd10       ??1CDisplayList@@QAE@XZ    00503d10 f   DisplayList.obj
 0002:0000cdd0       ?RemoveAll@CDisplayList@@QAEXXZ 00503dd0 f   DisplayList.obj
 0002:0000cf10       ?SetMapping@CDisplayList@@QAEXPAVCRect@@0HHNHH@Z 00503f10 f   DisplayList.obj
 0002:0000d280       ?AddSelector@CDisplayList@@QAEPAVdl_element@@Vid@@PAXHHPAUtagRECT@@HPAVCPoint@@HH@Z 00504280 f   DisplayList.obj
 0002:0000d350       ?AddSelector@CDisplayList@@QAEXPAVdl_element@@@Z 00504350 f   DisplayList.obj
 0002:0000d3b0       ?Add@CDisplayList@@QAEPAVdl_element@@Vid@@PAXHHHPAUtagRECT@@HPAVCPoint@@HH@Z 005043b0 f   DisplayList.obj
 0002:0000d840       ?HighLight@CDisplayList@@QAEXPAVdl_element@@@Z 00504840 f   DisplayList.obj
 0002:0000d8a0       ?HighlightAll@CDisplayList@@QAEHXZ 005048a0 f   DisplayList.obj
 0002:0000da50       ?GetHighlightedBounds@CDisplayList@@QAE?AUtagRECT@@PAH@Z 00504a50 f   DisplayList.obj
 0002:0000dd10       ?Cpy@CDisplayList@@QAEPAVdl_element@@PAV2@@Z 00504d10 f   DisplayList.obj
 0002:0000dec0       ?Move@CDisplayList@@QAEXPAVdl_element@@HH@Z 00504ec0 f   DisplayList.obj
 0002:0000dfa0       ?Get_Start@CDisplayList@@QAEPAVdl_element@@XZ 00504fa0 f   DisplayList.obj
 0002:0000dfe0       ?Get_End@CDisplayList@@QAEPAVdl_element@@XZ 00504fe0 f   DisplayList.obj
 0002:0000e020       ?Get_Rect@CDisplayList@@QAEPAUtagRECT@@PAVdl_element@@PAU2@@Z 00505020 f   DisplayList.obj
 0002:0000e0c0       ?Get_Points@CDisplayList@@QAEPAV?$CArray@VCPoint@@ABV1@@@PAVdl_element@@PAVCPoint@@PAHHH@Z 005050c0 f   DisplayList.obj
 0002:0000e210       ?Get_el_w@CDisplayList@@QAEHPAVdl_element@@@Z 00505210 f   DisplayList.obj
 0002:0000e260       ?Get_Selected@CDisplayList@@QAEHXZ 00505260 f   DisplayList.obj
 0002:0000e300       ?Set_RectGroup@CDisplayList@@QAEXPAVdl_element@@HHHH@Z 00505300 f   DisplayList.obj
 0002:0000e390       ?Get_RectGroup@CDisplayList@@QAEHPAVdl_element@@PAUtagRECT@@@Z 00505390 f   DisplayList.obj
 0002:0000e440       ?Get_Endpoints@CDisplayList@@QAEXPAVCPoint@@0@Z 00505440 f   DisplayList.obj
 0002:0000e4e0       ?Remove@CDisplayList@@QAE?AVid@@PAVdl_element@@@Z 005054e0 f   DisplayList.obj
 0002:0000e6b0       ??_Gdl_element@@QAEPAXI@Z  005056b0 f i DisplayList.obj
 0002:0000e720       ?Draw@CDisplayList@@QAEXPAVCDC@@H@Z 00505720 f   DisplayList.obj
 0002:00012df0       ??_H@YGXPAXIHP6EPAX0@Z@Z   00509df0 f i DisplayList.obj
 0002:00012e60       ?SetLayerRGB@CDisplayList@@QAEXHHHH@Z 00509e60 f   DisplayList.obj
 0002:00012ee0       ?SetLayerVisible@CDisplayList@@QAEXHH@Z 00509ee0 f   DisplayList.obj
 0002:00012f30       ?TestSelect@CDisplayList@@QAEPAXHHPAVid@@PAH0PAX0H@Z 00509f30 f   DisplayList.obj
 0002:000142b0       ??_Fid@@QAEXXZ             0050b2b0 f i DisplayList.obj
 0002:00014310       ?StartDraggingArray@CDisplayList@@QAEHPAVCDC@@HHH@Z 0050b310 f   DisplayList.obj
 0002:00014410       ?StartDraggingRectangle@CDisplayList@@QAEHPAVCDC@@HHHHHHH@Z 0050b410 f   DisplayList.obj
 0002:000145c0       ?StartDraggingRatLine@CDisplayList@@QAEHPAVCDC@@HHHHHHH@Z 0050b5c0 f   DisplayList.obj
 0002:000146d0       ?SetDragArcStyle@CDisplayList@@QAEXH@Z 0050b6d0 f   DisplayList.obj
 0002:00014760       ?StartDraggingArc@CDisplayList@@QAEHPAVCDC@@HHHHHHHH@Z 0050b760 f   DisplayList.obj
 0002:000148d0       ?StartDraggingLine@CDisplayList@@QAEHPAVCDC@@HHHHHHHHHHHH@Z 0050b8d0 f   DisplayList.obj
 0002:00014a70       ?StartDraggingLineVertex@CDisplayList@@QAEHPAVCDC@@HHHHHHHHHHHHHHHHH@Z 0050ba70 f   DisplayList.obj
 0002:00014cd0       ?StartDraggingLineSegment@CDisplayList@@QAEHPAVCDC@@HHHHHHHHHHHHHHHHHHHHHHH@Z 0050bcd0 f   DisplayList.obj
 0002:00014f70       ?Drag@CDisplayList@@QAEXPAVCDC@@HH@Z 0050bf70 f   DisplayList.obj
 0002:00017740       ?StopDragging@CDisplayList@@QAEHXZ 0050e740 f   DisplayList.obj
 0002:000177d0       ?ChangeRoutingLayer@CDisplayList@@QAEXPAVCDC@@HHH@Z 0050e7d0 f   DisplayList.obj
 0002:00017fa0       ?IncrementDragAngle@CDisplayList@@QAEXPAVCDC@@@Z 0050efa0 f   DisplayList.obj
 0002:00018540       ?FlipDragSide@CDisplayList@@QAEXPAVCDC@@@Z 0050f540 f   DisplayList.obj
 0002:00018b10       ?GetDragSide@CDisplayList@@QAEHXZ 0050fb10 f   DisplayList.obj
 0002:00018b50       ?GetDragAngle@CDisplayList@@QAEHXZ 0050fb50 f   DisplayList.obj
 0002:00018b90       ?MakeDragLineArray@CDisplayList@@QAEHH@Z 0050fb90 f   DisplayList.obj
 0002:00018c70       ?MakeDragRatlineArray@CDisplayList@@QAEHHH@Z 0050fc70 f   DisplayList.obj
 0002:00018de0       ?AddDragLine@CDisplayList@@QAEHVCPoint@@0@Z 0050fde0 f   DisplayList.obj
 0002:00018f10       ?AddDragRatline@CDisplayList@@QAEHVCPoint@@0@Z 0050ff10 f   DisplayList.obj
 0002:00019030       ?CancelHighLight@CDisplayList@@QAEHH@Z 00510030 f   DisplayList.obj
 0002:00019180       ?SetDCToWorldCoords@CDisplayList@@QAEXPAVCDC@@00HH@Z 00510180 f   DisplayList.obj
 0002:00019560       ?SetVisibleGrid@CDisplayList@@QAEXHN@Z 00510560 f   DisplayList.obj
 0002:000195c0       ?SetStatic@CDisplayList@@QAEXH@Z 005105c0 f   DisplayList.obj
 0002:000196a0       ?SetUpCrosshairs@CDisplayList@@QAEXHHH@Z 005106a0 f   DisplayList.obj
 0002:000199d0       ?WindowToPCB@CDisplayList@@QAE?AVCPoint@@V2@@Z 005109d0 f   DisplayList.obj
 0002:00019b10       ?ScreenToPCB@CDisplayList@@QAE?AVCPoint@@V2@@Z 00510b10 f   DisplayList.obj
 0002:00019c00       ?PCBToScreen@CDisplayList@@QAE?AVCPoint@@V2@@Z 00510c00 f   DisplayList.obj
 0002:00019d50       ?GetWindowRect@CDisplayList@@QAE?AUtagRECT@@XZ 00510d50 f   DisplayList.obj
 0002:00019e40       ??0?$CArray@VCPoint@@ABV1@@@QAE@XZ 00510e40 f i DisplayList.obj
 0002:00019ed0       ?GetSize@?$CArray@VCPoint@@ABV1@@@QBEHXZ 00510ed0 f i DisplayList.obj
 0002:00019f10       ??A?$CArray@VCPoint@@ABV1@@@QAEAAVCPoint@@H@Z 00510f10 f i DisplayList.obj
 0002:00019f70       ?ElementAt@?$CArray@VCPoint@@ABV1@@@QAEAAVCPoint@@H@Z 00510f70 f i DisplayList.obj
 0002:0001a020       ??8@YAHVid@@0@Z            00511020 f i DisplayList.obj
 0002:0001a0b0       ??1?$CArray@VCPoint@@ABV1@@@UAE@XZ 005110b0 f i DisplayList.obj
 0002:0001a1c0       ?Serialize@?$CArray@VCPoint@@ABV1@@@UAEXAAVCArchive@@@Z 005111c0 f i DisplayList.obj
 0002:0001a290       ?Dump@?$CArray@VCPoint@@ABV1@@@UBEXAAVCDumpContext@@@Z 00511290 f i DisplayList.obj
 0002:0001a370       ?AssertValid@?$CArray@VCPoint@@ABV1@@@UBEXXZ 00511370 f i DisplayList.obj
 0002:0001a4d0       ??_G?$CArray@VCPoint@@ABV1@@@UAEPAXI@Z 005114d0 f i DisplayList.obj
 0002:0001a4d0       ??_E?$CArray@VCPoint@@ABV1@@@UAEPAXI@Z 005114d0 f i DisplayList.obj
 0002:0001a540       ?SetSize@?$CArray@VCPoint@@ABV1@@@QAEXHH@Z 00511540 f i DisplayList.obj
 0002:0001ab60       ??2@YAPAXIPAX@Z            00511b60 f i DisplayList.obj
 0002:0001aba0       ?memcpy_s@Checked@ATL@@YAXPAXIPBXI@Z 00511ba0 f i DisplayList.obj
 0002:0001ac20       ?AfxCrtErrorCheck@@YAHH@Z  00511c20 f i DisplayList.obj
 0002:0001ad30       ??$SerializeElements@VCPoint@@@@YGXAAVCArchive@@PAVCPoint@@H@Z 00511d30 f i DisplayList.obj
 0002:0001af20       ??$DumpElements@VCPoint@@@@YGXAAVCDumpContext@@PBVCPoint@@H@Z 00511f20 f i DisplayList.obj
 0002:0001b010       ?_GetBaseClass@CDlgAddMaskCutout@@KGPAUCRuntimeClass@@XZ 00512010 f   DlgAddMaskCutout.obj
 0002:0001b060       ?GetThisClass@CDlgAddMaskCutout@@SGPAUCRuntimeClass@@XZ 00512060 f   DlgAddMaskCutout.obj
 0002:0001b0a0       ?GetRuntimeClass@CDlgAddMaskCutout@@UBEPAUCRuntimeClass@@XZ 005120a0 f   DlgAddMaskCutout.obj
 0002:0001b0e0       ??0CDlgAddMaskCutout@@QAE@PAVCWnd@@@Z 005120e0 f   DlgAddMaskCutout.obj
 0002:0001b1f0       ??_GCDlgAddMaskCutout@@UAEPAXI@Z 005121f0 f i DlgAddMaskCutout.obj
 0002:0001b1f0       ??_ECDlgAddMaskCutout@@UAEPAXI@Z 005121f0 f i DlgAddMaskCutout.obj
 0002:0001b260       ??1CDlgAddMaskCutout@@UAE@XZ 00512260 f   DlgAddMaskCutout.obj
 0002:0001b360       ?Initialize@CDlgAddMaskCutout@@QAEXHH@Z 00512360 f   DlgAddMaskCutout.obj
 0002:0001b3c0       ?DoDataExchange@CDlgAddMaskCutout@@MAEXPAVCDataExchange@@@Z 005123c0 f   DlgAddMaskCutout.obj
 0002:0001b740       ?GetMessageMap@CDlgAddMaskCutout@@MBEPBUAFX_MSGMAP@@XZ 00512740 f   DlgAddMaskCutout.obj
 0002:0001b790       ?GetThisMessageMap@CDlgAddMaskCutout@@KGPBUAFX_MSGMAP@@XZ 00512790 f   DlgAddMaskCutout.obj
 0002:0001b7d0       ?_GetBaseClass@CDlgAddMerge@@KGPAUCRuntimeClass@@XZ 005127d0 f   DlgAddMerge.obj
 0002:0001b820       ?GetThisClass@CDlgAddMerge@@SGPAUCRuntimeClass@@XZ 00512820 f   DlgAddMerge.obj
 0002:0001b860       ?GetRuntimeClass@CDlgAddMerge@@UBEPAUCRuntimeClass@@XZ 00512860 f   DlgAddMerge.obj
 0002:0001b8a0       ??0CDlgAddMerge@@QAE@PAVCWnd@@@Z 005128a0 f   DlgAddMerge.obj
 0002:0001ba00       ??_GCDlgAddMerge@@UAEPAXI@Z 00512a00 f i DlgAddMerge.obj
 0002:0001ba00       ??_ECDlgAddMerge@@UAEPAXI@Z 00512a00 f i DlgAddMerge.obj
 0002:0001ba70       ??1CDlgAddMerge@@UAE@XZ    00512a70 f   DlgAddMerge.obj
 0002:0001bb80       ?DoDataExchange@CDlgAddMerge@@MAEXPAVCDataExchange@@@Z 00512b80 f   DlgAddMerge.obj
 0002:0001c350       ?GetMessageMap@CDlgAddMerge@@MBEPBUAFX_MSGMAP@@XZ 00513350 f   DlgAddMerge.obj
 0002:0001c3a0       ?GetThisMessageMap@CDlgAddMerge@@KGPBUAFX_MSGMAP@@XZ 005133a0 f   DlgAddMerge.obj
 0002:0001c3e0       ??8ATL@@YA_NABV?$CStringT@DV?$StrTraitMFC_DLL@DV?$ChTraitsCRT@D@ATL@@@@@0@PBD@Z 005133e0 f i DlgAddMerge.obj
 0002:0001c450       ?GetIndex@Merge@@QAEHV?$CStringT@DV?$StrTraitMFC_DLL@DV?$ChTraitsCRT@D@ATL@@@@@ATL@@@Z 00513450 f i DlgAddMerge.obj
 0002:0001c5b0       ?GetMerge@Merge@@QAE?AV?$CStringT@DV?$StrTraitMFC_DLL@DV?$ChTraitsCRT@D@ATL@@@@@ATL@@H@Z 005135b0 f i DlgAddMerge.obj
 0002:0001c6a0       ?GetSize@Merge@@QAEHXZ     005136a0 f i DlgAddMerge.obj
 0002:0001c6e0       ??A?$CArray@V?$CStringT@DV?$StrTraitMFC_DLL@DV?$ChTraitsCRT@D@ATL@@@@@ATL@@ABV12@@@QAEAAV?$CStringT@DV?$StrTraitMFC_DLL@DV?$ChTraitsCRT@D@ATL@@@@@ATL@@H@Z 005136e0 f i DlgAddMerge.obj
 0002:0001c740       ?ElementAt@?$CArray@V?$CStringT@DV?$StrTraitMFC_DLL@DV?$ChTraitsCRT@D@ATL@@@@@ATL@@ABV12@@@QAEAAV?$CStringT@DV?$StrTraitMFC_DLL@DV?$ChTraitsCRT@D@ATL@@@@@ATL@@H@Z 00513740 f i DlgAddMerge.obj
 0002:0001c7f0       ?_GetBaseClass@CDlgAddNet@@KGPAUCRuntimeClass@@XZ 005137f0 f   DlgAddNet.obj
 0002:0001c840       ?GetThisClass@CDlgAddNet@@SGPAUCRuntimeClass@@XZ 00513840 f   DlgAddNet.obj
 0002:0001c880       ?GetRuntimeClass@CDlgAddNet@@UBEPAUCRuntimeClass@@XZ 00513880 f   DlgAddNet.obj
 0002:0001c8c0       ??0CDlgAddNet@@QAE@PAVCWnd@@@Z 005138c0 f   DlgAddNet.obj
 0002:0001c930       ??_ECDlgAddNet@@UAEPAXI@Z  00513930 f i DlgAddNet.obj
 0002:0001c930       ??_GCDlgAddNet@@UAEPAXI@Z  00513930 f i DlgAddNet.obj
 0002:0001c9a0       ??1CDlgAddNet@@UAE@XZ      005139a0 f   DlgAddNet.obj
 0002:0001ca00       ?DoDataExchange@CDlgAddNet@@MAEXPAVCDataExchange@@@Z 00513a00 f   DlgAddNet.obj
 0002:0001ca60       ?GetMessageMap@CDlgAddNet@@MBEPBUAFX_MSGMAP@@XZ 00513a60 f   DlgAddNet.obj
 0002:0001cab0       ?GetThisMessageMap@CDlgAddNet@@KGPBUAFX_MSGMAP@@XZ 00513ab0 f   DlgAddNet.obj
 0002:0001caf0       ?_GetBaseClass@CDlgAddPart@@KGPAUCRuntimeClass@@XZ 00513af0 f   DlgAddPart.obj
 0002:0001cb40       ?GetThisClass@CDlgAddPart@@SGPAUCRuntimeClass@@XZ 00513b40 f   DlgAddPart.obj
 0002:0001cb80       ?GetRuntimeClass@CDlgAddPart@@UBEPAUCRuntimeClass@@XZ 00513b80 f   DlgAddPart.obj
 0002:0001cbc0       ??0CDlgAddPart@@QAE@PAVCWnd@@@Z 00513bc0 f   DlgAddPart.obj
 0002:0001cef0       ??_GCDlgAddPart@@UAEPAXI@Z 00513ef0 f i DlgAddPart.obj
 0002:0001cef0       ??_ECDlgAddPart@@UAEPAXI@Z 00513ef0 f i DlgAddPart.obj
 0002:0001cf60       ??1CDlgAddPart@@UAE@XZ     00513f60 f   DlgAddPart.obj
 0002:0001d250       ?DoDataExchange@CDlgAddPart@@MAEXPAVCDataExchange@@@Z 00514250 f   DlgAddPart.obj
 0002:0001f6b0       ?GetNewName@CDlgDupFootprintName@@QAEPAV?$CStringT@DV?$StrTraitMFC_DLL@DV?$ChTraitsCRT@D@ATL@@@@@ATL@@XZ 005166b0 f i DlgAddPart.obj
 0002:0001f6f0       ?GetMessageMap@CDlgAddPart@@MBEPBUAFX_MSGMAP@@XZ 005166f0 f   DlgAddPart.obj
 0002:0001f740       ?GetThisMessageMap@CDlgAddPart@@KGPBUAFX_MSGMAP@@XZ 00516740 f   DlgAddPart.obj
 0002:0001f780       ?Initialize@CDlgAddPart@@QAEXPAV?$CArray@Upart_info@@ABU1@@@HHHHHHPAVCMapStringToPtr@@PAVCFootLibFolderMap@@HPAVCDlgLog@@PAV?$CStringT@DV?$StrTraitMFC_DLL@DV?$ChTraitsCRT@D@ATL@@@@@ATL@@@Z 00516780 f   DlgAddPart.obj
 0002:0001f920       ?GetDragFlag@CDlgAddPart@@QAEHXZ 00516920 f   DlgAddPart.obj
 0002:0001f960       ?OnInitDialog@CDlgAddPart@@EAEHXZ 00516960 f   DlgAddPart.obj
 0002:000208c0       ?InitPartLibTree@CDlgAddPart@@QAEXV?$CStringT@DV?$StrTraitMFC_DLL@DV?$ChTraitsCRT@D@ATL@@@@@ATL@@@Z 005178c0 f   DlgAddPart.obj
 0002:00021280       ?OnTvnSelchangedPartLibTree@CDlgAddPart@@AAEXPAUtagNMHDR@@PAJ@Z 00518280 f   DlgAddPart.obj
 0002:00021c80       ?OnBnClickedRadioDrag@CDlgAddPart@@AAEXXZ 00518c80 f   DlgAddPart.obj
 0002:00021d40       ?OnBnClickedRadioSet@CDlgAddPart@@AAEXXZ 00518d40 f   DlgAddPart.obj
 0002:00021e00       ?OnBnClickedRadioOffBoard@CDlgAddPart@@AAEXXZ 00518e00 f   DlgAddPart.obj
 0002:00021ec0       ?OnEditFootChange@CDlgAddPart@@AAEXXZ 00518ec0 f   DlgAddPart.obj
 0002:00022040       ?OnBnClickedOk@CDlgAddPart@@AAEXXZ 00519040 f   DlgAddPart.obj
 0002:00022200       ?OnBnClickedCancel@CDlgAddPart@@AAEXXZ 00519200 f   DlgAddPart.obj
 0002:000223d0       ?OnCbnSelchangeComboAddPartUnits@CDlgAddPart@@AAEXXZ 005193d0 f   DlgAddPart.obj
 0002:00022470       ?GetFields@CDlgAddPart@@QAEXXZ 00519470 f   DlgAddPart.obj
 0002:000226f0       ?SetFields@CDlgAddPart@@QAEXXZ 005196f0 f   DlgAddPart.obj
 0002:00022950       ?OnBnClickedButtonBrowse@CDlgAddPart@@AAEXXZ 00519950 f   DlgAddPart.obj
 0002:00022c80       ??1CPathDialog@@QAE@XZ     00519c80 f i DlgAddPart.obj
 0002:00022ce0       ??1CPathDialogSub@@UAE@XZ  00519ce0 f i DlgAddPart.obj
 0002:00022d30       ?OnStnClickedStatic2@CDlgAddPart@@QAEXXZ 00519d30 f   DlgAddPart.obj
 0002:00022d70       ??HATL@@YA?AV?$CStringT@DV?$StrTraitMFC_DLL@DV?$ChTraitsCRT@D@ATL@@@@@0@ABV10@0@Z 00519d70 f i DlgAddPart.obj
 0002:00022f30       ??8ATL@@YA_NABV?$CStringT@DV?$StrTraitMFC_DLL@DV?$ChTraitsCRT@D@ATL@@@@@0@0@Z 00519f30 f i DlgAddPart.obj
 0002:00022fb0       ??9ATL@@YA_NABV?$CStringT@DV?$StrTraitMFC_DLL@DV?$ChTraitsCRT@D@ATL@@@@@0@0@Z 00519fb0 f i DlgAddPart.obj
 0002:00023030       ?GetSize@?$CArray@Vpadstack@@ABV1@@@QBEHXZ 0051a030 f i DlgAddPart.obj
 0002:00023070       ??A?$CArray@Vpadstack@@ABV1@@@QAEAAVpadstack@@H@Z 0051a070 f i DlgAddPart.obj
 0002:000230d0       ?GetSize@?$CArray@Upart_info@@ABU1@@@QBEHXZ 0051a0d0 f i DlgAddPart.obj
 0002:00023110       ?SetSize@?$CArray@Upart_info@@ABU1@@@QAEXHH@Z 0051a110 f i DlgAddPart.obj
 0002:00023770       ?GetAt@?$CArray@Upart_info@@ABU1@@@QAEAAUpart_info@@H@Z 0051a770 f i DlgAddPart.obj
 0002:00023820       ??A?$CArray@Upart_info@@ABU1@@@QAEAAUpart_info@@H@Z 0051a820 f i DlgAddPart.obj
 0002:00023880       ??_Gpart_info@@QAEPAXI@Z   0051a880 f i DlgAddPart.obj
 0002:000238f0       ??0part_info@@QAE@XZ       0051a8f0 f i DlgAddPart.obj
 0002:00023970       ??1part_info@@QAE@XZ       0051a970 f i DlgAddPart.obj
 0002:000239f0       ?ElementAt@?$CArray@Vpadstack@@ABV1@@@QAEAAVpadstack@@H@Z 0051a9f0 f i DlgAddPart.obj
 0002:00023aa0       ?ElementAt@?$CArray@Upart_info@@ABU1@@@QAEAAUpart_info@@H@Z 0051aaa0 f i DlgAddPart.obj
 0002:00023b50       ?SetExpanded@CFootLibFolder@@QAEXHH@Z 0051ab50 f i DlgAddPart.obj
 0002:00023bc0       ??A?$CArray@VCFootLib@@ABV1@@@QAEAAVCFootLib@@H@Z 0051abc0 f i DlgAddPart.obj
 0002:00023c20       ?ElementAt@?$CArray@VCFootLib@@ABV1@@@QAEAAVCFootLib@@H@Z 0051ac20 f i DlgAddPart.obj
 0002:00023cd0       ?ConvertMaskCurSelToShape@@YAHH@Z 0051acd0 f   DlgAddPin.obj
 0002:00023d20       ?ConvertMaskShapeToCurSel@@YAHH@Z 0051ad20 f   DlgAddPin.obj
 0002:00023d70       ?GetNameValue@@YANPAV?$CStringT@DV?$StrTraitMFC_DLL@DV?$ChTraitsCRT@D@ATL@@@@@ATL@@@Z 0051ad70 f   DlgAddPin.obj
 0002:00023eb0       ?SortByName@@YAXPAV?$CArray@V?$CStringT@DV?$StrTraitMFC_DLL@DV?$ChTraitsCRT@D@ATL@@@@@ATL@@ABV12@@@@Z 0051aeb0 f   DlgAddPin.obj
 0002:000240e0       ?_GetBaseClass@CDlgAddPin@@KGPAUCRuntimeClass@@XZ 0051b0e0 f   DlgAddPin.obj
 0002:00024130       ?GetThisClass@CDlgAddPin@@SGPAUCRuntimeClass@@XZ 0051b130 f   DlgAddPin.obj
 0002:00024170       ?GetRuntimeClass@CDlgAddPin@@UBEPAUCRuntimeClass@@XZ 0051b170 f   DlgAddPin.obj
 0002:000241b0       ??0CDlgAddPin@@QAE@PAVCWnd@@@Z 0051b1b0 f   DlgAddPin.obj
 0002:000249d0       ??_ECDlgAddPin@@UAEPAXI@Z  0051b9d0 f i DlgAddPin.obj
 0002:000249d0       ??_GCDlgAddPin@@UAEPAXI@Z  0051b9d0 f i DlgAddPin.obj
 0002:00024a40       ??1CDlgAddPin@@UAE@XZ      0051ba40 f   DlgAddPin.obj
 0002:00024fd0       ?DoDataExchange@CDlgAddPin@@MAEXPAVCDataExchange@@@Z 0051bfd0 f   DlgAddPin.obj
 0002:00029010       ?GetMessageMap@CDlgAddPin@@MBEPBUAFX_MSGMAP@@XZ 00520010 f   DlgAddPin.obj
 0002:00029060       ?GetThisMessageMap@CDlgAddPin@@KGPBUAFX_MSGMAP@@XZ 00520060 f   DlgAddPin.obj
 0002:000290a0       ?InitDialog@CDlgAddPin@@QAEXPAVCShape@@HHH@Z 005200a0 f   DlgAddPin.obj
 0002:000291b0       ?OnBnClickedRadioAddPin@CDlgAddPin@@QAEXXZ 005201b0 f   DlgAddPin.obj
 0002:00029340       ?OnBnClickedRadioAddRow@CDlgAddPin@@QAEXXZ 00520340 f   DlgAddPin.obj
 0002:000294b0       ?OnBnClickedRadioDragPin@CDlgAddPin@@QAEXXZ 005204b0 f   DlgAddPin.obj
 0002:00029560       ?OnBnClickedRadioSetPinPos@CDlgAddPin@@QAEXXZ 00520560 f   DlgAddPin.obj
 0002:00029630       ?OnBnClickedCheckInnerSameAs@CDlgAddPin@@QAEXXZ 00520630 f   DlgAddPin.obj
 0002:00029690       ?OnBnClickedCheckBottomSameAs@CDlgAddPin@@QAEXXZ 00520690 f   DlgAddPin.obj
 0002:000296f0       ?OnCbnSelchangeComboPinUnits@CDlgAddPin@@QAEXXZ 005206f0 f   DlgAddPin.obj
 0002:00029790       ?SetFields@CDlgAddPin@@IAEXXZ 00520790 f   DlgAddPin.obj
 0002:0002af80       ?GetFields@CDlgAddPin@@IAEXXZ 00521f80 f   DlgAddPin.obj
 0002:0002c3d0       ?OnChange@CDlgAddPin@@QAEXXZ 005233d0 f   DlgAddPin.obj
 0002:0002c430       ?OnChangeTopPadParam@CDlgAddPin@@QAEXXZ 00523430 f   DlgAddPin.obj
 0002:0002c780       ?OnBnClickedCheckBottomSameAs2@CDlgAddPin@@QAEXXZ 00523780 f   DlgAddPin.obj
 0002:0002c7c0       ?InsertAt@?$CArray@Vpadstack@@ABV1@@@QAEXHABVpadstack@@H@Z 005237c0 f i DlgAddPin.obj
 0002:0002cb10       ??3@YAXPAX0@Z              00523b10 f i DlgAddPin.obj
 0002:0002cb40       ?RemoveAt@?$CArray@Vpadstack@@ABV1@@@QAEXHH@Z 00523b40 f i DlgAddPin.obj
 0002:0002cd20       ??4padstack@@QAEAAV0@ABV0@@Z 00523d20 f i DlgAddPin.obj
 0002:0002cfb0       ?memmove_s@Checked@ATL@@YAXPAXIPBXI@Z 00523fb0 f i DlgAddPin.obj
 0002:0002d030       ??0?$CArray@V?$CStringT@DV?$StrTraitMFC_DLL@DV?$ChTraitsCRT@D@ATL@@@@@ATL@@ABV12@@@QAE@XZ 00524030 f i DlgAddPin.obj
 0002:0002d0c0       ?GetSize@?$CArray@V?$CStringT@DV?$StrTraitMFC_DLL@DV?$ChTraitsCRT@D@ATL@@@@@ATL@@ABV12@@@QBEHXZ 005240c0 f i DlgAddPin.obj
 0002:0002d100       ?SetSize@?$CArray@V?$CStringT@DV?$StrTraitMFC_DLL@DV?$ChTraitsCRT@D@ATL@@@@@ATL@@ABV12@@@QAEXHH@Z 00524100 f i DlgAddPin.obj
 0002:0002d780       ??1?$CArray@V?$CStringT@DV?$StrTraitMFC_DLL@DV?$ChTraitsCRT@D@ATL@@@@@ATL@@ABV12@@@UAE@XZ 00524780 f i DlgAddPin.obj
 0002:0002d8b0       ?Serialize@?$CArray@V?$CStringT@DV?$StrTraitMFC_DLL@DV?$ChTraitsCRT@D@ATL@@@@@ATL@@ABV12@@@UAEXAAVCArchive@@@Z 005248b0 f i DlgAddPin.obj
 0002:0002d980       ?Dump@?$CArray@V?$CStringT@DV?$StrTraitMFC_DLL@DV?$ChTraitsCRT@D@ATL@@@@@ATL@@ABV12@@@UBEXAAVCDumpContext@@@Z 00524980 f i DlgAddPin.obj
 0002:0002da60       ?AssertValid@?$CArray@V?$CStringT@DV?$StrTraitMFC_DLL@DV?$ChTraitsCRT@D@ATL@@@@@ATL@@ABV12@@@UBEXXZ 00524a60 f i DlgAddPin.obj
 0002:0002dbc0       ??_E?$CArray@V?$CStringT@DV?$StrTraitMFC_DLL@DV?$ChTraitsCRT@D@ATL@@@@@ATL@@ABV12@@@UAEPAXI@Z 00524bc0 f i DlgAddPin.obj
 0002:0002dbc0       ??_G?$CArray@V?$CStringT@DV?$StrTraitMFC_DLL@DV?$ChTraitsCRT@D@ATL@@@@@ATL@@ABV12@@@UAEPAXI@Z 00524bc0 f i DlgAddPin.obj
 0002:0002dc30       ??_G?$CStringT@DV?$StrTraitMFC_DLL@DV?$ChTraitsCRT@D@ATL@@@@@ATL@@QAEPAXI@Z 00524c30 f i DlgAddPin.obj
 0002:0002dcb0       ??_Gpadstack@@QAEPAXI@Z    00524cb0 f i DlgAddPin.obj
 0002:0002dd20       ??1padstack@@QAE@XZ        00524d20 f i DlgAddPin.obj
 0002:0002dda0       ??$DumpElements@V?$CStringT@DV?$StrTraitMFC_DLL@DV?$ChTraitsCRT@D@ATL@@@@@ATL@@@@YGXAAVCDumpContext@@PBV?$CStringT@DV?$StrTraitMFC_DLL@DV?$ChTraitsCRT@D@ATL@@@@@ATL@@H@Z 00524da0 f i DlgAddPin.obj
 0002:0002de90       ?SetSize@?$CArray@Vpadstack@@ABV1@@@QAEXHH@Z 00524e90 f i DlgAddPin.obj
 0002:0002e5e0       ?_GetBaseClass@CDlgAddPoly@@KGPAUCRuntimeClass@@XZ 005255e0 f   DlgAddPoly.obj
 0002:0002e630       ?GetThisClass@CDlgAddPoly@@SGPAUCRuntimeClass@@XZ 00525630 f   DlgAddPoly.obj
 0002:0002e670       ?GetRuntimeClass@CDlgAddPoly@@UBEPAUCRuntimeClass@@XZ 00525670 f   DlgAddPoly.obj
 0002:0002e6b0       ??0CDlgAddPoly@@QAE@PAVCWnd@@@Z 005256b0 f   DlgAddPoly.obj
 0002:0002e7d0       ??_ECDlgAddPoly@@UAEPAXI@Z 005257d0 f i DlgAddPoly.obj
 0002:0002e7d0       ??_GCDlgAddPoly@@UAEPAXI@Z 005257d0 f i DlgAddPoly.obj
 0002:0002e840       ??1CDlgAddPoly@@UAE@XZ     00525840 f   DlgAddPoly.obj
 0002:0002e940       ?DoDataExchange@CDlgAddPoly@@MAEXPAVCDataExchange@@@Z 00525940 f   DlgAddPoly.obj
 0002:0002ebf0       ?Initialize@CDlgAddPoly@@QAEXHHHHH@Z 00525bf0 f   DlgAddPoly.obj
 0002:0002eca0       ?GetMessageMap@CDlgAddPoly@@MBEPBUAFX_MSGMAP@@XZ 00525ca0 f   DlgAddPoly.obj
 0002:0002ecf0       ?GetThisMessageMap@CDlgAddPoly@@KGPBUAFX_MSGMAP@@XZ 00525cf0 f   DlgAddPoly.obj
 0002:0002ed30       ?GetFields@CDlgAddPoly@@AAEXXZ 00525d30 f   DlgAddPoly.obj
 0002:0002eef0       ?SetFields@CDlgAddPoly@@AAEXXZ 00525ef0 f   DlgAddPoly.obj
 0002:0002f0b0       ?OnCbnSelchangeComboAddPolyUnits@CDlgAddPoly@@AAEXXZ 005260b0 f   DlgAddPoly.obj
 0002:0002f150       ?_GetBaseClass@CDlgAddText@@KGPAUCRuntimeClass@@XZ 00526150 f   DlgAddText.obj
 0002:0002f1a0       ?GetThisClass@CDlgAddText@@SGPAUCRuntimeClass@@XZ 005261a0 f   DlgAddText.obj
 0002:0002f1e0       ?GetRuntimeClass@CDlgAddText@@UBEPAUCRuntimeClass@@XZ 005261e0 f   DlgAddText.obj
 0002:0002f220       ??0CDlgAddText@@QAE@PAVCWnd@@@Z 00526220 f   DlgAddText.obj
 0002:0002f450       ??_ECDlgAddText@@UAEPAXI@Z 00526450 f i DlgAddText.obj
 0002:0002f450       ??_GCDlgAddText@@UAEPAXI@Z 00526450 f i DlgAddText.obj
 0002:0002f4c0       ??1CDlgAddText@@UAE@XZ     005264c0 f   DlgAddText.obj
 0002:0002f6b0       ?DoDataExchange@CDlgAddText@@MAEXPAVCDataExchange@@@Z 005266b0 f   DlgAddText.obj
 0002:0002fa30       ?GetMessageMap@CDlgAddText@@MBEPBUAFX_MSGMAP@@XZ 00526a30 f   DlgAddText.obj
 0002:0002fa80       ?GetThisMessageMap@CDlgAddText@@KGPBUAFX_MSGMAP@@XZ 00526a80 f   DlgAddText.obj
 0002:0002fac0       ?Initialize@CDlgAddText@@QAEXHHHPAV?$CStringT@DV?$StrTraitMFC_DLL@DV?$ChTraitsCRT@D@ATL@@@@@ATL@@HHHHHHHH@Z 00526ac0 f   DlgAddText.obj
 0002:0002fce0       ?OnInitDialog@CDlgAddText@@UAEHXZ 00526ce0 f   DlgAddText.obj
 0002:0002fef0       ?OnBnClickedSetWidth@CDlgAddText@@QAEXXZ 00526ef0 f   DlgAddText.obj
 0002:0002ff50       ?OnBnClickedDefWidth@CDlgAddText@@QAEXXZ 00526f50 f   DlgAddText.obj
 0002:0002ffb0       ?OnEnChangeEditHeight@CDlgAddText@@QAEXXZ 00526fb0 f   DlgAddText.obj
 0002:00030250       ?OnBnClickedOk@CDlgAddText@@QAEXXZ 00527250 f   DlgAddText.obj
 0002:00030350       ?OnBnClickedSetPosition@CDlgAddText@@QAEXXZ 00527350 f   DlgAddText.obj
 0002:000303b0       ?OnBnClickedDrag@CDlgAddText@@QAEXXZ 005273b0 f   DlgAddText.obj
 0002:00030410       ?OnCbnSelchangeComboAddTextUnits@CDlgAddText@@QAEXXZ 00527410 f   DlgAddText.obj
 0002:000304d0       ?GetFields@CDlgAddText@@QAEXXZ 005274d0 f   DlgAddText.obj
 0002:00030870       ?SetFields@CDlgAddText@@QAEXXZ 00527870 f   DlgAddText.obj
 0002:00030d60       ?OnLbnSelchangeListLayer@CDlgAddText@@QAEXXZ 00527d60 f   DlgAddText.obj
 0002:00030dc0       ?_GetBaseClass@CDlgAddWidth@@KGPAUCRuntimeClass@@XZ 00527dc0 f   DlgAddWidth.obj
 0002:00030e10       ?GetThisClass@CDlgAddWidth@@SGPAUCRuntimeClass@@XZ 00527e10 f   DlgAddWidth.obj
 0002:00030e50       ?GetRuntimeClass@CDlgAddWidth@@UBEPAUCRuntimeClass@@XZ 00527e50 f   DlgAddWidth.obj
 0002:00030e90       ??0CDlgAddWidth@@QAE@PAVCWnd@@@Z 00527e90 f   DlgAddWidth.obj
 0002:00030f00       ??_ECDlgAddWidth@@UAEPAXI@Z 00527f00 f i DlgAddWidth.obj
 0002:00030f00       ??_GCDlgAddWidth@@UAEPAXI@Z 00527f00 f i DlgAddWidth.obj
 0002:00030f70       ??1CDlgAddWidth@@UAE@XZ    00527f70 f   DlgAddWidth.obj
 0002:00030fd0       ?DoDataExchange@CDlgAddWidth@@MAEXPAVCDataExchange@@@Z 00527fd0 f   DlgAddWidth.obj
 0002:00031380       ?GetMessageMap@CDlgAddWidth@@MBEPBUAFX_MSGMAP@@XZ 00528380 f   DlgAddWidth.obj
 0002:000313d0       ?GetThisMessageMap@CDlgAddWidth@@KGPBUAFX_MSGMAP@@XZ 005283d0 f   DlgAddWidth.obj
 0002:00031410       ?_GetBaseClass@DlgAreaLayer@@KGPAUCRuntimeClass@@XZ 00528410 f   DlgAreaLayer.obj
 0002:00031460       ?GetThisClass@DlgAreaLayer@@SGPAUCRuntimeClass@@XZ 00528460 f   DlgAreaLayer.obj
 0002:000314a0       ?GetRuntimeClass@DlgAreaLayer@@UBEPAUCRuntimeClass@@XZ 005284a0 f   DlgAreaLayer.obj
 0002:000314e0       ??0DlgAreaLayer@@QAE@PAVCWnd@@@Z 005284e0 f   DlgAreaLayer.obj
 0002:000315b0       ??_EDlgAreaLayer@@UAEPAXI@Z 005285b0 f i DlgAreaLayer.obj
 0002:000315b0       ??_GDlgAreaLayer@@UAEPAXI@Z 005285b0 f i DlgAreaLayer.obj
 0002:00031620       ??1DlgAreaLayer@@UAE@XZ    00528620 f   DlgAreaLayer.obj
 0002:000316e0       ?DoDataExchange@DlgAreaLayer@@MAEXPAVCDataExchange@@@Z 005286e0 f   DlgAreaLayer.obj
 0002:00031800       ?GetMessageMap@DlgAreaLayer@@MBEPBUAFX_MSGMAP@@XZ 00528800 f   DlgAreaLayer.obj
 0002:00031850       ?GetThisMessageMap@DlgAreaLayer@@KGPBUAFX_MSGMAP@@XZ 00528850 f   DlgAreaLayer.obj
 0002:00031890       ?Initialize@DlgAreaLayer@@QAEXH@Z 00528890 f   DlgAreaLayer.obj
 0002:000318e0       ?_GetBaseClass@DlgAssignNet@@KGPAUCRuntimeClass@@XZ 005288e0 f   DlgAssignNet.obj
 0002:00031930       ?GetThisClass@DlgAssignNet@@SGPAUCRuntimeClass@@XZ 00528930 f   DlgAssignNet.obj
 0002:00031970       ?GetRuntimeClass@DlgAssignNet@@UBEPAUCRuntimeClass@@XZ 00528970 f   DlgAssignNet.obj
 0002:000319b0       ??0DlgAssignNet@@QAE@PAVCWnd@@@Z 005289b0 f   DlgAssignNet.obj
 0002:00031b30       ??_EDlgAssignNet@@UAEPAXI@Z 00528b30 f i DlgAssignNet.obj
 0002:00031b30       ??_GDlgAssignNet@@UAEPAXI@Z 00528b30 f i DlgAssignNet.obj
 0002:00031ba0       ??1DlgAssignNet@@UAE@XZ    00528ba0 f   DlgAssignNet.obj
 0002:00031ca0       ?DoDataExchange@DlgAssignNet@@MAEXPAVCDataExchange@@@Z 00528ca0 f   DlgAssignNet.obj
 0002:000324c0       ?GetMessageMap@DlgAssignNet@@MBEPBUAFX_MSGMAP@@XZ 005294c0 f   DlgAssignNet.obj
 0002:00032510       ?GetThisMessageMap@DlgAssignNet@@KGPBUAFX_MSGMAP@@XZ 00529510 f   DlgAssignNet.obj
 0002:00032550       ?OnBnClickedButtonNewNet@DlgAssignNet@@QAEXXZ 00529550 f   DlgAssignNet.obj
 0002:00032730       ?OnBnClickedCancel@DlgAssignNet@@QAEXXZ 00529730 f   DlgAssignNet.obj
 0002:000327b0       ??HATL@@YA?AV?$CStringT@DV?$StrTraitMFC_DLL@DV?$ChTraitsCRT@D@ATL@@@@@0@ABV10@PBD@Z 005297b0 f i DlgAssignNet.obj
 0002:00032960       ??HATL@@YA?AV?$CStringT@DV?$StrTraitMFC_DLL@DV?$ChTraitsCRT@D@ATL@@@@@0@PBDABV10@@Z 00529960 f i DlgAssignNet.obj
 0002:00032b10       ??A?$CArray@Vcpin@@ABV1@@@QAEAAVcpin@@H@Z 00529b10 f i DlgAssignNet.obj
 0002:00032b70       ?ElementAt@?$CArray@Vcpin@@ABV1@@@QAEAAVcpin@@H@Z 00529b70 f i DlgAssignNet.obj
 0002:00032c20       ?_GetBaseClass@CDlgCAD@@KGPAUCRuntimeClass@@XZ 00529c20 f   DlgCAD.obj
 0002:00032c70       ?GetThisClass@CDlgCAD@@SGPAUCRuntimeClass@@XZ 00529c70 f   DlgCAD.obj
 0002:00032cb0       ?GetRuntimeClass@CDlgCAD@@UBEPAUCRuntimeClass@@XZ 00529cb0 f   DlgCAD.obj
 0002:00032cf0       ??0CDlgCAD@@QAE@PAVCWnd@@@Z 00529cf0 f   DlgCAD.obj
 0002:00033360       ??_GCDlgCAD@@UAEPAXI@Z     0052a360 f i DlgCAD.obj
 0002:00033360       ??_ECDlgCAD@@UAEPAXI@Z     0052a360 f i DlgCAD.obj
 0002:000333d0       ??1CDlgCAD@@UAE@XZ         0052a3d0 f   DlgCAD.obj
 0002:000339d0       ?DoDataExchange@CDlgCAD@@MAEXPAVCDataExchange@@@Z 0052a9d0 f   DlgCAD.obj
 0002:00034b60       ?GetMessageMap@CDlgCAD@@MBEPBUAFX_MSGMAP@@XZ 0052bb60 f   DlgCAD.obj
 0002:00034bb0       ?GetThisMessageMap@CDlgCAD@@KGPBUAFX_MSGMAP@@XZ 0052bbb0 f   DlgCAD.obj
 0002:00034bf0       ?Initialize@CDlgCAD@@QAEXNPAV?$CStringT@DV?$StrTraitMFC_DLL@DV?$ChTraitsCRT@D@ATL@@@@@ATL@@000HHHHHHHHHHHHHHHHHHHHHPAV?$CArray@VCPolyLine@@ABV1@@@PAHPAVCPartList@@PAVCNetList@@PAVCTextList@@PAVCDisplayList@@PAVMerge@@PAVCDlgLog@@@Z 0052bbf0 f   DlgCAD.obj
 0002:00034f70       ?OnBnClickedGo@CDlgCAD@@QAEXXZ 0052bf70 f   DlgCAD.obj
 0002:00037cf0       ?GetFields@CDlgCAD@@QAEXXZ 0052ecf0 f   DlgCAD.obj
 0002:00038de0       ?SetFields@CDlgCAD@@QAEXXZ 0052fde0 f   DlgCAD.obj
 0002:00039300       ?OnCbnSelchangeComboCadUnits@CDlgCAD@@QAEXXZ 00530300 f   DlgCAD.obj
 0002:000393a0       ?OnBnClickedCheckCadPilot@CDlgCAD@@QAEXXZ 005303a0 f   DlgCAD.obj
 0002:00039430       ?OnBnClickedCancel@CDlgCAD@@QAEXXZ 00530430 f   DlgCAD.obj
 0002:000394a0       ?OnBnClickedButtonDef@CDlgCAD@@QAEXXZ 005304a0 f   DlgCAD.obj
 0002:00039c10       ?OnBnClickedButtonFolder@CDlgCAD@@QAEXXZ 00530c10 f   DlgCAD.obj
 0002:00039e90       ?OnBnClickedThermalPins@CDlgCAD@@QAEXXZ 00530e90 f   DlgCAD.obj
 0002:00039f30       ?OnBnClickedThermalVias@CDlgCAD@@QAEXXZ 00530f30 f   DlgCAD.obj
 0002:00039f80       ?OnBnClickedRenderAllGerbers@CDlgCAD@@QAEXXZ 00530f80 f   DlgCAD.obj
 0002:00039ff0       ?OnBnClickedButtonDone@CDlgCAD@@QAEXXZ 00530ff0 f   DlgCAD.obj
 0002:0003a060       ?SetPinAnnularRing@CPartList@@QAEXH@Z 00531060 f i DlgCAD.obj
 0002:0003a0b0       ?SetViaAnnularRing@CNetList@@QAEXH@Z 005310b0 f i DlgCAD.obj
 0002:0003a100       ?_GetBaseClass@CDlgCentroid@@KGPAUCRuntimeClass@@XZ 00531100 f   DlgCentroid.obj
 0002:0003a150       ?GetThisClass@CDlgCentroid@@SGPAUCRuntimeClass@@XZ 00531150 f   DlgCentroid.obj
 0002:0003a190       ?GetRuntimeClass@CDlgCentroid@@UBEPAUCRuntimeClass@@XZ 00531190 f   DlgCentroid.obj
 0002:0003a1d0       ??0CDlgCentroid@@QAE@PAVCWnd@@@Z 005311d0 f   DlgCentroid.obj
 0002:0003a310       ??_GCDlgCentroid@@UAEPAXI@Z 00531310 f i DlgCentroid.obj
 0002:0003a310       ??_ECDlgCentroid@@UAEPAXI@Z 00531310 f i DlgCentroid.obj
 0002:0003a380       ??1CDlgCentroid@@UAE@XZ    00531380 f   DlgCentroid.obj
 0002:0003a4b0       ?DoDataExchange@CDlgCentroid@@MAEXPAVCDataExchange@@@Z 005314b0 f   DlgCentroid.obj
 0002:0003a680       ?GetMessageMap@CDlgCentroid@@MBEPBUAFX_MSGMAP@@XZ 00531680 f   DlgCentroid.obj
 0002:0003a6d0       ?GetThisMessageMap@CDlgCentroid@@KGPBUAFX_MSGMAP@@XZ 005316d0 f   DlgCentroid.obj
 0002:0003a710       ?Initialize@CDlgCentroid@@QAEXW4CENTROID_TYPE@@HHHH@Z 00531710 f   DlgCentroid.obj
 0002:0003a7a0       ?SetFields@CDlgCentroid@@QAEXXZ 005317a0 f   DlgCentroid.obj
 0002:0003aa90       ?GetFields@CDlgCentroid@@QAEXXZ 00531a90 f   DlgCentroid.obj
 0002:0003ac70       ?OnBnClickedDefault@CDlgCentroid@@QAEXXZ 00531c70 f   DlgCentroid.obj
 0002:0003ace0       ?OnBnClickedSet@CDlgCentroid@@QAEXXZ 00531ce0 f   DlgCentroid.obj
 0002:0003ad50       ?OnCbnSelChangeCombo1@CDlgCentroid@@QAEXXZ 00531d50 f   DlgCentroid.obj
 0002:0003adf0       ?_GetBaseClass@CDlgChangeLayer@@KGPAUCRuntimeClass@@XZ 00531df0 f   DlgChangeLayer.obj
 0002:0003ae40       ?GetThisClass@CDlgChangeLayer@@SGPAUCRuntimeClass@@XZ 00531e40 f   DlgChangeLayer.obj
 0002:0003ae80       ?GetRuntimeClass@CDlgChangeLayer@@UBEPAUCRuntimeClass@@XZ 00531e80 f   DlgChangeLayer.obj
 0002:0003aec0       ??0CDlgChangeLayer@@QAE@PAVCWnd@@@Z 00531ec0 f   DlgChangeLayer.obj
 0002:0003afd0       ??_GCDlgChangeLayer@@UAEPAXI@Z 00531fd0 f i DlgChangeLayer.obj
 0002:0003afd0       ??_ECDlgChangeLayer@@UAEPAXI@Z 00531fd0 f i DlgChangeLayer.obj
 0002:0003b040       ??1CDlgChangeLayer@@UAE@XZ 00532040 f   DlgChangeLayer.obj
 0002:0003b140       ?DoDataExchange@CDlgChangeLayer@@MAEXPAVCDataExchange@@@Z 00532140 f   DlgChangeLayer.obj
 0002:0003b3b0       ?GetMessageMap@CDlgChangeLayer@@MBEPBUAFX_MSGMAP@@XZ 005323b0 f   DlgChangeLayer.obj
 0002:0003b400       ?GetThisMessageMap@CDlgChangeLayer@@KGPBUAFX_MSGMAP@@XZ 00532400 f   DlgChangeLayer.obj
 0002:0003b440       ?Initialize@CDlgChangeLayer@@QAEXHHH@Z 00532440 f   DlgChangeLayer.obj
 0002:0003b4a0       ?_GetBaseClass@CDlgChooseNetName@@KGPAUCRuntimeClass@@XZ 005324a0 f   DlgChooseNetName.obj
 0002:0003b4f0       ?GetThisClass@CDlgChooseNetName@@SGPAUCRuntimeClass@@XZ 005324f0 f   DlgChooseNetName.obj
 0002:0003b530       ?GetRuntimeClass@CDlgChooseNetName@@UBEPAUCRuntimeClass@@XZ 00532530 f   DlgChooseNetName.obj
 0002:0003b570       ??0CDlgChooseNetName@@QAE@PAVCWnd@@@Z 00532570 f   DlgChooseNetName.obj
 0002:0003b660       ??_GCDlgChooseNetName@@UAEPAXI@Z 00532660 f i DlgChooseNetName.obj
 0002:0003b660       ??_ECDlgChooseNetName@@UAEPAXI@Z 00532660 f i DlgChooseNetName.obj
 0002:0003b6d0       ??1CDlgChooseNetName@@UAE@XZ 005326d0 f   DlgChooseNetName.obj
 0002:0003b7a0       ?DoDataExchange@CDlgChooseNetName@@MAEXPAVCDataExchange@@@Z 005327a0 f   DlgChooseNetName.obj
 0002:0003b980       ?Initialize@CDlgChooseNetName@@QAEXPAV?$CArray@V?$CStringT@DV?$StrTraitMFC_DLL@DV?$ChTraitsCRT@D@ATL@@@@@ATL@@ABV12@@@@Z 00532980 f   DlgChooseNetName.obj
 0002:0003b9d0       ?GetMessageMap@CDlgChooseNetName@@MBEPBUAFX_MSGMAP@@XZ 005329d0 f   DlgChooseNetName.obj
 0002:0003ba20       ?GetThisMessageMap@CDlgChooseNetName@@KGPBUAFX_MSGMAP@@XZ 00532a20 f   DlgChooseNetName.obj
 0002:0003ba60       ?_GetBaseClass@DlgDRC@@KGPAUCRuntimeClass@@XZ 00532a60 f   DlgDRC.obj
 0002:0003bab0       ?GetThisClass@DlgDRC@@SGPAUCRuntimeClass@@XZ 00532ab0 f   DlgDRC.obj
 0002:0003baf0       ?GetRuntimeClass@DlgDRC@@UBEPAUCRuntimeClass@@XZ 00532af0 f   DlgDRC.obj
 0002:0003bb30       ??0DlgDRC@@QAE@PAVCWnd@@@Z 00532b30 f   DlgDRC.obj
 0002:0003bd30       ??_EDlgDRC@@UAEPAXI@Z      00532d30 f i DlgDRC.obj
 0002:0003bd30       ??_GDlgDRC@@UAEPAXI@Z      00532d30 f i DlgDRC.obj
 0002:0003bda0       ??1DlgDRC@@UAE@XZ          00532da0 f   DlgDRC.obj
 0002:0003bf80       ?DoDataExchange@DlgDRC@@MAEXPAVCDataExchange@@@Z 00532f80 f   DlgDRC.obj
 0002:0003c1d0       ?GetMessageMap@DlgDRC@@MBEPBUAFX_MSGMAP@@XZ 005331d0 f   DlgDRC.obj
 0002:0003c220       ?GetThisMessageMap@DlgDRC@@KGPBUAFX_MSGMAP@@XZ 00533220 f   DlgDRC.obj
 0002:0003c260       ?Initialize@DlgDRC@@QAEXHPAUDesignRules@@PAVCPartList@@PAVCNetList@@PAVCTextList@@PAVDRErrorList@@HPAV?$CArray@VCPolyLine@@ABV1@@@HHPAVCDlgLog@@V?$CStringT@DV?$StrTraitMFC_DLL@DV?$ChTraitsCRT@D@ATL@@@@@ATL@@@Z 00533260 f   DlgDRC.obj
 0002:0003c400       ?GetFields@DlgDRC@@QAEXXZ  00533400 f   DlgDRC.obj
 0002:0003cd40       ?SetFields@DlgDRC@@QAEXXZ  00533d40 f   DlgDRC.obj
 0002:0003d580       ?OnCbnChangeUnits@DlgDRC@@QAEXXZ 00534580 f   DlgDRC.obj
 0002:0003d6e0       ?CheckDesign@DlgDRC@@QAEXXZ 005346e0 f   DlgDRC.obj
 0002:0003db00       ?OnBnClickedCancel@DlgDRC@@QAEXXZ 00534b00 f   DlgDRC.obj
 0002:0003db70       ?OnBnClickedOk@DlgDRC@@QAEXXZ 00534b70 f   DlgDRC.obj
 0002:0003dc00       ?OnBnClickedCheck@DlgDRC@@QAEXXZ 00534c00 f   DlgDRC.obj
 0002:0003dc50       ?_GetBaseClass@CDlgDupFootprintName@@KGPAUCRuntimeClass@@XZ 00534c50 f   DlgDupFootprintName.obj
 0002:0003dca0       ?GetThisClass@CDlgDupFootprintName@@SGPAUCRuntimeClass@@XZ 00534ca0 f   DlgDupFootprintName.obj
 0002:0003dce0       ?GetRuntimeClass@CDlgDupFootprintName@@UBEPAUCRuntimeClass@@XZ 00534ce0 f   DlgDupFootprintName.obj
 0002:0003dd20       ??0CDlgDupFootprintName@@QAE@PAVCWnd@@@Z 00534d20 f   DlgDupFootprintName.obj
 0002:0003de50       ??_GCDlgDupFootprintName@@UAEPAXI@Z 00534e50 f i DlgDupFootprintName.obj
 0002:0003de50       ??_ECDlgDupFootprintName@@UAEPAXI@Z 00534e50 f i DlgDupFootprintName.obj
 0002:0003dec0       ??1CDlgDupFootprintName@@UAE@XZ 00534ec0 f   DlgDupFootprintName.obj
 0002:0003dfe0       ?DoDataExchange@CDlgDupFootprintName@@MAEXPAVCDataExchange@@@Z 00534fe0 f   DlgDupFootprintName.obj
 0002:0003e230       ?GetMessageMap@CDlgDupFootprintName@@MBEPBUAFX_MSGMAP@@XZ 00535230 f   DlgDupFootprintName.obj
 0002:0003e280       ?GetThisMessageMap@CDlgDupFootprintName@@KGPBUAFX_MSGMAP@@XZ 00535280 f   DlgDupFootprintName.obj
 0002:0003e2c0       ?Initialize@CDlgDupFootprintName@@QAEXPAV?$CStringT@DV?$StrTraitMFC_DLL@DV?$ChTraitsCRT@D@ATL@@@@@ATL@@PAVCMapStringToPtr@@@Z 005352c0 f   DlgDupFootprintName.obj
 0002:0003e320       ?OnBnClickedRadioReplaceAll@CDlgDupFootprintName@@QAEXXZ 00535320 f   DlgDupFootprintName.obj
 0002:0003e380       ?OnBnClickedRadioReplaceThis@CDlgDupFootprintName@@QAEXXZ 00535380 f   DlgDupFootprintName.obj
 0002:0003e3e0       ?OnBnClickedOk@CDlgDupFootprintName@@QAEXXZ 005353e0 f   DlgDupFootprintName.obj
 0002:0003e460       ?_GetBaseClass@DlgEditBoardCorner@@KGPAUCRuntimeClass@@XZ 00535460 f   DlgEditBoardCorner.obj
 0002:0003e4b0       ?GetThisClass@DlgEditBoardCorner@@SGPAUCRuntimeClass@@XZ 005354b0 f   DlgEditBoardCorner.obj
 0002:0003e4f0       ?GetRuntimeClass@DlgEditBoardCorner@@UBEPAUCRuntimeClass@@XZ 005354f0 f   DlgEditBoardCorner.obj
 0002:0003e530       ??0DlgEditBoardCorner@@QAE@PAVCWnd@@@Z 00535530 f   DlgEditBoardCorner.obj
 0002:0003e670       ??_EDlgEditBoardCorner@@UAEPAXI@Z 00535670 f i DlgEditBoardCorner.obj
 0002:0003e670       ??_GDlgEditBoardCorner@@UAEPAXI@Z 00535670 f i DlgEditBoardCorner.obj
 0002:0003e6e0       ??1DlgEditBoardCorner@@UAE@XZ 005356e0 f   DlgEditBoardCorner.obj
 0002:0003e7c0       ?DoDataExchange@DlgEditBoardCorner@@MAEXPAVCDataExchange@@@Z 005357c0 f   DlgEditBoardCorner.obj
 0002:0003e940       ?Init@DlgEditBoardCorner@@QAEXPAV?$CStringT@DV?$StrTraitMFC_DLL@DV?$ChTraitsCRT@D@ATL@@@@@ATL@@HHH@Z 00535940 f   DlgEditBoardCorner.obj
 0002:0003e9c0       ?GetMessageMap@DlgEditBoardCorner@@MBEPBUAFX_MSGMAP@@XZ 005359c0 f   DlgEditBoardCorner.obj
 0002:0003ea10       ?GetThisMessageMap@DlgEditBoardCorner@@KGPBUAFX_MSGMAP@@XZ 00535a10 f   DlgEditBoardCorner.obj
 0002:0003ea50       ?OnCbnSelchangeComboCornerUnits@DlgEditBoardCorner@@QAEXXZ 00535a50 f   DlgEditBoardCorner.obj
 0002:0003eaf0       ?GetFields@DlgEditBoardCorner@@AAEXXZ 00535af0 f   DlgEditBoardCorner.obj
 0002:0003ed10       ?SetFields@DlgEditBoardCorner@@AAEXXZ 00535d10 f   DlgEditBoardCorner.obj
 0002:0003ef70       ?_GetBaseClass@CDlgEditNet@@KGPAUCRuntimeClass@@XZ 00535f70 f   DlgEditNet.obj
 0002:0003efc0       ?GetThisClass@CDlgEditNet@@SGPAUCRuntimeClass@@XZ 00535fc0 f   DlgEditNet.obj
 0002:0003f000       ?GetRuntimeClass@CDlgEditNet@@UBEPAUCRuntimeClass@@XZ 00536000 f   DlgEditNet.obj
 0002:0003f040       ??0CDlgEditNet@@QAE@PAVCWnd@@@Z 00536040 f   DlgEditNet.obj
 0002:0003f270       ??_GCDlgEditNet@@UAEPAXI@Z 00536270 f i DlgEditNet.obj
 0002:0003f270       ??_ECDlgEditNet@@UAEPAXI@Z 00536270 f i DlgEditNet.obj
 0002:0003f2e0       ??1CDlgEditNet@@UAE@XZ     005362e0 f   DlgEditNet.obj
 0002:0003f4d0       ?DoDataExchange@CDlgEditNet@@MAEXPAVCDataExchange@@@Z 005364d0 f   DlgEditNet.obj
 0002:000403d0       ?Initialize@CDlgEditNet@@QAEXPAV?$CArray@Unet_info@@ABU1@@@HPAVCPartList@@HHHHPAV?$CArray@HABH@@22PAV?$CStringT@DV?$StrTraitMFC_DLL@DV?$ChTraitsCRT@D@ATL@@@@@ATL@@@Z 005373d0 f   DlgEditNet.obj
 0002:000405f0       ?GetMessageMap@CDlgEditNet@@MBEPBUAFX_MSGMAP@@XZ 005375f0 f   DlgEditNet.obj
 0002:00040640       ?GetThisMessageMap@CDlgEditNet@@KGPBUAFX_MSGMAP@@XZ 00537640 f   DlgEditNet.obj
 0002:00040680       ?OnBnClickedRadioDefWidth@CDlgEditNet@@IAEXXZ 00537680 f   DlgEditNet.obj
 0002:000407e0       ?OnBnClickedRadioSetWidth@CDlgEditNet@@IAEXXZ 005377e0 f   DlgEditNet.obj
 0002:00040850       ?OnBnClickedButtonDelete@CDlgEditNet@@IAEXXZ 00537850 f   DlgEditNet.obj
 0002:00040c60       ?OnBnClickedButtonAdd@CDlgEditNet@@IAEXXZ 00537c60 f   DlgEditNet.obj
 0002:000417e0       ?OnInitDialog@CDlgEditNet@@MAEHXZ 005387e0 f   DlgEditNet.obj
 0002:00041d80       ?OnCbnSelchangeComboWidth@CDlgEditNet@@IAEXXZ 00538d80 f   DlgEditNet.obj
 0002:00041ee0       ?OnCbnEditchangeComboWidth@CDlgEditNet@@IAEXXZ 00538ee0 f   DlgEditNet.obj
 0002:00042020       ?ChangeTraceWidth@CDlgEditNet@@IAEXV?$CStringT@DV?$StrTraitMFC_DLL@DV?$ChTraitsCRT@D@ATL@@@@@ATL@@@Z 00539020 f   DlgEditNet.obj
 0002:00042620       ?SetFields@CDlgEditNet@@QAEXXZ 00539620 f   DlgEditNet.obj
 0002:00042660       ?GetFields@CDlgEditNet@@QAEXXZ 00539660 f   DlgEditNet.obj
 0002:000426a0       ?OnEnUpdateEditAddPin@CDlgEditNet@@QAEXXZ 005396a0 f   DlgEditNet.obj
 0002:00042720       ?OnBnClickedOk@CDlgEditNet@@QAEXXZ 00539720 f   DlgEditNet.obj
 0002:00042890       ?RemoveAt@?$CArray@V?$CStringT@DV?$StrTraitMFC_DLL@DV?$ChTraitsCRT@D@ATL@@@@@ATL@@ABV12@@@QAEXHH@Z 00539890 f i DlgEditNet.obj
 0002:00042a60       ?GetSize@?$CArray@HABH@@QBEHXZ 00539a60 f i DlgEditNet.obj
 0002:00042aa0       ?GetSize@?$CArray@Unet_info@@ABU1@@@QBEHXZ 00539aa0 f i DlgEditNet.obj
 0002:00042ae0       ?SetSize@?$CArray@Unet_info@@ABU1@@@QAEXHH@Z 00539ae0 f i DlgEditNet.obj
 0002:000431e0       ??A?$CArray@Unet_info@@ABU1@@@QAEAAUnet_info@@H@Z 0053a1e0 f i DlgEditNet.obj
 0002:00043240       ??0?$CArray@HH@@QAE@XZ     0053a240 f i DlgEditNet.obj
 0002:000432d0       ?SetSize@?$CArray@HH@@QAEXHH@Z 0053a2d0 f i DlgEditNet.obj
 0002:00043860       ?GetData@?$CArray@HH@@QAEPAHXZ 0053a860 f i DlgEditNet.obj
 0002:000438a0       ??A?$CArray@HH@@QAEAAHH@Z  0053a8a0 f i DlgEditNet.obj
 0002:00043900       ??1?$CArray@HH@@UAE@XZ     0053a900 f i DlgEditNet.obj
 0002:00043a10       ?Serialize@?$CArray@HH@@UAEXAAVCArchive@@@Z 0053aa10 f i DlgEditNet.obj
 0002:00043ae0       ?Dump@?$CArray@HH@@UBEXAAVCDumpContext@@@Z 0053aae0 f i DlgEditNet.obj
 0002:00043bc0       ?AssertValid@?$CArray@HH@@UBEXXZ 0053abc0 f i DlgEditNet.obj
 0002:00043d20       ??_Gnet_info@@QAEPAXI@Z    0053ad20 f i DlgEditNet.obj
 0002:00043d90       ??0net_info@@QAE@XZ        0053ad90 f i DlgEditNet.obj
 0002:00043e60       ??_G?$CArray@HH@@UAEPAXI@Z 0053ae60 f i DlgEditNet.obj
 0002:00043e60       ??_E?$CArray@HH@@UAEPAXI@Z 0053ae60 f i DlgEditNet.obj
 0002:00043ed0       ??1net_info@@QAE@XZ        0053aed0 f i DlgEditNet.obj
 0002:00043fa0       ?ElementAt@?$CArray@Unet_info@@ABU1@@@QAEAAUnet_info@@H@Z 0053afa0 f i DlgEditNet.obj
 0002:00044050       ?ElementAt@?$CArray@HH@@QAEAAHH@Z 0053b050 f i DlgEditNet.obj
 0002:00044100       ??A?$CArray@HABH@@QAEAAHH@Z 0053b100 f i DlgEditNet.obj
 0002:00044160       ?ElementAt@?$CArray@HABH@@QAEAAHH@Z 0053b160 f i DlgEditNet.obj
 0002:00044210       ??$SerializeElements@H@@YGXAAVCArchive@@PAHH@Z 0053b210 f i DlgEditNet.obj
 0002:00044400       ??$DumpElements@H@@YGXAAVCDumpContext@@PBHH@Z 0053b400 f i DlgEditNet.obj
 0002:000444f0       ?_GetBaseClass@CDlgExportDsn@@KGPAUCRuntimeClass@@XZ 0053b4f0 f   DlgExportDsn.obj
 0002:00044540       ?GetThisClass@CDlgExportDsn@@SGPAUCRuntimeClass@@XZ 0053b540 f   DlgExportDsn.obj
 0002:00044580       ?GetRuntimeClass@CDlgExportDsn@@UBEPAUCRuntimeClass@@XZ 0053b580 f   DlgExportDsn.obj
 0002:000445c0       ??0CDlgExportDsn@@QAE@PAVCWnd@@@Z 0053b5c0 f   DlgExportDsn.obj
 0002:00044770       ??_GCDlgExportDsn@@UAEPAXI@Z 0053b770 f i DlgExportDsn.obj
 0002:00044770       ??_ECDlgExportDsn@@UAEPAXI@Z 0053b770 f i DlgExportDsn.obj
 0002:000447e0       ??1CDlgExportDsn@@UAE@XZ   0053b7e0 f   DlgExportDsn.obj
 0002:00044960       ?DoDataExchange@CDlgExportDsn@@MAEXPAVCDataExchange@@@Z 0053b960 f   DlgExportDsn.obj
 0002:00044f10       ?GetMessageMap@CDlgExportDsn@@MBEPBUAFX_MSGMAP@@XZ 0053bf10 f   DlgExportDsn.obj
 0002:00044f60       ?GetThisMessageMap@CDlgExportDsn@@KGPBUAFX_MSGMAP@@XZ 0053bf60 f   DlgExportDsn.obj
 0002:00044fa0       ?Initialize@CDlgExportDsn@@QAEXPAV?$CStringT@DV?$StrTraitMFC_DLL@DV?$ChTraitsCRT@D@ATL@@@@@ATL@@HHHH@Z 0053bfa0 f   DlgExportDsn.obj
 0002:00045050       ?OnBnClickedOk@CDlgExportDsn@@QAEXXZ 0053c050 f   DlgExportDsn.obj
 0002:000450c0       ?OnBnClickedCheckFromTo@CDlgExportDsn@@QAEXXZ 0053c0c0 f   DlgExportDsn.obj
 0002:000451b0       ?OnBnClickedRadioAll@CDlgExportDsn@@QAEXXZ 0053c1b0 f   DlgExportDsn.obj
 0002:000451f0       ?OnBnClickedRadioLocked@CDlgExportDsn@@QAEXXZ 0053c1f0 f   DlgExportDsn.obj
 0002:00045230       ?OnBnClickedRadioNetLocked@CDlgExportDsn@@QAEXXZ 0053c230 f   DlgExportDsn.obj
 0002:00045270       ?_GetBaseClass@CDlgFindPart@@KGPAUCRuntimeClass@@XZ 0053c270 f   DlgFindPart.obj
 0002:000452c0       ?GetThisClass@CDlgFindPart@@SGPAUCRuntimeClass@@XZ 0053c2c0 f   DlgFindPart.obj
 0002:00045300       ?GetRuntimeClass@CDlgFindPart@@UBEPAUCRuntimeClass@@XZ 0053c300 f   DlgFindPart.obj
 0002:00045340       ??0CDlgFindPart@@QAE@PAVCWnd@@@Z 0053c340 f   DlgFindPart.obj
 0002:00045430       ??_ECDlgFindPart@@UAEPAXI@Z 0053c430 f i DlgFindPart.obj
 0002:00045430       ??_GCDlgFindPart@@UAEPAXI@Z 0053c430 f i DlgFindPart.obj
 0002:000454a0       ??1CDlgFindPart@@UAE@XZ    0053c4a0 f   DlgFindPart.obj
 0002:00045570       ?DoDataExchange@CDlgFindPart@@MAEXPAVCDataExchange@@@Z 0053c570 f   DlgFindPart.obj
 0002:00045680       ?GetMessageMap@CDlgFindPart@@MBEPBUAFX_MSGMAP@@XZ 0053c680 f   DlgFindPart.obj
 0002:000456d0       ?GetThisMessageMap@CDlgFindPart@@KGPBUAFX_MSGMAP@@XZ 0053c6d0 f   DlgFindPart.obj
 0002:00045710       ?Initialize@CDlgFindPart@@QAEXPAVCPartList@@@Z 0053c710 f   DlgFindPart.obj
 0002:00045760       ?_GetBaseClass@CDlgFpRefText@@KGPAUCRuntimeClass@@XZ 0053c760 f   DlgFpRefText.obj
 0002:000457b0       ?GetThisClass@CDlgFpRefText@@SGPAUCRuntimeClass@@XZ 0053c7b0 f   DlgFpRefText.obj
 0002:000457f0       ?GetRuntimeClass@CDlgFpRefText@@UBEPAUCRuntimeClass@@XZ 0053c7f0 f   DlgFpRefText.obj
 0002:00045830       ??0CDlgFpRefText@@QAE@PAVCWnd@@@Z 0053c830 f   DlgFpRefText.obj
 0002:00045970       ??_ECDlgFpRefText@@UAEPAXI@Z 0053c970 f i DlgFpRefText.obj
 0002:00045970       ??_GCDlgFpRefText@@UAEPAXI@Z 0053c970 f i DlgFpRefText.obj
 0002:000459e0       ??1CDlgFpRefText@@UAE@XZ   0053c9e0 f   DlgFpRefText.obj
 0002:00045b10       ?Initialize@CDlgFpRefText@@QAEXHHH@Z 0053cb10 f   DlgFpRefText.obj
 0002:00045b80       ?DoDataExchange@CDlgFpRefText@@MAEXPAVCDataExchange@@@Z 0053cb80 f   DlgFpRefText.obj
 0002:00045d80       ?GetMessageMap@CDlgFpRefText@@MBEPBUAFX_MSGMAP@@XZ 0053cd80 f   DlgFpRefText.obj
 0002:00045dd0       ?GetThisMessageMap@CDlgFpRefText@@KGPBUAFX_MSGMAP@@XZ 0053cdd0 f   DlgFpRefText.obj
 0002:00045e10       ?OnBnClickedRadioSet@CDlgFpRefText@@AAEXXZ 0053ce10 f   DlgFpRefText.obj
 0002:00045e70       ?OnBnClickedRadioDef@CDlgFpRefText@@AAEXXZ 0053ce70 f   DlgFpRefText.obj
 0002:00045ed0       ?OnCbnSelchangeComboRefTextUnits@CDlgFpRefText@@AAEXXZ 0053ced0 f   DlgFpRefText.obj
 0002:00045f70       ?OnEnChangeEditCharHeight@CDlgFpRefText@@AAEXXZ 0053cf70 f   DlgFpRefText.obj
 0002:00046220       ?GetFields@CDlgFpRefText@@AAEXXZ 0053d220 f   DlgFpRefText.obj
 0002:000464c0       ?SetFields@CDlgFpRefText@@AAEXXZ 0053d4c0 f   DlgFpRefText.obj
 0002:00046830       ?_GetBaseClass@CDlgFpText@@KGPAUCRuntimeClass@@XZ 0053d830 f   DlgFpText.obj
 0002:00046880       ?GetThisClass@CDlgFpText@@SGPAUCRuntimeClass@@XZ 0053d880 f   DlgFpText.obj
 0002:000468c0       ?GetRuntimeClass@CDlgFpText@@UBEPAUCRuntimeClass@@XZ 0053d8c0 f   DlgFpText.obj
 0002:00046900       ??0CDlgFpText@@QAE@PAVCWnd@@@Z 0053d900 f   DlgFpText.obj
 0002:00046af0       ??_ECDlgFpText@@UAEPAXI@Z  0053daf0 f i DlgFpText.obj
 0002:00046af0       ??_GCDlgFpText@@UAEPAXI@Z  0053daf0 f i DlgFpText.obj
 0002:00046b60       ??1CDlgFpText@@UAE@XZ      0053db60 f   DlgFpText.obj
 0002:00046d20       ?DoDataExchange@CDlgFpText@@MAEXPAVCDataExchange@@@Z 0053dd20 f   DlgFpText.obj
 0002:000470b0       ?GetMessageMap@CDlgFpText@@MBEPBUAFX_MSGMAP@@XZ 0053e0b0 f   DlgFpText.obj
 0002:00047100       ?GetThisMessageMap@CDlgFpText@@KGPBUAFX_MSGMAP@@XZ 0053e100 f   DlgFpText.obj
 0002:00047140       ?Initialize@CDlgFpText@@QAEXHHPAV?$CStringT@DV?$StrTraitMFC_DLL@DV?$ChTraitsCRT@D@ATL@@@@@ATL@@HHHHHH@Z 0053e140 f   DlgFpText.obj
 0002:000472a0       ?OnInitDialog@CDlgFpText@@UAEHXZ 0053e2a0 f   DlgFpText.obj
 0002:00047770       ?OnBnClickedSetWidth@CDlgFpText@@QAEXXZ 0053e770 f   DlgFpText.obj
 0002:000477f0       ?OnBnClickedDefWidth@CDlgFpText@@QAEXXZ 0053e7f0 f   DlgFpText.obj
 0002:00047880       ?OnEnChangeEditHeight@CDlgFpText@@QAEXXZ 0053e880 f   DlgFpText.obj
 0002:00047b20       ?OnBnClickedOk@CDlgFpText@@QAEXXZ 0053eb20 f   DlgFpText.obj
 0002:00047b90       ?OnBnClickedSetPosition@CDlgFpText@@QAEXXZ 0053eb90 f   DlgFpText.obj
 0002:00047c30       ?OnBnClickedDrag@CDlgFpText@@QAEXXZ 0053ec30 f   DlgFpText.obj
 0002:00047cd0       ?OnCbnSelchangeComboAddTextUnits@CDlgFpText@@QAEXXZ 0053ecd0 f   DlgFpText.obj
 0002:00047d90       ?GetFields@CDlgFpText@@QAEXXZ 0053ed90 f   DlgFpText.obj
 0002:00048010       ?SetFields@CDlgFpText@@QAEXXZ 0053f010 f   DlgFpText.obj
 0002:00048260       ?_GetBaseClass@CDlgGlue@@KGPAUCRuntimeClass@@XZ 0053f260 f   DlgGlue.obj
 0002:000482b0       ?GetThisClass@CDlgGlue@@SGPAUCRuntimeClass@@XZ 0053f2b0 f   DlgGlue.obj
 0002:000482f0       ?GetRuntimeClass@CDlgGlue@@UBEPAUCRuntimeClass@@XZ 0053f2f0 f   DlgGlue.obj
 0002:00048330       ??0CDlgGlue@@QAE@PAVCWnd@@@Z 0053f330 f   DlgGlue.obj
 0002:000484b0       ??_ECDlgGlue@@UAEPAXI@Z    0053f4b0 f i DlgGlue.obj
 0002:000484b0       ??_GCDlgGlue@@UAEPAXI@Z    0053f4b0 f i DlgGlue.obj
 0002:00048520       ??1CDlgGlue@@UAE@XZ        0053f520 f   DlgGlue.obj
 0002:00048690       ?DoDataExchange@CDlgGlue@@MAEXPAVCDataExchange@@@Z 0053f690 f   DlgGlue.obj
 0002:00048880       ?GetMessageMap@CDlgGlue@@MBEPBUAFX_MSGMAP@@XZ 0053f880 f   DlgGlue.obj
 0002:000488d0       ?GetThisMessageMap@CDlgGlue@@KGPBUAFX_MSGMAP@@XZ 0053f8d0 f   DlgGlue.obj
 0002:00048910       ?Initialize@CDlgGlue@@QAEXW4GLUE_POS_TYPE@@HHHH@Z 0053f910 f   DlgGlue.obj
 0002:000489c0       ?SetFields@CDlgGlue@@QAEXXZ 0053f9c0 f   DlgGlue.obj
 0002:00048ce0       ?GetFields@CDlgGlue@@QAEXXZ 0053fce0 f   DlgGlue.obj
 0002:00048f60       ?OnBnClickedDefault@CDlgGlue@@QAEXXZ 0053ff60 f   DlgGlue.obj
 0002:00048fc0       ?OnBnClickedSet@CDlgGlue@@QAEXXZ 0053ffc0 f   DlgGlue.obj
 0002:00049020       ?OnCbnSelChangeCombo1@CDlgGlue@@QAEXXZ 00540020 f   DlgGlue.obj
 0002:000490c0       ?OnBnClickedDrag@CDlgGlue@@QAEXXZ 005400c0 f   DlgGlue.obj
 0002:00049120       ?OnBnClickedDefaultSize@CDlgGlue@@QAEXXZ 00540120 f   DlgGlue.obj
 0002:00049180       ?OnBnClickedRadioSetSize@CDlgGlue@@QAEXXZ 00540180 f   DlgGlue.obj
 0002:000491e0       ?ListCompare@@YGHJJJ@Z     005401e0 f   DlgGroupPaste.obj
 0002:00049560       ?_GetBaseClass@CDlgGroupPaste@@KGPAUCRuntimeClass@@XZ 00540560 f   DlgGroupPaste.obj
 0002:000495b0       ?GetThisClass@CDlgGroupPaste@@SGPAUCRuntimeClass@@XZ 005405b0 f   DlgGroupPaste.obj
 0002:000495f0       ?GetRuntimeClass@CDlgGroupPaste@@UBEPAUCRuntimeClass@@XZ 005405f0 f   DlgGroupPaste.obj
 0002:00049630       ??0CDlgGroupPaste@@QAE@PAVCWnd@@@Z 00540630 f   DlgGroupPaste.obj
 0002:00049890       ??_GCDlgGroupPaste@@UAEPAXI@Z 00540890 f i DlgGroupPaste.obj
 0002:00049890       ??_ECDlgGroupPaste@@UAEPAXI@Z 00540890 f i DlgGroupPaste.obj
 0002:00049900       ??1CDlgGroupPaste@@UAE@XZ  00540900 f   DlgGroupPaste.obj
 0002:00049b50       ?DoDataExchange@CDlgGroupPaste@@MAEXPAVCDataExchange@@@Z 00540b50 f   DlgGroupPaste.obj
 0002:0004a7f0       ?GetMessageMap@CDlgGroupPaste@@MBEPBUAFX_MSGMAP@@XZ 005417f0 f   DlgGroupPaste.obj
 0002:0004a840       ?GetThisMessageMap@CDlgGroupPaste@@KGPBUAFX_MSGMAP@@XZ 00541840 f   DlgGroupPaste.obj
 0002:0004a880       ?Initialize@CDlgGroupPaste@@QAEXPAVCNetList@@@Z 00541880 f   DlgGroupPaste.obj
 0002:0004a950       ?SetFields@CDlgGroupPaste@@QAEXXZ 00541950 f   DlgGroupPaste.obj
 0002:0004ad20       ?OnBnClickedRadioUseGroupRef@CDlgGroupPaste@@QAEXXZ 00541d20 f   DlgGroupPaste.obj
 0002:0004ad70       ?OnBnClickedRadioUseNextRef@CDlgGroupPaste@@QAEXXZ 00541d70 f   DlgGroupPaste.obj
 0002:0004adc0       ?OnBnClickedRadioAddRefOffset@CDlgGroupPaste@@QAEXXZ 00541dc0 f   DlgGroupPaste.obj
 0002:0004ae10       ?OnBnClickedRadioUseGroupNets@CDlgGroupPaste@@QAEXXZ 00541e10 f   DlgGroupPaste.obj
 0002:0004ae60       ?OnBnClickedRadioUseSelectedNets@CDlgGroupPaste@@QAEXXZ 00541e60 f   DlgGroupPaste.obj
 0002:0004aeb0       ?OnBnClickedRadioUseSuffix@CDlgGroupPaste@@QAEXXZ 00541eb0 f   DlgGroupPaste.obj
 0002:0004af00       ?OnBnClickedRadioMakeNewNames@CDlgGroupPaste@@QAEXXZ 00541f00 f   DlgGroupPaste.obj
 0002:0004af50       ?OnBnClickedRadioDrag@CDlgGroupPaste@@QAEXXZ 00541f50 f   DlgGroupPaste.obj
 0002:0004afa0       ?OnBnClickedRadioOffset@CDlgGroupPaste@@QAEXXZ 00541fa0 f   DlgGroupPaste.obj
 0002:0004aff0       ?OnCbnSelchangeComboGroupUnits@CDlgGroupPaste@@QAEXXZ 00541ff0 f   DlgGroupPaste.obj
 0002:0004b030       ?OnBnClickedRadioRetainAll@CDlgGroupPaste@@QAEXXZ 00542030 f   DlgGroupPaste.obj
 0002:0004b070       ?OnBnClickedRadioRetainTraces@CDlgGroupPaste@@QAEXXZ 00542070 f   DlgGroupPaste.obj
 0002:0004b0b0       ?OnLvnColumnClickListSelectGroupNets@CDlgGroupPaste@@QAEXPAUtagNMHDR@@PAJ@Z 005420b0 f   DlgGroupPaste.obj
 0002:0004b300       ??0?$CArray@Unet_info@@ABU1@@@QAE@XZ 00542300 f i DlgGroupPaste.obj
 0002:0004b390       ?Serialize@?$CArray@Unet_info@@ABU1@@@UAEXAAVCArchive@@@Z 00542390 f i DlgGroupPaste.obj
 0002:0004b460       ?Dump@?$CArray@Unet_info@@ABU1@@@UBEXAAVCDumpContext@@@Z 00542460 f i DlgGroupPaste.obj
 0002:0004b540       ?AssertValid@?$CArray@Unet_info@@ABU1@@@UBEXXZ 00542540 f i DlgGroupPaste.obj
 0002:0004b6a0       ??_G?$CArray@Unet_info@@ABU1@@@UAEPAXI@Z 005426a0 f i DlgGroupPaste.obj
 0002:0004b6a0       ??_E?$CArray@Unet_info@@ABU1@@@UAEPAXI@Z 005426a0 f i DlgGroupPaste.obj
 0002:0004b710       ??1?$CArray@Unet_info@@ABU1@@@UAE@XZ 00542710 f i DlgGroupPaste.obj
 0002:0004b840       ??$SerializeElements@Unet_info@@@@YGXAAVCArchive@@PAUnet_info@@H@Z 00542840 f i DlgGroupPaste.obj
 0002:0004ba30       ??$DumpElements@Unet_info@@@@YGXAAVCDumpContext@@PBUnet_info@@H@Z 00542a30 f i DlgGroupPaste.obj
 0002:0004bb20       ?_GetBaseClass@CDlgHole@@KGPAUCRuntimeClass@@XZ 00542b20 f   DlgHole.obj
 0002:0004bb70       ?GetThisClass@CDlgHole@@SGPAUCRuntimeClass@@XZ 00542b70 f   DlgHole.obj
 0002:0004bbb0       ?GetRuntimeClass@CDlgHole@@UBEPAUCRuntimeClass@@XZ 00542bb0 f   DlgHole.obj
 0002:0004bbf0       ??0CDlgHole@@QAE@PAVCWnd@@@Z 00542bf0 f   DlgHole.obj
 0002:0004bd50       ??_GCDlgHole@@UAEPAXI@Z    00542d50 f i DlgHole.obj
 0002:0004bd50       ??_ECDlgHole@@UAEPAXI@Z    00542d50 f i DlgHole.obj
 0002:0004bdc0       ??1CDlgHole@@UAE@XZ        00542dc0 f   DlgHole.obj
 0002:0004bf10       ?DoDataExchange@CDlgHole@@MAEXPAVCDataExchange@@@Z 00542f10 f   DlgHole.obj
 0002:0004c0b0       ?GetMessageMap@CDlgHole@@MBEPBUAFX_MSGMAP@@XZ 005430b0 f   DlgHole.obj
 0002:0004c100       ?GetThisMessageMap@CDlgHole@@KGPBUAFX_MSGMAP@@XZ 00543100 f   DlgHole.obj
 0002:0004c140       ?Initialize@CDlgHole@@QAEXHHHHH@Z 00543140 f   DlgHole.obj
 0002:0004c1e0       ?SetFields@CDlgHole@@QAEXXZ 005431e0 f   DlgHole.obj
 0002:0004c500       ?GetFields@CDlgHole@@QAEXXZ 00543500 f   DlgHole.obj
 0002:0004c700       ?OnCbnSelChangeCombo1@CDlgHole@@QAEXXZ 00543700 f   DlgHole.obj
 0002:0004c7a0       ?OnBnClickedSet@CDlgHole@@QAEXXZ 005437a0 f   DlgHole.obj
 0002:0004c800       ?OnBnClickedDrag@CDlgHole@@QAEXXZ 00543800 f   DlgHole.obj
 0002:0004c860       ?OnBnClickedPlated@CDlgHole@@QAEXXZ 00543860 f   DlgHole.obj
 0002:0004c8c0       ?OnBnClickedUnplated@CDlgHole@@QAEXXZ 005438c0 f   DlgHole.obj
 0002:0004c920       ?_GetBaseClass@CDlgImportFootprint@@KGPAUCRuntimeClass@@XZ 00543920 f   DlgImportFootprint.obj
 0002:0004c970       ?GetThisClass@CDlgImportFootprint@@SGPAUCRuntimeClass@@XZ 00543970 f   DlgImportFootprint.obj
 0002:0004c9b0       ?GetRuntimeClass@CDlgImportFootprint@@UBEPAUCRuntimeClass@@XZ 005439b0 f   DlgImportFootprint.obj
 0002:0004c9f0       ??0CDlgImportFootprint@@QAE@PAVCWnd@@@Z 005439f0 f   DlgImportFootprint.obj
 0002:0004cc60       ??_GCDlgImportFootprint@@UAEPAXI@Z 00543c60 f i DlgImportFootprint.obj
 0002:0004cc60       ??_ECDlgImportFootprint@@UAEPAXI@Z 00543c60 f i DlgImportFootprint.obj
 0002:0004ccd0       ??1CDlgImportFootprint@@UAE@XZ 00543cd0 f   DlgImportFootprint.obj
 0002:0004ce90       ?DoDataExchange@CDlgImportFootprint@@MAEXPAVCDataExchange@@@Z 00543e90 f   DlgImportFootprint.obj
 0002:0004cfb0       ?GetMessageMap@CDlgImportFootprint@@MBEPBUAFX_MSGMAP@@XZ 00543fb0 f   DlgImportFootprint.obj
 0002:0004d000       ?GetThisMessageMap@CDlgImportFootprint@@KGPBUAFX_MSGMAP@@XZ 00544000 f   DlgImportFootprint.obj
 0002:0004d040       ?InitInstance@CDlgImportFootprint@@QAEXPAVCMapStringToPtr@@PAVCFootLibFolderMap@@PAVCDlgLog@@@Z 00544040 f   DlgImportFootprint.obj
 0002:0004d0f0       ?OnInitDialog@CDlgImportFootprint@@EAEHXZ 005440f0 f   DlgImportFootprint.obj
 0002:0004d150       ?OnBnClickedButtonBrowseLibFolder@CDlgImportFootprint@@QAEXXZ 00544150 f   DlgImportFootprint.obj
 0002:0004d420       ?OnTvnSelchangedPartLibTree@CDlgImportFootprint@@AAEXPAUtagNMHDR@@PAJ@Z 00544420 f   DlgImportFootprint.obj
 0002:0004db60       ?InitPartLibTree@CDlgImportFootprint@@QAEXXZ 00544b60 f   DlgImportFootprint.obj
 0002:0004e190       ?OnBnClickedOk@CDlgImportFootprint@@QAEXXZ 00545190 f   DlgImportFootprint.obj
 0002:0004e3a0       ?OnBnClickedCancel@CDlgImportFootprint@@QAEXXZ 005453a0 f   DlgImportFootprint.obj
 0002:0004e560       ?GetExpanded@CFootLibFolder@@QAEHH@Z 00545560 f i DlgImportFootprint.obj
 0002:0004e5c0       ?_GetBaseClass@CDlgImportOptions@@KGPAUCRuntimeClass@@XZ 005455c0 f   DlgImportOptions.obj
 0002:0004e610       ?GetThisClass@CDlgImportOptions@@SGPAUCRuntimeClass@@XZ 00545610 f   DlgImportOptions.obj
 0002:0004e650       ?GetRuntimeClass@CDlgImportOptions@@UBEPAUCRuntimeClass@@XZ 00545650 f   DlgImportOptions.obj
 0002:0004e690       ??0CDlgImportOptions@@QAE@PAVCWnd@@@Z 00545690 f   DlgImportOptions.obj
 0002:0004e840       ??_ECDlgImportOptions@@UAEPAXI@Z 00545840 f i DlgImportOptions.obj
 0002:0004e840       ??_GCDlgImportOptions@@UAEPAXI@Z 00545840 f i DlgImportOptions.obj
 0002:0004e8b0       ??1CDlgImportOptions@@UAE@XZ 005458b0 f   DlgImportOptions.obj
 0002:0004ea50       ?DoDataExchange@CDlgImportOptions@@MAEXPAVCDataExchange@@@Z 00545a50 f   DlgImportOptions.obj
 0002:0004f0d0       ?GetMessageMap@CDlgImportOptions@@MBEPBUAFX_MSGMAP@@XZ 005460d0 f   DlgImportOptions.obj
 0002:0004f120       ?GetThisMessageMap@CDlgImportOptions@@KGPBUAFX_MSGMAP@@XZ 00546120 f   DlgImportOptions.obj
 0002:0004f160       ?Initialize@CDlgImportOptions@@QAEXH@Z 00546160 f   DlgImportOptions.obj
 0002:0004f1b0       ?OnBnClickedSaveAndImport@CDlgImportOptions@@QAEXXZ 005461b0 f   DlgImportOptions.obj
 0002:0004f240       ?OnBnClickedOk@CDlgImportOptions@@QAEXXZ 00546240 f   DlgImportOptions.obj
 0002:0004f2d0       ?_GetBaseClass@CDlgImportSes@@KGPAUCRuntimeClass@@XZ 005462d0 f   DlgImportSes.obj
 0002:0004f320       ?GetThisClass@CDlgImportSes@@SGPAUCRuntimeClass@@XZ 00546320 f   DlgImportSes.obj
 0002:0004f360       ?GetRuntimeClass@CDlgImportSes@@UBEPAUCRuntimeClass@@XZ 00546360 f   DlgImportSes.obj
 0002:0004f3a0       ??0CDlgImportSes@@QAE@PAVCWnd@@@Z 005463a0 f   DlgImportSes.obj
 0002:0004f4f0       ??_ECDlgImportSes@@UAEPAXI@Z 005464f0 f i DlgImportSes.obj
 0002:0004f4f0       ??_GCDlgImportSes@@UAEPAXI@Z 005464f0 f i DlgImportSes.obj
 0002:0004f560       ??1CDlgImportSes@@UAE@XZ   00546560 f   DlgImportSes.obj
 0002:0004f690       ?DoDataExchange@CDlgImportSes@@MAEXPAVCDataExchange@@@Z 00546690 f   DlgImportSes.obj
 0002:0004f990       ?GetMessageMap@CDlgImportSes@@MBEPBUAFX_MSGMAP@@XZ 00546990 f   DlgImportSes.obj
 0002:0004f9e0       ?GetThisMessageMap@CDlgImportSes@@KGPBUAFX_MSGMAP@@XZ 005469e0 f   DlgImportSes.obj
 0002:0004fa20       ?Initialize@CDlgImportSes@@QAEXPAV?$CStringT@DV?$StrTraitMFC_DLL@DV?$ChTraitsCRT@D@ATL@@@@@ATL@@0PAVCFreePcbDoc@@@Z 00546a20 f   DlgImportSes.obj
 0002:0004fad0       ?OnBnClickedButtonDef@CDlgImportSes@@QAEXXZ 00546ad0 f   DlgImportSes.obj
 0002:0004fb70       ?OnBnClickedButtonBrowse@CDlgImportSes@@QAEXXZ 00546b70 f   DlgImportSes.obj
 0002:0004fd10       ?_GetBaseClass@CDlgIndexing@@KGPAUCRuntimeClass@@XZ 00546d10 f   DlgIndexing.obj
 0002:0004fd60       ?GetThisClass@CDlgIndexing@@SGPAUCRuntimeClass@@XZ 00546d60 f   DlgIndexing.obj
 0002:0004fda0       ?GetRuntimeClass@CDlgIndexing@@UBEPAUCRuntimeClass@@XZ 00546da0 f   DlgIndexing.obj
 0002:0004fde0       ??0CDlgIndexing@@QAE@PAVCWnd@@@Z 00546de0 f   DlgIndexing.obj
 0002:0004fe50       ??_ECDlgIndexing@@UAEPAXI@Z 00546e50 f i DlgIndexing.obj
 0002:0004fe50       ??_GCDlgIndexing@@UAEPAXI@Z 00546e50 f i DlgIndexing.obj
 0002:0004fec0       ??1CDlgIndexing@@UAE@XZ    00546ec0 f   DlgIndexing.obj
 0002:0004ff20       ?DoDataExchange@CDlgIndexing@@MAEXPAVCDataExchange@@@Z 00546f20 f   DlgIndexing.obj
 0002:0004ff80       ?GetMessageMap@CDlgIndexing@@MBEPBUAFX_MSGMAP@@XZ 00546f80 f   DlgIndexing.obj
 0002:0004ffd0       ?GetThisMessageMap@CDlgIndexing@@KGPBUAFX_MSGMAP@@XZ 00546fd0 f   DlgIndexing.obj
 0002:00050010       ??0CivexDlg@@QAE@PAVCWnd@@@Z 00547010 f   DlgIvex.obj
 0002:00050170       ??_ECivexDlg@@UAEPAXI@Z    00547170 f i DlgIvex.obj
 0002:00050170       ??_GCivexDlg@@UAEPAXI@Z    00547170 f i DlgIvex.obj
 0002:000501e0       ??1CivexDlg@@UAE@XZ        005471e0 f i DlgIvex.obj
 0002:00050300       ?DoDataExchange@CivexDlg@@MAEXPAVCDataExchange@@@Z 00547300 f   DlgIvex.obj
 0002:000503b0       ?GetMessageMap@CivexDlg@@MBEPBUAFX_MSGMAP@@XZ 005473b0 f   DlgIvex.obj
 0002:00050400       ?GetThisMessageMap@CivexDlg@@KGPBUAFX_MSGMAP@@XZ 00547400 f   DlgIvex.obj
 0002:00050440       ?OnInitDialog@CivexDlg@@MAEHXZ 00547440 f   DlgIvex.obj
 0002:000504a0       ?OnSysCommand@CivexDlg@@IAEXIJ@Z 005474a0 f   DlgIvex.obj
 0002:00050500       ?OnPaint@CivexDlg@@IAEXXZ  00547500 f   DlgIvex.obj
 0002:00050700       ?OnQueryDragIcon@CivexDlg@@IAEPAUHICON__@@XZ 00547700 f   DlgIvex.obj
 0002:00050740       ?OnBnClickedButtonInfile@CivexDlg@@QAEXXZ 00547740 f   DlgIvex.obj
 0002:00050a70       ?OnBnClickedButtonOutfile@CivexDlg@@QAEXXZ 00547a70 f   DlgIvex.obj
 0002:00050ab0       ?OnEnChangeEditInfile@CivexDlg@@QAEXXZ 00547ab0 f   DlgIvex.obj
 0002:00050af0       ?OnEnChangeEditOutfile@CivexDlg@@QAEXXZ 00547af0 f   DlgIvex.obj
 0002:00050b30       ?OnBnClickedConvert@CivexDlg@@QAEXXZ 00547b30 f   DlgIvex.obj
 0002:00051130       ?_GetBaseClass@CDlgLayers@@KGPAUCRuntimeClass@@XZ 00548130 f   DlgLayers.obj
 0002:00051180       ?GetThisClass@CDlgLayers@@SGPAUCRuntimeClass@@XZ 00548180 f   DlgLayers.obj
 0002:000511c0       ?GetRuntimeClass@CDlgLayers@@UBEPAUCRuntimeClass@@XZ 005481c0 f   DlgLayers.obj
 0002:00051200       ??0CDlgLayers@@QAE@PAVCWnd@@@Z 00548200 f   DlgLayers.obj
 0002:000512d0       ??_GCDlgLayers@@UAEPAXI@Z  005482d0 f i DlgLayers.obj
 0002:000512d0       ??_ECDlgLayers@@UAEPAXI@Z  005482d0 f i DlgLayers.obj
 0002:00051340       ??1CDlgLayers@@UAE@XZ      00548340 f   DlgLayers.obj
 0002:00051400       ?DoDataExchange@CDlgLayers@@MAEXPAVCDataExchange@@@Z 00548400 f   DlgLayers.obj
 0002:000515d0       ?GetMessageMap@CDlgLayers@@MBEPBUAFX_MSGMAP@@XZ 005485d0 f   DlgLayers.obj
 0002:00051620       ?GetThisMessageMap@CDlgLayers@@KGPBUAFX_MSGMAP@@XZ 00548620 f   DlgLayers.obj
 0002:00051660       ?Initialize@CDlgLayers@@QAEXHQAHQAY02HH@Z 00548660 f   DlgLayers.obj
 0002:00051780       ?OnCtlColor@CDlgLayers@@QAEPAUHBRUSH__@@PAVCDC@@PAVCWnd@@I@Z 00548780 f   DlgLayers.obj
 0002:00051930       ?OnBnClickedButtonLayer1@CDlgLayers@@QAEXXZ 00548930 f   DlgLayers.obj
 0002:00051990       ?OnBnClickedButtonLayer2@CDlgLayers@@QAEXXZ 00548990 f   DlgLayers.obj
 0002:000519f0       ?OnBnClickedButtonLayer3@CDlgLayers@@QAEXXZ 005489f0 f   DlgLayers.obj
 0002:00051a50       ?OnBnClickedButtonLayer4@CDlgLayers@@QAEXXZ 00548a50 f   DlgLayers.obj
 0002:00051ab0       ?OnBnClickedButtonLayer5@CDlgLayers@@QAEXXZ 00548ab0 f   DlgLayers.obj
 0002:00051b10       ?OnBnClickedButtonLayer6@CDlgLayers@@QAEXXZ 00548b10 f   DlgLayers.obj
 0002:00051b70       ?OnBnClickedButtonLayer7@CDlgLayers@@QAEXXZ 00548b70 f   DlgLayers.obj
 0002:00051bd0       ?OnBnClickedButtonLayer8@CDlgLayers@@QAEXXZ 00548bd0 f   DlgLayers.obj
 0002:00051c30       ?OnBnClickedButtonLayer9@CDlgLayers@@QAEXXZ 00548c30 f   DlgLayers.obj
 0002:00051c90       ?OnBnClickedButtonLayer10@CDlgLayers@@QAEXXZ 00548c90 f   DlgLayers.obj
 0002:00051cf0       ?OnBnClickedButtonLayer11@CDlgLayers@@QAEXXZ 00548cf0 f   DlgLayers.obj
 0002:00051d50       ?OnBnClickedButtonLayer12@CDlgLayers@@QAEXXZ 00548d50 f   DlgLayers.obj
 0002:00051db0       ?OnBnClickedButtonLayer13@CDlgLayers@@QAEXXZ 00548db0 f   DlgLayers.obj
 0002:00051e10       ?OnBnClickedButtonLayer14@CDlgLayers@@QAEXXZ 00548e10 f   DlgLayers.obj
 0002:00051e70       ?OnBnClickedButtonLayer15@CDlgLayers@@QAEXXZ 00548e70 f   DlgLayers.obj
 0002:00051ed0       ?OnBnClickedButtonLayer16@CDlgLayers@@QAEXXZ 00548ed0 f   DlgLayers.obj
 0002:00051f30       ?OnBnClickedButtonLayer17@CDlgLayers@@QAEXXZ 00548f30 f   DlgLayers.obj
 0002:00051f90       ?OnBnClickedButtonLayer18@CDlgLayers@@QAEXXZ 00548f90 f   DlgLayers.obj
 0002:00051ff0       ?OnBnClickedButtonLayer19@CDlgLayers@@QAEXXZ 00548ff0 f   DlgLayers.obj
 0002:00052050       ?OnBnClickedButtonLayer20@CDlgLayers@@QAEXXZ 00549050 f   DlgLayers.obj
 0002:000520b0       ?OnBnClickedButtonLayer21@CDlgLayers@@QAEXXZ 005490b0 f   DlgLayers.obj
 0002:00052110       ?OnBnClickedButtonLayer22@CDlgLayers@@QAEXXZ 00549110 f   DlgLayers.obj
 0002:00052170       ?OnBnClickedButtonLayer23@CDlgLayers@@QAEXXZ 00549170 f   DlgLayers.obj
 0002:000521d0       ?OnBnClickedButtonLayer24@CDlgLayers@@QAEXXZ 005491d0 f   DlgLayers.obj
 0002:00052230       ?OnBnClickedButtonLayer25@CDlgLayers@@QAEXXZ 00549230 f   DlgLayers.obj
 0002:00052290       ?OnBnClickedButtonLayer26@CDlgLayers@@QAEXXZ 00549290 f   DlgLayers.obj
 0002:000522f0       ?OnBnClickedButtonLayer27@CDlgLayers@@QAEXXZ 005492f0 f   DlgLayers.obj
 0002:00052350       ?OnBnClickedButtonLayer28@CDlgLayers@@QAEXXZ 00549350 f   DlgLayers.obj
 0002:000523b0       ?OnBnClickedButtonLayer29@CDlgLayers@@QAEXXZ 005493b0 f   DlgLayers.obj
 0002:00052410       ?OnBnClickedButtonLayer30@CDlgLayers@@QAEXXZ 00549410 f   DlgLayers.obj
 0002:00052470       ?OnBnClickedButtonLayer31@CDlgLayers@@QAEXXZ 00549470 f   DlgLayers.obj
 0002:000524d0       ?EditColor@CDlgLayers@@QAEXH@Z 005494d0 f   DlgLayers.obj
 0002:000526c0       ??1CColorDialog@@UAE@XZ    005496c0 f i DlgLayers.obj
 0002:00052710       ??1CCommonDialog@@UAE@XZ   00549710 f i DlgLayers.obj
 0002:00052770       ??_ECCommonDialog@@UAEPAXI@Z 00549770 f i DlgLayers.obj
 0002:00052770       ??_GCCommonDialog@@UAEPAXI@Z 00549770 f i DlgLayers.obj
 0002:000527e0       _cpdf_getCurrentTextX      005497e0 f   DlgLibraryManager.obj
 0002:00052840       _cpdf_getCurrentTextY      00549840 f   DlgLibraryManager.obj
 0002:000528a0       ?_GetBaseClass@CDlgLibraryManager@@KGPAUCRuntimeClass@@XZ 005498a0 f   DlgLibraryManager.obj
 0002:000528f0       ?GetThisClass@CDlgLibraryManager@@SGPAUCRuntimeClass@@XZ 005498f0 f   DlgLibraryManager.obj
 0002:00052930       ?GetRuntimeClass@CDlgLibraryManager@@UBEPAUCRuntimeClass@@XZ 00549930 f   DlgLibraryManager.obj
 0002:00052970       ??0CDlgLibraryManager@@QAE@PAVCWnd@@@Z 00549970 f   DlgLibraryManager.obj
 0002:00052a80       ??_GCDlgLibraryManager@@UAEPAXI@Z 00549a80 f i DlgLibraryManager.obj
 0002:00052a80       ??_ECDlgLibraryManager@@UAEPAXI@Z 00549a80 f i DlgLibraryManager.obj
 0002:00052af0       ??1CDlgLibraryManager@@UAE@XZ 00549af0 f   DlgLibraryManager.obj
 0002:00052bf0       ?DoDataExchange@CDlgLibraryManager@@MAEXPAVCDataExchange@@@Z 00549bf0 f   DlgLibraryManager.obj
 0002:00052f80       ?GetMessageMap@CDlgLibraryManager@@MBEPBUAFX_MSGMAP@@XZ 00549f80 f   DlgLibraryManager.obj
 0002:00052fd0       ?GetThisMessageMap@CDlgLibraryManager@@KGPBUAFX_MSGMAP@@XZ 00549fd0 f   DlgLibraryManager.obj
 0002:00053010       ?OnBnClickedButtonMakePdf@CDlgLibraryManager@@QAEXXZ 0054a010 f   DlgLibraryManager.obj
 0002:0005beb0       ?abs@@YANN@Z               00552eb0 f i DlgLibraryManager.obj
 0002:0005bf10       ?Initialize@CDlgLibraryManager@@QAEXPAVCFootLibFolderMap@@PAVCDlgLog@@@Z 00552f10 f   DlgLibraryManager.obj
 0002:0005bf70       ?OnBnClickedButtonMgrBrowse@CDlgLibraryManager@@QAEXXZ 00552f70 f   DlgLibraryManager.obj
 0002:0005c2c0       ?RemoveAt@?$CArray@HABH@@QAEXHH@Z 005532c0 f i DlgLibraryManager.obj
 0002:0005c470       ??A?$CArray@PAVCText@@ABQAV1@@@QAEAAPAVCText@@H@Z 00553470 f i DlgLibraryManager.obj
 0002:0005c4d0       ??A?$CArray@VCPolyLine@@ABV1@@@QAEAAVCPolyLine@@H@Z 005534d0 f i DlgLibraryManager.obj
 0002:0005c530       ?ElementAt@?$CArray@PAVCText@@ABQAV1@@@QAEAAPAVCText@@H@Z 00553530 f i DlgLibraryManager.obj
 0002:0005c5e0       ?ElementAt@?$CArray@VCPolyLine@@ABV1@@@QAEAAVCPolyLine@@H@Z 005535e0 f i DlgLibraryManager.obj
 0002:0005c690       ??0?$CArray@HABH@@QAE@XZ   00553690 f i DlgLibraryManager.obj
 0002:0005c720       ?Add@?$CArray@HABH@@QAEHABH@Z 00553720 f i DlgLibraryManager.obj
 0002:0005c790       ??1?$CArray@HABH@@UAE@XZ   00553790 f i DlgLibraryManager.obj
 0002:0005c8a0       ?Serialize@?$CArray@HABH@@UAEXAAVCArchive@@@Z 005538a0 f i DlgLibraryManager.obj
 0002:0005c970       ?SetSize@?$CArray@HABH@@QAEXHH@Z 00553970 f i DlgLibraryManager.obj
 0002:0005cf00       ?Dump@?$CArray@HABH@@UBEXAAVCDumpContext@@@Z 00553f00 f i DlgLibraryManager.obj
 0002:0005cfe0       ?AssertValid@?$CArray@HABH@@UBEXXZ 00553fe0 f i DlgLibraryManager.obj
 0002:0005d140       ?GetSize@?$CArray@PAVCText@@ABQAV1@@@QBEHXZ 00554140 f i DlgLibraryManager.obj
 0002:0005d180       ??_G?$CArray@HABH@@UAEPAXI@Z 00554180 f i DlgLibraryManager.obj
 0002:0005d180       ??_E?$CArray@HABH@@UAEPAXI@Z 00554180 f i DlgLibraryManager.obj
 0002:0005d1f0       ?SetAtGrow@?$CArray@HABH@@QAEXHABH@Z 005541f0 f i DlgLibraryManager.obj
 0002:0005d2c0       ?_GetBaseClass@CDlgLog@@KGPAUCRuntimeClass@@XZ 005542c0 f   DlgLog.obj
 0002:0005d310       ?GetThisClass@CDlgLog@@SGPAUCRuntimeClass@@XZ 00554310 f   DlgLog.obj
 0002:0005d350       ?GetRuntimeClass@CDlgLog@@UBEPAUCRuntimeClass@@XZ 00554350 f   DlgLog.obj
 0002:0005d390       ??0CDlgLog@@QAE@PAVCWnd@@@Z 00554390 f   DlgLog.obj
 0002:0005d470       ??_GCDlgLog@@UAEPAXI@Z     00554470 f i DlgLog.obj
 0002:0005d470       ??_ECDlgLog@@UAEPAXI@Z     00554470 f i DlgLog.obj
 0002:0005d4e0       ??1CDlgLog@@UAE@XZ         005544e0 f   DlgLog.obj
 0002:0005d5a0       ?DoDataExchange@CDlgLog@@MAEXPAVCDataExchange@@@Z 005545a0 f   DlgLog.obj
 0002:0005d640       ?GetMessageMap@CDlgLog@@MBEPBUAFX_MSGMAP@@XZ 00554640 f   DlgLog.obj
 0002:0005d690       ?GetThisMessageMap@CDlgLog@@KGPBUAFX_MSGMAP@@XZ 00554690 f   DlgLog.obj
 0002:0005d6d0       ?Move@CDlgLog@@QAEXHH@Z    005546d0 f   DlgLog.obj
 0002:0005d7b0       ?Clear@CDlgLog@@QAEXXZ     005547b0 f   DlgLog.obj
 0002:0005d830       ?AddLine@CDlgLog@@QAEXPBD@Z 00554830 f   DlgLog.obj
 0002:0005d890       ?OnBnClickedOk@CDlgLog@@QAEXXZ 00554890 f   DlgLog.obj
 0002:0005d920       ?OnSetCursor@CDlgLog@@QAEHPAVCWnd@@II@Z 00554920 f   DlgLog.obj
 0002:0005d9b0       ?OnBnClickedHideMe@CDlgLog@@QAEXXZ 005549b0 f   DlgLog.obj
 0002:0005da10       ?_GetBaseClass@CDlgMoveOrigin@@KGPAUCRuntimeClass@@XZ 00554a10 f   DlgMoveOrigin.obj
 0002:0005da60       ?GetThisClass@CDlgMoveOrigin@@SGPAUCRuntimeClass@@XZ 00554a60 f   DlgMoveOrigin.obj
 0002:0005daa0       ?GetRuntimeClass@CDlgMoveOrigin@@UBEPAUCRuntimeClass@@XZ 00554aa0 f   DlgMoveOrigin.obj
 0002:0005dae0       ??0CDlgMoveOrigin@@QAE@PAVCWnd@@@Z 00554ae0 f   DlgMoveOrigin.obj
 0002:0005dc00       ??_ECDlgMoveOrigin@@UAEPAXI@Z 00554c00 f i DlgMoveOrigin.obj
 0002:0005dc00       ??_GCDlgMoveOrigin@@UAEPAXI@Z 00554c00 f i DlgMoveOrigin.obj
 0002:0005dc70       ??1CDlgMoveOrigin@@UAE@XZ  00554c70 f   DlgMoveOrigin.obj
 0002:0005dd80       ?DoDataExchange@CDlgMoveOrigin@@MAEXPAVCDataExchange@@@Z 00554d80 f   DlgMoveOrigin.obj
 0002:0005dee0       ?GetMessageMap@CDlgMoveOrigin@@MBEPBUAFX_MSGMAP@@XZ 00554ee0 f   DlgMoveOrigin.obj
 0002:0005df30       ?GetThisMessageMap@CDlgMoveOrigin@@KGPBUAFX_MSGMAP@@XZ 00554f30 f   DlgMoveOrigin.obj
 0002:0005df70       ?Initialize@CDlgMoveOrigin@@QAEXH@Z 00554f70 f   DlgMoveOrigin.obj
 0002:0005dfe0       ?GetFields@CDlgMoveOrigin@@QAEXXZ 00554fe0 f   DlgMoveOrigin.obj
 0002:0005e1d0       ?SetFields@CDlgMoveOrigin@@QAEXXZ 005551d0 f   DlgMoveOrigin.obj
 0002:0005e4b0       ?OnCbnSelchangeUnits@CDlgMoveOrigin@@QAEXXZ 005554b0 f   DlgMoveOrigin.obj
 0002:0005e510       ?OnBnClickedDrag@CDlgMoveOrigin@@QAEXXZ 00555510 f   DlgMoveOrigin.obj
 0002:0005e570       ?OnBnClickedSet@CDlgMoveOrigin@@QAEXXZ 00555570 f   DlgMoveOrigin.obj
 0002:0005e5d0       ?_GetBaseClass@CDlgMyMessageBox@@KGPAUCRuntimeClass@@XZ 005555d0 f   DlgMyMessageBox.obj
 0002:0005e620       ?GetThisClass@CDlgMyMessageBox@@SGPAUCRuntimeClass@@XZ 00555620 f   DlgMyMessageBox.obj
 0002:0005e660       ?GetRuntimeClass@CDlgMyMessageBox@@UBEPAUCRuntimeClass@@XZ 00555660 f   DlgMyMessageBox.obj
 0002:0005e6a0       ??0CDlgMyMessageBox@@QAE@PAVCWnd@@@Z 005556a0 f   DlgMyMessageBox.obj
 0002:0005e7a0       ??_ECDlgMyMessageBox@@UAEPAXI@Z 005557a0 f i DlgMyMessageBox.obj
 0002:0005e7a0       ??_GCDlgMyMessageBox@@UAEPAXI@Z 005557a0 f i DlgMyMessageBox.obj
 0002:0005e810       ??1CDlgMyMessageBox@@UAE@XZ 00555810 f   DlgMyMessageBox.obj
 0002:0005e900       ?DoDataExchange@CDlgMyMessageBox@@MAEXPAVCDataExchange@@@Z 00555900 f   DlgMyMessageBox.obj
 0002:0005ea30       ?GetMessageMap@CDlgMyMessageBox@@MBEPBUAFX_MSGMAP@@XZ 00555a30 f   DlgMyMessageBox.obj
 0002:0005ea80       ?GetThisMessageMap@CDlgMyMessageBox@@KGPBUAFX_MSGMAP@@XZ 00555a80 f   DlgMyMessageBox.obj
 0002:0005eac0       ?Initialize@CDlgMyMessageBox@@QAEXPBD@Z 00555ac0 f   DlgMyMessageBox.obj
 0002:0005eb30       ?_GetBaseClass@CDlgMyMessageBox2@@KGPAUCRuntimeClass@@XZ 00555b30 f   DlgMyMessageBox2.obj
 0002:0005eb80       ?GetThisClass@CDlgMyMessageBox2@@SGPAUCRuntimeClass@@XZ 00555b80 f   DlgMyMessageBox2.obj
 0002:0005ebc0       ?GetRuntimeClass@CDlgMyMessageBox2@@UBEPAUCRuntimeClass@@XZ 00555bc0 f   DlgMyMessageBox2.obj
 0002:0005ec00       ??0CDlgMyMessageBox2@@QAE@PAVCWnd@@@Z 00555c00 f   DlgMyMessageBox2.obj
 0002:0005ece0       ??_GCDlgMyMessageBox2@@UAEPAXI@Z 00555ce0 f i DlgMyMessageBox2.obj
 0002:0005ece0       ??_ECDlgMyMessageBox2@@UAEPAXI@Z 00555ce0 f i DlgMyMessageBox2.obj
 0002:0005ed50       ??1CDlgMyMessageBox2@@UAE@XZ 00555d50 f   DlgMyMessageBox2.obj
 0002:0005ee20       ?DoDataExchange@CDlgMyMessageBox2@@MAEXPAVCDataExchange@@@Z 00555e20 f   DlgMyMessageBox2.obj
 0002:0005ef40       ?GetMessageMap@CDlgMyMessageBox2@@MBEPBUAFX_MSGMAP@@XZ 00555f40 f   DlgMyMessageBox2.obj
 0002:0005ef90       ?GetThisMessageMap@CDlgMyMessageBox2@@KGPBUAFX_MSGMAP@@XZ 00555f90 f   DlgMyMessageBox2.obj
 0002:0005efd0       ?Initialize@CDlgMyMessageBox2@@QAEXPAV?$CStringT@DV?$StrTraitMFC_DLL@DV?$ChTraitsCRT@D@ATL@@@@@ATL@@@Z 00555fd0 f   DlgMyMessageBox2.obj
 0002:0005f020       ?CompareNetlistCombine@@YGHJJJ@Z 00556020 f   DlgNetCombine.obj
 0002:0005f3a0       ?_GetBaseClass@CDlgNetCombine@@KGPAUCRuntimeClass@@XZ 005563a0 f   DlgNetCombine.obj
 0002:0005f3f0       ?GetThisClass@CDlgNetCombine@@SGPAUCRuntimeClass@@XZ 005563f0 f   DlgNetCombine.obj
 0002:0005f430       ?GetRuntimeClass@CDlgNetCombine@@UBEPAUCRuntimeClass@@XZ 00556430 f   DlgNetCombine.obj
 0002:0005f470       ??0CDlgNetCombine@@QAE@PAVCWnd@@@Z 00556470 f   DlgNetCombine.obj
 0002:0005f5e0       ??_GCDlgNetCombine@@UAEPAXI@Z 005565e0 f i DlgNetCombine.obj
 0002:0005f5e0       ??_ECDlgNetCombine@@UAEPAXI@Z 005565e0 f i DlgNetCombine.obj
 0002:0005f650       ??1CDlgNetCombine@@UAE@XZ  00556650 f   DlgNetCombine.obj
 0002:0005f770       ?DoDataExchange@CDlgNetCombine@@MAEXPAVCDataExchange@@@Z 00556770 f   DlgNetCombine.obj
 0002:0005f7f0       ?GetMessageMap@CDlgNetCombine@@MBEPBUAFX_MSGMAP@@XZ 005567f0 f   DlgNetCombine.obj
 0002:0005f840       ?GetThisMessageMap@CDlgNetCombine@@KGPBUAFX_MSGMAP@@XZ 00556840 f   DlgNetCombine.obj
 0002:0005f880       ?Initialize@CDlgNetCombine@@QAEXPAVCNetList@@PAVCPartList@@@Z 00556880 f   DlgNetCombine.obj
 0002:0005f8e0       ?OnInitDialog@CDlgNetCombine@@EAEHXZ 005568e0 f   DlgNetCombine.obj
 0002:0005f9a0       ?DrawListCtrl@CDlgNetCombine@@AAEXXZ 005569a0 f   DlgNetCombine.obj
 0002:0005ff50       ?OnLvnColumnclickListNet@CDlgNetCombine@@AAEXPAUtagNMHDR@@PAJ@Z 00556f50 f   DlgNetCombine.obj
 0002:000601a0       ?OnBnClickedOk@CDlgNetCombine@@AAEXXZ 005571a0 f   DlgNetCombine.obj
 0002:00060450       ?OnBnClickedCancel@CDlgNetCombine@@AAEXXZ 00557450 f   DlgNetCombine.obj
 0002:000604c0       ?CompareNetlist@@YGHJJJ@Z  005574c0 f   DlgNetlist.obj
 0002:00060840       ?_GetBaseClass@CDlgNetlist@@KGPAUCRuntimeClass@@XZ 00557840 f   DlgNetlist.obj
 0002:00060890       ?GetThisClass@CDlgNetlist@@SGPAUCRuntimeClass@@XZ 00557890 f   DlgNetlist.obj
 0002:000608d0       ?GetRuntimeClass@CDlgNetlist@@UBEPAUCRuntimeClass@@XZ 005578d0 f   DlgNetlist.obj
 0002:00060910       ??0CDlgNetlist@@QAE@PAVCWnd@@@Z 00557910 f   DlgNetlist.obj
 0002:00060b00       ??_GCDlgNetlist@@UAEPAXI@Z 00557b00 f i DlgNetlist.obj
 0002:00060b00       ??_ECDlgNetlist@@UAEPAXI@Z 00557b00 f i DlgNetlist.obj
 0002:00060b70       ??1CDlgNetlist@@UAE@XZ     00557b70 f   DlgNetlist.obj
 0002:00060d10       ?DoDataExchange@CDlgNetlist@@MAEXPAVCDataExchange@@@Z 00557d10 f   DlgNetlist.obj
 0002:00061000       ?GetMessageMap@CDlgNetlist@@MBEPBUAFX_MSGMAP@@XZ 00558000 f   DlgNetlist.obj
 0002:00061050       ?GetThisMessageMap@CDlgNetlist@@KGPBUAFX_MSGMAP@@XZ 00558050 f   DlgNetlist.obj
 0002:00061090       ?Initialize@CDlgNetlist@@QAEXPAVCNetList@@PAVCPartList@@PAV?$CArray@HABH@@22HH@Z 00558090 f   DlgNetlist.obj
 0002:00061130       ?OnInitDialog@CDlgNetlist@@EAEHXZ 00558130 f   DlgNetlist.obj
 0002:00061240       ?DrawListCtrl@CDlgNetlist@@AAEXXZ 00558240 f   DlgNetlist.obj
 0002:000618d0       ?OnLvnColumnclickListNet@CDlgNetlist@@AAEXPAUtagNMHDR@@PAJ@Z 005588d0 f   DlgNetlist.obj
 0002:00061b20       ?OnBnClickedButtonVisible@CDlgNetlist@@AAEXXZ 00558b20 f   DlgNetlist.obj
 0002:00061ca0       ?OnBnClickedButtonEdit@CDlgNetlist@@AAEXXZ 00558ca0 f   DlgNetlist.obj
 0002:00061f60       ?OnBnClickedButtonAdd@CDlgNetlist@@AAEXXZ 00558f60 f   DlgNetlist.obj
 0002:000620f0       ?OnBnClickedOk@CDlgNetlist@@AAEXXZ 005590f0 f   DlgNetlist.obj
 0002:00062160       ?OnBnClickedCancel@CDlgNetlist@@AAEXXZ 00559160 f   DlgNetlist.obj
 0002:000621d0       ?OnBnClickedButtonSelectAll@CDlgNetlist@@AAEXXZ 005591d0 f   DlgNetlist.obj
 0002:00062270       ?OnBnClickedButtonDelete@CDlgNetlist@@AAEXXZ 00559270 f   DlgNetlist.obj
 0002:000623b0       ?OnBnClickedButtonNLWidth@CDlgNetlist@@AAEXXZ 005593b0 f   DlgNetlist.obj
 0002:00062aa0       ?OnBnClickedDeleteNetsWithNoPins@CDlgNetlist@@AAEXXZ 00559aa0 f   DlgNetlist.obj
 0002:00062b90       ?OnBnClickedDeleteNetsWith_1_Pins@CDlgNetlist@@AAEXXZ 00559b90 f   DlgNetlist.obj
 0002:00062c80       ?OnNMClickListNet@CDlgNetlist@@AAEXPAUtagNMHDR@@PAJ@Z 00559c80 f   DlgNetlist.obj
 0002:00062e20       ?ComparePartlist@@YGHJJJ@Z 00559e20 f   DlgPartlist.obj
 0002:00063140       ?_GetBaseClass@CDlgPartlist@@KGPAUCRuntimeClass@@XZ 0055a140 f   DlgPartlist.obj
 0002:00063190       ?GetThisClass@CDlgPartlist@@SGPAUCRuntimeClass@@XZ 0055a190 f   DlgPartlist.obj
 0002:000631d0       ?GetRuntimeClass@CDlgPartlist@@UBEPAUCRuntimeClass@@XZ 0055a1d0 f   DlgPartlist.obj
 0002:00063210       ??0CDlgPartlist@@QAE@PAVCWnd@@@Z 0055a210 f   DlgPartlist.obj
 0002:00063360       ??_GCDlgPartlist@@UAEPAXI@Z 0055a360 f i DlgPartlist.obj
 0002:00063360       ??_ECDlgPartlist@@UAEPAXI@Z 0055a360 f i DlgPartlist.obj
 0002:000633d0       ??1CDlgPartlist@@UAE@XZ    0055a3d0 f   DlgPartlist.obj
 0002:00063510       ?DoDataExchange@CDlgPartlist@@MAEXPAVCDataExchange@@@Z 0055a510 f   DlgPartlist.obj
 0002:00063730       ?GetMessageMap@CDlgPartlist@@MBEPBUAFX_MSGMAP@@XZ 0055a730 f   DlgPartlist.obj
 0002:00063780       ?GetThisMessageMap@CDlgPartlist@@KGPBUAFX_MSGMAP@@XZ 0055a780 f   DlgPartlist.obj
 0002:000637c0       ?OnInitDialog@CDlgPartlist@@UAEHXZ 0055a7c0 f   DlgPartlist.obj
 0002:00063880       ?DrawListCtrl@CDlgPartlist@@QAEXXZ 0055a880 f   DlgPartlist.obj
 0002:00063e90       ?Initialize@CDlgPartlist@@QAEXPAVCPartList@@PAVCMapStringToPtr@@PAVCFootLibFolderMap@@HPAVCDlgLog@@HPAV?$CStringT@DV?$StrTraitMFC_DLL@DV?$ChTraitsCRT@D@ATL@@@@@ATL@@@Z 0055ae90 f   DlgPartlist.obj
 0002:00063f50       ?OnBnClickedButtonEdit@CDlgPartlist@@QAEXXZ 0055af50 f   DlgPartlist.obj
 0002:00064700       ?OnBnClickedButtonAdd@CDlgPartlist@@QAEXXZ 0055b700 f   DlgPartlist.obj
 0002:00064930       ?OnBnClickedButtonDelete@CDlgPartlist@@QAEXXZ 0055b930 f   DlgPartlist.obj
 0002:00064ac0       ?OnLvnColumnClickList1@CDlgPartlist@@QAEXPAUtagNMHDR@@PAJ@Z 0055bac0 f   DlgPartlist.obj
 0002:00064cb0       ?OnBnClickedValueVisible@CDlgPartlist@@QAEXXZ 0055bcb0 f   DlgPartlist.obj
 0002:00064dc0       ?OnBnClickedValueInvisible@CDlgPartlist@@QAEXXZ 0055bdc0 f   DlgPartlist.obj
 0002:00064ec0       ?OnNMClickList1@CDlgPartlist@@QAEXPAUtagNMHDR@@PAJ@Z 0055bec0 f   DlgPartlist.obj
 0002:00064ff0       ?SaveSelections@CDlgPartlist@@QAEXXZ 0055bff0 f   DlgPartlist.obj
 0002:00065150       ?RestoreSelections@CDlgPartlist@@QAEXXZ 0055c150 f   DlgPartlist.obj
 0002:00065250       ??0?$CArray@Upart_info@@ABU1@@@QAE@XZ 0055c250 f i DlgPartlist.obj
 0002:000652e0       ?Serialize@?$CArray@Upart_info@@ABU1@@@UAEXAAVCArchive@@@Z 0055c2e0 f i DlgPartlist.obj
 0002:000653b0       ?Dump@?$CArray@Upart_info@@ABU1@@@UBEXAAVCDumpContext@@@Z 0055c3b0 f i DlgPartlist.obj
 0002:00065490       ?AssertValid@?$CArray@Upart_info@@ABU1@@@UBEXXZ 0055c490 f i DlgPartlist.obj
 0002:000655f0       ??_G?$CArray@Upart_info@@ABU1@@@UAEPAXI@Z 0055c5f0 f i DlgPartlist.obj
 0002:000655f0       ??_E?$CArray@Upart_info@@ABU1@@@UAEPAXI@Z 0055c5f0 f i DlgPartlist.obj
 0002:00065660       ??1?$CArray@Upart_info@@ABU1@@@UAE@XZ 0055c660 f i DlgPartlist.obj
 0002:00065790       ??$SerializeElements@Upart_info@@@@YGXAAVCArchive@@PAUpart_info@@H@Z 0055c790 f i DlgPartlist.obj
 0002:00065980       ??$DumpElements@Upart_info@@@@YGXAAVCDumpContext@@PBUpart_info@@H@Z 0055c980 f i DlgPartlist.obj
 0002:00065a70       ?WidthCompare@@YGHJJJ@Z    0055ca70 f   DlgProjectOptions.obj
 0002:00065ad0       ?_GetBaseClass@CDlgProjectOptions@@KGPAUCRuntimeClass@@XZ 0055cad0 f   DlgProjectOptions.obj
 0002:00065b20       ?GetThisClass@CDlgProjectOptions@@SGPAUCRuntimeClass@@XZ 0055cb20 f   DlgProjectOptions.obj
 0002:00065b60       ?GetRuntimeClass@CDlgProjectOptions@@UBEPAUCRuntimeClass@@XZ 0055cb60 f   DlgProjectOptions.obj
 0002:00065ba0       ??0CDlgProjectOptions@@QAE@PAVCWnd@@@Z 0055cba0 f   DlgProjectOptions.obj
 0002:00065e00       ??_GCDlgProjectOptions@@UAEPAXI@Z 0055ce00 f i DlgProjectOptions.obj
 0002:00065e00       ??_ECDlgProjectOptions@@UAEPAXI@Z 0055ce00 f i DlgProjectOptions.obj
 0002:00065e70       ??1CDlgProjectOptions@@UAE@XZ 0055ce70 f   DlgProjectOptions.obj
 0002:00066060       ?DoDataExchange@CDlgProjectOptions@@EAEXPAVCDataExchange@@@Z 0055d060 f   DlgProjectOptions.obj
 0002:00067590       ?GetMessageMap@CDlgProjectOptions@@MBEPBUAFX_MSGMAP@@XZ 0055e590 f   DlgProjectOptions.obj
 0002:000675e0       ?GetThisMessageMap@CDlgProjectOptions@@KGPBUAFX_MSGMAP@@XZ 0055e5e0 f   DlgProjectOptions.obj
 0002:00067620       ?Init@CDlgProjectOptions@@QAEXHPAV?$CStringT@DV?$StrTraitMFC_DLL@DV?$ChTraitsCRT@D@ATL@@@@@ATL@@000HHHHHHHHHPAV?$CArray@HABH@@11@Z 0055e620 f   DlgProjectOptions.obj
 0002:00067a50       ?OnInitDialog@CDlgProjectOptions@@EAEHXZ 0055ea50 f   DlgProjectOptions.obj
 0002:00068040       ?OnBnClickedButtonAdd@CDlgProjectOptions@@IAEXXZ 0055f040 f   DlgProjectOptions.obj
 0002:000684c0       ?OnBnClickedButtonEdit@CDlgProjectOptions@@IAEXXZ 0055f4c0 f   DlgProjectOptions.obj
 0002:00068a10       ?OnBnClickedButtonDelete@CDlgProjectOptions@@IAEXXZ 0055fa10 f   DlgProjectOptions.obj
 0002:00068af0       ?OnEnChangeEditName@CDlgProjectOptions@@IAEXXZ 0055faf0 f   DlgProjectOptions.obj
 0002:00068ca0       ?OnEnChangeEditFolder@CDlgProjectOptions@@IAEXXZ 0055fca0 f   DlgProjectOptions.obj
 0002:00068d00       ?OnEnSetfocusEditFolder@CDlgProjectOptions@@IAEXXZ 0055fd00 f   DlgProjectOptions.obj
 0002:00068d50       ?OnEnKillfocusEditFolder@CDlgProjectOptions@@IAEXXZ 0055fd50 f   DlgProjectOptions.obj
 0002:00068da0       ?OnBnClickedCheckAutosave@CDlgProjectOptions@@QAEXXZ 0055fda0 f   DlgProjectOptions.obj
 0002:00068e40       ?OnBnClickedButtonLib@CDlgProjectOptions@@QAEXXZ 0055fe40 f   DlgProjectOptions.obj
 0002:00069040       ?OnBnClickedButtonProjectFolder@CDlgProjectOptions@@QAEXXZ 00560040 f   DlgProjectOptions.obj
 0002:000692a0       ?OnBnClickedCheckAutoRatDisable@CDlgProjectOptions@@QAEXXZ 005602a0 f   DlgProjectOptions.obj
 0002:00069310       ?GetAt@?$CArray@HABH@@QAEAAHH@Z 00560310 f i DlgProjectOptions.obj
 0002:000693c0       ?SetAt@?$CArray@HABH@@QAEXHABH@Z 005603c0 f i DlgProjectOptions.obj
 0002:00069470       ?_GetBaseClass@CDlgReassignLayers@@KGPAUCRuntimeClass@@XZ 00560470 f   DlgReassignLayers.obj
 0002:000694c0       ?GetThisClass@CDlgReassignLayers@@SGPAUCRuntimeClass@@XZ 005604c0 f   DlgReassignLayers.obj
 0002:00069500       ?GetRuntimeClass@CDlgReassignLayers@@UBEPAUCRuntimeClass@@XZ 00560500 f   DlgReassignLayers.obj
 0002:00069540       ??0CDlgReassignLayers@@QAE@PAVCWnd@@@Z 00560540 f   DlgReassignLayers.obj
 0002:00069620       ??_ECDlgReassignLayers@@UAEPAXI@Z 00560620 f i DlgReassignLayers.obj
 0002:00069620       ??_GCDlgReassignLayers@@UAEPAXI@Z 00560620 f i DlgReassignLayers.obj
 0002:00069690       ??1CDlgReassignLayers@@UAE@XZ 00560690 f   DlgReassignLayers.obj
 0002:00069750       ?DoDataExchange@CDlgReassignLayers@@MAEXPAVCDataExchange@@@Z 00560750 f   DlgReassignLayers.obj
 0002:00069b60       ?Initialize@CDlgReassignLayers@@QAEXHH@Z 00560b60 f   DlgReassignLayers.obj
 0002:00069bc0       ?GetMessageMap@CDlgReassignLayers@@MBEPBUAFX_MSGMAP@@XZ 00560bc0 f   DlgReassignLayers.obj
 0002:00069c10       ?GetThisMessageMap@CDlgReassignLayers@@KGPBUAFX_MSGMAP@@XZ 00560c10 f   DlgReassignLayers.obj
 0002:00069c50       ?_GetBaseClass@CDlgRefText@@KGPAUCRuntimeClass@@XZ 00560c50 f   DlgRefText.obj
 0002:00069ca0       ?GetThisClass@CDlgRefText@@SGPAUCRuntimeClass@@XZ 00560ca0 f   DlgRefText.obj
 0002:00069ce0       ?GetRuntimeClass@CDlgRefText@@UBEPAUCRuntimeClass@@XZ 00560ce0 f   DlgRefText.obj
 0002:00069d20       ??0CDlgRefText@@QAE@PAVCWnd@@@Z 00560d20 f   DlgRefText.obj
 0002:00069eb0       ??_GCDlgRefText@@UAEPAXI@Z 00560eb0 f i DlgRefText.obj
 0002:00069eb0       ??_ECDlgRefText@@UAEPAXI@Z 00560eb0 f i DlgRefText.obj
 0002:00069f20       ??1CDlgRefText@@UAE@XZ     00560f20 f   DlgRefText.obj
 0002:0006a0a0       ?DoDataExchange@CDlgRefText@@MAEXPAVCDataExchange@@@Z 005610a0 f   DlgRefText.obj
 0002:0006a3f0       ?Initialize@CDlgRefText@@QAEXPAVCPartList@@PAVcpart@@PAVCMapStringToPtr@@@Z 005613f0 f   DlgRefText.obj
 0002:0006a500       ?GetMessageMap@CDlgRefText@@MBEPBUAFX_MSGMAP@@XZ 00561500 f   DlgRefText.obj
 0002:0006a550       ?GetThisMessageMap@CDlgRefText@@KGPBUAFX_MSGMAP@@XZ 00561550 f   DlgRefText.obj
 0002:0006a590       ?OnBnClickedRadioSet@CDlgRefText@@QAEXXZ 00561590 f   DlgRefText.obj
 0002:0006a5f0       ?OnBnClickedRadioDef@CDlgRefText@@QAEXXZ 005615f0 f   DlgRefText.obj
 0002:0006a650       ?OnEnChangeEditCharHeight@CDlgRefText@@QAEXXZ 00561650 f   DlgRefText.obj
 0002:0006a900       ?GetFields@CDlgRefText@@QAEXXZ 00561900 f   DlgRefText.obj
 0002:0006ac00       ?SetFields@CDlgRefText@@QAEXXZ 00561c00 f   DlgRefText.obj
 0002:0006af90       ?OnCbnSelchangeComboRefTextUnits@CDlgRefText@@QAEXXZ 00561f90 f   DlgRefText.obj
 0002:0006b030       ?_GetBaseClass@CDlgReport@@KGPAUCRuntimeClass@@XZ 00562030 f   DlgReport.obj
 0002:0006b080       ?GetThisClass@CDlgReport@@SGPAUCRuntimeClass@@XZ 00562080 f   DlgReport.obj
 0002:0006b0c0       ?GetRuntimeClass@CDlgReport@@UBEPAUCRuntimeClass@@XZ 005620c0 f   DlgReport.obj
 0002:0006b100       ??0CDlgReport@@QAE@PAVCWnd@@@Z 00562100 f   DlgReport.obj
 0002:0006b2b0       ??_ECDlgReport@@UAEPAXI@Z  005622b0 f i DlgReport.obj
 0002:0006b2b0       ??_GCDlgReport@@UAEPAXI@Z  005622b0 f i DlgReport.obj
 0002:0006b320       ??1CDlgReport@@UAE@XZ      00562320 f   DlgReport.obj
 0002:0006b4c0       ?DoDataExchange@CDlgReport@@MAEXPAVCDataExchange@@@Z 005624c0 f   DlgReport.obj
 0002:0006b800       ?Initialize@CDlgReport@@QAEXPAVCFreePcbDoc@@@Z 00562800 f   DlgReport.obj
 0002:0006b8f0       ?GetMessageMap@CDlgReport@@MBEPBUAFX_MSGMAP@@XZ 005628f0 f   DlgReport.obj
 0002:0006b940       ?GetThisMessageMap@CDlgReport@@KGPBUAFX_MSGMAP@@XZ 00562940 f   DlgReport.obj
 0002:0006b980       ?mycompare@@YAHPBX0@Z      00562980 f   DlgReport.obj
 0002:0006ba00       ?OnBnClickedOk@CDlgReport@@QAEXXZ 00562a00 f   DlgReport.obj
 0002:00072b60       ?OnBnClickedCancel@CDlgReport@@QAEXXZ 00569b60 f   DlgReport.obj
 0002:00072bd0       ?GetSize@?$CArray@Uglue@@ABU1@@@QBEHXZ 00569bd0 f i DlgReport.obj
 0002:00072c10       ??A?$CArray@Uglue@@ABU1@@@QAEAAUglue@@H@Z 00569c10 f i DlgReport.obj
 0002:00072c70       ?GetSize@?$CArray@Vcvertex@@ABV1@@@QBEHXZ 00569c70 f i DlgReport.obj
 0002:00072cb0       ??A?$CArray@Vcvertex@@ABV1@@@QAEAAVcvertex@@H@Z 00569cb0 f i DlgReport.obj
 0002:00072d10       ??A?$CArray@Vcconnect@@ABV1@@@QAEAAVcconnect@@H@Z 00569d10 f i DlgReport.obj
 0002:00072d70       ??0?$CMap@HHHH@@QAE@H@Z    00569d70 f i DlgReport.obj
 0002:00072e80       ?Lookup@?$CMap@HHHH@@QBEHHAAH@Z 00569e80 f i DlgReport.obj
 0002:00072f80       ?SetAt@?$CMap@HHHH@@QAEXHH@Z 00569f80 f i DlgReport.obj
 0002:00072fe0       ?GetStartPosition@?$CMap@HHHH@@QBEPAU__POSITION@@XZ 00569fe0 f i DlgReport.obj
 0002:00073030       ?GetNextAssoc@?$CMap@HHHH@@QBEXAAPAU__POSITION@@AAH1@Z 0056a030 f i DlgReport.obj
 0002:00073270       ??1?$CMap@HHHH@@UAE@XZ     0056a270 f i DlgReport.obj
 0002:00073340       ?Serialize@?$CMap@HHHH@@UAEXAAVCArchive@@@Z 0056a340 f i DlgReport.obj
 0002:00073560       ?Dump@?$CMap@HHHH@@UBEXAAVCDumpContext@@@Z 0056a560 f i DlgReport.obj
 0002:000736e0       ?AssertValid@?$CMap@HHHH@@UBEXXZ 0056a6e0 f i DlgReport.obj
 0002:00073790       ??0?$CArray@V?$CArray@V?$CStringT@DV?$StrTraitMFC_DLL@DV?$ChTraitsCRT@D@ATL@@@@@ATL@@ABV12@@@ABV1@@@QAE@XZ 0056a790 f i DlgReport.obj
 0002:00073820       ?SetSize@?$CArray@V?$CArray@V?$CStringT@DV?$StrTraitMFC_DLL@DV?$ChTraitsCRT@D@ATL@@@@@ATL@@ABV12@@@ABV1@@@QAEXHH@Z 0056a820 f i DlgReport.obj
 0002:00073f70       ??A?$CArray@V?$CArray@V?$CStringT@DV?$StrTraitMFC_DLL@DV?$ChTraitsCRT@D@ATL@@@@@ATL@@ABV12@@@ABV1@@@QAEAAV?$CArray@V?$CStringT@DV?$StrTraitMFC_DLL@DV?$ChTraitsCRT@D@ATL@@@@@ATL@@ABV12@@@H@Z 0056af70 f i DlgReport.obj
 0002:00073fd0       ??1?$CArray@V?$CArray@V?$CStringT@DV?$StrTraitMFC_DLL@DV?$ChTraitsCRT@D@ATL@@@@@ATL@@ABV12@@@ABV1@@@UAE@XZ 0056afd0 f i DlgReport.obj
 0002:00074120       ?Serialize@?$CArray@V?$CArray@V?$CStringT@DV?$StrTraitMFC_DLL@DV?$ChTraitsCRT@D@ATL@@@@@ATL@@ABV12@@@ABV1@@@UAEXAAVCArchive@@@Z 0056b120 f i DlgReport.obj
 0002:000741f0       ?Dump@?$CArray@V?$CArray@V?$CStringT@DV?$StrTraitMFC_DLL@DV?$ChTraitsCRT@D@ATL@@@@@ATL@@ABV12@@@ABV1@@@UBEXAAVCDumpContext@@@Z 0056b1f0 f i DlgReport.obj
 0002:000742d0       ?AssertValid@?$CArray@V?$CArray@V?$CStringT@DV?$StrTraitMFC_DLL@DV?$ChTraitsCRT@D@ATL@@@@@ATL@@ABV12@@@ABV1@@@UBEXXZ 0056b2d0 f i DlgReport.obj
 0002:00074430       ??_G?$CMap@HHHH@@UAEPAXI@Z 0056b430 f i DlgReport.obj
 0002:00074430       ??_E?$CMap@HHHH@@UAEPAXI@Z 0056b430 f i DlgReport.obj
 0002:000744a0       ??_G?$CArray@V?$CArray@V?$CStringT@DV?$StrTraitMFC_DLL@DV?$ChTraitsCRT@D@ATL@@@@@ATL@@ABV12@@@ABV1@@@UAEPAXI@Z 0056b4a0 f i DlgReport.obj
 0002:000744a0       ??_E?$CArray@V?$CArray@V?$CStringT@DV?$StrTraitMFC_DLL@DV?$ChTraitsCRT@D@ATL@@@@@ATL@@ABV12@@@ABV1@@@UAEPAXI@Z 0056b4a0 f i DlgReport.obj
 0002:00074510       ?ElementAt@?$CArray@Uglue@@ABU1@@@QAEAAUglue@@H@Z 0056b510 f i DlgReport.obj
 0002:000745c0       ?ElementAt@?$CArray@Vcvertex@@ABV1@@@QAEAAVcvertex@@H@Z 0056b5c0 f i DlgReport.obj
 0002:00074670       ?ElementAt@?$CArray@Vcconnect@@ABV1@@@QAEAAVcconnect@@H@Z 0056b670 f i DlgReport.obj
 0002:00074720       ??A?$CMap@HHHH@@QAEAAHH@Z  0056b720 f i DlgReport.obj
 0002:000748c0       ?RemoveAll@?$CMap@HHHH@@QAEXXZ 0056b8c0 f i DlgReport.obj
 0002:000749e0       ?GetAssocAt@?$CMap@HHHH@@IBEPAVCAssoc@1@HAAI0@Z 0056b9e0 f i DlgReport.obj
 0002:00074ac0       ?ElementAt@?$CArray@V?$CArray@V?$CStringT@DV?$StrTraitMFC_DLL@DV?$ChTraitsCRT@D@ATL@@@@@ATL@@ABV12@@@ABV1@@@QAEAAV?$CArray@V?$CStringT@DV?$StrTraitMFC_DLL@DV?$ChTraitsCRT@D@ATL@@@@@ATL@@ABV12@@@H@Z 0056bac0 f i DlgReport.obj
 0002:00074b70       ??$SerializeElements@V?$CArray@V?$CStringT@DV?$StrTraitMFC_DLL@DV?$ChTraitsCRT@D@ATL@@@@@ATL@@ABV12@@@@@YGXAAVCArchive@@PAV?$CArray@V?$CStringT@DV?$StrTraitMFC_DLL@DV?$ChTraitsCRT@D@ATL@@@@@ATL@@ABV12@@@H@Z 0056bb70 f i DlgReport.obj
 0002:00074d60       ??$DumpElements@V?$CArray@V?$CStringT@DV?$StrTraitMFC_DLL@DV?$ChTraitsCRT@D@ATL@@@@@ATL@@ABV12@@@@@YGXAAVCDumpContext@@PBV?$CArray@V?$CStringT@DV?$StrTraitMFC_DLL@DV?$ChTraitsCRT@D@ATL@@@@@ATL@@ABV12@@@H@Z 0056bd60 f i DlgReport.obj
 0002:00074e50       ?InitHashTable@?$CMap@HHHH@@QAEXIH@Z 0056be50 f i DlgReport.obj
 0002:00074fe0       ?NewAssoc@?$CMap@HHHH@@IAEPAVCAssoc@1@H@Z 0056bfe0 f i DlgReport.obj
 0002:00075230       ??$HashKey@H@@YGIH@Z       0056c230 f i DlgReport.obj
 0002:00075330       ??$CompareElements@HH@@YGHPBH0@Z 0056c330 f i DlgReport.obj
 0002:00075450       ??0CAssoc@?$CMap@HHHH@@QAE@H@Z 0056c450 f i DlgReport.obj
 0002:000754b0       ??0CPair@?$CMap@HHHH@@IAE@H@Z 0056c4b0 f i DlgReport.obj
 0002:00075500       ?data@CPlex@@QAEPAXXZ      0056c500 f i DlgReport.obj
 0002:00075540       ?GetNumParts@CPartList@@QAEHXZ 0056c540 f i DlgReport.obj
 0002:00075580       ?SetAtGrow@?$CArray@V?$CStringT@DV?$StrTraitMFC_DLL@DV?$ChTraitsCRT@D@ATL@@@@@ATL@@ABV12@@@QAEXHABV?$CStringT@DV?$StrTraitMFC_DLL@DV?$ChTraitsCRT@D@ATL@@@@@ATL@@@Z 0056c580 f i DlgReport.obj
 0002:00075660       ?_GetBaseClass@CDlgSaveFootprint@@KGPAUCRuntimeClass@@XZ 0056c660 f   DlgSaveFootprint.obj
 0002:000756b0       ?GetThisClass@CDlgSaveFootprint@@SGPAUCRuntimeClass@@XZ 0056c6b0 f   DlgSaveFootprint.obj
 0002:000756f0       ?GetRuntimeClass@CDlgSaveFootprint@@UBEPAUCRuntimeClass@@XZ 0056c6f0 f   DlgSaveFootprint.obj
 0002:00075730       ??0CDlgSaveFootprint@@QAE@PAVCWnd@@@Z 0056c730 f   DlgSaveFootprint.obj
 0002:00075970       ??_GCDlgSaveFootprint@@UAEPAXI@Z 0056c970 f i DlgSaveFootprint.obj
 0002:00075970       ??_ECDlgSaveFootprint@@UAEPAXI@Z 0056c970 f i DlgSaveFootprint.obj
 0002:000759e0       ??1CDlgSaveFootprint@@UAE@XZ 0056c9e0 f   DlgSaveFootprint.obj
 0002:00075c10       ?DoDataExchange@CDlgSaveFootprint@@MAEXPAVCDataExchange@@@Z 0056cc10 f   DlgSaveFootprint.obj
 0002:00076070       ?Initialize@CDlgSaveFootprint@@QAEXPAV?$CStringT@DV?$StrTraitMFC_DLL@DV?$ChTraitsCRT@D@ATL@@@@@ATL@@PAVCShape@@HPBDPAVCMapStringToPtr@@PAVCFootLibFolderMap@@PAVCDlgLog@@@Z 0056d070 f   DlgSaveFootprint.obj
 0002:00076220       ?GetMessageMap@CDlgSaveFootprint@@MBEPBUAFX_MSGMAP@@XZ 0056d220 f   DlgSaveFootprint.obj
 0002:00076270       ?GetThisMessageMap@CDlgSaveFootprint@@KGPBUAFX_MSGMAP@@XZ 0056d270 f   DlgSaveFootprint.obj
 0002:000762b0       ?OnCbnSelchangeComboLibs@CDlgSaveFootprint@@QAEXXZ 0056d2b0 f   DlgSaveFootprint.obj
 0002:00076310       ?OnBnClickedOk@CDlgSaveFootprint@@QAEXXZ 0056d310 f   DlgSaveFootprint.obj
 0002:00078870       ??0CFootLibFolder@@QAE@XZ  0056f870 f i DlgSaveFootprint.obj
 0002:00078940       ??_GCFootLibFolder@@QAEPAXI@Z 0056f940 f i DlgSaveFootprint.obj
 0002:000789b0       ?OnBnClickedButtonBrowse@CDlgSaveFootprint@@QAEXXZ 0056f9b0 f   DlgSaveFootprint.obj
 0002:00078df0       ?InitFileList@CDlgSaveFootprint@@QAEXXZ 0056fdf0 f   DlgSaveFootprint.obj
 0002:00079340       ??8ATL@@YA_NPBDABV?$CStringT@DV?$StrTraitMFC_DLL@DV?$ChTraitsCRT@D@ATL@@@@@0@@Z 00570340 f i DlgSaveFootprint.obj
 0002:000793b0       ??0?$CArray@VCFootLib@@ABV1@@@QAE@XZ 005703b0 f i DlgSaveFootprint.obj
 0002:00079440       ??$strcat@$0BAA@@@YAPADAAY0BAA@DPBD@Z 00570440 f i DlgSaveFootprint.obj
 0002:000794b0       ??1CFootLibFolder@@QAE@XZ  005704b0 f i DlgSaveFootprint.obj
 0002:00079580       ??1?$CArray@VCFootLib@@ABV1@@@UAE@XZ 00570580 f i DlgSaveFootprint.obj
 0002:000796b0       ?Serialize@?$CArray@VCFootLib@@ABV1@@@UAEXAAVCArchive@@@Z 005706b0 f i DlgSaveFootprint.obj
 0002:00079780       ?Dump@?$CArray@VCFootLib@@ABV1@@@UBEXAAVCDumpContext@@@Z 00570780 f i DlgSaveFootprint.obj
 0002:00079860       ?AssertValid@?$CArray@VCFootLib@@ABV1@@@UBEXXZ 00570860 f i DlgSaveFootprint.obj
 0002:000799c0       ??_E?$CArray@VCFootLib@@ABV1@@@UAEPAXI@Z 005709c0 f i DlgSaveFootprint.obj
 0002:000799c0       ??_G?$CArray@VCFootLib@@ABV1@@@UAEPAXI@Z 005709c0 f i DlgSaveFootprint.obj
 0002:00079a30       ??_GCFootLib@@QAEPAXI@Z    00570a30 f i DlgSaveFootprint.obj
 0002:00079aa0       ??1CFootLib@@QAE@XZ        00570aa0 f i DlgSaveFootprint.obj
 0002:00079b70       ??1?$CArray@VCFootLibEntry@@ABV1@@@UAE@XZ 00570b70 f i DlgSaveFootprint.obj
 0002:00079ca0       ?Serialize@?$CArray@VCFootLibEntry@@ABV1@@@UAEXAAVCArchive@@@Z 00570ca0 f i DlgSaveFootprint.obj
 0002:00079d70       ?Dump@?$CArray@VCFootLibEntry@@ABV1@@@UBEXAAVCDumpContext@@@Z 00570d70 f i DlgSaveFootprint.obj
 0002:00079e50       ?AssertValid@?$CArray@VCFootLibEntry@@ABV1@@@UBEXXZ 00570e50 f i DlgSaveFootprint.obj
 0002:00079fb0       ??_E?$CArray@VCFootLibEntry@@ABV1@@@UAEPAXI@Z 00570fb0 f i DlgSaveFootprint.obj
 0002:00079fb0       ??_G?$CArray@VCFootLibEntry@@ABV1@@@UAEPAXI@Z 00570fb0 f i DlgSaveFootprint.obj
 0002:0007a020       ??_GCFootLibEntry@@QAEPAXI@Z 00571020 f i DlgSaveFootprint.obj
 0002:0007a090       ??1CFootLibEntry@@QAE@XZ   00571090 f i DlgSaveFootprint.obj
 0002:0007a110       ?SetSize@?$CArray@VCFootLibEntry@@ABV1@@@QAEXHH@Z 00571110 f i DlgSaveFootprint.obj
 0002:0007a810       ??0CFootLibEntry@@QAE@XZ   00571810 f i DlgSaveFootprint.obj
 0002:0007a930       ??$SerializeElements@VCFootLibEntry@@@@YGXAAVCArchive@@PAVCFootLibEntry@@H@Z 00571930 f i DlgSaveFootprint.obj
 0002:0007ab20       ??$DumpElements@VCFootLibEntry@@@@YGXAAVCDumpContext@@PBVCFootLibEntry@@H@Z 00571b20 f i DlgSaveFootprint.obj
 0002:0007ac10       ?SetSize@?$CArray@VCFootLib@@ABV1@@@QAEXHH@Z 00571c10 f i DlgSaveFootprint.obj
 0002:0007b310       ??0CFootLib@@QAE@XZ        00572310 f i DlgSaveFootprint.obj
 0002:0007b400       ??0?$CArray@VCFootLibEntry@@ABV1@@@QAE@XZ 00572400 f i DlgSaveFootprint.obj
 0002:0007b490       ??$SerializeElements@VCFootLib@@@@YGXAAVCArchive@@PAVCFootLib@@H@Z 00572490 f i DlgSaveFootprint.obj
 0002:0007b680       ??$DumpElements@VCFootLib@@@@YGXAAVCDumpContext@@PBVCFootLib@@H@Z 00572680 f i DlgSaveFootprint.obj
 0002:0007b770       ?_GetBaseClass@CDlgSaveLib@@KGPAUCRuntimeClass@@XZ 00572770 f   DlgSaveLib.obj
 0002:0007b7c0       ?GetThisClass@CDlgSaveLib@@SGPAUCRuntimeClass@@XZ 005727c0 f   DlgSaveLib.obj
 0002:0007b800       ?GetRuntimeClass@CDlgSaveLib@@UBEPAUCRuntimeClass@@XZ 00572800 f   DlgSaveLib.obj
 0002:0007b840       ??0CDlgSaveLib@@QAE@PAVCWnd@@@Z 00572840 f   DlgSaveLib.obj
 0002:0007b920       ??_ECDlgSaveLib@@UAEPAXI@Z 00572920 f i DlgSaveLib.obj
 0002:0007b920       ??_GCDlgSaveLib@@UAEPAXI@Z 00572920 f i DlgSaveLib.obj
 0002:0007b990       ??1CDlgSaveLib@@UAE@XZ     00572990 f   DlgSaveLib.obj
 0002:0007ba60       ?DoDataExchange@CDlgSaveLib@@MAEXPAVCDataExchange@@@Z 00572a60 f   DlgSaveLib.obj
 0002:0007bbc0       ?GetMessageMap@CDlgSaveLib@@MBEPBUAFX_MSGMAP@@XZ 00572bc0 f   DlgSaveLib.obj
 0002:0007bc10       ?GetThisMessageMap@CDlgSaveLib@@KGPBUAFX_MSGMAP@@XZ 00572c10 f   DlgSaveLib.obj
 0002:0007bc50       ?Initialize@CDlgSaveLib@@QAEXPAV?$CArray@V?$CStringT@DV?$StrTraitMFC_DLL@DV?$ChTraitsCRT@D@ATL@@@@@ATL@@ABV12@@@@Z 00572c50 f   DlgSaveLib.obj
 0002:0007bde0       ?OnBnClickedDelete@CDlgSaveLib@@QAEXXZ 00572de0 f   DlgSaveLib.obj
 0002:0007be90       ?OnBnClickedButtonTop@CDlgSaveLib@@QAEXXZ 00572e90 f   DlgSaveLib.obj
 0002:0007c090       ?OnBnClickedButtonUp@CDlgSaveLib@@QAEXXZ 00573090 f   DlgSaveLib.obj
 0002:0007c2a0       ?OnBnClickedButtonDown@CDlgSaveLib@@QAEXXZ 005732a0 f   DlgSaveLib.obj
 0002:0007c4d0       ?OnBnClickedButtonBottom@CDlgSaveLib@@QAEXXZ 005734d0 f   DlgSaveLib.obj
 0002:0007c6e0       ?GetSelected@CDlgSaveLib@@QAEXXZ 005736e0 f   DlgSaveLib.obj
 0002:0007c7d0       ?ResetSelected@CDlgSaveLib@@QAEXXZ 005737d0 f   DlgSaveLib.obj
 0002:0007c8d0       ?_GetBaseClass@CDlgSetAreaHatch@@KGPAUCRuntimeClass@@XZ 005738d0 f   DlgSetAreaHatch.obj
 0002:0007c920       ?GetThisClass@CDlgSetAreaHatch@@SGPAUCRuntimeClass@@XZ 00573920 f   DlgSetAreaHatch.obj
 0002:0007c960       ?GetRuntimeClass@CDlgSetAreaHatch@@UBEPAUCRuntimeClass@@XZ 00573960 f   DlgSetAreaHatch.obj
 0002:0007c9a0       ??0CDlgSetAreaHatch@@QAE@PAVCWnd@@@Z 005739a0 f   DlgSetAreaHatch.obj
 0002:0007ca90       ??_ECDlgSetAreaHatch@@UAEPAXI@Z 00573a90 f i DlgSetAreaHatch.obj
 0002:0007ca90       ??_GCDlgSetAreaHatch@@UAEPAXI@Z 00573a90 f i DlgSetAreaHatch.obj
 0002:0007cb00       ??1CDlgSetAreaHatch@@UAE@XZ 00573b00 f   DlgSetAreaHatch.obj
 0002:0007cbe0       ?DoDataExchange@CDlgSetAreaHatch@@MAEXPAVCDataExchange@@@Z 00573be0 f   DlgSetAreaHatch.obj
 0002:0007cd80       ?GetMessageMap@CDlgSetAreaHatch@@MBEPBUAFX_MSGMAP@@XZ 00573d80 f   DlgSetAreaHatch.obj
 0002:0007cdd0       ?GetThisMessageMap@CDlgSetAreaHatch@@KGPBUAFX_MSGMAP@@XZ 00573dd0 f   DlgSetAreaHatch.obj
 0002:0007ce10       ?Init@CDlgSetAreaHatch@@QAEXH@Z 00573e10 f   DlgSetAreaHatch.obj
 0002:0007ce60       ?_GetBaseClass@DlgSetSegmentWidth@@KGPAUCRuntimeClass@@XZ 00573e60 f   DlgSetSegmentWidth.obj
 0002:0007ceb0       ?GetThisClass@DlgSetSegmentWidth@@SGPAUCRuntimeClass@@XZ 00573eb0 f   DlgSetSegmentWidth.obj
 0002:0007cef0       ?GetRuntimeClass@DlgSetSegmentWidth@@UBEPAUCRuntimeClass@@XZ 00573ef0 f   DlgSetSegmentWidth.obj
 0002:0007cf30       ??0DlgSetSegmentWidth@@QAE@PAVCWnd@@@Z 00573f30 f   DlgSetSegmentWidth.obj
 0002:0007d210       ??_GDlgSetSegmentWidth@@UAEPAXI@Z 00574210 f i DlgSetSegmentWidth.obj
 0002:0007d210       ??_EDlgSetSegmentWidth@@UAEPAXI@Z 00574210 f i DlgSetSegmentWidth.obj
 0002:0007d280       ??1DlgSetSegmentWidth@@UAE@XZ 00574280 f   DlgSetSegmentWidth.obj
 0002:0007d4a0       ?DoDataExchange@DlgSetSegmentWidth@@MAEXPAVCDataExchange@@@Z 005744a0 f   DlgSetSegmentWidth.obj
 0002:0007d8b0       ?GetMessageMap@DlgSetSegmentWidth@@MBEPBUAFX_MSGMAP@@XZ 005748b0 f   DlgSetSegmentWidth.obj
 0002:0007d900       ?GetThisMessageMap@DlgSetSegmentWidth@@KGPBUAFX_MSGMAP@@XZ 00574900 f   DlgSetSegmentWidth.obj
 0002:0007d940       ?OnBnClickedDefNet@DlgSetSegmentWidth@@QAEXXZ 00574940 f   DlgSetSegmentWidth.obj
 0002:0007d980       ?OnBnClickedApplyNet@DlgSetSegmentWidth@@QAEXXZ 00574980 f   DlgSetSegmentWidth.obj
 0002:0007da10       ?OnBnClickedApplyCon@DlgSetSegmentWidth@@QAEXXZ 00574a10 f   DlgSetSegmentWidth.obj
 0002:0007daa0       ?OnBnClickedApplySeg@DlgSetSegmentWidth@@QAEXXZ 00574aa0 f   DlgSetSegmentWidth.obj
 0002:0007db30       ?OnInitDialog@DlgSetSegmentWidth@@UAEHXZ 00574b30 f   DlgSetSegmentWidth.obj
 0002:0007e000       ?OnBnClickedRadioDefVia@DlgSetSegmentWidth@@QAEXXZ 00575000 f   DlgSetSegmentWidth.obj
 0002:0007e2e0       ?OnBnClickedRadioSetVia@DlgSetSegmentWidth@@QAEXXZ 005752e0 f   DlgSetSegmentWidth.obj
 0002:0007e380       ?OnCbnSelchangeComboWidth@DlgSetSegmentWidth@@QAEXXZ 00575380 f   DlgSetSegmentWidth.obj
 0002:0007e5d0       ?OnCbnEditchangeComboWidth@DlgSetSegmentWidth@@QAEXXZ 005755d0 f   DlgSetSegmentWidth.obj
 0002:0007e8d0       ?OnBnClickedRadioModTv@DlgSetSegmentWidth@@QAEXXZ 005758d0 f   DlgSetSegmentWidth.obj
 0002:0007e920       ?OnBnClickedRadioModT@DlgSetSegmentWidth@@QAEXXZ 00575920 f   DlgSetSegmentWidth.obj
 0002:0007e970       ?OnBnClickedRadioModV@DlgSetSegmentWidth@@QAEXXZ 00575970 f   DlgSetSegmentWidth.obj
 0002:0007e9c0       ?OnBnClickedRadioModify@DlgSetSegmentWidth@@QAEXXZ 005759c0 f   DlgSetSegmentWidth.obj
 0002:0007ec10       ?_GetBaseClass@CDlgSetTraceWidths@@KGPAUCRuntimeClass@@XZ 00575c10 f   DlgSetTraceWidths.obj
 0002:0007ec60       ?GetThisClass@CDlgSetTraceWidths@@SGPAUCRuntimeClass@@XZ 00575c60 f   DlgSetTraceWidths.obj
 0002:0007eca0       ?GetRuntimeClass@CDlgSetTraceWidths@@UBEPAUCRuntimeClass@@XZ 00575ca0 f   DlgSetTraceWidths.obj
 0002:0007ece0       ??0CDlgSetTraceWidths@@QAE@PAVCWnd@@@Z 00575ce0 f   DlgSetTraceWidths.obj
 0002:0007ef70       ??_ECDlgSetTraceWidths@@UAEPAXI@Z 00575f70 f i DlgSetTraceWidths.obj
 0002:0007ef70       ??_GCDlgSetTraceWidths@@UAEPAXI@Z 00575f70 f i DlgSetTraceWidths.obj
 0002:0007efe0       ??1CDlgSetTraceWidths@@UAE@XZ 00575fe0 f   DlgSetTraceWidths.obj
 0002:0007f180       ?DoDataExchange@CDlgSetTraceWidths@@MAEXPAVCDataExchange@@@Z 00576180 f   DlgSetTraceWidths.obj
 0002:0007f950       ?GetMessageMap@CDlgSetTraceWidths@@MBEPBUAFX_MSGMAP@@XZ 00576950 f   DlgSetTraceWidths.obj
 0002:0007f9a0       ?GetThisMessageMap@CDlgSetTraceWidths@@KGPBUAFX_MSGMAP@@XZ 005769a0 f   DlgSetTraceWidths.obj
 0002:0007f9e0       ?OnBnClickedRadioDef@CDlgSetTraceWidths@@AAEXXZ 005769e0 f   DlgSetTraceWidths.obj
 0002:0007fa40       ?OnBnClickedRadioSet@CDlgSetTraceWidths@@AAEXXZ 00576a40 f   DlgSetTraceWidths.obj
 0002:0007fa90       ?OnCbnSelchangeComboWidth@CDlgSetTraceWidths@@QAEXXZ 00576a90 f   DlgSetTraceWidths.obj
 0002:000800e0       ?OnCbnEditchangeComboWidth@CDlgSetTraceWidths@@QAEXXZ 005770e0 f   DlgSetTraceWidths.obj
 0002:00080710       ?OnBnClickedSetTrace@CDlgSetTraceWidths@@QAEXXZ 00577710 f   DlgSetTraceWidths.obj
 0002:00080760       ?OnBnClickedSetVias@CDlgSetTraceWidths@@QAEXXZ 00577760 f   DlgSetTraceWidths.obj
 0002:000807b0       ?SetFields@CDlgSetTraceWidths@@QAEXXZ 005777b0 f   DlgSetTraceWidths.obj
 0002:00080b40       ?OnBnClickedRadioRevertTraces@CDlgSetTraceWidths@@QAEXXZ 00577b40 f   DlgSetTraceWidths.obj
 0002:00080b90       ?OnBnClickedRadioRevertVias@CDlgSetTraceWidths@@QAEXXZ 00577b90 f   DlgSetTraceWidths.obj
 0002:00080be0       ?OnBnClickedRadioSetTraceWidth@CDlgSetTraceWidths@@QAEXXZ 00577be0 f   DlgSetTraceWidths.obj
 0002:00080c30       ?OnBnClickedRadioSetSize@CDlgSetTraceWidths@@QAEXXZ 00577c30 f   DlgSetTraceWidths.obj
 0002:00080c70       ?_GetBaseClass@CDlgShortcuts@@KGPAUCRuntimeClass@@XZ 00577c70 f   DlgShortcuts.obj
 0002:00080cc0       ?GetThisClass@CDlgShortcuts@@SGPAUCRuntimeClass@@XZ 00577cc0 f   DlgShortcuts.obj
 0002:00080d00       ?GetRuntimeClass@CDlgShortcuts@@UBEPAUCRuntimeClass@@XZ 00577d00 f   DlgShortcuts.obj
 0002:00080d40       ??0CDlgShortcuts@@QAE@PAVCWnd@@@Z 00577d40 f   DlgShortcuts.obj
 0002:00080db0       ??_ECDlgShortcuts@@UAEPAXI@Z 00577db0 f i DlgShortcuts.obj
 0002:00080db0       ??_GCDlgShortcuts@@UAEPAXI@Z 00577db0 f i DlgShortcuts.obj
 0002:00080e20       ??1CDlgShortcuts@@UAE@XZ   00577e20 f   DlgShortcuts.obj
 0002:00080e80       ?DoDataExchange@CDlgShortcuts@@MAEXPAVCDataExchange@@@Z 00577e80 f   DlgShortcuts.obj
 0002:00080ee0       ?GetMessageMap@CDlgShortcuts@@MBEPBUAFX_MSGMAP@@XZ 00577ee0 f   DlgShortcuts.obj
 0002:00080f30       ?GetThisMessageMap@CDlgShortcuts@@KGPBUAFX_MSGMAP@@XZ 00577f30 f   DlgShortcuts.obj
 0002:00080f70       ?_GetBaseClass@CDlgSideStyle@@KGPAUCRuntimeClass@@XZ 00577f70 f   DlgSideStyle.obj
 0002:00080fc0       ?GetThisClass@CDlgSideStyle@@SGPAUCRuntimeClass@@XZ 00577fc0 f   DlgSideStyle.obj
 0002:00081000       ?GetRuntimeClass@CDlgSideStyle@@UBEPAUCRuntimeClass@@XZ 00578000 f   DlgSideStyle.obj
 0002:00081040       ??0CDlgSideStyle@@QAE@PAVCWnd@@@Z 00578040 f   DlgSideStyle.obj
 0002:000810b0       ??_ECDlgSideStyle@@UAEPAXI@Z 005780b0 f i DlgSideStyle.obj
 0002:000810b0       ??_GCDlgSideStyle@@UAEPAXI@Z 005780b0 f i DlgSideStyle.obj
 0002:00081120       ??1CDlgSideStyle@@UAE@XZ   00578120 f   DlgSideStyle.obj
 0002:00081180       ?DoDataExchange@CDlgSideStyle@@MAEXPAVCDataExchange@@@Z 00578180 f   DlgSideStyle.obj
 0002:00081200       ?GetMessageMap@CDlgSideStyle@@MBEPBUAFX_MSGMAP@@XZ 00578200 f   DlgSideStyle.obj
 0002:00081250       ?GetThisMessageMap@CDlgSideStyle@@KGPBUAFX_MSGMAP@@XZ 00578250 f   DlgSideStyle.obj
 0002:00081290       ?Initialize@CDlgSideStyle@@QAEXH@Z 00578290 f   DlgSideStyle.obj
 0002:000812e0       ?_GetBaseClass@CDlgSlot@@KGPAUCRuntimeClass@@XZ 005782e0 f   DlgSlot.obj
 0002:00081330       ?GetThisClass@CDlgSlot@@SGPAUCRuntimeClass@@XZ 00578330 f   DlgSlot.obj
 0002:00081370       ?GetRuntimeClass@CDlgSlot@@UBEPAUCRuntimeClass@@XZ 00578370 f   DlgSlot.obj
 0002:000813b0       ??0CDlgSlot@@QAE@PAVCWnd@@@Z 005783b0 f   DlgSlot.obj
 0002:00081540       ??_GCDlgSlot@@UAEPAXI@Z    00578540 f i DlgSlot.obj
 0002:00081540       ??_ECDlgSlot@@UAEPAXI@Z    00578540 f i DlgSlot.obj
 0002:000815b0       ??1CDlgSlot@@UAE@XZ        005785b0 f   DlgSlot.obj
 0002:00081730       ?DoDataExchange@CDlgSlot@@MAEXPAVCDataExchange@@@Z 00578730 f   DlgSlot.obj
 0002:00081970       ?GetMessageMap@CDlgSlot@@MBEPBUAFX_MSGMAP@@XZ 00578970 f   DlgSlot.obj
 0002:000819c0       ?GetThisMessageMap@CDlgSlot@@KGPBUAFX_MSGMAP@@XZ 005789c0 f   DlgSlot.obj
 0002:00081a00       ?Initialize@CDlgSlot@@QAEXHHHHHHHH@Z 00578a00 f   DlgSlot.obj
 0002:00081ab0       ?SetFields@CDlgSlot@@QAEXXZ 00578ab0 f   DlgSlot.obj
 0002:00081e50       ?GetFields@CDlgSlot@@QAEXXZ 00578e50 f   DlgSlot.obj
 0002:000820b0       ?OnCbnSelChangeCombo1@CDlgSlot@@QAEXXZ 005790b0 f   DlgSlot.obj
 0002:00082150       ?OnBnClickedSet@CDlgSlot@@QAEXXZ 00579150 f   DlgSlot.obj
 0002:000821b0       ?OnBnClickedDrag@CDlgSlot@@QAEXXZ 005791b0 f   DlgSlot.obj
 0002:00082210       ?OnBnClickedPlated@CDlgSlot@@QAEXXZ 00579210 f   DlgSlot.obj
 0002:00082270       ?OnBnClickedUnplated@CDlgSlot@@QAEXXZ 00579270 f   DlgSlot.obj
 0002:000822d0       ?_GetBaseClass@CDlgValueText@@KGPAUCRuntimeClass@@XZ 005792d0 f   DlgValueText.obj
 0002:00082320       ?GetThisClass@CDlgValueText@@SGPAUCRuntimeClass@@XZ 00579320 f   DlgValueText.obj
 0002:00082360       ?GetRuntimeClass@CDlgValueText@@UBEPAUCRuntimeClass@@XZ 00579360 f   DlgValueText.obj
 0002:000823a0       ??0CDlgValueText@@QAE@PAVCWnd@@@Z 005793a0 f   DlgValueText.obj
 0002:00082530       ??_ECDlgValueText@@UAEPAXI@Z 00579530 f i DlgValueText.obj
 0002:00082530       ??_GCDlgValueText@@UAEPAXI@Z 00579530 f i DlgValueText.obj
 0002:000825a0       ??1CDlgValueText@@UAE@XZ   005795a0 f   DlgValueText.obj
 0002:00082720       ?DoDataExchange@CDlgValueText@@MAEXPAVCDataExchange@@@Z 00579720 f   DlgValueText.obj
 0002:00082ab0       ?Initialize@CDlgValueText@@QAEXPAVCPartList@@PAVcpart@@@Z 00579ab0 f   DlgValueText.obj
 0002:00082ba0       ?GetMessageMap@CDlgValueText@@MBEPBUAFX_MSGMAP@@XZ 00579ba0 f   DlgValueText.obj
 0002:00082bf0       ?GetThisMessageMap@CDlgValueText@@KGPBUAFX_MSGMAP@@XZ 00579bf0 f   DlgValueText.obj
 0002:00082c30       ?OnBnClickedRadioSet@CDlgValueText@@QAEXXZ 00579c30 f   DlgValueText.obj
 0002:00082c90       ?OnBnClickedRadioDef@CDlgValueText@@QAEXXZ 00579c90 f   DlgValueText.obj
 0002:00082cf0       ?OnEnChangeEditCharHeight@CDlgValueText@@QAEXXZ 00579cf0 f   DlgValueText.obj
 0002:00082fa0       ?GetFields@CDlgValueText@@QAEXXZ 00579fa0 f   DlgValueText.obj
 0002:00083280       ?SetFields@CDlgValueText@@QAEXXZ 0057a280 f   DlgValueText.obj
 0002:000835f0       ?OnCbnSelchangeComboRefTextUnits@CDlgValueText@@QAEXXZ 0057a5f0 f   DlgValueText.obj
 0002:00083690       ?_GetBaseClass@CDlgVia@@KGPAUCRuntimeClass@@XZ 0057a690 f   DlgVia.obj
 0002:000836e0       ?GetThisClass@CDlgVia@@SGPAUCRuntimeClass@@XZ 0057a6e0 f   DlgVia.obj
 0002:00083720       ?GetRuntimeClass@CDlgVia@@UBEPAUCRuntimeClass@@XZ 0057a720 f   DlgVia.obj
 0002:00083760       ??0CDlgVia@@QAE@PAVCWnd@@@Z 0057a760 f   DlgVia.obj
 0002:00083840       ??_ECDlgVia@@UAEPAXI@Z     0057a840 f i DlgVia.obj
 0002:00083840       ??_GCDlgVia@@UAEPAXI@Z     0057a840 f i DlgVia.obj
 0002:000838b0       ??1CDlgVia@@UAE@XZ         0057a8b0 f   DlgVia.obj
 0002:00083980       ?DoDataExchange@CDlgVia@@MAEXPAVCDataExchange@@@Z 0057a980 f   DlgVia.obj
 0002:00084100       ?Initialize@CDlgVia@@QAEXHHPAV?$CArray@HABH@@0HHH@Z 0057b100 f   DlgVia.obj
 0002:000841a0       ?GetMessageMap@CDlgVia@@MBEPBUAFX_MSGMAP@@XZ 0057b1a0 f   DlgVia.obj
 0002:000841f0       ?GetThisMessageMap@CDlgVia@@KGPBUAFX_MSGMAP@@XZ 0057b1f0 f   DlgVia.obj
 0002:00084230       ?OnChange@CDlgVia@@QAEXXZ  0057b230 f   DlgVia.obj
 0002:00084530       ?_GetBaseClass@CDlgWizQuad@@KGPAUCRuntimeClass@@XZ 0057b530 f   DlgWizQuad.obj
 0002:00084580       ?GetThisClass@CDlgWizQuad@@SGPAUCRuntimeClass@@XZ 0057b580 f   DlgWizQuad.obj
 0002:000845c0       ?GetRuntimeClass@CDlgWizQuad@@UBEPAUCRuntimeClass@@XZ 0057b5c0 f   DlgWizQuad.obj
 0002:00084600       ??0CDlgWizQuad@@QAE@PAVCWnd@@@Z 0057b600 f   DlgWizQuad.obj
 0002:000849a0       ??_GCDlgWizQuad@@UAEPAXI@Z 0057b9a0 f i DlgWizQuad.obj
 0002:000849a0       ??_ECDlgWizQuad@@UAEPAXI@Z 0057b9a0 f i DlgWizQuad.obj
 0002:00084a10       ??1CDlgWizQuad@@UAE@XZ     0057ba10 f   DlgWizQuad.obj
 0002:00084da0       ?DoDataExchange@CDlgWizQuad@@MAEXPAVCDataExchange@@@Z 0057bda0 f   DlgWizQuad.obj
 0002:00085680       ?Initialize@CDlgWizQuad@@QAEXPAVCMapStringToPtr@@PAVCFootLibFolderMap@@HPAVCDlgLog@@@Z 0057c680 f   DlgWizQuad.obj
 0002:00085700       ?GetMessageMap@CDlgWizQuad@@MBEPBUAFX_MSGMAP@@XZ 0057c700 f   DlgWizQuad.obj
 0002:00085750       ?GetThisMessageMap@CDlgWizQuad@@KGPBUAFX_MSGMAP@@XZ 0057c750 f   DlgWizQuad.obj
 0002:00085790       ?OnBnClickedRadioC1@CDlgWizQuad@@AAEXXZ 0057c790 f   DlgWizQuad.obj
 0002:00085810       ?OnBnClickedRadioG1@CDlgWizQuad@@AAEXXZ 0057c810 f   DlgWizQuad.obj
 0002:00085890       ?OnBnClickedRadioZ1@CDlgWizQuad@@AAEXXZ 0057c890 f   DlgWizQuad.obj
 0002:00085910       ?OnBnClickedRadioC2@CDlgWizQuad@@AAEXXZ 0057c910 f   DlgWizQuad.obj
 0002:00085990       ?OnBnClickedRadioG2@CDlgWizQuad@@AAEXXZ 0057c990 f   DlgWizQuad.obj
 0002:00085a10       ?OnBnClickedRadioZ2@CDlgWizQuad@@AAEXXZ 0057ca10 f   DlgWizQuad.obj
 0002:00085a90       ?OnCbnSelchangeComboWizShape@CDlgWizQuad@@AAEXXZ 0057ca90 f   DlgWizQuad.obj
 0002:00085f70       ?OnEnChangeEditWizNpins@CDlgWizQuad@@AAEXXZ 0057cf70 f   DlgWizQuad.obj
 0002:00086310       ?OnEnChangeEditWizHpins@CDlgWizQuad@@AAEXXZ 0057d310 f   DlgWizQuad.obj
 0002:00086590       ?OnEnChangeEditWizX@CDlgWizQuad@@AAEXXZ 0057d590 f   DlgWizQuad.obj
 0002:00086760       ?OnEnChangeEditWizY@CDlgWizQuad@@AAEXXZ 0057d760 f   DlgWizQuad.obj
 0002:000868c0       ?OnEnChangeEditWizR@CDlgWizQuad@@AAEXXZ 0057d8c0 f   DlgWizQuad.obj
 0002:00086a20       ?OnEnChangeEditE@CDlgWizQuad@@AAEXXZ 0057da20 f   DlgWizQuad.obj
 0002:00086b70       ?OnEnChangeEditC1@CDlgWizQuad@@AAEXXZ 0057db70 f   DlgWizQuad.obj
 0002:00086cf0       ?OnEnChangeEditG1@CDlgWizQuad@@AAEXXZ 0057dcf0 f   DlgWizQuad.obj
 0002:00086e70       ?OnEnChangeEditZ1@CDlgWizQuad@@AAEXXZ 0057de70 f   DlgWizQuad.obj
 0002:00086ff0       ?OnEnChangeEditC2@CDlgWizQuad@@AAEXXZ 0057dff0 f   DlgWizQuad.obj
 0002:00087170       ?OnEnChangeEditG2@CDlgWizQuad@@AAEXXZ 0057e170 f   DlgWizQuad.obj
 0002:000872f0       ?OnEnChangeEditZ2@CDlgWizQuad@@AAEXXZ 0057e2f0 f   DlgWizQuad.obj
 0002:00087470       ?ReviseDependentVariables@CDlgWizQuad@@AAEXXZ 0057e470 f   DlgWizQuad.obj
 0002:00087bd0       ?OnCbnSelchangeComboWizType@CDlgWizQuad@@AAEXXZ 0057ebd0 f   DlgWizQuad.obj
 0002:000889b0       ?OnCbnSelchangeComboWizUnits@CDlgWizQuad@@AAEXXZ 0057f9b0 f   DlgWizQuad.obj
 0002:00088e80       ?FormatDimensionString@CDlgWizQuad@@AAEXPAV?$CStringT@DV?$StrTraitMFC_DLL@DV?$ChTraitsCRT@D@ATL@@@@@ATL@@HH@Z 0057fe80 f   DlgWizQuad.obj
 0002:00088f80       ?OnBnClickedButtonSave@CDlgWizQuad@@AAEXXZ 0057ff80 f   DlgWizQuad.obj
 0002:00089120       ?OnCbnSelchangeComboPin1@CDlgWizQuad@@AAEXXZ 00580120 f   DlgWizQuad.obj
 0002:00089190       ?OnEnChangeEditWizHd@CDlgWizQuad@@AAEXXZ 00580190 f   DlgWizQuad.obj
 0002:000892e0       ?OnBnClickedWizButtonExit@CDlgWizQuad@@AAEXXZ 005802e0 f   DlgWizQuad.obj
 0002:00089350       ?OnBnClickedButton2@CDlgWizQuad@@AAEXXZ 00580350 f   DlgWizQuad.obj
 0002:00089500       ?MakeFootprint@CDlgWizQuad@@QAEHXZ 00580500 f   DlgWizQuad.obj
 0002:0008cdc0       ?ParseStringFields@@YAHPAV?$CStringT@DV?$StrTraitMFC_DLL@DV?$ChTraitsCRT@D@ATL@@@@@ATL@@PAV?$CArray@V?$CStringT@DV?$StrTraitMFC_DLL@DV?$ChTraitsCRT@D@ATL@@@@@ATL@@ABV12@@@@Z 00583dc0 f   file_io.obj
 0002:0008d120       ?ParseKeyString@@YAHPAV?$CStringT@DV?$StrTraitMFC_DLL@DV?$ChTraitsCRT@D@ATL@@@@@ATL@@0PAV?$CArray@V?$CStringT@DV?$StrTraitMFC_DLL@DV?$ChTraitsCRT@D@ATL@@@@@ATL@@ABV12@@@@Z 00584120 f   file_io.obj
 0002:0008d880       ?my_atoi@@YAHPAV?$CStringT@DV?$StrTraitMFC_DLL@DV?$ChTraitsCRT@D@ATL@@@@@ATL@@@Z 00584880 f   file_io.obj
 0002:0008df90       ?my_atof@@YANPAV?$CStringT@DV?$StrTraitMFC_DLL@DV?$ChTraitsCRT@D@ATL@@@@@ATL@@@Z 00584f90 f   file_io.obj
 0002:0008e760       ?IndexLib@CFootLibFolder@@QAEXPAV?$CStringT@DV?$StrTraitMFC_DLL@DV?$ChTraitsCRT@D@ATL@@@@@ATL@@PAVCDlgLog@@@Z 00585760 f   FootprintLib.obj
 0002:0008f640       ?IndexAllLibs@CFootLibFolder@@QAEXPAV?$CStringT@DV?$StrTraitMFC_DLL@DV?$ChTraitsCRT@D@ATL@@@@@ATL@@PAVCDlgLog@@@Z 00586640 f   FootprintLib.obj
 0002:0008f9a0       ?Clear@CFootLibFolder@@QAEXXZ 005869a0 f   FootprintLib.obj
 0002:0008fa20       ?GetNumLibs@CFootLibFolder@@QAEHXZ 00586a20 f   FootprintLib.obj
 0002:0008fa80       ?GetFullPath@CFootLibFolder@@QAEPAV?$CStringT@DV?$StrTraitMFC_DLL@DV?$ChTraitsCRT@D@ATL@@@@@ATL@@XZ 00586a80 f   FootprintLib.obj
 0002:0008fac0       ?GetFootprintInfo@CFootLibFolder@@QAEHPAV?$CStringT@DV?$StrTraitMFC_DLL@DV?$ChTraitsCRT@D@ATL@@@@@ATL@@0PAH1011@Z 00586ac0 f   FootprintLib.obj
 0002:00090000       ?SearchFileName@CFootLibFolder@@QAEHPAV?$CStringT@DV?$StrTraitMFC_DLL@DV?$ChTraitsCRT@D@ATL@@@@@ATL@@@Z 00587000 f   FootprintLib.obj
 0002:000900b0       ?GetLibraryFullPath@CFootLibFolder@@QAEPAV?$CStringT@DV?$StrTraitMFC_DLL@DV?$ChTraitsCRT@D@ATL@@@@@ATL@@H@Z 005870b0 f   FootprintLib.obj
 0002:00090110       ?GetLibraryFileName@CFootLibFolder@@QAEPAV?$CStringT@DV?$StrTraitMFC_DLL@DV?$ChTraitsCRT@D@ATL@@@@@ATL@@H@Z 00587110 f   FootprintLib.obj
 0002:00090170       ?GetNumFootprints@CFootLibFolder@@QAEHH@Z 00587170 f   FootprintLib.obj
 0002:000901e0       ?GetFootprintName@CFootLibFolder@@QAEPAV?$CStringT@DV?$StrTraitMFC_DLL@DV?$ChTraitsCRT@D@ATL@@@@@ATL@@HH@Z 005871e0 f   FootprintLib.obj
 0002:00090250       ?GetFootprintPackage@CFootLibFolder@@QAEPAV?$CStringT@DV?$StrTraitMFC_DLL@DV?$ChTraitsCRT@D@ATL@@@@@ATL@@HH@Z 00587250 f   FootprintLib.obj
 0002:000902c0       ?GetFootprintOffset@CFootLibFolder@@QAEHHH@Z 005872c0 f   FootprintLib.obj
 0002:00090330       ??0CFootLibFolderMap@@QAE@XZ 00587330 f   FootprintLib.obj
 0002:000903c0       ??1CFootLibFolderMap@@QAE@XZ 005873c0 f   FootprintLib.obj
 0002:000905c0       ?AddFolder@CFootLibFolderMap@@QAEXPAV?$CStringT@DV?$StrTraitMFC_DLL@DV?$ChTraitsCRT@D@ATL@@@@@ATL@@PAVCFootLibFolder@@@Z 005875c0 f   FootprintLib.obj
 0002:00090730       ?GetFolder@CFootLibFolderMap@@QAEPAVCFootLibFolder@@PAV?$CStringT@DV?$StrTraitMFC_DLL@DV?$ChTraitsCRT@D@ATL@@@@@ATL@@PAVCDlgLog@@@Z 00587730 f   FootprintLib.obj
 0002:00090a50       ?FolderIndexed@CFootLibFolderMap@@QAEHPAV?$CStringT@DV?$StrTraitMFC_DLL@DV?$ChTraitsCRT@D@ATL@@@@@ATL@@@Z 00587a50 f   FootprintLib.obj
 0002:00090c10       ?SetDefaultFolder@CFootLibFolderMap@@QAEXPAV?$CStringT@DV?$StrTraitMFC_DLL@DV?$ChTraitsCRT@D@ATL@@@@@ATL@@@Z 00587c10 f   FootprintLib.obj
 0002:00090c80       ?SetLastFolder@CFootLibFolderMap@@QAEXPAV?$CStringT@DV?$StrTraitMFC_DLL@DV?$ChTraitsCRT@D@ATL@@@@@ATL@@@Z 00587c80 f   FootprintLib.obj
 0002:00090cf0       ?GetDefaultFolder@CFootLibFolderMap@@QAEPAV?$CStringT@DV?$StrTraitMFC_DLL@DV?$ChTraitsCRT@D@ATL@@@@@ATL@@XZ 00587cf0 f   FootprintLib.obj
 0002:00090d30       ?GetLastFolder@CFootLibFolderMap@@QAEPAV?$CStringT@DV?$StrTraitMFC_DLL@DV?$ChTraitsCRT@D@ATL@@@@@ATL@@XZ 00587d30 f   FootprintLib.obj
 0002:00090db0       ?GetSize@?$CArray@VCFootLibEntry@@ABV1@@@QBEHXZ 00587db0 f i FootprintLib.obj
 0002:00090df0       ??A?$CArray@VCFootLibEntry@@ABV1@@@QAEAAVCFootLibEntry@@H@Z 00587df0 f i FootprintLib.obj
 0002:00090e50       ?GetSize@?$CArray@VCFootLib@@ABV1@@@QBEHXZ 00587e50 f i FootprintLib.obj
 0002:00090e90       ?RemoveAll@?$CArray@VCFootLib@@ABV1@@@QAEXXZ 00587e90 f i FootprintLib.obj
 0002:00090ef0       ?ElementAt@?$CArray@VCFootLibEntry@@ABV1@@@QAEAAVCFootLibEntry@@H@Z 00587ef0 f i FootprintLib.obj
 0002:00090fa0       ?CreateObject@CFootprintView@@SGPAVCObject@@XZ 00587fa0 f   FootprintView.obj
 0002:00091090       ?_GetBaseClass@CFootprintView@@KGPAUCRuntimeClass@@XZ 00588090 f   FootprintView.obj
 0002:000910e0       ?GetThisClass@CFootprintView@@SGPAUCRuntimeClass@@XZ 005880e0 f   FootprintView.obj
 0002:00091120       ?GetRuntimeClass@CFootprintView@@UBEPAUCRuntimeClass@@XZ 00588120 f   FootprintView.obj
 0002:00091160       ?GetMessageMap@CFootprintView@@MBEPBUAFX_MSGMAP@@XZ 00588160 f   FootprintView.obj
 0002:000911b0       ?GetThisMessageMap@CFootprintView@@KGPBUAFX_MSGMAP@@XZ 005881b0 f   FootprintView.obj
 0002:000911f0       ??0CFootprintView@@QAE@XZ  005881f0 f   FootprintView.obj
 0002:00091760       ??_ECFootprintView@@UAEPAXI@Z 00588760 f i FootprintView.obj
 0002:00091760       ??_GCFootprintView@@UAEPAXI@Z 00588760 f i FootprintView.obj
 0002:000917d0       ?InitInstance@CFootprintView@@QAEXPAVCShape@@@Z 005887d0 f   FootprintView.obj
 0002:00091c00       ?InitializeView@CFootprintView@@QAEXXZ 00588c00 f   FootprintView.obj
 0002:00091d40       ??1CFootprintView@@UAE@XZ  00588d40 f   FootprintView.obj
 0002:00091e80       ?PreCreateWindow@CFootprintView@@UAEHAAUtagCREATESTRUCTA@@@Z 00588e80 f   FootprintView.obj
 0002:00091ee0       ?OnDraw@CFootprintView@@UAEXPAVCDC@@@Z 00588ee0 f   FootprintView.obj
 0002:00092840       ?OnPreparePrinting@CFootprintView@@MAEHPAUCPrintInfo@@@Z 00589840 f   FootprintView.obj
 0002:000928a0       ?OnBeginPrinting@CFootprintView@@MAEXPAVCDC@@PAUCPrintInfo@@@Z 005898a0 f   FootprintView.obj
 0002:000928e0       ?OnEndPrinting@CFootprintView@@MAEXPAVCDC@@PAUCPrintInfo@@@Z 005898e0 f   FootprintView.obj
 0002:00092920       ?AssertValid@CFootprintView@@UBEXXZ 00589920 f   FootprintView.obj
 0002:00092970       ?Dump@CFootprintView@@UBEXAAVCDumpContext@@@Z 00589970 f   FootprintView.obj
 0002:000929d0       ?GetDocument@CFootprintView@@QAEPAVCFreePcbDoc@@XZ 005899d0 f   FootprintView.obj
 0002:00092a70       ?OnSize@CFootprintView@@IAEXIHH@Z 00589a70 f   FootprintView.obj
 0002:00092e40       ?MoveToLayer@CFootprintView@@QAEXH@Z 00589e40 f   FootprintView.obj
 0002:00092f80       ?SelectSimilar@CFootprintView@@QAEXH@Z 00589f80 f   FootprintView.obj
 0002:000931a0       ?MoveGroup@CFootprintView@@QAEXHH@Z 0058a1a0 f   FootprintView.obj
 0002:000935a0       ?RotateGroup@CFootprintView@@QAEXH@Z 0058a5a0 f   FootprintView.obj
 0002:00093d70       ?MirrorGroup@CFootprintView@@QAEXXZ 0058ad70 f   FootprintView.obj
 0002:00094700       ?DuplicateGroup@CFootprintView@@QAEXXZ 0058b700 f   FootprintView.obj
 0002:00094eb0       ?GroupDelete@CFootprintView@@QAEXXZ 0058beb0 f   FootprintView.obj
 0002:00095380       ?HighlightGroup@CFootprintView@@QAEXXZ 0058c380 f   FootprintView.obj
 0002:00095620       ?SelectItemsInRect@CFootprintView@@QAEXVCRect@@@Z 0058c620 f   FootprintView.obj
 0002:00095f80       ?OnLButtonUp@CFootprintView@@IAEXIVCPoint@@@Z 0058cf80 f   FootprintView.obj
 0002:00097610       ?OnLButtonDown@CFootprintView@@IAEXIVCPoint@@@Z 0058e610 f   FootprintView.obj
 0002:00097b00       ?OnLButtonDblClk@CFootprintView@@IAEXIVCPoint@@@Z 0058eb00 f   FootprintView.obj
 0002:00097b60       ?OnRButtonDown@CFootprintView@@IAEXIVCPoint@@@Z 0058eb60 f   FootprintView.obj
 0002:000981c0       ?OnSysKeyDown@CFootprintView@@IAEXIII@Z 0058f1c0 f   FootprintView.obj
 0002:00098250       ?OnSysKeyUp@CFootprintView@@IAEXIII@Z 0058f250 f   FootprintView.obj
 0002:000982c0       ?OnKeyDown@CFootprintView@@IAEXIII@Z 0058f2c0 f   FootprintView.obj
 0002:00098340       ?HandleKeyPress@CFootprintView@@QAEXIII@Z 0058f340 f   FootprintView.obj
 0002:0009a6c0       ?GetX@DlgEditBoardCorner@@QAEHXZ 005916c0 f i FootprintView.obj
 0002:0009a700       ?GetY@DlgEditBoardCorner@@QAEHXZ 00591700 f i FootprintView.obj
 0002:0009a740       ?OnMouseMove@CFootprintView@@IAEXIVCPoint@@@Z 00591740 f   FootprintView.obj
 0002:0009ab00       ?abs@@YAJJ@Z               00591b00 f i FootprintView.obj
 0002:0009ab50       ?SetDCToWorldCoords@CFootprintView@@QAEHPAVCDC@@@Z 00591b50 f   FootprintView.obj
 0002:0009abf0       ?WindowToPCB@CFootprintView@@QAE?AVCPoint@@V2@@Z 00591bf0 f   FootprintView.obj
 0002:0009ad10       ?ScreenToPCB@CFootprintView@@QAE?AVCPoint@@V2@@Z 00591d10 f   FootprintView.obj
 0002:0009ae30       ?PCBToScreen@CFootprintView@@QAE?AVCPoint@@V2@@Z 00591e30 f   FootprintView.obj
 0002:0009af70       ?SetCursorMode@CFootprintView@@QAEXH@Z 00591f70 f   FootprintView.obj
 0002:0009aff0       ?SetFKText@CFootprintView@@QAEXH@Z 00591ff0 f   FootprintView.obj
 0002:0009b900       ?DrawBottomPane@CFootprintView@@QAEXXZ 00592900 f   FootprintView.obj
 0002:0009bc80       ?ShowSelectStatus@CFootprintView@@QAEHXZ 00592c80 f   FootprintView.obj
 0002:0009ca90       ?ShowCursor@CFootprintView@@QAEHXZ 00593a90 f   FootprintView.obj
 0002:0009cd30       ?OnMouseWheel@CFootprintView@@IAEHIFVCPoint@@@Z 00593d30 f   FootprintView.obj
 0002:0009d730       ?CancelSelection@CFootprintView@@QAEXXZ 00594730 f   FootprintView.obj
 0002:0009d9a0       ?OnContextMenu@CFootprintView@@QAEXPAVCWnd@@VCPoint@@@Z 005949a0 f   FootprintView.obj
 0002:0009e1a0       ?OnPadDelete@CFootprintView@@QAEXH@Z 005951a0 f   FootprintView.obj
 0002:0009e270       ?OnPadEdit@CFootprintView@@QAEXH@Z 00595270 f   FootprintView.obj
 0002:0009e5a0       ?OnPadMove@CFootprintView@@QAEXHH@Z 005955a0 f   FootprintView.obj
 0002:0009e750       ?OnGroupMove@CFootprintView@@QAEXXZ 00595750 f   FootprintView.obj
 0002:0009f040       ?OnPolylineDelete@CFootprintView@@QAEXXZ 00596040 f   FootprintView.obj
 0002:0009f0a0       ?PolylineDelete@CFootprintView@@QAEXXZ 005960a0 f   FootprintView.obj
 0002:0009f170       ?OnPolylineCornerMove@CFootprintView@@QAEXXZ 00596170 f   FootprintView.obj
 0002:0009f2a0       ?OnPolylineCornerEdit@CFootprintView@@QAEXXZ 005962a0 f   FootprintView.obj
 0002:0009f570       ?OnPolylineCornerDelete@CFootprintView@@QAEXXZ 00596570 f   FootprintView.obj
 0002:0009f660       ?OnPolylineSideAddCorner@CFootprintView@@QAEXXZ 00596660 f   FootprintView.obj
 0002:0009f790       ?CurNone@CFootprintView@@QAEHXZ 00596790 f   FootprintView.obj
 0002:0009f7e0       ?CurSelected@CFootprintView@@QAEHXZ 005967e0 f   FootprintView.obj
 0002:0009f860       ?CurDragging@CFootprintView@@QAEHXZ 00596860 f   FootprintView.obj
 0002:0009f8b0       ?CurDraggingPlacement@CFootprintView@@QAEHXZ 005968b0 f   FootprintView.obj
 0002:0009f970       ?SnapCursorPoint@CFootprintView@@QAEXVCPoint@@@Z 00596970 f   FootprintView.obj
 0002:000a03d0       ?OnChangeVisibleGrid@CFootprintView@@QAEJIJ@Z 005973d0 f   FootprintView.obj
 0002:000a0480       ?OnChangePlacementGrid@CFootprintView@@QAEJIJ@Z 00597480 f   FootprintView.obj
 0002:000a0510       ?OnChangeSnapAngle@CFootprintView@@QAEJIJ@Z 00597510 f   FootprintView.obj
 0002:000a0600       ?OnChangeUnits@CFootprintView@@QAEJIJ@Z 00597600 f   FootprintView.obj
 0002:000a06e0       ?OnEraseBkgnd@CFootprintView@@QAEHPAVCDC@@@Z 005976e0 f   FootprintView.obj
 0002:000a0730       ?OnPolylineSideConvertToStraightLine@CFootprintView@@QAEXXZ 00597730 f   FootprintView.obj
 0002:000a0850       ?OnPolylineSideConvertToArcCw@CFootprintView@@QAEXXZ 00597850 f   FootprintView.obj
 0002:000a0970       ?OnPolylineSideConvertToArcCcw@CFootprintView@@QAEXXZ 00597970 f   FootprintView.obj
 0002:000a0a90       ?OnAddPin@CFootprintView@@QAEXXZ 00597a90 f   FootprintView.obj
 0002:000a0f30       ?OnFootprintFileSaveAs@CFootprintView@@QAEXXZ 00597f30 f   FootprintView.obj
 0002:000a1200       ?OnAddPolyline@CFootprintView@@QAEXXZ 00598200 f   FootprintView.obj
 0002:000a1260       ?AddPolyline@CFootprintView@@QAEXPAVid@@@Z 00598260 f   FootprintView.obj
 0002:000a12a0       ?OnFootprintFileClose@CFootprintView@@QAEXXZ 005982a0 f   FootprintView.obj
 0002:000a1ab0       ?OnFootprintFileNew@CFootprintView@@QAEXXZ 00598ab0 f   FootprintView.obj
 0002:000a1bd0       ?FootprintModified@CFootprintView@@QAEXHHH@Z 00598bd0 f   FootprintView.obj
 0002:000a1f40       ?FootprintNameChanged@CFootprintView@@QAEXPAV?$CStringT@DV?$StrTraitMFC_DLL@DV?$ChTraitsCRT@D@ATL@@@@@ATL@@@Z 00598f40 f   FootprintView.obj
 0002:000a1fb0       ?OnViewEntireFootprint@CFootprintView@@QAEXXZ 00598fb0 f   FootprintView.obj
 0002:000a22f0       ?ClearUndo@CFootprintView@@QAEXXZ 005992f0 f   FootprintView.obj
 0002:000a23f0       ??_GCShape@@QAEPAXI@Z      005993f0 f i FootprintView.obj
 0002:000a2460       ?ClearRedo@CFootprintView@@QAEXXZ 00599460 f   FootprintView.obj
 0002:000a2560       ?PushUndo@CFootprintView@@QAEXXZ 00599560 f   FootprintView.obj
 0002:000a2760       ?PushRedo@CFootprintView@@QAEXXZ 00599760 f   FootprintView.obj
 0002:000a2960       ?Undo@CFootprintView@@QAEXXZ 00599960 f   FootprintView.obj
 0002:000a29c0       ?UndoNoRedo@CFootprintView@@QAEXXZ 005999c0 f   FootprintView.obj
 0002:000a2b50       ?Redo@CFootprintView@@QAEXXZ 00599b50 f   FootprintView.obj
 0002:000a2cf0       ?OnEditUndo@CFootprintView@@QAEXXZ 00599cf0 f   FootprintView.obj
 0002:000a2d40       ?OnEditRedo@CFootprintView@@QAEXXZ 00599d40 f   FootprintView.obj
 0002:000a2d90       ?OnFpMove@CFootprintView@@QAEXXZ 00599d90 f   FootprintView.obj
 0002:000a2df0       ?OnFpEditproperties@CFootprintView@@QAEXXZ 00599df0 f   FootprintView.obj
 0002:000a2e50       ?OnFpDelete@CFootprintView@@QAEXXZ 00599e50 f   FootprintView.obj
 0002:000a2eb0       ?OnFpToolsFootprintwizard@CFootprintView@@QAEXXZ 00599eb0 f   FootprintView.obj
 0002:000a3140       ?SetWindowTitle@CFootprintView@@QAEXPAV?$CStringT@DV?$StrTraitMFC_DLL@DV?$ChTraitsCRT@D@ATL@@@@@ATL@@@Z 0059a140 f   FootprintView.obj
 0002:000a3280       ?OnToolsFootprintLibraryManager@CFootprintView@@QAEXXZ 0059a280 f   FootprintView.obj
 0002:000a33a0       ?OnAddText@CFootprintView@@QAEXXZ 0059a3a0 f   FootprintView.obj
 0002:000a37c0       ?OnFpTextEdit@CFootprintView@@QAEXXZ 0059a7c0 f   FootprintView.obj
 0002:000a3bb0       ?OnFpTextMove@CFootprintView@@QAEXXZ 0059abb0 f   FootprintView.obj
 0002:000a3d30       ?OnFpTextDelete@CFootprintView@@QAEXXZ 0059ad30 f   FootprintView.obj
 0002:000a3dd0       ?ShowActiveLayer@CFootprintView@@QAEHXZ 0059add0 f   FootprintView.obj
 0002:000a41b0       ?OnToolsMoveOriginFP@CFootprintView@@QAEXXZ 0059b1b0 f   FootprintView.obj
 0002:000a43e0       ?MoveOrigin@CFootprintView@@QAEXHH@Z 0059b3e0 f   FootprintView.obj
 0002:000a46b0       ?EnableUndo@CFootprintView@@QAEXH@Z 0059b6b0 f   FootprintView.obj
 0002:000a4780       ?EnableRedo@CFootprintView@@QAEXH@Z 0059b780 f   FootprintView.obj
 0002:000a4850       ?OnCentroidEdit@CFootprintView@@QAEXXZ 0059b850 f   FootprintView.obj
 0002:000a4ad0       ?OnCentroidMove@CFootprintView@@QAEXXZ 0059bad0 f   FootprintView.obj
 0002:000a4c30       ?OnAddSlot@CFootprintView@@QAEXXZ 0059bc30 f   FootprintView.obj
 0002:000a4d50       ?OnAddHole@CFootprintView@@QAEXXZ 0059bd50 f   FootprintView.obj
 0002:000a4e60       ?OnAddAdhesive@CFootprintView@@QAEXXZ 0059be60 f   FootprintView.obj
 0002:000a4ea0       ?OnAdhesiveEdit@CFootprintView@@QAEXXZ 0059bea0 f   FootprintView.obj
 0002:000a4ee0       ?OnAdhesiveMove@CFootprintView@@QAEXXZ 0059bee0 f   FootprintView.obj
 0002:000a4f50       ?OnAdhesiveDrag@CFootprintView@@QAEXXZ 0059bf50 f   FootprintView.obj
 0002:000a50e0       ?OnAdhesiveDelete@CFootprintView@@QAEXXZ 0059c0e0 f   FootprintView.obj
 0002:000a51b0       ?OnCentroidRotateAxis@CFootprintView@@QAEXXZ 0059c1b0 f   FootprintView.obj
 0002:000a5290       ??9ATL@@YA_NABV?$CStringT@DV?$StrTraitMFC_DLL@DV?$ChTraitsCRT@D@ATL@@@@@0@PBD@Z 0059c290 f i FootprintView.obj
 0002:000a5300       ?RemoveAt@?$CArray@VCPolyLine@@ABV1@@@QAEXHH@Z 0059c300 f i FootprintView.obj
 0002:000a54e0       ?RemoveAt@?$CArray@Uglue@@ABU1@@@QAEXHH@Z 0059c4e0 f i FootprintView.obj
 0002:000a5690       ??0?$CArray@PAVCShape@@ABQAV1@@@QAE@XZ 0059c690 f i FootprintView.obj
 0002:000a5720       ?GetSize@?$CArray@PAVCShape@@ABQAV1@@@QBEHXZ 0059c720 f i FootprintView.obj
 0002:000a5760       ?RemoveAll@?$CArray@PAVCShape@@ABQAV1@@@QAEXXZ 0059c760 f i FootprintView.obj
 0002:000a57c0       ?Add@?$CArray@PAVCShape@@ABQAV1@@@QAEHABQAVCShape@@@Z 0059c7c0 f i FootprintView.obj
 0002:000a5830       ??A?$CArray@PAVCShape@@ABQAV1@@@QAEAAPAVCShape@@H@Z 0059c830 f i FootprintView.obj
 0002:000a5890       ?RemoveAt@?$CArray@PAVCShape@@ABQAV1@@@QAEXHH@Z 0059c890 f i FootprintView.obj
 0002:000a5a40       ??$strcpy@$0CA@@@YAPADAAY0CA@DPBD@Z 0059ca40 f i FootprintView.obj
 0002:000a5ab0       ?ElementAt@?$CArray@PAVCShape@@ABQAV1@@@QAEAAPAVCShape@@H@Z 0059cab0 f i FootprintView.obj
 0002:000a5b60       ?SetAtGrow@?$CArray@PAVCShape@@ABQAV1@@@QAEXHABQAVCShape@@@Z 0059cb60 f i FootprintView.obj
 0002:000a5c30       ?Clear@id@@QAEXXZ          0059cc30 f i FootprintView.obj
 0002:000a5cb0       ?SetTopLayer@CDisplayList@@QAEXH@Z 0059ccb0 f i FootprintView.obj
 0002:000a5d00       ?SetLayerDrawOrder@CDisplayList@@QAEXHH@Z 0059cd00 f i FootprintView.obj
 0002:000a5d60       ?GetHatch@CPolyLine@@QAEHXZ 0059cd60 f i FootprintView.obj
 0002:000a5da0       ?GetDisplayList@CPolyLine@@QAEPAVCDisplayList@@XZ 0059cda0 f i FootprintView.obj
 0002:000a5de0       ?SetHatch@CPolyLine@@QAEXH@Z 0059cde0 f i FootprintView.obj
 0002:000a5e50       ?GetNumTexts@CTextList@@QAEHXZ 0059ce50 f i FootprintView.obj
 0002:000a5eb0       ?InvalidateLeftPane@CFootprintView@@QAEXXZ 0059ceb0 f i FootprintView.obj
 0002:000a5f00       ??1?$CArray@PAVCShape@@ABQAV1@@@UAE@XZ 0059cf00 f i FootprintView.obj
 0002:000a6010       ?Serialize@?$CArray@PAVCShape@@ABQAV1@@@UAEXAAVCArchive@@@Z 0059d010 f i FootprintView.obj
 0002:000a60e0       ?Dump@?$CArray@PAVCShape@@ABQAV1@@@UBEXAAVCDumpContext@@@Z 0059d0e0 f i FootprintView.obj
 0002:000a61c0       ?AssertValid@?$CArray@PAVCShape@@ABQAV1@@@UBEXXZ 0059d1c0 f i FootprintView.obj
 0002:000a6320       ??_GCPolyLine@@QAEPAXI@Z   0059d320 f i FootprintView.obj
 0002:000a6390       ??_E?$CArray@PAVCShape@@ABQAV1@@@UAEPAXI@Z 0059d390 f i FootprintView.obj
 0002:000a6390       ??_G?$CArray@PAVCShape@@ABQAV1@@@UAEPAXI@Z 0059d390 f i FootprintView.obj
 0002:000a6400       ?SetSize@?$CArray@VCPolyLine@@ABV1@@@QAEXHH@Z 0059d400 f i FootprintView.obj
 0002:000a6b50       ?SetSize@?$CArray@Uglue@@ABU1@@@QAEXHH@Z 0059db50 f i FootprintView.obj
 0002:000a70f0       ?SetSize@?$CArray@PAVCShape@@ABQAV1@@@QAEXHH@Z 0059e0f0 f i FootprintView.obj
 0002:000a7680       ??$SerializeElements@PAVCShape@@@@YGXAAVCArchive@@PAPAVCShape@@H@Z 0059e680 f i FootprintView.obj
 0002:000a7870       ??$DumpElements@PAVCShape@@@@YGXAAVCDumpContext@@PBQAVCShape@@H@Z 0059e870 f i FootprintView.obj
 0002:000a7960       ?CreateObject@CFreePcbDoc@@SGPAVCObject@@XZ 0059e960 f   FreePcbDoc.obj
 0002:000a7a50       ?_GetBaseClass@CFreePcbDoc@@KGPAUCRuntimeClass@@XZ 0059ea50 f   FreePcbDoc.obj
 0002:000a7aa0       ?GetThisClass@CFreePcbDoc@@SGPAUCRuntimeClass@@XZ 0059eaa0 f   FreePcbDoc.obj
 0002:000a7ae0       ?GetRuntimeClass@CFreePcbDoc@@UBEPAUCRuntimeClass@@XZ 0059eae0 f   FreePcbDoc.obj
 0002:000a7b20       ?GetMessageMap@CFreePcbDoc@@MBEPBUAFX_MSGMAP@@XZ 0059eb20 f   FreePcbDoc.obj
 0002:000a7b70       ?GetThisMessageMap@CFreePcbDoc@@KGPBUAFX_MSGMAP@@XZ 0059eb70 f   FreePcbDoc.obj
 0002:000a7bb0       ??0CFreePcbDoc@@IAE@XZ     0059ebb0 f   FreePcbDoc.obj
 0002:000a8d20       ??_ECFreePcbDoc@@UAEPAXI@Z 0059fd20 f i FreePcbDoc.obj
 0002:000a8d20       ??_GCFreePcbDoc@@UAEPAXI@Z 0059fd20 f i FreePcbDoc.obj
 0002:000a8d90       ??1CFreePcbDoc@@UAE@XZ     0059fd90 f   FreePcbDoc.obj
 0002:000a97c0       ??_GCTextList@@QAEPAXI@Z   005a07c0 f i FreePcbDoc.obj
 0002:000a9830       ??_GDRErrorList@@QAEPAXI@Z 005a0830 f i FreePcbDoc.obj
 0002:000a98a0       ??_GCUndoList@@QAEPAXI@Z   005a08a0 f i FreePcbDoc.obj
 0002:000a9910       ??_GCNetList@@QAEPAXI@Z    005a0910 f i FreePcbDoc.obj
 0002:000a9980       ??_GCPartList@@QAEPAXI@Z   005a0980 f i FreePcbDoc.obj
 0002:000a99f0       ??_GCDisplayList@@QAEPAXI@Z 005a09f0 f i FreePcbDoc.obj
 0002:000a9a60       ??_GSMFontUtil@@QAEPAXI@Z  005a0a60 f i FreePcbDoc.obj
 0002:000a9ad0       ?SendInitialUpdate@CFreePcbDoc@@QAEXXZ 005a0ad0 f   FreePcbDoc.obj
 0002:000a9b20       ?OnNewDocument@CFreePcbDoc@@UAEHXZ 005a0b20 f   FreePcbDoc.obj
 0002:000a9bf0       ?Serialize@CFreePcbDoc@@UAEXAAVCArchive@@@Z 005a0bf0 f   FreePcbDoc.obj
 0002:000a9c30       ?AssertValid@CFreePcbDoc@@UBEXXZ 005a0c30 f   FreePcbDoc.obj
 0002:000a9c80       ?Dump@CFreePcbDoc@@UBEXAAVCDumpContext@@@Z 005a0c80 f   FreePcbDoc.obj
 0002:000a9ce0       ?OnSaveDocument@CFreePcbDoc@@UAEHPBD@Z 005a0ce0 f   FreePcbDoc.obj
 0002:000a9d40       ?OnFileNew@CFreePcbDoc@@QAEXXZ 005a0d40 f   FreePcbDoc.obj
 0002:000aad30       ?GetName@CDlgProjectOptions@@QAE?AV?$CStringT@DV?$StrTraitMFC_DLL@DV?$ChTraitsCRT@D@ATL@@@@@ATL@@XZ 005a1d30 f i FreePcbDoc.obj
 0002:000aadc0       ?GetPathToFolder@CDlgProjectOptions@@QAE?AV?$CStringT@DV?$StrTraitMFC_DLL@DV?$ChTraitsCRT@D@ATL@@@@@ATL@@XZ 005a1dc0 f i FreePcbDoc.obj
 0002:000aae50       ?GetLibFolder@CDlgProjectOptions@@QAE?AV?$CStringT@DV?$StrTraitMFC_DLL@DV?$ChTraitsCRT@D@ATL@@@@@ATL@@XZ 005a1e50 f i FreePcbDoc.obj
 0002:000aaee0       ?GetNumALayers@CDlgProjectOptions@@QAEHXZ 005a1ee0 f i FreePcbDoc.obj
 0002:000aaf20       ?GetTraceWidth@CDlgProjectOptions@@QAEHXZ 005a1f20 f i FreePcbDoc.obj
 0002:000aaf60       ?GetViaWidth@CDlgProjectOptions@@QAEHXZ 005a1f60 f i FreePcbDoc.obj
 0002:000aafa0       ?GetViaHoleWidth@CDlgProjectOptions@@QAEHXZ 005a1fa0 f i FreePcbDoc.obj
 0002:000aafe0       ?GetAutoRatlineDisable@CDlgProjectOptions@@QAEHXZ 005a1fe0 f i FreePcbDoc.obj
 0002:000ab020       ?GetAutoRatlineMinPins@CDlgProjectOptions@@QAEHXZ 005a2020 f i FreePcbDoc.obj
 0002:000ab060       ?RunFileDialog@CFreePcbDoc@@QAE?AV?$CStringT@DV?$StrTraitMFC_DLL@DV?$ChTraitsCRT@D@ATL@@@@@ATL@@HV23@@Z 005a2060 f   FreePcbDoc.obj
 0002:000abc00       ?OnFileOpen@CFreePcbDoc@@QAEXXZ 005a2c00 f   FreePcbDoc.obj
 0002:000abda0       ?OnFileAutoOpen@CFreePcbDoc@@QAEXPBD@Z 005a2da0 f   FreePcbDoc.obj
 0002:000abe00       ?FileOpen@CFreePcbDoc@@QAEHPBD@Z 005a2e00 f   FreePcbDoc.obj
 0002:000ad290       ?OnFileClose@CFreePcbDoc@@QAEXXZ 005a4290 f   FreePcbDoc.obj
 0002:000ad2e0       ?FileClose@CFreePcbDoc@@QAEHXZ 005a42e0 f   FreePcbDoc.obj
 0002:000ad8b0       ?OnFileSave@CFreePcbDoc@@QAEXXZ 005a48b0 f   FreePcbDoc.obj
 0002:000ad9f0       ?AutoSave@CFreePcbDoc@@QAEHXZ 005a49f0 f   FreePcbDoc.obj
 0002:000ae280       ?FileSave@CFreePcbDoc@@QAEHPAV?$CStringT@DV?$StrTraitMFC_DLL@DV?$ChTraitsCRT@D@ATL@@@@@ATL@@000H@Z 005a5280 f   FreePcbDoc.obj
 0002:000aed10       ?ReadMerges@CFreePcbDoc@@QAEXPAVCStdioFile@@PAVMerge@@@Z 005a5d10 f   FreePcbDoc.obj
 0002:000af190       ?WriteMerges@CFreePcbDoc@@QAEXPAVCStdioFile@@PAVMerge@@@Z 005a6190 f   FreePcbDoc.obj
 0002:000af610       ?OnFileSaveAs@CFreePcbDoc@@QAEXXZ 005a6610 f   FreePcbDoc.obj
 0002:000afb80       ?OnProjectNetlist@CFreePcbDoc@@QAEXXZ 005a6b80 f   FreePcbDoc.obj
 0002:000afdd0       ?WriteOutlinesPoly@CFreePcbDoc@@QAEXPAVCStdioFile@@PAV?$CArray@VCPolyLine@@ABV1@@@@Z 005a6dd0 f   FreePcbDoc.obj
 0002:000b0920       ?ReadGraphics@CFreePcbDoc@@QAEXPAVCStdioFile@@PAV?$CArray@VCPolyLine@@ABV1@@@@Z 005a7920 f   FreePcbDoc.obj
 0002:000b1cf0       ?ReadOptions@CFreePcbDoc@@QAEHPAVCStdioFile@@H@Z 005a8cf0 f   FreePcbDoc.obj
 0002:000b7430       ?WriteOptions@CFreePcbDoc@@QAEXPAVCStdioFile@@H@Z 005ae430 f   FreePcbDoc.obj
 0002:000baaf0       ?InitializeNewProject@CFreePcbDoc@@QAEXXZ 005b1af0 f   FreePcbDoc.obj
 0002:000bca30       ?ProjectModified@CFreePcbDoc@@QAEXHH@Z 005b3a30 f   FreePcbDoc.obj
 0002:000bce50       ?SaveOptions@CFreePcbDoc@@QAEXXZ 005b3e50 f   FreePcbDoc.obj
 0002:000bd1e0       ?OnViewLayers@CFreePcbDoc@@QAEXXZ 005b41e0 f   FreePcbDoc.obj
 0002:000bd470       ?OnProjectPartlist@CFreePcbDoc@@QAEXXZ 005b4470 f   FreePcbDoc.obj
 0002:000bd6d0       ?FileExport@CFreePcbDoc@@QAEXV?$CStringT@DV?$StrTraitMFC_DLL@DV?$ChTraitsCRT@D@ATL@@@@@ATL@@@Z 005b46d0 f   FreePcbDoc.obj
 0002:000bd930       ?OnFileExport@CFreePcbDoc@@QAEXXZ 005b4930 f   FreePcbDoc.obj
 0002:000bdab0       ?GetSessionLayer@@YAHPAV?$CStringT@DV?$StrTraitMFC_DLL@DV?$ChTraitsCRT@D@ATL@@@@@ATL@@@Z 005b4ab0 f   FreePcbDoc.obj
 0002:000bdc90       ?ExportPADSPCBNetlist@CFreePcbDoc@@QAEHPAVCStdioFile@@IPAV?$CArray@Upart_info@@ABU1@@@PAV?$CArray@Unet_info@@ABU1@@@@Z 005b4c90 f   FreePcbDoc.obj
 0002:000be290       ?OnAppExit@CFreePcbDoc@@QAEXXZ 005b5290 f   FreePcbDoc.obj
 0002:000be300       ?OnFileConvert@CFreePcbDoc@@QAEXXZ 005b5300 f   FreePcbDoc.obj
 0002:000be3f0       ?CreateMoveOriginUndoRecord@CFreePcbDoc@@QAEPAUundo_move_origin@@HH@Z 005b53f0 f   FreePcbDoc.obj
 0002:000be490       ?MoveOriginUndoCallback@CFreePcbDoc@@SAXHPAXH@Z 005b5490 f   FreePcbDoc.obj
 0002:000be560       ?CreateOutlinePolyUndoRecord@CFreePcbDoc@@QAEPAUundo_outline_poly@@PAVCPolyLine@@H@Z 005b5560 f   FreePcbDoc.obj
 0002:000be730       ?OutlinePolyUndoCallback@CFreePcbDoc@@SAXHPAXH@Z 005b5730 f   FreePcbDoc.obj
 0002:000beba0       ?OnFileGenerateCadFiles@CFreePcbDoc@@QAEXXZ 005b5ba0 f   FreePcbDoc.obj
 0002:000bf260       ?OnToolsFootprintwizard@CFreePcbDoc@@QAEXXZ 005b6260 f   FreePcbDoc.obj
 0002:000bf3a0       ?MakeLibraryMaps@CFreePcbDoc@@QAEXPAV?$CStringT@DV?$StrTraitMFC_DLL@DV?$ChTraitsCRT@D@ATL@@@@@ATL@@@Z 005b63a0 f   FreePcbDoc.obj
 0002:000bf420       ?OnProjectOptions@CFreePcbDoc@@QAEXXZ 005b6420 f   FreePcbDoc.obj
 0002:000bfdc0       ?GetAutoInterval@CDlgProjectOptions@@QAEHXZ 005b6dc0 f i FreePcbDoc.obj
 0002:000bfe00       ?GetGlueWidth@CDlgProjectOptions@@QAEHXZ 005b6e00 f i FreePcbDoc.obj
 0002:000bfe40       ?OnTimer@CFreePcbDoc@@QAEXXZ 005b6e40 f   FreePcbDoc.obj
 0002:000bff10       ?OnToolsCheckPartsAndNets@CFreePcbDoc@@QAEXXZ 005b6f10 f   FreePcbDoc.obj
 0002:000c00e0       ?OnToolsDrc@CFreePcbDoc@@QAEXXZ 005b70e0 f   FreePcbDoc.obj
 0002:000c03d0       ?OnToolsClearDrc@CFreePcbDoc@@QAEXXZ 005b73d0 f   FreePcbDoc.obj
 0002:000c0480       ?OnToolsShowDRCErrorlist@CFreePcbDoc@@QAEXXZ 005b7480 f   FreePcbDoc.obj
 0002:000c04c0       ?OnToolsCheckConnectivity@CFreePcbDoc@@QAEXXZ 005b74c0 f   FreePcbDoc.obj
 0002:000c06a0       ?OnViewLog@CFreePcbDoc@@QAEXXZ 005b76a0 f   FreePcbDoc.obj
 0002:000c0720       ?OnToolsCheckTraces@CFreePcbDoc@@QAEXXZ 005b7720 f   FreePcbDoc.obj
 0002:000c0900       ?OnEditSelectAll@CFreePcbDoc@@QAEXXZ 005b7900 f   FreePcbDoc.obj
 0002:000c0b90       ?OnEditPasteFromFile@CFreePcbDoc@@QAEXXZ 005b7b90 f   FreePcbDoc.obj
 0002:000c0d20       ?PasteFromFile@CFreePcbDoc@@QAEXV?$CStringT@DV?$StrTraitMFC_DLL@DV?$ChTraitsCRT@D@ATL@@@@@ATL@@H@Z 005b7d20 f   FreePcbDoc.obj
 0002:000c1af0       ?OnFileGerbV@CFreePcbDoc@@QAEXV?$CStringT@DV?$StrTraitMFC_DLL@DV?$ChTraitsCRT@D@ATL@@@@@ATL@@0@Z 005b8af0 f   FreePcbDoc.obj
 0002:000c22c0       ?OnEditUndo@CFreePcbDoc@@QAEXXZ 005b92c0 f   FreePcbDoc.obj
 0002:000c23c0       ?OnEditRedo@CFreePcbDoc@@QAEXXZ 005b93c0 f   FreePcbDoc.obj
 0002:000c24d0       ?ResetUndoState@CFreePcbDoc@@QAEXXZ 005b94d0 f   FreePcbDoc.obj
 0002:000c2550       ?OnRepeatDrc@CFreePcbDoc@@QAEXXZ 005b9550 f   FreePcbDoc.obj
 0002:000c2640       ?OnFileGenerateReportFile@CFreePcbDoc@@QAEXXZ 005b9640 f   FreePcbDoc.obj
 0002:000c2780       ?OPRefreshID@CFreePcbDoc@@QAEXXZ 005b9780 f   FreePcbDoc.obj
 0002:000c28a0       ?CombineBoardOutlines@CFreePcbDoc@@QAEHHH@Z 005b98a0 f   FreePcbDoc.obj
 0002:000c3350       ?ClipOP@CFreePcbDoc@@QAEXH@Z 005ba350 f   FreePcbDoc.obj
 0002:000c3790       ?OnProjectCombineBoard@CFreePcbDoc@@QAEXXZ 005ba790 f   FreePcbDoc.obj
 0002:000c3830       ?ProjectCombineBoard@CFreePcbDoc@@QAEXH@Z 005ba830 f   FreePcbDoc.obj
 0002:000c3eb0       ?RemoveOrphanMerges@CFreePcbDoc@@QAEXXZ 005baeb0 f   FreePcbDoc.obj
 0002:000c49d0       ?DRC@CFreePcbDoc@@QAEXXZ   005bb9d0 f   FreePcbDoc.obj
 0002:000c4a10       ?GetGerberPathes@CFreePcbDoc@@QAEHV?$CStringT@DV?$StrTraitMFC_DLL@DV?$ChTraitsCRT@D@ATL@@@@@ATL@@@Z 005bba10 f   FreePcbDoc.obj
 0002:000c60f0       ?FindNodeLine@CFreePcbDoc@@QAEHHH@Z 005bd0f0 f   FreePcbDoc.obj
 0002:000c6690       ??0?$CArray@VCPolyLine@@ABV1@@@QAE@XZ 005bd690 f i FreePcbDoc.obj
 0002:000c6720       ?RemoveAll@?$CArray@VCPolyLine@@ABV1@@@QAEXXZ 005bd720 f i FreePcbDoc.obj
 0002:000c6780       ??A?$CArray@Vcarea@@V1@@@QAEAAVcarea@@H@Z 005bd780 f i FreePcbDoc.obj
 0002:000c67e0       ??0?$CArray@NABN@@QAE@XZ   005bd7e0 f i FreePcbDoc.obj
 0002:000c6870       ?GetSize@?$CArray@NABN@@QBEHXZ 005bd870 f i FreePcbDoc.obj
 0002:000c68b0       ?RemoveAll@?$CArray@NABN@@QAEXXZ 005bd8b0 f i FreePcbDoc.obj
 0002:000c6910       ?Add@?$CArray@NABN@@QAEHABN@Z 005bd910 f i FreePcbDoc.obj
 0002:000c6980       ??A?$CArray@NABN@@QAEAANH@Z 005bd980 f i FreePcbDoc.obj
 0002:000c69e0       ??0?$CArray@VCArc@@ABV1@@@QAE@XZ 005bd9e0 f i FreePcbDoc.obj
 0002:000c6a70       ??1?$CArray@VCArc@@ABV1@@@UAE@XZ 005bda70 f i FreePcbDoc.obj
 0002:000c6b80       ?Serialize@?$CArray@VCArc@@ABV1@@@UAEXAAVCArchive@@@Z 005bdb80 f i FreePcbDoc.obj
 0002:000c6c50       ?Dump@?$CArray@VCArc@@ABV1@@@UBEXAAVCDumpContext@@@Z 005bdc50 f i FreePcbDoc.obj
 0002:000c6d30       ?AssertValid@?$CArray@VCArc@@ABV1@@@UBEXXZ 005bdd30 f i FreePcbDoc.obj
 0002:000c6e90       ??0?$CArray@PAVCPolyLine@@ABQAV1@@@QAE@XZ 005bde90 f i FreePcbDoc.obj
 0002:000c6f20       ??A?$CArray@PAVCPolyLine@@ABQAV1@@@QAEAAPAVCPolyLine@@H@Z 005bdf20 f i FreePcbDoc.obj
 0002:000c6f80       ?Serialize@?$CArray@PAVCPolyLine@@ABQAV1@@@UAEXAAVCArchive@@@Z 005bdf80 f i FreePcbDoc.obj
 0002:000c7050       ?Dump@?$CArray@PAVCPolyLine@@ABQAV1@@@UBEXAAVCDumpContext@@@Z 005be050 f i FreePcbDoc.obj
 0002:000c7130       ?AssertValid@?$CArray@PAVCPolyLine@@ABQAV1@@@UBEXXZ 005be130 f i FreePcbDoc.obj
 0002:000c7290       ??_G?$CArray@VCArc@@ABV1@@@UAEPAXI@Z 005be290 f i FreePcbDoc.obj
 0002:000c7290       ??_E?$CArray@VCArc@@ABV1@@@UAEPAXI@Z 005be290 f i FreePcbDoc.obj
 0002:000c7300       ??_E?$CArray@PAVCPolyLine@@ABQAV1@@@UAEPAXI@Z 005be300 f i FreePcbDoc.obj
 0002:000c7300       ??_G?$CArray@PAVCPolyLine@@ABQAV1@@@UAEPAXI@Z 005be300 f i FreePcbDoc.obj
 0002:000c7370       ??1?$CArray@PAVCPolyLine@@ABQAV1@@@UAE@XZ 005be370 f i FreePcbDoc.obj
 0002:000c7480       ?ElementAt@?$CArray@Vcarea@@V1@@@QAEAAVcarea@@H@Z 005be480 f i FreePcbDoc.obj
 0002:000c7530       ?ElementAt@?$CArray@NABN@@QAEAANH@Z 005be530 f i FreePcbDoc.obj
 0002:000c75e0       ?SetAtGrow@?$CArray@NABN@@QAEXHABN@Z 005be5e0 f i FreePcbDoc.obj
 0002:000c76b0       ?SetSize@?$CArray@VCArc@@ABV1@@@QAEXHH@Z 005be6b0 f i FreePcbDoc.obj
 0002:000c7c50       ??$SerializeElements@VCArc@@@@YGXAAVCArchive@@PAVCArc@@H@Z 005bec50 f i FreePcbDoc.obj
 0002:000c7e40       ??$DumpElements@VCArc@@@@YGXAAVCDumpContext@@PBVCArc@@H@Z 005bee40 f i FreePcbDoc.obj
 0002:000c7f30       ?SetSize@?$CArray@PAVCPolyLine@@ABQAV1@@@QAEXHH@Z 005bef30 f i FreePcbDoc.obj
 0002:000c84c0       ?ElementAt@?$CArray@PAVCPolyLine@@ABQAV1@@@QAEAAPAVCPolyLine@@H@Z 005bf4c0 f i FreePcbDoc.obj
 0002:000c8570       ??$SerializeElements@PAVCPolyLine@@@@YGXAAVCArchive@@PAPAVCPolyLine@@H@Z 005bf570 f i FreePcbDoc.obj
 0002:000c8760       ??$DumpElements@PAVCPolyLine@@@@YGXAAVCDumpContext@@PBQAVCPolyLine@@H@Z 005bf760 f i FreePcbDoc.obj
 0002:000c8850       ?GetAdapter@CDocument@@UAEPAUIDocument@ATL@@XZ 005bf850 f i FreePcbDoc.obj
 0002:000c8a20       ??0CDocumentAdapter@CDocument@@QAE@PAV1@@Z 005bfa20 f i FreePcbDoc.obj
 0002:000c8a90       ??0IDocument@ATL@@IAE@XZ   005bfa90 f i FreePcbDoc.obj
 0002:000c8ae0       ?AddRef@IDocument@ATL@@UAEJXZ 005bfae0 f i FreePcbDoc.obj
 0002:000c8b40       ?Release@IDocument@ATL@@UAEJXZ 005bfb40 f i FreePcbDoc.obj
 0002:000c8c40       ??_GIDocument@ATL@@UAEPAXI@Z 005bfc40 f i FreePcbDoc.obj
 0002:000c8c40       ??_EIDocument@ATL@@UAEPAXI@Z 005bfc40 f i FreePcbDoc.obj
 0002:000c8cb0       ??1IDocument@ATL@@UAE@XZ   005bfcb0 f i FreePcbDoc.obj
 0002:000c8cf0       ?LoadFromStream@CDocumentAdapter@CDocument@@UAEJPAUIStream@@K@Z 005bfcf0 f i FreePcbDoc.obj
 0002:000c8e20       ??0CTraceFileAndLineInfo@ATL@@QAE@PBDH@Z 005bfe20 f i FreePcbDoc.obj
 0002:000c8e70       ??RCTraceFileAndLineInfo@ATL@@QBAXPBDZZ 005bfe70 f i FreePcbDoc.obj
 0002:000c8f00       ?TraceV@CTrace@ATL@@QBAXPBDHKI0PAD@Z 005bff00 f i FreePcbDoc.obj
 0002:000c8f70       ??BCTraceCategory@ATL@@QBEKXZ 005bff70 f i FreePcbDoc.obj
 0002:000c8fb0       ?InitializeSearchContent@CDocumentAdapter@CDocument@@UAEXXZ 005bffb0 f i FreePcbDoc.obj
 0002:000c9080       ?ClearChunkList@CDocumentAdapter@CDocument@@UAEXXZ 005c0080 f i FreePcbDoc.obj
 0002:000c9150       ?SetChunkValue@CDocumentAdapter@CDocument@@UAEHPAUIFilterChunkValue@ATL@@@Z 005c0150 f i FreePcbDoc.obj
 0002:000c9220       ?BeginReadChunks@CDocumentAdapter@CDocument@@UAEXXZ 005c0220 f i FreePcbDoc.obj
 0002:000c92f0       ?ReadNextChunkValue@CDocumentAdapter@CDocument@@UAEHPAPAUIFilterChunkValue@ATL@@@Z 005c02f0 f i FreePcbDoc.obj
 0002:000c93c0       ?RemoveChunk@CDocumentAdapter@CDocument@@UAEXABU_GUID@@K@Z 005c03c0 f i FreePcbDoc.obj
 0002:000c94a0       ?FindChunk@CDocumentAdapter@CDocument@@UAEPAU__POSITION@@ABU_GUID@@K@Z 005c04a0 f i FreePcbDoc.obj
 0002:000c9580       ?GetContainer@CDocumentAdapter@CDocument@@UBEPAXXZ 005c0580 f i FreePcbDoc.obj
 0002:000c95c0       ?GetThumbnail@CDocumentAdapter@CDocument@@UAEHIPAPAUHBITMAP__@@PAW4WTS_ALPHATYPE@@@Z 005c05c0 f i FreePcbDoc.obj
 0002:000c96a0       ?OnBeforeRichPreviewFontChanged@CDocument@@UAEXXZ 005c06a0 f i FreePcbDoc.obj
 0002:000c96e0       ?OnRichPreviewFontChanged@CDocument@@UAEXXZ 005c06e0 f i FreePcbDoc.obj
 0002:000c9720       ?OnRichPreviewTextColorChanged@CDocument@@UAEXXZ 005c0720 f i FreePcbDoc.obj
 0002:000c9760       ?OnRichPreviewBackColorChanged@CDocument@@UAEXXZ 005c0760 f i FreePcbDoc.obj
 0002:000c97a0       ?OnRichPreviewSiteChanged@CDocument@@UAEXXZ 005c07a0 f i FreePcbDoc.obj
 0002:000c97e0       ?InitializeSearchContent@CDocument@@UAEXXZ 005c07e0 f i FreePcbDoc.obj
 0002:000c9860       ??_ECDocumentAdapter@CDocument@@UAEPAXI@Z 005c0860 f i FreePcbDoc.obj
 0002:000c9860       ??_GCDocumentAdapter@CDocument@@UAEPAXI@Z 005c0860 f i FreePcbDoc.obj
 0002:000c98d0       ??1CDocumentAdapter@CDocument@@UAE@XZ 005c08d0 f i FreePcbDoc.obj
 0002:000c99f0       ?GetGridStyle@CDisplayList@@QAEHXZ 005c09f0 f i FreePcbDoc.obj
 0002:000c9a30       ?SetGridStyle@CDisplayList@@QAEXH@Z 005c0a30 f i FreePcbDoc.obj
 0002:000c9a80       ?GetTopLayer@CDisplayList@@QAEHXZ 005c0a80 f i FreePcbDoc.obj
 0002:000c9ac0       ??0Merge@@QAE@XZ           005c0ac0 f i FreePcbDoc.obj
 0002:000c9bc0       ??1Merge@@UAE@XZ           005c0bc0 f i FreePcbDoc.obj
 0002:000c9c90       ?AddNew@Merge@@QAEHV?$CStringT@DV?$StrTraitMFC_DLL@DV?$ChTraitsCRT@D@ATL@@@@@ATL@@H@Z 005c0c90 f i FreePcbDoc.obj
 0002:000c9ec0       ?GetClearance@Merge@@QAEHH@Z 005c0ec0 f i FreePcbDoc.obj
 0002:000c9f40       ?Clear@Merge@@QAEXXZ       005c0f40 f i FreePcbDoc.obj
 0002:000c9fc0       ?CopyFrom@Merge@@QAEXPAV1@@Z 005c0fc0 f i FreePcbDoc.obj
 0002:000ca1b0       ?mark0@Merge@@QAEXXZ       005c11b0 f i FreePcbDoc.obj
 0002:000ca240       ?GetMark@Merge@@QAEHH@Z    005c1240 f i FreePcbDoc.obj
 0002:000ca2c0       ??_GMerge@@UAEPAXI@Z       005c12c0 f i FreePcbDoc.obj
 0002:000ca2c0       ??_EMerge@@UAEPAXI@Z       005c12c0 f i FreePcbDoc.obj
 0002:000ca330       ?GetUtility@CPolyLine@@QAEHXZ 005c1330 f i FreePcbDoc.obj
 0002:000ca370       ?SetUtility@CPolyLine@@QAEXH@Z 005c1370 f i FreePcbDoc.obj
 0002:000ca3c0       ?GetGpcPoly@CPolyLine@@QAEPAUgpc_polygon@@XZ 005c13c0 f i FreePcbDoc.obj
 0002:000ca400       ?Set_default_mask_clearance@CPartList@@QAEXH@Z 005c1400 f i FreePcbDoc.obj
 0002:000ca450       ?Set_default_paste_clearance@CPartList@@QAEXH@Z 005c1450 f i FreePcbDoc.obj
 0002:000ca4a0       ?UseNetList@CPartList@@QAEXPAVCNetList@@@Z 005c14a0 f i FreePcbDoc.obj
 0002:000ca4f0       ?SetShapeCacheMap@CPartList@@QAEXPAVCMapStringToPtr@@@Z 005c14f0 f i FreePcbDoc.obj
 0002:000ca540       ?SetNumCopperLayers@CPartList@@QAEXH@Z 005c1540 f i FreePcbDoc.obj
 0002:000ca590       ?SetNumCopperLayers@CNetList@@QAEXH@Z 005c1590 f i FreePcbDoc.obj
 0002:000ca5e0       ?SetSMTconnect@CNetList@@QAEXH@Z 005c15e0 f i FreePcbDoc.obj
 0002:000ca630       ?OnFileCam1@CFreePcbDoc@@QAEXXZ 005c1630 f i FreePcbDoc.obj
 0002:000ca740       ?OnFileCam2@CFreePcbDoc@@QAEXXZ 005c1740 f i FreePcbDoc.obj
 0002:000ca850       ?OnFileCam3@CFreePcbDoc@@QAEXXZ 005c1850 f i FreePcbDoc.obj
 0002:000ca960       ?OnFileCam4@CFreePcbDoc@@QAEXXZ 005c1960 f i FreePcbDoc.obj
 0002:000caa70       ?OnFileCam5@CFreePcbDoc@@QAEXXZ 005c1a70 f i FreePcbDoc.obj
 0002:000cab80       ?OnFileCam6@CFreePcbDoc@@QAEXXZ 005c1b80 f i FreePcbDoc.obj
 0002:000cac90       ?OnFileCam7@CFreePcbDoc@@QAEXXZ 005c1c90 f i FreePcbDoc.obj
 0002:000cada0       ?OnFileCam8@CFreePcbDoc@@QAEXXZ 005c1da0 f i FreePcbDoc.obj
 0002:000caeb0       ?OnFileCam9@CFreePcbDoc@@QAEXXZ 005c1eb0 f i FreePcbDoc.obj
 0002:000cafc0       ?OnFileCam10@CFreePcbDoc@@QAEXXZ 005c1fc0 f i FreePcbDoc.obj
 0002:000cb0d0       ?OnFileCam11@CFreePcbDoc@@QAEXXZ 005c20d0 f i FreePcbDoc.obj
 0002:000cb1e0       ?OnFileCam12@CFreePcbDoc@@QAEXXZ 005c21e0 f i FreePcbDoc.obj
 0002:000cb2f0       ?OnFileCam13@CFreePcbDoc@@QAEXXZ 005c22f0 f i FreePcbDoc.obj
 0002:000cb400       ?OnFileCam14@CFreePcbDoc@@QAEXXZ 005c2400 f i FreePcbDoc.obj
 0002:000cb510       ?OnFileCam15@CFreePcbDoc@@QAEXXZ 005c2510 f i FreePcbDoc.obj
 0002:000cb620       ?OnFileCam16@CFreePcbDoc@@QAEXXZ 005c2620 f i FreePcbDoc.obj
 0002:000cb730       ?OnFileCam17@CFreePcbDoc@@QAEXXZ 005c2730 f i FreePcbDoc.obj
 0002:000cb840       ?OnFileCam18@CFreePcbDoc@@QAEXXZ 005c2840 f i FreePcbDoc.obj
 0002:000cb950       ?OnFileCam19@CFreePcbDoc@@QAEXXZ 005c2950 f i FreePcbDoc.obj
 0002:000cba60       ?OnFileCam20@CFreePcbDoc@@QAEXXZ 005c2a60 f i FreePcbDoc.obj
 0002:000cbb70       ?OnFileCam21@CFreePcbDoc@@QAEXXZ 005c2b70 f i FreePcbDoc.obj
 0002:000cbc80       ?InvalidateLeftPane@CFreePcbView@@QAEXXZ 005c2c80 f i FreePcbDoc.obj
 0002:000cbcd0       ?RemoveAll@?$CArray@V?$CStringT@DV?$StrTraitMFC_DLL@DV?$ChTraitsCRT@D@ATL@@@@@ATL@@ABV12@@@QAEXXZ 005c2cd0 f i FreePcbDoc.obj
 0002:000cbd30       ?Add@?$CArray@V?$CStringT@DV?$StrTraitMFC_DLL@DV?$ChTraitsCRT@D@ATL@@@@@ATL@@ABV12@@@QAEHABV?$CStringT@DV?$StrTraitMFC_DLL@DV?$ChTraitsCRT@D@ATL@@@@@ATL@@@Z 005c2d30 f i FreePcbDoc.obj
 0002:000cbda0       ?RemoveAll@?$CArray@HABH@@QAEXXZ 005c2da0 f i FreePcbDoc.obj
 0002:000cbe00       ??1?$CArray@VCPolyLine@@ABV1@@@UAE@XZ 005c2e00 f i FreePcbDoc.obj
 0002:000cbf30       ?Serialize@?$CArray@VCPolyLine@@ABV1@@@UAEXAAVCArchive@@@Z 005c2f30 f i FreePcbDoc.obj
 0002:000cc000       ?Dump@?$CArray@VCPolyLine@@ABV1@@@UBEXAAVCDumpContext@@@Z 005c3000 f i FreePcbDoc.obj
 0002:000cc0e0       ?AssertValid@?$CArray@VCPolyLine@@ABV1@@@UBEXXZ 005c30e0 f i FreePcbDoc.obj
 0002:000cc240       ??1?$CArray@NABN@@UAE@XZ   005c3240 f i FreePcbDoc.obj
 0002:000cc350       ?Serialize@?$CArray@NABN@@UAEXAAVCArchive@@@Z 005c3350 f i FreePcbDoc.obj
 0002:000cc420       ?Dump@?$CArray@NABN@@UBEXAAVCDumpContext@@@Z 005c3420 f i FreePcbDoc.obj
 0002:000cc500       ?AssertValid@?$CArray@NABN@@UBEXXZ 005c3500 f i FreePcbDoc.obj
 0002:000cc660       ??_G?$CArray@VCPolyLine@@ABV1@@@UAEPAXI@Z 005c3660 f i FreePcbDoc.obj
 0002:000cc660       ??_E?$CArray@VCPolyLine@@ABV1@@@UAEPAXI@Z 005c3660 f i FreePcbDoc.obj
 0002:000cc6d0       ??_E?$CArray@NABN@@UAEPAXI@Z 005c36d0 f i FreePcbDoc.obj
 0002:000cc6d0       ??_G?$CArray@NABN@@UAEPAXI@Z 005c36d0 f i FreePcbDoc.obj
 0002:000cc740       ??$SerializeElements@VCPolyLine@@@@YGXAAVCArchive@@PAVCPolyLine@@H@Z 005c3740 f i FreePcbDoc.obj
 0002:000cc940       ??$DumpElements@VCPolyLine@@@@YGXAAVCDumpContext@@PBVCPolyLine@@H@Z 005c3940 f i FreePcbDoc.obj
 0002:000cca30       ?SetSize@?$CArray@NABN@@QAEXHH@Z 005c3a30 f i FreePcbDoc.obj
 0002:000ccfc0       ??$SerializeElements@N@@YGXAAVCArchive@@PANH@Z 005c3fc0 f i FreePcbDoc.obj
 0002:000cd1b0       ??$DumpElements@N@@YGXAAVCDumpContext@@PBNH@Z 005c41b0 f i FreePcbDoc.obj
 0002:000cd2a0       ?CreateObject@CFreePcbView@@SGPAVCObject@@XZ 005c42a0 f   FreePcbView.obj
 0002:000cd390       ?_GetBaseClass@CFreePcbView@@KGPAUCRuntimeClass@@XZ 005c4390 f   FreePcbView.obj
 0002:000cd3e0       ?GetThisClass@CFreePcbView@@SGPAUCRuntimeClass@@XZ 005c43e0 f   FreePcbView.obj
 0002:000cd420       ?GetRuntimeClass@CFreePcbView@@UBEPAUCRuntimeClass@@XZ 005c4420 f   FreePcbView.obj
 0002:000cd460       ?GetMessageMap@CFreePcbView@@MBEPBUAFX_MSGMAP@@XZ 005c4460 f   FreePcbView.obj
 0002:000cd4b0       ?GetThisMessageMap@CFreePcbView@@KGPBUAFX_MSGMAP@@XZ 005c44b0 f   FreePcbView.obj
 0002:000cd4f0       ??0CFreePcbView@@QAE@XZ    005c44f0 f   FreePcbView.obj
 0002:000cd880       ??_ECFreePcbView@@UAEPAXI@Z 005c4880 f i FreePcbView.obj
 0002:000cd880       ??_GCFreePcbView@@UAEPAXI@Z 005c4880 f i FreePcbView.obj
 0002:000cd8f0       ?InitInstance@CFreePcbView@@QAEXXZ 005c48f0 f   FreePcbView.obj
 0002:000cdbc0       ?InitializeView@CFreePcbView@@QAEXXZ 005c4bc0 f   FreePcbView.obj
 0002:000cded0       ??1CFreePcbView@@UAE@XZ    005c4ed0 f   FreePcbView.obj
 0002:000ce020       ?PreCreateWindow@CFreePcbView@@UAEHAAUtagCREATESTRUCTA@@@Z 005c5020 f   FreePcbView.obj
 0002:000ce080       ?OnDraw@CFreePcbView@@UAEXPAVCDC@@@Z 005c5080 f   FreePcbView.obj
 0002:000ce970       ?OnPreparePrinting@CFreePcbView@@MAEHPAUCPrintInfo@@@Z 005c5970 f   FreePcbView.obj
 0002:000ce9d0       ?OnBeginPrinting@CFreePcbView@@MAEXPAVCDC@@PAUCPrintInfo@@@Z 005c59d0 f   FreePcbView.obj
 0002:000cea10       ?OnEndPrinting@CFreePcbView@@MAEXPAVCDC@@PAUCPrintInfo@@@Z 005c5a10 f   FreePcbView.obj
 0002:000cea50       ?AssertValid@CFreePcbView@@UBEXXZ 005c5a50 f   FreePcbView.obj
 0002:000ceaa0       ?Dump@CFreePcbView@@UBEXAAVCDumpContext@@@Z 005c5aa0 f   FreePcbView.obj
 0002:000ceb00       ?GetDocument@CFreePcbView@@QAEPAVCFreePcbDoc@@XZ 005c5b00 f   FreePcbView.obj
 0002:000ceba0       ?OnSize@CFreePcbView@@IAEXIHH@Z 005c5ba0 f   FreePcbView.obj
 0002:000cf1f0       ?OnLButtonUp@CFreePcbView@@QAEXIVCPoint@@@Z 005c61f0 f   FreePcbView.obj
 0002:000d1820       ?OnLButtonDblClk@CFreePcbView@@IAEXIVCPoint@@@Z 005c8820 f   FreePcbView.obj
 0002:000d1880       ?OnRButtonDown@CFreePcbView@@IAEXIVCPoint@@@Z 005c8880 f   FreePcbView.obj
 0002:000d1ed0       ?OnSysKeyDown@CFreePcbView@@IAEXIII@Z 005c8ed0 f   FreePcbView.obj
 0002:000d1f60       ?OnSysKeyUp@CFreePcbView@@IAEXIII@Z 005c8f60 f   FreePcbView.obj
 0002:000d1fd0       ?OnKeyUp@CFreePcbView@@QAEXIII@Z 005c8fd0 f   FreePcbView.obj
 0002:000d2080       ?OnKeyDown@CFreePcbView@@IAEXIII@Z 005c9080 f   FreePcbView.obj
 0002:000d2160       ?HandleKeyPress@CFreePcbView@@QAEXIII@Z 005c9160 f   FreePcbView.obj
 0002:000d51f0       ?OnMouseMove@CFreePcbView@@IAEXIVCPoint@@@Z 005cc1f0 f   FreePcbView.obj
 0002:000d5660       ?SetDCToWorldCoords@CFreePcbView@@QAEHPAVCDC@@@Z 005cc660 f   FreePcbView.obj
 0002:000d5700       ?SetCursorMode@CFreePcbView@@QAEXH@Z 005cc700 f   FreePcbView.obj
 0002:000d57e0       ?SetFKText@CFreePcbView@@QAEXH@Z 005cc7e0 f   FreePcbView.obj
 0002:000d6330       ?DrawBottomPane@CFreePcbView@@QAEXXZ 005cd330 f   FreePcbView.obj
 0002:000d66f0       ?ShowRelativeDistance@CFreePcbView@@QAEXHH@Z 005cd6f0 f   FreePcbView.obj
 0002:000d6900       ?ShowRelativeDistance@CFreePcbView@@QAEXHHHH@Z 005cd900 f   FreePcbView.obj
 0002:000d6b50       ?ShowSelectStatus@CFreePcbView@@QAEHXZ 005cdb50 f   FreePcbView.obj
 0002:000d7c60       ?ShowCursor@CFreePcbView@@QAEHXZ 005cec60 f   FreePcbView.obj
 0002:000d7f10       ?ShowActiveLayer@CFreePcbView@@QAEHHH@Z 005cef10 f   FreePcbView.obj
 0002:000d8100       ?OnMouseWheel@CFreePcbView@@IAEHIFVCPoint@@@Z 005cf100 f   FreePcbView.obj
 0002:000d89a0       ?SelectPart@CFreePcbView@@QAEHPAVcpart@@H@Z 005cf9a0 f   FreePcbView.obj
 0002:000d89e0       ?CancelSelection@CFreePcbView@@QAEXH@Z 005cf9e0 f   FreePcbView.obj
 0002:000d8ef0       ?ProjectRunInfoBox@CFreePcbView@@QAEXXZ 005cfef0 f   FreePcbView.obj
 0002:000d9250       ?OnProjectRunInfoBox@CFreePcbView@@QAEXXZ 005d0250 f   FreePcbView.obj
 0002:000d92c0       ?OnSetOriginToSelectedItem@CFreePcbView@@QAEXXZ 005d02c0 f   FreePcbView.obj
 0002:000d9320       ?SetOriginToSelectedItem@CFreePcbView@@QAEXXZ 005d0320 f   FreePcbView.obj
 0002:000d9580       ?OnContextMenu@CFreePcbView@@QAEXPAVCWnd@@VCPoint@@@Z 005d0580 f   FreePcbView.obj
 0002:000d9c80       ?OnTextAdd@CFreePcbView@@QAEXXZ 005d0c80 f   FreePcbView.obj
 0002:000da200       ?OnTextDelete@CFreePcbView@@QAEXXZ 005d1200 f   FreePcbView.obj
 0002:000da2c0       ?OnTextMove@CFreePcbView@@QAEXXZ 005d12c0 f   FreePcbView.obj
 0002:000da460       ?OnPartRemoveMerge@CFreePcbView@@QAEXXZ 005d1460 f   FreePcbView.obj
 0002:000da5a0       ?OnTextEdit@CFreePcbView@@QAEXXZ 005d15a0 f   FreePcbView.obj
 0002:000dad10       ?OnOPCornerMove@CFreePcbView@@QAEXXZ 005d1d10 f   FreePcbView.obj
 0002:000daec0       ?OnOPCornerEdit@CFreePcbView@@QAEXXZ 005d1ec0 f   FreePcbView.obj
 0002:000db480       ?OnOPCornerDelete@CFreePcbView@@QAEXXZ 005d2480 f   FreePcbView.obj
 0002:000db620       ?OnOPSideAddCorner@CFreePcbView@@QAEXXZ 005d2620 f   FreePcbView.obj
 0002:000db750       ?OnOPDeleteOutline@CFreePcbView@@QAEXXZ 005d2750 f   FreePcbView.obj
 0002:000db840       ?CurNone@CFreePcbView@@QAEHXZ 005d2840 f   FreePcbView.obj
 0002:000db890       ?CurSelected@CFreePcbView@@QAEHXZ 005d2890 f   FreePcbView.obj
 0002:000db910       ?CurDragging@CFreePcbView@@QAEHXZ 005d2910 f   FreePcbView.obj
 0002:000db990       ?CurDraggingPlacement@CFreePcbView@@QAEHXZ 005d2990 f   FreePcbView.obj
 0002:000dba70       ?SnapCursorPoint@CFreePcbView@@QAEXVCPoint@@I@Z 005d2a70 f   FreePcbView.obj
 0002:000dd870       ?OnChangeVisibleGrid@CFreePcbView@@QAEJIJ@Z 005d4870 f   FreePcbView.obj
 0002:000dd940       ?OnChangePlacementGrid@CFreePcbView@@QAEJIJ@Z 005d4940 f   FreePcbView.obj
 0002:000dd9e0       ?OnChangeRoutingGrid@CFreePcbView@@QAEJIJ@Z 005d49e0 f   FreePcbView.obj
 0002:000ddad0       ?OnChangeSnapAngle@CFreePcbView@@QAEJIJ@Z 005d4ad0 f   FreePcbView.obj
 0002:000ddc00       ?OnChangeUnits@CFreePcbView@@QAEJIJ@Z 005d4c00 f   FreePcbView.obj
 0002:000ddcf0       ?OnEraseBkgnd@CFreePcbView@@QAEHPAVCDC@@@Z 005d4cf0 f   FreePcbView.obj
 0002:000ddd40       ?OnOPSideConvertToStraightLine@CFreePcbView@@QAEXXZ 005d4d40 f   FreePcbView.obj
 0002:000dde50       ?OnOPSideConvertToArcCw@CFreePcbView@@QAEXXZ 005d4e50 f   FreePcbView.obj
 0002:000ddf60       ?OnOPSideConvertToArcCcw@CFreePcbView@@QAEXXZ 005d4f60 f   FreePcbView.obj
 0002:000de070       ?SaveUndoInfoForGroup@CFreePcbView@@QAEHHPAVCUndoList@@HH@Z 005d5070 f   FreePcbView.obj
 0002:000df0f0       ??0undo_group_descriptor@@QAE@XZ 005d60f0 f i FreePcbView.obj
 0002:000df1a0       ?SaveUndoInfoForMoveOrigin@CFreePcbView@@QAEXHHPAVCUndoList@@@Z 005d61a0 f   FreePcbView.obj
 0002:000df270       ?SaveUndoInfoForOutlinePoly@CFreePcbView@@QAEXHHPAVCUndoList@@@Z 005d6270 f   FreePcbView.obj
 0002:000df470       ?SaveUndoInfoForText@CFreePcbView@@QAEXPAVCText@@HHPAVCUndoList@@@Z 005d6470 f   FreePcbView.obj
 0002:000df550       ?SaveUndoInfoForText@CFreePcbView@@QAEXPAUundo_text@@HHPAVCUndoList@@@Z 005d6550 f   FreePcbView.obj
 0002:000df680       ??0undo_text@@QAE@XZ       005d6680 f i FreePcbView.obj
 0002:000df6f0       ??4undo_text@@QAEAAU0@ABU0@@Z 005d66f0 f i FreePcbView.obj
 0002:000df840       ?ViewAllElements@CFreePcbView@@QAE?AUtagRECT@@XZ 005d6840 f   FreePcbView.obj
 0002:000dfd20       ?OnViewAllElements@CFreePcbView@@QAEXXZ 005d6d20 f   FreePcbView.obj
 0002:000dfda0       ?OnViewFindpart@CFreePcbView@@QAEXXZ 005d6da0 f   FreePcbView.obj
 0002:000e01f0       ?OnDrc@CFreePcbView@@QAEXXZ 005d71f0 f   FreePcbView.obj
 0002:000e0250       ?OnClearDRC@CFreePcbView@@QAEXXZ 005d7250 f   FreePcbView.obj
 0002:000e02b0       ?AddOutlinePoly@CFreePcbView@@QAEXHH@Z 005d72b0 f   FreePcbView.obj
 0002:000e0960       ?OnAddOutlinePoly@CFreePcbView@@QAEXXZ 005d7960 f   FreePcbView.obj
 0002:000e09c0       ?OPSetWidth@CFreePcbView@@QAEHXZ 005d79c0 f   FreePcbView.obj
 0002:000e0e00       ?GetWidth@CDlgAddPoly@@QAEHXZ 005d7e00 f i FreePcbView.obj
 0002:000e0e40       ?GetClosedFlag@CDlgAddPoly@@QAEHXZ 005d7e40 f i FreePcbView.obj
 0002:000e0e80       ?OnOPSetWidth@CFreePcbView@@QAEXXZ 005d7e80 f   FreePcbView.obj
 0002:000e0ee0       ?OPHatchStyle@CFreePcbView@@QAEXXZ 005d7ee0 f   FreePcbView.obj
 0002:000e11a0       ?OnOPHatchStyle@CFreePcbView@@QAEXXZ 005d81a0 f   FreePcbView.obj
 0002:000e1200       ?OnToolsMoveOrigin@CFreePcbView@@QAEXXZ 005d8200 f   FreePcbView.obj
 0002:000e1450       ?MoveOrigin@CFreePcbView@@QAEXHH@Z 005d8450 f   FreePcbView.obj
 0002:000e1560       ?OnLButtonDown@CFreePcbView@@IAEXIVCPoint@@@Z 005d8560 f   FreePcbView.obj
 0002:000e1600       ?SelectItemsInRect@CFreePcbView@@QAEXVCRect@@I@Z 005d8600 f   FreePcbView.obj
 0002:000e2570       ?StartDraggingGroup@CFreePcbView@@QAEXHHH@Z 005d9570 f   FreePcbView.obj
 0002:000e36d0       ?CancelDraggingGroup@CFreePcbView@@QAEXXZ 005da6d0 f   FreePcbView.obj
 0002:000e3ac0       ?TurnGroup@CFreePcbView@@QAEXXZ 005daac0 f   FreePcbView.obj
 0002:000e4290       ?OnGroupMove@CFreePcbView@@QAEXXZ 005db290 f   FreePcbView.obj
 0002:000e4310       ?MoveGroup@CFreePcbView@@QAEXHHH@Z 005db310 f   FreePcbView.obj
 0002:000e4d90       ?OnInsidePolyline@CFreePcbView@@QAEXXZ 005dbd90 f   FreePcbView.obj
 0002:000e50e0       ?HighlightGroup@CFreePcbView@@QAEXH@Z 005dc0e0 f   FreePcbView.obj
 0002:000e5540       ?SetSelMaskArray@CFreePcbView@@QAEXH@Z 005dc540 f   FreePcbView.obj
 0002:000e55e0       ?OnGroupCopy@CFreePcbView@@QAEXXZ 005dc5e0 f   FreePcbView.obj
 0002:000e5b60       ?OnGroupCut@CFreePcbView@@QAEXXZ 005dcb60 f   FreePcbView.obj
 0002:000e5bc0       ?OnGroupDelete@CFreePcbView@@QAEXXZ 005dcbc0 f   FreePcbView.obj
 0002:000e5c20       ?DeleteGroup@CFreePcbView@@QAEXH@Z 005dcc20 f   FreePcbView.obj
 0002:000e5d00       ?OnGroupPaste@CFreePcbView@@QAEXHH@Z 005dcd00 f   FreePcbView.obj
 0002:000e67a0       ?OnGroupStaticHighlight@CFreePcbView@@QAEXXZ 005dd7a0 f   FreePcbView.obj
 0002:000e6820       ?OnGroupCancelHighlight@CFreePcbView@@QAEXXZ 005dd820 f   FreePcbView.obj
 0002:000e6880       ?GroupCancelHighlight@CFreePcbView@@QAEXXZ 005dd880 f   FreePcbView.obj
 0002:000e68f0       ?OnApproximationArc@CFreePcbView@@QAEXXZ 005dd8f0 f   FreePcbView.obj
 0002:000e6990       ?OnGroupAlignParts@CFreePcbView@@QAEXXZ 005dd990 f   FreePcbView.obj
 0002:000e6df0       ?OnGroupSaveToFile@CFreePcbView@@QAEXXZ 005dddf0 f   FreePcbView.obj
 0002:000e73a0       ?OnEditCopy@CFreePcbView@@QAEXXZ 005de3a0 f   FreePcbView.obj
 0002:000e7410       ?OnEditPaste@CFreePcbView@@QAEXXZ 005de410 f   FreePcbView.obj
 0002:000e74b0       ?OnEditCut@CFreePcbView@@QAEXXZ 005de4b0 f   FreePcbView.obj
 0002:000e7520       ?RotateGroup@CFreePcbView@@QAEXHH@Z 005de520 f   FreePcbView.obj
 0002:000e7f50       ?FindGroupCenter@CFreePcbView@@QAEXXZ 005def50 f   FreePcbView.obj
 0002:000e84d0       ?CreateUndoDescriptor@CFreePcbView@@QAEPAXPAVCUndoList@@HPAV?$CStringT@DV?$StrTraitMFC_DLL@DV?$ChTraitsCRT@D@ATL@@@@@ATL@@1HH1PAX@Z 005df4d0 f   FreePcbView.obj
 0002:000e8640       ??0undo_descriptor@@QAE@XZ 005df640 f i FreePcbView.obj
 0002:000e86e0       ?UndoCallback@CFreePcbView@@SAXHPAXH@Z 005df6e0 f   FreePcbView.obj
 0002:000e8a20       _!=                        005dfa20 f i FreePcbView.obj
 0002:000e8a80       _==                        005dfa80 f i FreePcbView.obj
 0002:000e8ae0       _IsEqualGUID               005dfae0 f i FreePcbView.obj
 0002:000e8b40       ??_Gundo_descriptor@@QAEPAXI@Z 005dfb40 f i FreePcbView.obj
 0002:000e8bb0       ??1undo_descriptor@@QAE@XZ 005dfbb0 f i FreePcbView.obj
 0002:000e8c50       ?UndoGroupCallback@CFreePcbView@@SAXHPAXH@Z 005dfc50 f   FreePcbView.obj
 0002:000e9230       ??_Gundo_group_descriptor@@QAEPAXI@Z 005e0230 f i FreePcbView.obj
 0002:000e92a0       ??1undo_group_descriptor@@QAE@XZ 005e02a0 f i FreePcbView.obj
 0002:000e9350       ?OnGroupRotate@CFreePcbView@@QAEXXZ 005e0350 f   FreePcbView.obj
 0002:000e93b0       ?RotateGroup@CFreePcbView@@QAEXH@Z 005e03b0 f   FreePcbView.obj
 0002:000e9490       ?SetMainMenu@CFreePcbView@@QAEXH@Z 005e0490 f   FreePcbView.obj
 0002:000e95d0       ?AlignSides@CFreePcbView@@QAEXHHH@Z 005e05d0 f   FreePcbView.obj
 0002:000e9910       ?TestSelElements@CFreePcbView@@QAEHH@Z 005e0910 f   FreePcbView.obj
 0002:000e9950       ?OnSetClearance@CFreePcbView@@QAEXXZ 005e0950 f   FreePcbView.obj
 0002:000eb140       ?abs@@YAMM@Z               005e2140 f i FreePcbView.obj
 0002:000eb1a0       _fabsf                     005e21a0 f i FreePcbView.obj
 0002:000eb210       ?FindNEXTSegmentOfGroup@CFreePcbView@@QAEPAVcnet@@MPAVid@@PAV2@01@Z 005e2210 f   FreePcbView.obj
 0002:000eb4c0       ?find_side_for_set_clearance@CFreePcbView@@QAEHPAVCPolyLine@@PAVid@@HMH@Z 005e24c0 f   FreePcbView.obj
 0002:000eb7f0       ?ApproximArc@CFreePcbView@@QAEXXZ 005e27f0 f   FreePcbView.obj
 0002:000eb9a0       ?ArcApp@CFreePcbView@@QAEHPAVCPolyLine@@HPAVcnet@@H@Z 005e29a0 f   FreePcbView.obj
 0002:000ec1e0       ?GetSelCount@CFreePcbView@@QAEHXZ 005e31e0 f   FreePcbView.obj
 0002:000ec3f0       ?DeleteWithRecalculationPoint@CFreePcbView@@QAEHPAVCPolyLine@@PAVcconnect@@H@Z 005e33f0 f   FreePcbView.obj
 0002:000ed2b0       ?TracesRadiusUpDown@CFreePcbView@@QAEXH@Z 005e42b0 f   FreePcbView.obj
 0002:000ed2f0       ?SelectContour@CFreePcbView@@QAEXXZ 005e42f0 f   FreePcbView.obj
 0002:000ed700       ?MergeGroup@CFreePcbView@@QAEXH@Z 005e4700 f   FreePcbView.obj
 0002:000edd20       ?MergeGroup@CFreePcbView@@QAEXXZ 005e4d20 f   FreePcbView.obj
 0002:000ee5f0       ?ExplodeGroup@CFreePcbView@@QAEXXZ 005e55f0 f   FreePcbView.obj
 0002:000ee6b0       ?NewSelectM@CFreePcbView@@QAE?AV?$CStringT@DV?$StrTraitMFC_DLL@DV?$ChTraitsCRT@D@ATL@@@@@ATL@@H@Z 005e56b0 f   FreePcbView.obj
 0002:000eee20       ?OnInfoBoxMess@CFreePcbView@@QAEXHHPAV?$CArray@V?$CStringT@DV?$StrTraitMFC_DLL@DV?$ChTraitsCRT@D@ATL@@@@@ATL@@ABV12@@@@Z 005e5e20 f   FreePcbView.obj
 0002:000eee60       ?OnInfoBoxSendMess@CFreePcbView@@QAEPAVCWnd@@V?$CStringT@DV?$StrTraitMFC_DLL@DV?$ChTraitsCRT@D@ATL@@@@@ATL@@@Z 005e5e60 f   FreePcbView.obj
 0002:000ef0f0       ?GetSelectedItem@CFreePcbView@@QAEHXZ 005e60f0 f   FreePcbView.obj
 0002:000ef4e0       ?UnSelect@CFreePcbView@@QAEHPAXPAVid@@HH@Z 005e64e0 f   FreePcbView.obj
 0002:000ef7e0       ?NewSelect@CFreePcbView@@QAEHPAXPAVid@@HH@Z 005e67e0 f   FreePcbView.obj
 0002:000f00f0       ?MarkAllOutlinePoly@CFreePcbView@@QAEXHH@Z 005e70f0 f   FreePcbView.obj
 0002:000f0200       ?ShowPinState@CFreePcbView@@QAEXPAVcpart@@H@Z 005e7200 f   FreePcbView.obj
 0002:000f0790       ??A?$CArray@Vpart_pin@@ABV1@@@QAEAAVpart_pin@@H@Z 005e7790 f i FreePcbView.obj
 0002:000f07f0       ??A?$CArray@Vcseg@@ABV1@@@QAEAAVcseg@@H@Z 005e77f0 f i FreePcbView.obj
 0002:000f0850       ?RemoveAt@?$CArray@Vcseg@@ABV1@@@QAEXHH@Z 005e7850 f i FreePcbView.obj
 0002:000f0a20       ?RemoveAt@?$CArray@Vcvertex@@ABV1@@@QAEXHH@Z 005e7a20 f i FreePcbView.obj
 0002:000f0bf0       ??0?$CArray@Vid@@ABV1@@@QAE@XZ 005e7bf0 f i FreePcbView.obj
 0002:000f0c80       ?GetSize@?$CArray@Vid@@ABV1@@@QBEHXZ 005e7c80 f i FreePcbView.obj
 0002:000f0cc0       ??A?$CArray@Vid@@ABV1@@@QAEAAVid@@H@Z 005e7cc0 f i FreePcbView.obj
 0002:000f0d20       ?ElementAt@?$CArray@Vpart_pin@@ABV1@@@QAEAAVpart_pin@@H@Z 005e7d20 f i FreePcbView.obj
 0002:000f0dd0       ?ElementAt@?$CArray@Vcseg@@ABV1@@@QAEAAVcseg@@H@Z 005e7dd0 f i FreePcbView.obj
 0002:000f0e80       ?ElementAt@?$CArray@Vid@@ABV1@@@QAEAAVid@@H@Z 005e7e80 f i FreePcbView.obj
 0002:000f0f30       ?Set@id@@QAEXHHHHH@Z       005e7f30 f i FreePcbView.obj
 0002:000f0fa0       ?SetInflectionMode@CDisplayList@@QAEXH@Z 005e7fa0 f i FreePcbView.obj
 0002:000f0ff0       ?mark1@Merge@@QAEXHH@Z     005e7ff0 f i FreePcbView.obj
 0002:000f1070       ?MergeSelected@Merge@@QAEHXZ 005e8070 f i FreePcbView.obj
 0002:000f1100       ?GetUtility@CPolyLine@@QAEHH@Z 005e8100 f i FreePcbView.obj
 0002:000f1170       ?SetUtility@CPolyLine@@QAEXHH@Z 005e8170 f i FreePcbView.obj
 0002:000f11e0       ??A?$CArray@VCPolyPt@@ABV1@@@QAEAAVCPolyPt@@H@Z 005e81e0 f i FreePcbView.obj
 0002:000f1240       ??1?$CArray@Vid@@ABV1@@@UAE@XZ 005e8240 f i FreePcbView.obj
 0002:000f1350       ?Serialize@?$CArray@Vid@@ABV1@@@UAEXAAVCArchive@@@Z 005e8350 f i FreePcbView.obj
 0002:000f1420       ?Dump@?$CArray@Vid@@ABV1@@@UBEXAAVCDumpContext@@@Z 005e8420 f i FreePcbView.obj
 0002:000f1500       ?AssertValid@?$CArray@Vid@@ABV1@@@UBEXXZ 005e8500 f i FreePcbView.obj
 0002:000f1660       ??_Gcseg@@QAEPAXI@Z        005e8660 f i FreePcbView.obj
 0002:000f16d0       ??1cseg@@QAE@XZ            005e86d0 f i FreePcbView.obj
 0002:000f1760       ??_Gcvertex@@QAEPAXI@Z     005e8760 f i FreePcbView.obj
 0002:000f17d0       ??1cvertex@@QAE@XZ         005e87d0 f i FreePcbView.obj
 0002:000f1880       ??_E?$CArray@Vid@@ABV1@@@UAEPAXI@Z 005e8880 f i FreePcbView.obj
 0002:000f1880       ??_G?$CArray@Vid@@ABV1@@@UAEPAXI@Z 005e8880 f i FreePcbView.obj
 0002:000f18f0       ?ElementAt@?$CArray@VCPolyPt@@ABV1@@@QAEAAVCPolyPt@@H@Z 005e88f0 f i FreePcbView.obj
 0002:000f19a0       ?SetSize@?$CArray@Vid@@ABV1@@@QAEXHH@Z 005e89a0 f i FreePcbView.obj
 0002:000f2090       ??$SerializeElements@Vid@@@@YGXAAVCArchive@@PAVid@@H@Z 005e9090 f i FreePcbView.obj
 0002:000f2280       ??$DumpElements@Vid@@@@YGXAAVCDumpContext@@PBVid@@H@Z 005e9280 f i FreePcbView.obj
 0002:000f2370       ??1Cuid@@QAE@XZ            005e9370 f i FreePcbView.obj
 0002:000f23b0       ?GetMessageMap@CFreePcbApp@@MBEPBUAFX_MSGMAP@@XZ 005e93b0 f   FreeSch.obj
 0002:000f2400       ?GetThisMessageMap@CFreePcbApp@@KGPBUAFX_MSGMAP@@XZ 005e9400 f   FreeSch.obj
 0002:000f2440       ??0CFreePcbApp@@QAE@XZ     005e9440 f   FreeSch.obj
 0002:000f2540       ??_GCFreePcbApp@@UAEPAXI@Z 005e9540 f i FreeSch.obj
 0002:000f2540       ??_ECFreePcbApp@@UAEPAXI@Z 005e9540 f i FreeSch.obj
 0002:000f25b0       ??1CFreePcbApp@@UAE@XZ     005e95b0 f i FreeSch.obj
 0002:000f26a0       ?InitInstance@CFreePcbApp@@UAEHXZ 005e96a0 f   FreeSch.obj
 0002:000f2b80       ??0CAboutDlg@@QAE@XZ       005e9b80 f   FreeSch.obj
 0002:000f2c40       ??_GCAboutDlg@@UAEPAXI@Z   005e9c40 f i FreeSch.obj
 0002:000f2c40       ??_ECAboutDlg@@UAEPAXI@Z   005e9c40 f i FreeSch.obj
 0002:000f2cb0       ??1CAboutDlg@@UAE@XZ       005e9cb0 f i FreeSch.obj
 0002:000f2d60       ?DoDataExchange@CAboutDlg@@MAEXPAVCDataExchange@@@Z 005e9d60 f   FreeSch.obj
 0002:000f2e00       ?GetMessageMap@CAboutDlg@@MBEPBUAFX_MSGMAP@@XZ 005e9e00 f   FreeSch.obj
 0002:000f2e50       ?GetThisMessageMap@CAboutDlg@@KGPBUAFX_MSGMAP@@XZ 005e9e50 f   FreeSch.obj
 0002:000f2e90       ?OnAppAbout@CFreePcbApp@@QAEXXZ 005e9e90 f   FreeSch.obj
 0002:000f2f90       ?OnViewFootprint@CFreePcbApp@@QAEXXZ 005e9f90 f   FreeSch.obj
 0002:000f3000       ?OnViewPcbEditor@CFreePcbApp@@QAEXXZ 005ea000 f   FreeSch.obj
 0002:000f3070       ?SwitchToView@CFreePcbApp@@QAEHPAUCRuntimeClass@@@Z 005ea070 f   FreeSch.obj
 0002:000f35a0       ?ExitInstance@CFreePcbApp@@UAEHXZ 005ea5a0 f   FreeSch.obj
 0002:000f35f0       ?OnHelpGotoWebsite@CFreePcbApp@@QAEXXZ 005ea5f0 f   FreeSch.obj
 0002:000f3740       ?OnFileMruFile1@CFreePcbApp@@QAEXXZ 005ea740 f   FreeSch.obj
 0002:000f38b0       ?OnFileMruFile2@CFreePcbApp@@QAEXXZ 005ea8b0 f   FreeSch.obj
 0002:000f3a20       ?OnFileMruFile3@CFreePcbApp@@QAEXXZ 005eaa20 f   FreeSch.obj
 0002:000f3b90       ?OnFileMruFile4@CFreePcbApp@@QAEXXZ 005eab90 f   FreeSch.obj
 0002:000f3d00       ?OnFileMruFile5@CFreePcbApp@@QAEXXZ 005ead00 f   FreeSch.obj
 0002:000f3e70       ?OnFileMruFile6@CFreePcbApp@@QAEXXZ 005eae70 f   FreeSch.obj
 0002:000f3fe0       ?OnFileMruFile7@CFreePcbApp@@QAEXXZ 005eafe0 f   FreeSch.obj
 0002:000f4150       ?OnOpenRecentFile@CFreePcbApp@@QAEHI@Z 005eb150 f   FreeSch.obj
 0002:000f41b0       ?GetMRUFile@CFreePcbApp@@QAE?AV?$CStringT@DV?$StrTraitMFC_DLL@DV?$ChTraitsCRT@D@ATL@@@@@ATL@@XZ 005eb1b0 f   FreeSch.obj
 0002:000f4390       ?AddMRUFile@CFreePcbApp@@QAEXPAV?$CStringT@DV?$StrTraitMFC_DLL@DV?$ChTraitsCRT@D@ATL@@@@@ATL@@@Z 005eb390 f   FreeSch.obj
 0002:000f4440       ?OnHelpKeyboardshortcuts@CFreePcbApp@@QAEXXZ 005eb440 f   FreeSch.obj
 0002:000f45d0       ?OnToolsOpenOnlineAutorouter@CFreePcbApp@@QAEXXZ 005eb5d0 f   FreeSch.obj
 0002:000f4720       ?OnHelpFreeRoutingWebsite@CFreePcbApp@@QAEXXZ 005eb720 f   FreeSch.obj
 0002:000f4870       ?OnHelpUserGuidePdf@CFreePcbApp@@QAEXXZ 005eb870 f   FreeSch.obj
 0002:000f49c0       ?OnHelpUserGuideSupplementPdf@CFreePcbApp@@QAEXXZ 005eb9c0 f   FreeSch.obj
 0002:000f4b10       ?OnHelpFpcRoute@CFreePcbApp@@QAEXXZ 005ebb10 f   FreeSch.obj
 0002:000f4c60       ?DoMessageBox@CFreePcbApp@@UAEHPBDII@Z 005ebc60 f   FreeSch.obj
 0002:000f4d00       ?SupportsRestartManager@CWinApp@@UBEHXZ 005ebd00 f i FreeSch.obj
 0002:000f4d50       ?SupportsApplicationRecovery@CWinApp@@UBEHXZ 005ebd50 f i FreeSch.obj
 0002:000f4da0       ?SupportsAutosaveAtRestart@CWinApp@@UBEHXZ 005ebda0 f i FreeSch.obj
 0002:000f4df0       ?SupportsAutosaveAtInterval@CWinApp@@UBEHXZ 005ebdf0 f i FreeSch.obj
 0002:000f4e40       ?ReopenPreviousFilesAtRestart@CWinApp@@UBEHXZ 005ebe40 f i FreeSch.obj
 0002:000f4e90       ?RestoreAutosavedFilesAtRestart@CWinApp@@UBEHXZ 005ebe90 f i FreeSch.obj
 0002:000f4ee0       ?GetApplicationRestartFlags@CWinApp@@UAEKXZ 005ebee0 f i FreeSch.obj
 0002:000f4f20       ?GetApplicationRecoveryParameter@CWinApp@@UAEPAXXZ 005ebf20 f i FreeSch.obj
 0002:000f4f60       ?GetApplicationRecoveryPingInterval@CWinApp@@UAEKXZ 005ebf60 f i FreeSch.obj
 0002:000f4fa0       ?GetSize@CRecentFileList@@QBEHXZ 005ebfa0 f i FreeSch.obj
 0002:000f4fe0       ??ACRecentFileList@@QAEAAV?$CStringT@DV?$StrTraitMFC_DLL@DV?$ChTraitsCRT@D@ATL@@@@@ATL@@H@Z 005ebfe0 f i FreeSch.obj
 0002:000f50b0       ??0CAperture@@QAE@XZ       005ec0b0 f   Gerber.obj
 0002:000f5110       ??0CAperture@@QAE@HHHHH@Z  005ec110 f   Gerber.obj
 0002:000f5190       ??1CAperture@@QAE@XZ       005ec190 f   Gerber.obj
 0002:000f51d0       ?Equals@CAperture@@QAEHPAV1@@Z 005ec1d0 f   Gerber.obj
 0002:000f54b0       ?FindInArray@CAperture@@QAEHPAV?$CArray@VCAperture@@V1@@@H@Z 005ec4b0 f   Gerber.obj
 0002:000f55f0       ?WriteMoveTo@@YAXPAVCStdioFile@@HHH@Z 005ec5f0 f   Gerber.obj
 0002:000f57e0       ?WritePolygonSide@@YAXPAVCStdioFile@@HHHHHHH@Z 005ec7e0 f   Gerber.obj
 0002:000f5f10       ?ChangeAperture@@YAXPAVCAperture@@0PAV?$CArray@VCAperture@@V1@@@HPAVCStdioFile@@@Z 005ecf10 f   Gerber.obj
 0002:000f6100       ?WriteTiltPolygon@@YAXHHHHHHHHHPAVCStdioFile@@@Z 005ed100 f   Gerber.obj
 0002:000f7e10       ?DrawClearanceInForeignAreas@@YAXPAVcnet@@HHHHHHHHHHPAVCStdioFile@@HHHPAV?$CArray@PAVcnet@@ABQAV1@@@PAV?$CArray@PAVcarea@@ABQAV1@@@PAVCDlgLog@@@Z 005eee10 f   Gerber.obj
 0002:000f9cd0       ?abs@@YA_J_J@Z             005f0cd0 f i Gerber.obj
 0002:000f9d30       ?WriteGerberFile@@YAHPAVCStdioFile@@HHPAVCDlgLog@@HHHHHHHHHHHHHPAV?$CArray@VCPolyLine@@ABV1@@@PAVCPartList@@PAVCNetList@@PAVCTextList@@PAVCDisplayList@@PAVMerge@@@Z 005f0d30 f   Gerber.obj
 0002:00105200       ?AddToArray@@YAHHPAV?$CArray@HH@@@Z 005fc200 f   Gerber.obj
 0002:001052b0       ?WriteDrillFile@@YAHPAVCStdioFile@@PAVCPartList@@PAVCNetList@@PAV?$CArray@VCPolyLine@@ABV1@@@HHHH@Z 005fc2b0 f   Gerber.obj
 0002:001060f0       ??0?$CArray@PAVcnet@@ABQAV1@@@QAE@XZ 005fd0f0 f i Gerber.obj
 0002:00106180       ?Add@?$CArray@PAVcnet@@ABQAV1@@@QAEHABQAVcnet@@@Z 005fd180 f i Gerber.obj
 0002:001061f0       ??A?$CArray@PAVcnet@@ABQAV1@@@QAEAAPAVcnet@@H@Z 005fd1f0 f i Gerber.obj
 0002:00106250       ??0?$CArray@VCAperture@@V1@@@QAE@XZ 005fd250 f i Gerber.obj
 0002:001062e0       ?GetSize@?$CArray@VCAperture@@V1@@@QBEHXZ 005fd2e0 f i Gerber.obj
 0002:00106320       ?GetAt@?$CArray@VCAperture@@V1@@@QAEAAVCAperture@@H@Z 005fd320 f i Gerber.obj
 0002:001063d0       ?Add@?$CArray@VCAperture@@V1@@@QAEHVCAperture@@@Z 005fd3d0 f i Gerber.obj
 0002:001064c0       ??A?$CArray@VCAperture@@V1@@@QAEAAVCAperture@@H@Z 005fd4c0 f i Gerber.obj
 0002:00106520       ??1?$CArray@VCAperture@@V1@@@UAE@XZ 005fd520 f i Gerber.obj
 0002:00106650       ?Serialize@?$CArray@VCAperture@@V1@@@UAEXAAVCArchive@@@Z 005fd650 f i Gerber.obj
 0002:00106720       ?Dump@?$CArray@VCAperture@@V1@@@UBEXAAVCDumpContext@@@Z 005fd720 f i Gerber.obj
 0002:00106800       ?AssertValid@?$CArray@VCAperture@@V1@@@UBEXXZ 005fd800 f i Gerber.obj
 0002:00106960       ??0?$CArray@PAVcarea@@ABQAV1@@@QAE@XZ 005fd960 f i Gerber.obj
 0002:001069f0       ?GetSize@?$CArray@PAVcarea@@ABQAV1@@@QBEHXZ 005fd9f0 f i Gerber.obj
 0002:00106a30       ?Add@?$CArray@PAVcarea@@ABQAV1@@@QAEHABQAVcarea@@@Z 005fda30 f i Gerber.obj
 0002:00106aa0       ??A?$CArray@PAVcarea@@ABQAV1@@@QAEAAPAVcarea@@H@Z 005fdaa0 f i Gerber.obj
 0002:00106b00       ??1?$CArray@PAVcarea@@ABQAV1@@@UAE@XZ 005fdb00 f i Gerber.obj
 0002:00106c10       ?Serialize@?$CArray@PAVcarea@@ABQAV1@@@UAEXAAVCArchive@@@Z 005fdc10 f i Gerber.obj
 0002:00106ce0       ?Dump@?$CArray@PAVcarea@@ABQAV1@@@UBEXAAVCDumpContext@@@Z 005fdce0 f i Gerber.obj
 0002:00106dc0       ?AssertValid@?$CArray@PAVcarea@@ABQAV1@@@UBEXXZ 005fddc0 f i Gerber.obj
 0002:00106f20       ?GetSize@?$CArray@HH@@QBEHXZ 005fdf20 f i Gerber.obj
 0002:00106f60       ?GetAt@?$CArray@HH@@QAEAAHH@Z 005fdf60 f i Gerber.obj
 0002:00107010       ?Add@?$CArray@HH@@QAEHH@Z  005fe010 f i Gerber.obj
 0002:00107080       ??_E?$CArray@VCAperture@@V1@@@UAEPAXI@Z 005fe080 f i Gerber.obj
 0002:00107080       ??_G?$CArray@VCAperture@@V1@@@UAEPAXI@Z 005fe080 f i Gerber.obj
 0002:001070f0       ??_GCAperture@@QAEPAXI@Z   005fe0f0 f i Gerber.obj
 0002:00107160       ??_E?$CArray@PAVcarea@@ABQAV1@@@UAEPAXI@Z 005fe160 f i Gerber.obj
 0002:00107160       ??_G?$CArray@PAVcarea@@ABQAV1@@@UAEPAXI@Z 005fe160 f i Gerber.obj
 0002:001071d0       ?ElementAt@?$CArray@PAVcnet@@ABQAV1@@@QAEAAPAVcnet@@H@Z 005fe1d0 f i Gerber.obj
 0002:00107280       ?SetAtGrow@?$CArray@PAVcnet@@ABQAV1@@@QAEXHABQAVcnet@@@Z 005fe280 f i Gerber.obj
 0002:00107350       ?SetSize@?$CArray@VCAperture@@V1@@@QAEXHH@Z 005fe350 f i Gerber.obj
 0002:00107a50       ?ElementAt@?$CArray@VCAperture@@V1@@@QAEAAVCAperture@@H@Z 005fea50 f i Gerber.obj
 0002:00107b00       ?SetAtGrow@?$CArray@VCAperture@@V1@@@QAEXHVCAperture@@@Z 005feb00 f i Gerber.obj
 0002:00107c40       ??$SerializeElements@VCAperture@@@@YGXAAVCArchive@@PAVCAperture@@H@Z 005fec40 f i Gerber.obj
 0002:00107e30       ??$DumpElements@VCAperture@@@@YGXAAVCDumpContext@@PBVCAperture@@H@Z 005fee30 f i Gerber.obj
 0002:00107f20       ?SetSize@?$CArray@PAVcarea@@ABQAV1@@@QAEXHH@Z 005fef20 f i Gerber.obj
 0002:001084b0       ?ElementAt@?$CArray@PAVcarea@@ABQAV1@@@QAEAAPAVcarea@@H@Z 005ff4b0 f i Gerber.obj
 0002:00108560       ?SetAtGrow@?$CArray@PAVcarea@@ABQAV1@@@QAEXHABQAVcarea@@@Z 005ff560 f i Gerber.obj
 0002:00108630       ??$SerializeElements@PAVcarea@@@@YGXAAVCArchive@@PAPAVcarea@@H@Z 005ff630 f i Gerber.obj
 0002:00108820       ??$DumpElements@PAVcarea@@@@YGXAAVCDumpContext@@PBQAVcarea@@H@Z 005ff820 f i Gerber.obj
 0002:00108910       ?SetAtGrow@?$CArray@HH@@QAEXHH@Z 005ff910 f i Gerber.obj
 0002:001089e0       ?GetNumCopperLayers@CNetList@@QAEHXZ 005ff9e0 f i Gerber.obj
 0002:00108a20       ??1?$CArray@PAVcnet@@ABQAV1@@@UAE@XZ 005ffa20 f i Gerber.obj
 0002:00108b30       ?Serialize@?$CArray@PAVcnet@@ABQAV1@@@UAEXAAVCArchive@@@Z 005ffb30 f i Gerber.obj
 0002:00108c00       ?Dump@?$CArray@PAVcnet@@ABQAV1@@@UBEXAAVCDumpContext@@@Z 005ffc00 f i Gerber.obj
 0002:00108ce0       ?AssertValid@?$CArray@PAVcnet@@ABQAV1@@@UBEXXZ 005ffce0 f i Gerber.obj
 0002:00108e40       ??_E?$CArray@PAVcnet@@ABQAV1@@@UAEPAXI@Z 005ffe40 f i Gerber.obj
 0002:00108e40       ??_G?$CArray@PAVcnet@@ABQAV1@@@UAEPAXI@Z 005ffe40 f i Gerber.obj
 0002:00108eb0       ?SetSize@?$CArray@PAVcnet@@ABQAV1@@@QAEXHH@Z 005ffeb0 f i Gerber.obj
 0002:00109440       ??$SerializeElements@PAVcnet@@@@YGXAAVCArchive@@PAPAVcnet@@H@Z 00600440 f i Gerber.obj
 0002:00109630       ??$DumpElements@PAVcnet@@@@YGXAAVCDumpContext@@PBQAVcnet@@H@Z 00600630 f i Gerber.obj
 0002:00109720       ?gpc_free_polygon@@YAXPAUgpc_polygon@@@Z 00600720 f   gpc_232.obj
 0002:00109850       ?gpc_read_polygon@@YAXPAU_iobuf@@HPAUgpc_polygon@@@Z 00600850 f   gpc_232.obj
 0002:00109c10       ?gpc_write_polygon@@YAXPAU_iobuf@@HPAUgpc_polygon@@@Z 00600c10 f   gpc_232.obj
 0002:00109db0       ?gpc_add_contour@@YAXPAUgpc_polygon@@PAUgpc_vertex_list@@H@Z 00600db0 f   gpc_232.obj
 0002:0010a1f0       ?gpc_polygon_clip@@YAXW4gpc_op@@PAUgpc_polygon@@11@Z 006011f0 f   gpc_232.obj
 0002:0010fa70       ?gpc_free_tristrip@@YAXPAUgpc_tristrip@@@Z 00606a70 f   gpc_232.obj
 0002:0010fb70       ?gpc_polygon_to_tristrip@@YAXPAUgpc_polygon@@PAUgpc_tristrip@@@Z 00606b70 f   gpc_232.obj
 0002:0010fc20       ?gpc_tristrip_clip@@YAXW4gpc_op@@PAUgpc_polygon@@1PAUgpc_tristrip@@@Z 00606c20 f   gpc_232.obj
 0002:00113cb0       ?ConvertIvex@@YAHPAVCStdioFile@@0PAVCEdit@@@Z 0060acb0 f   ivex_mod_file.obj
 0002:00118020       ??0mod_padstack@@QAE@XZ    0060f020 f i ivex_mod_file.obj
 0002:001180e0       ??0?$CArray@Upad_stack_entry@@ABU1@@@QAE@XZ 0060f0e0 f i ivex_mod_file.obj
 0002:00118170       ?GetSize@?$CArray@Upad_stack_entry@@ABU1@@@QBEHXZ 0060f170 f i ivex_mod_file.obj
 0002:001181b0       ?SetSize@?$CArray@Upad_stack_entry@@ABU1@@@QAEXHH@Z 0060f1b0 f i ivex_mod_file.obj
 0002:00118810       ??A?$CArray@Upad_stack_entry@@ABU1@@@QAEAAUpad_stack_entry@@H@Z 0060f810 f i ivex_mod_file.obj
 0002:00118870       ?Serialize@?$CArray@Upad_stack_entry@@ABU1@@@UAEXAAVCArchive@@@Z 0060f870 f i ivex_mod_file.obj
 0002:00118940       ?Dump@?$CArray@Upad_stack_entry@@ABU1@@@UBEXAAVCDumpContext@@@Z 0060f940 f i ivex_mod_file.obj
 0002:00118a20       ?AssertValid@?$CArray@Upad_stack_entry@@ABU1@@@UBEXXZ 0060fa20 f i ivex_mod_file.obj
 0002:00118b80       ??0?$CArray@Umtg_hole@@ABU1@@@QAE@XZ 0060fb80 f i ivex_mod_file.obj
 0002:00118c10       ?GetSize@?$CArray@Umtg_hole@@ABU1@@@QBEHXZ 0060fc10 f i ivex_mod_file.obj
 0002:00118c50       ?SetSize@?$CArray@Umtg_hole@@ABU1@@@QAEXHH@Z 0060fc50 f i ivex_mod_file.obj
 0002:001191f0       ?RemoveAll@?$CArray@Umtg_hole@@ABU1@@@QAEXXZ 006101f0 f i ivex_mod_file.obj
 0002:00119250       ??A?$CArray@Umtg_hole@@ABU1@@@QAEAAUmtg_hole@@H@Z 00610250 f i ivex_mod_file.obj
 0002:001192b0       ??1?$CArray@Umtg_hole@@ABU1@@@UAE@XZ 006102b0 f i ivex_mod_file.obj
 0002:001193c0       ?Serialize@?$CArray@Umtg_hole@@ABU1@@@UAEXAAVCArchive@@@Z 006103c0 f i ivex_mod_file.obj
 0002:00119490       ?Dump@?$CArray@Umtg_hole@@ABU1@@@UBEXAAVCDumpContext@@@Z 00610490 f i ivex_mod_file.obj
 0002:00119570       ?AssertValid@?$CArray@Umtg_hole@@ABU1@@@UBEXXZ 00610570 f i ivex_mod_file.obj
 0002:001196d0       ??_G?$CArray@Upad_stack_entry@@ABU1@@@UAEPAXI@Z 006106d0 f i ivex_mod_file.obj
 0002:001196d0       ??_E?$CArray@Upad_stack_entry@@ABU1@@@UAEPAXI@Z 006106d0 f i ivex_mod_file.obj
 0002:00119740       ??1?$CArray@Upad_stack_entry@@ABU1@@@UAE@XZ 00610740 f i ivex_mod_file.obj
 0002:00119870       ??_Gpad_stack_entry@@QAEPAXI@Z 00610870 f i ivex_mod_file.obj
 0002:001198e0       ??0pad_stack_entry@@QAE@XZ 006108e0 f i ivex_mod_file.obj
 0002:00119940       ??_G?$CArray@Umtg_hole@@ABU1@@@UAEPAXI@Z 00610940 f i ivex_mod_file.obj
 0002:00119940       ??_E?$CArray@Umtg_hole@@ABU1@@@UAEPAXI@Z 00610940 f i ivex_mod_file.obj
 0002:001199b0       ??1pad_stack_entry@@QAE@XZ 006109b0 f i ivex_mod_file.obj
 0002:00119a10       ?ElementAt@?$CArray@Upad_stack_entry@@ABU1@@@QAEAAUpad_stack_entry@@H@Z 00610a10 f i ivex_mod_file.obj
 0002:00119ac0       ??$SerializeElements@Upad_stack_entry@@@@YGXAAVCArchive@@PAUpad_stack_entry@@H@Z 00610ac0 f i ivex_mod_file.obj
 0002:00119cb0       ??$DumpElements@Upad_stack_entry@@@@YGXAAVCDumpContext@@PBUpad_stack_entry@@H@Z 00610cb0 f i ivex_mod_file.obj
 0002:00119da0       ?ElementAt@?$CArray@Umtg_hole@@ABU1@@@QAEAAUmtg_hole@@H@Z 00610da0 f i ivex_mod_file.obj
 0002:00119e50       ??$SerializeElements@Umtg_hole@@@@YGXAAVCArchive@@PAUmtg_hole@@H@Z 00610e50 f i ivex_mod_file.obj
 0002:0011a040       ??$DumpElements@Umtg_hole@@@@YGXAAVCDumpContext@@PBUmtg_hole@@H@Z 00611040 f i ivex_mod_file.obj
 0002:0011a130       ?CreateObject@CMainFrame@@SGPAVCObject@@XZ 00611130 f   MainFrm.obj
 0002:0011a220       ?_GetBaseClass@CMainFrame@@KGPAUCRuntimeClass@@XZ 00611220 f   MainFrm.obj
 0002:0011a270       ?GetThisClass@CMainFrame@@SGPAUCRuntimeClass@@XZ 00611270 f   MainFrm.obj
 0002:0011a2b0       ?GetRuntimeClass@CMainFrame@@UBEPAUCRuntimeClass@@XZ 006112b0 f   MainFrm.obj
 0002:0011a2f0       ?GetMessageMap@CMainFrame@@MBEPBUAFX_MSGMAP@@XZ 006112f0 f   MainFrm.obj
 0002:0011a340       ?GetThisMessageMap@CMainFrame@@KGPBUAFX_MSGMAP@@XZ 00611340 f   MainFrm.obj
 0002:0011a380       ??0CMainFrame@@IAE@XZ      00611380 f   MainFrm.obj
 0002:0011a4a0       ??_ECMainFrame@@UAEPAXI@Z  006114a0 f i MainFrm.obj
 0002:0011a4a0       ??_GCMainFrame@@UAEPAXI@Z  006114a0 f i MainFrm.obj
 0002:0011a510       ??1CMainFrame@@UAE@XZ      00611510 f   MainFrm.obj
 0002:0011a5e0       ?OnCreate@CMainFrame@@IAEHPAUtagCREATESTRUCTA@@@Z 006115e0 f   MainFrm.obj
 0002:0011b000       ?PreCreateWindow@CMainFrame@@UAEHAAUtagCREATESTRUCTA@@@Z 00612000 f   MainFrm.obj
 0002:0011b100       ?DrawStatus@CMainFrame@@QAEHHPAV?$CStringT@DV?$StrTraitMFC_DLL@DV?$ChTraitsCRT@D@ATL@@@@@ATL@@@Z 00612100 f   MainFrm.obj
 0002:0011b180       ?AssertValid@CMainFrame@@UBEXXZ 00612180 f   MainFrm.obj
 0002:0011b1d0       ?Dump@CMainFrame@@UBEXAAVCDumpContext@@@Z 006121d0 f   MainFrm.obj
 0002:0011b230       ?OnChangeVisibleGrid@CMainFrame@@QAEJIJ@Z 00612230 f   MainFrm.obj
 0002:0011b310       ?OnChangePlacementGrid@CMainFrame@@QAEJIJ@Z 00612310 f   MainFrm.obj
 0002:0011b3f0       ?OnChangeRoutingGrid@CMainFrame@@QAEJIJ@Z 006123f0 f   MainFrm.obj
 0002:0011b490       ?OnChangeSnapAngle@CMainFrame@@QAEJIJ@Z 00612490 f   MainFrm.obj
 0002:0011b570       ?OnChangeUnits@CMainFrame@@QAEJIJ@Z 00612570 f   MainFrm.obj
 0002:0011b650       ?Wm__DropFiles@CMainFrame@@QAEJIJ@Z 00612650 f   MainFrm.obj
 0002:0011b8b0       ?OnCopyData@CMainFrame@@QAEHPAVCWnd@@PAUtagCOPYDATASTRUCT@@@Z 006128b0 f   MainFrm.obj
 0002:0011bf60       ?OnSysCommand@CMainFrame@@QAEXIJ@Z 00612f60 f   MainFrm.obj
 0002:0011c050       ?OnEditUndo@CMainFrame@@QAEXXZ 00613050 f   MainFrm.obj
 0002:0011c130       ?OnTimer@CMainFrame@@QAEXI@Z 00613130 f   MainFrm.obj
 0002:0011c200       ?OnSetCursor@CMainFrame@@QAEHPAVCWnd@@II@Z 00613200 f   MainFrm.obj
 0002:0011c3d0       ?OnMove@CMainFrame@@QAEXHH@Z 006133d0 f   MainFrm.obj
 0002:0011c550       ?OnSize@CMainFrame@@QAEXIHH@Z 00613550 f   MainFrm.obj
 0002:0011c670       ?SetHideCursor@CMainFrame@@QAEXHPAVCRect@@@Z 00613670 f   MainFrm.obj
 0002:0011c740       ?DestroyWindow@CMainFrame@@UAEHXZ 00613740 f   MainFrm.obj
 0002:0011c890       ?_GetBaseClass@CMyToolBar@@KGPAUCRuntimeClass@@XZ 00613890 f   MyToolBar.obj
 0002:0011c8e0       ?GetThisClass@CMyToolBar@@SGPAUCRuntimeClass@@XZ 006138e0 f   MyToolBar.obj
 0002:0011c920       ?GetRuntimeClass@CMyToolBar@@UBEPAUCRuntimeClass@@XZ 00613920 f   MyToolBar.obj
 0002:0011c960       ??0CMyToolBar@@QAE@XZ      00613960 f   MyToolBar.obj
 0002:0011cb10       ??_GCMyToolBar@@UAEPAXI@Z  00613b10 f i MyToolBar.obj
 0002:0011cb10       ??_ECMyToolBar@@UAEPAXI@Z  00613b10 f i MyToolBar.obj
 0002:0011cb80       ??1CMyToolBar@@UAE@XZ      00613b80 f   MyToolBar.obj
 0002:0011cd20       ?GetMessageMap@CMyToolBar@@MBEPBUAFX_MSGMAP@@XZ 00613d20 f   MyToolBar.obj
 0002:0011cd70       ?GetThisMessageMap@CMyToolBar@@KGPBUAFX_MSGMAP@@XZ 00613d70 f   MyToolBar.obj
 0002:0011cdb0       ?OnCreate@CMyToolBar@@QAEHPAUtagCREATESTRUCTA@@@Z 00613db0 f   MyToolBar.obj
 0002:0011d640       ?SetLists@CMyToolBar@@QAEXPAV?$CArray@NABN@@00NNNHH@Z 00614640 f   MyToolBar.obj
 0002:0011ea40       ?OnEditVisibleGrid@CMyToolBar@@QAEXXZ 00615a40 f   MyToolBar.obj
 0002:0011eb80       ?OnEditPlacementGrid@CMyToolBar@@QAEXXZ 00615b80 f   MyToolBar.obj
 0002:0011ecc0       ?OnSelectVisibleGrid@CMyToolBar@@QAEXXZ 00615cc0 f   MyToolBar.obj
 0002:0011ee10       ?OnSelectPlacementGrid@CMyToolBar@@QAEXXZ 00615e10 f   MyToolBar.obj
 0002:0011ef60       ?OnSelectRoutingGrid@CMyToolBar@@QAEXXZ 00615f60 f   MyToolBar.obj
 0002:0011f080       ?OnSelectSnapAngle@CMyToolBar@@QAEXXZ 00616080 f   MyToolBar.obj
 0002:0011f1a0       ?OnSelectUnits@CMyToolBar@@QAEXXZ 006161a0 f   MyToolBar.obj
 0002:0011f2c0       ?SetUnits@CMyToolBar@@QAEXH@Z 006162c0 f   MyToolBar.obj
 0002:0011f400       ??0carea@@QAE@XZ           00616400 f   NetList.obj
 0002:0011f540       ?Initialize@carea@@QAEXPAVCDisplayList@@@Z 00616540 f   NetList.obj
 0002:0011f660       ??1carea@@QAE@XZ           00616660 f   NetList.obj
 0002:0011f850       ??0carea@@QAE@ABV0@@Z      00616850 f   NetList.obj
 0002:0011f9e0       ??4carea@@QAEAAV0@AAV0@@Z  006169e0 f   NetList.obj
 0002:0011fa20       ??0CNetList@@QAE@PAVCDisplayList@@PAVCPartList@@@Z 00616a20 f   NetList.obj
 0002:0011fb00       ?SetPartList@CNetList@@QAEXPAVCPartList@@@Z 00616b00 f   NetList.obj
 0002:0011fb50       ??1CNetList@@QAE@XZ        00616b50 f   NetList.obj
 0002:0011fc10       ?AddNet@CNetList@@QAEPAVcnet@@V?$CStringT@DV?$StrTraitMFC_DLL@DV?$ChTraitsCRT@D@ATL@@@@@ATL@@HHH@Z 00616c10 f   NetList.obj
 0002:0011fea0       ?RemoveNet@CNetList@@QAEXPAVcnet@@@Z 00616ea0 f   NetList.obj
 0002:00120150       ??_Gcnet@@QAEPAXI@Z        00617150 f i NetList.obj
 0002:001201c0       ??1cnet@@QAE@XZ            006171c0 f i NetList.obj
 0002:001202a0       ?RemoveAllNets@CNetList@@QAEXXZ 006172a0 f   NetList.obj
 0002:00120410       ?GetFirstNet@CNetList@@QAEPAVcnet@@XZ 00617410 f   NetList.obj
 0002:001206d0       ?GetNextNet@CNetList@@QAEPAVcnet@@XZ 006176d0 f   NetList.obj
 0002:001208e0       ?CancelNextNet@CNetList@@QAEXXZ 006178e0 f   NetList.obj
 0002:00120930       ?GetNumNets@CNetList@@QAEHXZ 00617930 f   NetList.obj
 0002:001209c0       ?SplitNet@CNetList@@QAEPAVcnet@@PAV2@HH@Z 006179c0 f   NetList.obj
 0002:00122960       ?MarkAllNets@CNetList@@QAEXH@Z 00619960 f   NetList.obj
 0002:00122bb0       ?MoveOrigin@CNetList@@QAEXHH@Z 00619bb0 f   NetList.obj
 0002:00122e60       ?UndrawConnection@CNetList@@QAEXPAVcnet@@H@Z 00619e60 f   NetList.obj
 0002:00122fa0       ?DrawConnection@CNetList@@QAEXPAVcnet@@H@Z 00619fa0 f   NetList.obj
 0002:00123060       ?DrawConnections@CNetList@@QAEXPAVcnet@@@Z 0061a060 f   NetList.obj
 0002:001230f0       ?DrawAreas@CNetList@@QAEXPAVcnet@@@Z 0061a0f0 f   NetList.obj
 0002:00123190       ?AddCutoutsForArea@CNetList@@QAEHPAVcnet@@HHHHPAVMerge@@H@Z 0061a190 f   NetList.obj
 0002:001247d0       ?AddNetPin@CNetList@@QAEXPAVcnet@@PAV?$CStringT@DV?$StrTraitMFC_DLL@DV?$ChTraitsCRT@D@ATL@@@@@ATL@@1H@Z 0061b7d0 f   NetList.obj
 0002:001249e0       ?RemoveNetPin@CNetList@@QAEXPAVcnet@@PAV?$CStringT@DV?$StrTraitMFC_DLL@DV?$ChTraitsCRT@D@ATL@@@@@ATL@@1H@Z 0061b9e0 f   NetList.obj
 0002:00124b50       ?RemoveNetPin@CNetList@@QAEXPAVcnet@@HHH@Z 0061bb50 f   NetList.obj
 0002:00124dd0       ?DisconnectNetPin@CNetList@@QAEXPAVcpart@@PAV?$CStringT@DV?$StrTraitMFC_DLL@DV?$ChTraitsCRT@D@ATL@@@@@ATL@@H@Z 0061bdd0 f   NetList.obj
 0002:00125060       ?DisconnectNetPin@CNetList@@QAEXPAVcnet@@PAV?$CStringT@DV?$StrTraitMFC_DLL@DV?$ChTraitsCRT@D@ATL@@@@@ATL@@1H@Z 0061c060 f   NetList.obj
 0002:001252f0       ?GetPinIndexBy_XY_ForPart@CNetList@@QAEHPAVcpart@@HH@Z 0061c2f0 f   NetList.obj
 0002:001254d0       ?GetPinIndexByNameForPart@CNetList@@QAEHPAVcpart@@V?$CStringT@DV?$StrTraitMFC_DLL@DV?$ChTraitsCRT@D@ATL@@@@@ATL@@HH@Z 0061c4d0 f   NetList.obj
 0002:001257a0       ?GetNetPinIndex@CNetList@@QAEHPAVcnet@@PAV?$CStringT@DV?$StrTraitMFC_DLL@DV?$ChTraitsCRT@D@ATL@@@@@ATL@@1@Z 0061c7a0 f   NetList.obj
 0002:00125880       ?FindPin@CNetList@@QAEPAVcnet@@PAV?$CStringT@DV?$StrTraitMFC_DLL@DV?$ChTraitsCRT@D@ATL@@@@@ATL@@0@Z 0061c880 f   NetList.obj
 0002:00125a40       ?AddNetConnect@CNetList@@QAEHPAVcnet@@HHHHHH@Z 0061ca40 f   NetList.obj
 0002:00126530       ?RepairBranch@CNetList@@QAEXPAVcnet@@HH@Z 0061d530 f   NetList.obj
 0002:001267b0       ?RepairAllBranches@CNetList@@QAEXH@Z 0061d7b0 f   NetList.obj
 0002:00126950       ?ReverseNetConnect@CNetList@@QAEHPAVcnet@@HH@Z 0061d950 f   NetList.obj
 0002:00127320       ?MirrorNetConnect@CNetList@@QAEHPAVcnet@@HHH@Z 0061e320 f   NetList.obj
 0002:001275c0       ?AddNetStub@CNetList@@QAEHPAVcnet@@HHH@Z 0061e5c0 f   NetList.obj
 0002:00127be0       ?TestHitOnConnectionEndPad@CNetList@@QAEHHHPAVcnet@@HHH@Z 0061ebe0 f   NetList.obj
 0002:00127e20       ?TestHitOnAnyPadInNet@CNetList@@QAEHHHHPAVcnet@@PAH@Z 0061ee20 f   NetList.obj
 0002:00128000       ?CleanUpConnections@CNetList@@QAEXPAVcnet@@PAV?$CStringT@DV?$StrTraitMFC_DLL@DV?$ChTraitsCRT@D@ATL@@@@@ATL@@@Z 0061f000 f   NetList.obj
 0002:00128a30       ?CleanUpAllConnections@CNetList@@QAEXPAV?$CStringT@DV?$StrTraitMFC_DLL@DV?$ChTraitsCRT@D@ATL@@@@@ATL@@@Z 0061fa30 f   NetList.obj
 0002:00129110       ?RemoveNetConnect@CNetList@@QAEHPAVcnet@@HH@Z 00620110 f   NetList.obj
 0002:001292e0       ?UnrouteNetConnect@CNetList@@QAEHPAVcnet@@H@Z 006202e0 f   NetList.obj
 0002:001293e0       ?ChangeConnectionPin@CNetList@@QAEHPAVcnet@@HH0PAVcpart@@PAV?$CStringT@DV?$StrTraitMFC_DLL@DV?$ChTraitsCRT@D@ATL@@@@@ATL@@HH@Z 006203e0 f   NetList.obj
 0002:0012a000       ?MergeUnroutedSegments@CNetList@@QAEXPAVcnet@@HH@Z 00621000 f   NetList.obj
 0002:0012a1b0       ?RemoveSegment@CNetList@@QAEHPAVcnet@@HH@Z 006211b0 f   NetList.obj
 0002:0012b340       ?RenumberConnections@CNetList@@QAEXPAVcnet@@@Z 00622340 f   NetList.obj
 0002:0012b3d0       ?RenumberConnection@CNetList@@QAEXPAVcnet@@H@Z 006223d0 f   NetList.obj
 0002:0012b590       ?RenumberAreas@CNetList@@QAEXPAVcnet@@@Z 00622590 f   NetList.obj
 0002:0012b8c0       ?ChangeSegmentLayer@CNetList@@QAEHPAVcnet@@HHHHH@Z 006228c0 f   NetList.obj
 0002:0012bbe0       ?RouteSegment@CNetList@@QAEHPAVcnet@@HHHHHHHH@Z 00622be0 f   NetList.obj
 0002:0012bde0       ?RouteTrace@CNetList@@QAEXPAVcnet@@HHHHH@Z 00622de0 f   NetList.obj
 0002:0012be90       ?DrawSegment@CNetList@@QAEHPAVcnet@@HH@Z 00622e90 f   NetList.obj
 0002:0012bed0       ?AppendSegment@CNetList@@QAEHPAVcnet@@HHHHHHHH@Z 00622ed0 f   NetList.obj
 0002:0012c1e0       ?InsertSegment@CNetList@@QAEHPAVcnet@@HHHHHHHHHH@Z 006231e0 f   NetList.obj
 0002:0012c890       ?SetSegmentWidth@CNetList@@QAEHPAVcnet@@HHHHH@Z 00623890 f   NetList.obj
 0002:0012ca20       ?SetConnectionWidth@CNetList@@QAEHPAVcnet@@HHHH@Z 00623a20 f   NetList.obj
 0002:0012cad0       ?SetNetWidth@CNetList@@QAEHPAVcnet@@HHH@Z 00623ad0 f   NetList.obj
 0002:0012cba0       ?PartAdded@CNetList@@QAEXPAVcpart@@@Z 00623ba0 f   NetList.obj
 0002:0012cea0       ?SwapConnects@CNetList@@QAEXPAVcnet@@0Vid@@1@Z 00623ea0 f   NetList.obj
 0002:0012dfa0       ?SwapPins@CNetList@@QAEXPAVcpart@@PAV?$CStringT@DV?$StrTraitMFC_DLL@DV?$ChTraitsCRT@D@ATL@@@@@ATL@@01@Z 00624fa0 f   NetList.obj
 0002:0012f770       ?PartMoved@CNetList@@QAEHPAVcpart@@HH@Z 00626770 f   NetList.obj
 0002:001300e0       ?PartFootprintChanged@CNetList@@QAEHPAVcpart@@PAV?$CStringT@DV?$StrTraitMFC_DLL@DV?$ChTraitsCRT@D@ATL@@@@@ATL@@@Z 006270e0 f   NetList.obj
 0002:001319f0       ?PartDeleted@CNetList@@QAEHPAVcpart@@H@Z 006289f0 f   NetList.obj
 0002:00131ca0       ?PartRefChanged@CNetList@@QAEHPAV?$CStringT@DV?$StrTraitMFC_DLL@DV?$ChTraitsCRT@D@ATL@@@@@ATL@@0@Z 00628ca0 f   NetList.obj
 0002:00131f70       ?PartCheckConnect@CNetList@@QAEHPAVcpart@@@Z 00628f70 f   NetList.obj
 0002:00132160       ?PartDisconnected@CNetList@@QAEHPAVcpart@@H@Z 00629160 f   NetList.obj
 0002:001321c0       ?AddPinsToGrid@@YAXPADHHH@Z 006291c0 f   NetList.obj
 0002:001322f0       ?OptimizeConnections@CNetList@@QAEXHHH@Z 006292f0 f   NetList.obj
 0002:00132480       ?OptimizeConnections@CNetList@@QAEXPAVcpart@@HHH@Z 00629480 f   NetList.obj
 0002:001325e0       ?OptimizeConnections@CNetList@@QAEHPAVcnet@@HHHH@Z 006295e0 f   NetList.obj
 0002:00134a70       ?RehookPartsToNet@CNetList@@QAEHPAVcnet@@@Z 0062ba70 f   NetList.obj
 0002:00134ce0       ?SetViaVisible@CNetList@@QAEXPAVcnet@@HHH@Z 0062bce0 f   NetList.obj
 0002:00134d90       ?HighlightDrcCircles@@YAXH@Z 0062bd90 f   NetList.obj
 0002:00134dc0       ?StartDraggingEndVertex@CNetList@@QAEXPAVCDC@@PAVcnet@@HHH@Z 0062bdc0 f   NetList.obj
 0002:00135070       ?CancelDraggingEndVertex@CNetList@@QAEXPAVcnet@@HH@Z 0062c070 f   NetList.obj
 0002:00135240       ?MoveEndVertex@CNetList@@QAEXPAVcnet@@HHHH@Z 0062c240 f   NetList.obj
 0002:001353a0       ?MoveVertex@CNetList@@QAEXPAVcnet@@HHHH@Z 0062c3a0 f   NetList.obj
 0002:001355c0       ?StartDraggingVertex@CNetList@@QAEHPAVCDC@@PAVcnet@@HHHHH@Z 0062c5c0 f   NetList.obj
 0002:00135c30       ?StartMovingSegment@CNetList@@QAEHPAVCDC@@PAVcnet@@HHHHHH@Z 0062cc30 f   NetList.obj
 0002:001361b0       ?StartDraggingSegment@CNetList@@QAEHPAVCDC@@PAVcnet@@HHHHHHHHHHHH@Z 0062d1b0 f   NetList.obj
 0002:00136310       ?StartDraggingSegmentNewVertex@CNetList@@QAEHPAVCDC@@PAVcnet@@HHHHHHH@Z 0062d310 f   NetList.obj
 0002:00136470       ?StartDraggingStub@CNetList@@QAEXPAVCDC@@PAVcnet@@HHHHHHHHHHH@Z 0062d470 f   NetList.obj
 0002:00136670       ?CancelDraggingStub@CNetList@@QAEXPAVcnet@@HH@Z 0062d670 f   NetList.obj
 0002:001367e0       ?StartDraggingAreaCorner@CNetList@@QAEHPAVCDC@@PAVcnet@@HHHHH@Z 0062d7e0 f   NetList.obj
 0002:00136860       ?StartDraggingInsertedAreaCorner@CNetList@@QAEHPAVCDC@@PAVcnet@@HHHHH@Z 0062d860 f   NetList.obj
 0002:001368e0       ?CancelDraggingInsertedAreaCorner@CNetList@@QAEHPAVcnet@@HH@Z 0062d8e0 f   NetList.obj
 0002:00136950       ?CancelDraggingAreaCorner@CNetList@@QAEHPAVcnet@@HH@Z 0062d950 f   NetList.obj
 0002:001369c0       ?CancelDraggingSegment@CNetList@@QAEHPAVcnet@@HH@Z 0062d9c0 f   NetList.obj
 0002:00136a50       ?CancelDraggingVertex@CNetList@@QAEHPAVcnet@@HH@Z 0062da50 f   NetList.obj
 0002:00136ce0       ?CancelMovingSegment@CNetList@@QAEHPAVcnet@@HH@Z 0062dce0 f   NetList.obj
 0002:00136f90       ?CancelDraggingSegmentNewVertex@CNetList@@QAEHPAVcnet@@HH@Z 0062df90 f   NetList.obj
 0002:00137020       ?GetViaConnectionStatus@CNetList@@QAEHPAVcnet@@HHH@Z 0062e020 f   NetList.obj
 0002:001373e0       ?GetViaPadInfo@CNetList@@QAEXPAVcnet@@HHHPAH11@Z 0062e3e0 f   NetList.obj
 0002:00137680       ?TestForHitOnVertex@CNetList@@QAEHPAVcnet@@HHHPAPAV2@PAH2@Z 0062e680 f   NetList.obj
 0002:00137930       ?AddArea@CNetList@@QAEHPAVcnet@@HHHHH@Z 0062e930 f   NetList.obj
 0002:00137980       ?InsertArea@CNetList@@QAEXPAVcnet@@HHHHHHH@Z 0062e980 f   NetList.obj
 0002:001379c0       ?AppendAreaCorner@CNetList@@QAEHPAVcnet@@HHHHH@Z 0062e9c0 f   NetList.obj
 0002:00137a40       ?InsertAreaCorner@CNetList@@QAEHPAVcnet@@HHHHHH@Z 0062ea40 f   NetList.obj
 0002:00137b90       ?MoveAreaCorner@CNetList@@QAEXPAVcnet@@HHHHH@Z 0062eb90 f   NetList.obj
 0002:00137c50       ?HighlightAreaCorner@CNetList@@QAEXPAVcnet@@HHH@Z 0062ec50 f   NetList.obj
 0002:00137cc0       ?GetAreaCorner@CNetList@@QAE?AVCPoint@@PAVcnet@@HH@Z 0062ecc0 f   NetList.obj
 0002:00137db0       ?CompleteArea@CNetList@@QAEHPAVcnet@@HH@Z 0062edb0 f   NetList.obj
 0002:00137e80       ?SetAreaConnections@CNetList@@QAEXXZ 0062ee80 f   NetList.obj
 0002:00137fe0       ?SetAreaConnections@CNetList@@QAEXPAVcnet@@@Z 0062efe0 f   NetList.obj
 0002:00138070       ?SetAreaConnections@CNetList@@QAEXPAVcpart@@@Z 0062f070 f   NetList.obj
 0002:00138180       ?SetAreaConnections@CNetList@@QAEXPAVcnet@@HH@Z 0062f180 f   NetList.obj
 0002:001381c0       ?TestPointInArea@CNetList@@QAEHPAVcnet@@HHHPAH@Z 0062f1c0 f   NetList.obj
 0002:00138300       ?RemoveArea@CNetList@@QAEHPAVcnet@@H@Z 0062f300 f   NetList.obj
 0002:001383a0       ?GetNetPtrByName@CNetList@@QAEPAVcnet@@PAV?$CStringT@DV?$StrTraitMFC_DLL@DV?$ChTraitsCRT@D@ATL@@@@@ATL@@@Z 0062f3a0 f   NetList.obj
 0002:00138460       ?SelectAreaSide@CNetList@@QAEXPAVcnet@@HH@Z 0062f460 f   NetList.obj
 0002:001384e0       ?SelectAreaCorner@CNetList@@QAEXPAVcnet@@HH@Z 0062f4e0 f   NetList.obj
 0002:00138560       ?SetAreaSideStyle@CNetList@@QAEXPAVcnet@@HHH@Z 0062f560 f   NetList.obj
 0002:00138610       ?HighlightNetVertices@CNetList@@QAEXPAVcnet@@HH@Z 0062f610 f   NetList.obj
 0002:001388c0       ?HighlightNetConnections@CNetList@@QAEXPAVcnet@@HHHH@Z 0062f8c0 f   NetList.obj
 0002:00138990       ?HighlightConnection@CNetList@@QAEXPAVcnet@@HH@Z 0062f990 f   NetList.obj
 0002:00138a40       ?HighlightConnection@CNetList@@QAEXPAVcnet@@HHHHHH@Z 0062fa40 f   NetList.obj
 0002:00138c40       ?HighlightSegment@CNetList@@QAEXPAVcnet@@HHHHH@Z 0062fc40 f   NetList.obj
 0002:00138f40       ?HighlightVertex@CNetList@@QAEXPAVcnet@@HHHH@Z 0062ff40 f   NetList.obj
 0002:00139690       ?HighlightAreaSides@CNetList@@QAEXPAVcnet@@HHH@Z 00630690 f   NetList.obj
 0002:00139740       ?HighlightNet@CNetList@@QAEXPAVcnet@@H@Z 00630740 f   NetList.obj
 0002:00139850       ?ForceVia@CNetList@@QAEHPAVcnet@@HHHHH@Z 00630850 f   NetList.obj
 0002:00139910       ?UnforceVia@CNetList@@QAEHPAVcnet@@HHH@Z 00630910 f   NetList.obj
 0002:00139a40       ?ReconcileVia@CNetList@@QAEHPAVcnet@@HHHHH@Z 00630a40 f   NetList.obj
 0002:00139f30       ?UndrawVia@CNetList@@QAEXPAVcnet@@HH@Z 00630f30 f   NetList.obj
 0002:0013a000       ?DrawVia@CNetList@@QAEHPAVcnet@@HH@Z 00631000 f   NetList.obj
 0002:0013a040       ?SetNetVisibility@CNetList@@QAEXPAVcnet@@H@Z 00631040 f   NetList.obj
 0002:0013a300       ?GetNetVisibility@CNetList@@QAEHPAVcnet@@@Z 00631300 f   NetList.obj
 0002:0013a340       ?ExportNetListInfo@CNetList@@QAEXPAV?$CArray@Unet_info@@ABU1@@@@Z 00631340 f   NetList.obj
 0002:0013a780       ?ImportNetListInfo@CNetList@@QAEXPAV?$CArray@Unet_info@@ABU1@@@HPAVCDlgLog@@HHH@Z 00631780 f   NetList.obj
 0002:0013bcb0       ?Copy@CNetList@@QAEXPAV1@@Z 00632cb0 f   NetList.obj
 0002:0013c480       ?ReassignCopperLayers@CNetList@@QAEXHPAH@Z 00633480 f   NetList.obj
 0002:0013c920       ?RestoreConnectionsAndAreas@CNetList@@QAEXPAV1@HPAVCDlgLog@@@Z 00633920 f   NetList.obj
 0002:0013c960       ?CreateConnectUndoRecord@CNetList@@QAEPAUundo_con@@PAVcnet@@HH@Z 00633960 f   NetList.obj
 0002:0013cd20       ?ConnectUndoCallback@CNetList@@SAXHPAXH@Z 00633d20 f   NetList.obj
 0002:0013d2e0       ?CreateNetUndoRecord@CNetList@@QAEPAUundo_net@@PAVcnet@@@Z 006342e0 f   NetList.obj
 0002:0013d470       ?NetUndoCallback@CNetList@@SAXHPAXH@Z 00634470 f   NetList.obj
 0002:0013d7d0       ?CreateAreaUndoRecord@CNetList@@QAEPAUundo_area@@PAVcnet@@HH@Z 006347d0 f   NetList.obj
 0002:0013dd30       ?AreaUndoCallback@CNetList@@SAXHPAXH@Z 00634d30 f   NetList.obj
 0002:0013e120       ?CheckNetlist@CNetList@@QAEHPAV?$CStringT@DV?$StrTraitMFC_DLL@DV?$ChTraitsCRT@D@ATL@@@@@ATL@@@Z 00635120 f   NetList.obj
 0002:0013f5e0       ?CheckConnectivity@CNetList@@QAEHPAV?$CStringT@DV?$StrTraitMFC_DLL@DV?$ChTraitsCRT@D@ATL@@@@@ATL@@@Z 006365e0 f   NetList.obj
 0002:0013ff90       ?TestAreaPolygon@CNetList@@QAEHPAVcnet@@H@Z 00636f90 f   NetList.obj
 0002:001408d0       ?TestAreaPolygon@CNetList@@QAEHPAVcnet@@HHH@Z 006378d0 f   NetList.obj
 0002:001411b0       ?ClipAreaPolygon@CNetList@@QAEHPAVcnet@@HHHHHPAH@Z 006381b0 f   NetList.obj
 0002:001411f0       ?AreaPolygonModified@CNetList@@QAEHPAVcnet@@HHHH@Z 006381f0 f   NetList.obj
 0002:001412f0       ?CombineAllAreasInNet@CNetList@@QAEHPAVcnet@@HH@Z 006382f0 f   NetList.obj
 0002:00141810       ?TestAreaIntersections@CNetList@@QAEHPAVcnet@@HH@Z 00638810 f   NetList.obj
 0002:00142370       ?TestAreaIntersections@CNetList@@QAEHPAVcnet@@H@Z 00639370 f   NetList.obj
 0002:00142a90       ?TestAreaIntersection@CNetList@@QAEHPAVcnet@@HH@Z 00639a90 f   NetList.obj
 0002:00142b10       ?CombineAreas@CNetList@@QAEHPAVcnet@@HH@Z 00639b10 f   NetList.obj
 0002:00143500       ?SetWidths@CNetList@@QAEXHHH@Z 0063a500 f   NetList.obj
 0002:00143560       ?GetWidths@CNetList@@QAEXPAVcnet@@PAH11@Z 0063a560 f   NetList.obj
 0002:00143620       ?GetSelCount@CNetList@@QAEHPAVcnet@@@Z 0063a620 f   NetList.obj
 0002:001437f0       ?GetNetBoundaries@CNetList@@QAEHPAUtagRECT@@H@Z 0063a7f0 f   NetList.obj
 0002:001440c0       ?ClearTeeIDs@CNetList@@QAEXXZ 0063b0c0 f   NetList.obj
 0002:00144120       ?FindTeeID@CNetList@@QAEHH@Z 0063b120 f   NetList.obj
 0002:001441c0       ?GetNewTeeID@CNetList@@QAEHXZ 0063b1c0 f   NetList.obj
 0002:00144310       ?RemoveTeeID@CNetList@@QAEXH@Z 0063b310 f   NetList.obj
 0002:00144390       ?AddTeeID@CNetList@@QAEXH@Z 0063b390 f   NetList.obj
 0002:00144410       ?FindTeeVertexInNet@CNetList@@QAEHPAVcnet@@HPAH1@Z 0063b410 f   NetList.obj
 0002:00144610       ?FindTeeVertex@CNetList@@QAEHHPAPAVcnet@@PAH1@Z 0063b610 f   NetList.obj
 0002:001446e0       ?DisconnectBranch@CNetList@@QAEHPAVcnet@@H@Z 0063b6e0 f   NetList.obj
 0002:00144870       ?RemoveTee@CNetList@@QAEHPAVcnet@@HH@Z 0063b870 f   NetList.obj
 0002:001449c0       ?TeeViaNeeded@CNetList@@QAEHPAVcnet@@H@Z 0063b9c0 f   NetList.obj
 0002:00144b50       ?RemoveOrphanBranches@CNetList@@QAEHPAVcnet@@HHHH@Z 0063bb50 f   NetList.obj
 0002:001450c0       ?RouteToPin@@YAHHPAVcnode@@PAV?$CArray@Vcnode@@ABV1@@@PAV?$CArray@Vcpath@@ABV1@@@PAVCDlgLog@@@Z 0063c0c0 f   NetList.obj
 0002:001454e0       ?ImportNetRouting@CNetList@@QAEXPAV?$CStringT@DV?$StrTraitMFC_DLL@DV?$ChTraitsCRT@D@ATL@@@@@ATL@@PAV?$CArray@Vcnode@@ABV1@@@PAV?$CArray@Vcpath@@ABV1@@@HPAVCDlgLog@@H@Z 0063c4e0 f   NetList.obj
 0002:00147170       ?AddHighlightLines@CNetList@@QAEXHHH@Z 0063e170 f   NetList.obj
 0002:001475a0       ??0?$CArray@PAVdl_element@@ABQAV1@@@QAE@XZ 0063e5a0 f i NetList.obj
 0002:00147630       ?RemoveAt@?$CArray@PAVdl_element@@ABQAV1@@@QAEXHH@Z 0063e630 f i NetList.obj
 0002:001477e0       ?GetSize@?$CArray@Vpart_pin@@ABV1@@@QBEHXZ 0063e7e0 f i NetList.obj
 0002:00147820       ?GetSize@?$CArray@PAVcnet@@ABQAV1@@@QBEHXZ 0063e820 f i NetList.obj
 0002:00147860       ?GetSize@?$CArray@Vcseg@@ABV1@@@QBEHXZ 0063e860 f i NetList.obj
 0002:001478a0       ?GetSize@?$CArray@Vcconnect@@ABV1@@@QBEHXZ 0063e8a0 f i NetList.obj
 0002:001478e0       ?RemoveAll@?$CArray@Vcconnect@@ABV1@@@QAEXXZ 0063e8e0 f i NetList.obj
 0002:00147940       ?RemoveAt@?$CArray@Vcconnect@@ABV1@@@QAEXHH@Z 0063e940 f i NetList.obj
 0002:00147b10       ?GetSize@?$CArray@Vcpin@@ABV1@@@QBEHXZ 0063eb10 f i NetList.obj
 0002:00147b50       ?RemoveAll@?$CArray@Vcpin@@ABV1@@@QAEXXZ 0063eb50 f i NetList.obj
 0002:00147bb0       ?RemoveAt@?$CArray@Vcpin@@ABV1@@@QAEXHH@Z 0063ebb0 f i NetList.obj
 0002:00147d80       ?GetSize@?$CArray@Vcarea@@V1@@@QBEHXZ 0063ed80 f i NetList.obj
 0002:00147dc0       ?RemoveAll@?$CArray@Vcarea@@V1@@@QAEXXZ 0063edc0 f i NetList.obj
 0002:00147e20       ?RemoveAt@?$CArray@Vcarea@@V1@@@QAEXHH@Z 0063ee20 f i NetList.obj
 0002:00147ff0       ??$strcpy@$0CI@@@YAPADAAY0CI@DPBD@Z 0063eff0 f i NetList.obj
 0002:00148060       ??0?$CArray@UtagRECT@@ABU1@@@QAE@XZ 0063f060 f i NetList.obj
 0002:001480f0       ?SetSize@?$CArray@UtagRECT@@ABU1@@@QAEXHH@Z 0063f0f0 f i NetList.obj
 0002:00148690       ??A?$CArray@UtagRECT@@ABU1@@@QAEAAUtagRECT@@H@Z 0063f690 f i NetList.obj
 0002:001486f0       ??1?$CArray@UtagRECT@@ABU1@@@UAE@XZ 0063f6f0 f i NetList.obj
 0002:00148800       ?Serialize@?$CArray@UtagRECT@@ABU1@@@UAEXAAVCArchive@@@Z 0063f800 f i NetList.obj
 0002:001488d0       ?Dump@?$CArray@UtagRECT@@ABU1@@@UBEXAAVCDumpContext@@@Z 0063f8d0 f i NetList.obj
 0002:001489b0       ?AssertValid@?$CArray@UtagRECT@@ABU1@@@UBEXXZ 0063f9b0 f i NetList.obj
 0002:00148b10       ?GetSize@?$CArray@Vcpath@@ABV1@@@QBEHXZ 0063fb10 f i NetList.obj
 0002:00148b50       ??A?$CArray@Vcpath@@ABV1@@@QAEAAVcpath@@H@Z 0063fb50 f i NetList.obj
 0002:00148bb0       ?GetSize@?$CArray@Vcnode@@ABV1@@@QBEHXZ 0063fbb0 f i NetList.obj
 0002:00148bf0       ?SetSize@?$CArray@Vcnode@@ABV1@@@QAEXHH@Z 0063fbf0 f i NetList.obj
 0002:001492f0       ??A?$CArray@Vcnode@@ABV1@@@QAEAAVcnode@@H@Z 006402f0 f i NetList.obj
 0002:00149350       ??_E?$CArray@UtagRECT@@ABU1@@@UAEPAXI@Z 00640350 f i NetList.obj
 0002:00149350       ??_G?$CArray@UtagRECT@@ABU1@@@UAEPAXI@Z 00640350 f i NetList.obj
 0002:001493c0       ??_Gcnode@@QAEPAXI@Z       006403c0 f i NetList.obj
 0002:00149430       ??0cnode@@QAE@XZ           00640430 f i NetList.obj
 0002:001494e0       ??1cnode@@QAE@XZ           006404e0 f i NetList.obj
 0002:00149590       ?ElementAt@?$CArray@UtagRECT@@ABU1@@@QAEAAUtagRECT@@H@Z 00640590 f i NetList.obj
 0002:00149640       ??$SerializeElements@UtagRECT@@@@YGXAAVCArchive@@PAUtagRECT@@H@Z 00640640 f i NetList.obj
 0002:00149830       ??$DumpElements@UtagRECT@@@@YGXAAVCDumpContext@@PBUtagRECT@@H@Z 00640830 f i NetList.obj
 0002:00149920       ?ElementAt@?$CArray@Vcpath@@ABV1@@@QAEAAVcpath@@H@Z 00640920 f i NetList.obj
 0002:001499d0       ?ElementAt@?$CArray@Vcnode@@ABV1@@@QAEAAVcnode@@H@Z 006409d0 f i NetList.obj
 0002:00149a80       ?Dragging_third_segment@CDisplayList@@QAEHXZ 00640a80 f i NetList.obj
 0002:00149ad0       ?GetInode@cpath@@QAEHH@Z   00640ad0 f i NetList.obj
 0002:00149b70       ?Initialize@cseg@@QAEXPAVCDisplayList@@PAVCNetList@@@Z 00640b70 f i NetList.obj
 0002:00149bc0       ??4cvertex@@QAEAAV0@AAV0@@Z 00640bc0 f i NetList.obj
 0002:00149d10       ?Initialize@cvertex@@QAEXPAVCDisplayList@@PAVCNetList@@@Z 00640d10 f i NetList.obj
 0002:00149d60       ?Initialize@cconnect@@QAEXPAVCNetList@@@Z 00640d60 f i NetList.obj
 0002:00149db0       ??0cnet@@QAE@PAVCDisplayList@@@Z 00640db0 f i NetList.obj
 0002:00149eb0       ??1?$CArray@PAVdl_element@@ABQAV1@@@UAE@XZ 00640eb0 f i NetList.obj
 0002:00149fc0       ?Serialize@?$CArray@PAVdl_element@@ABQAV1@@@UAEXAAVCArchive@@@Z 00640fc0 f i NetList.obj
 0002:0014a090       ?Dump@?$CArray@PAVdl_element@@ABQAV1@@@UBEXAAVCDumpContext@@@Z 00641090 f i NetList.obj
 0002:0014a170       ?AssertValid@?$CArray@PAVdl_element@@ABQAV1@@@UBEXXZ 00641170 f i NetList.obj
 0002:0014a2d0       ?GetSize@?$CArray@Vcpath_pt@@ABV1@@@QBEHXZ 006412d0 f i NetList.obj
 0002:0014a310       ??A?$CArray@Vcpath_pt@@ABV1@@@QAEAAVcpath_pt@@H@Z 00641310 f i NetList.obj
 0002:0014a370       ?SetSize@?$CArray@Vcseg@@ABV1@@@QAEXHH@Z 00641370 f i NetList.obj
 0002:0014aa70       ??0cseg@@QAE@XZ            00641a70 f i NetList.obj
 0002:0014ab30       ?SetSize@?$CArray@Vcvertex@@ABV1@@@QAEXHH@Z 00641b30 f i NetList.obj
 0002:0014b230       ??0cvertex@@QAE@XZ         00642230 f i NetList.obj
 0002:0014b360       ??0?$CArray@Vcconnect@@ABV1@@@QAE@XZ 00642360 f i NetList.obj
 0002:0014b3f0       ??1?$CArray@Vcconnect@@ABV1@@@UAE@XZ 006423f0 f i NetList.obj
 0002:0014b520       ?Serialize@?$CArray@Vcconnect@@ABV1@@@UAEXAAVCArchive@@@Z 00642520 f i NetList.obj
 0002:0014b5f0       ?Dump@?$CArray@Vcconnect@@ABV1@@@UBEXAAVCDumpContext@@@Z 006425f0 f i NetList.obj
 0002:0014b6d0       ?AssertValid@?$CArray@Vcconnect@@ABV1@@@UBEXXZ 006426d0 f i NetList.obj
 0002:0014b830       ??0?$CArray@Vcpin@@ABV1@@@QAE@XZ 00642830 f i NetList.obj
 0002:0014b8c0       ??1?$CArray@Vcpin@@ABV1@@@UAE@XZ 006428c0 f i NetList.obj
 0002:0014b9f0       ?Serialize@?$CArray@Vcpin@@ABV1@@@UAEXAAVCArchive@@@Z 006429f0 f i NetList.obj
 0002:0014bac0       ?Dump@?$CArray@Vcpin@@ABV1@@@UBEXAAVCDumpContext@@@Z 00642ac0 f i NetList.obj
 0002:0014bba0       ?AssertValid@?$CArray@Vcpin@@ABV1@@@UBEXXZ 00642ba0 f i NetList.obj
 0002:0014bd00       ??0?$CArray@Vcarea@@V1@@@QAE@XZ 00642d00 f i NetList.obj
 0002:0014bd90       ??1?$CArray@Vcarea@@V1@@@UAE@XZ 00642d90 f i NetList.obj
 0002:0014bec0       ?Serialize@?$CArray@Vcarea@@V1@@@UAEXAAVCArchive@@@Z 00642ec0 f i NetList.obj
 0002:0014bf90       ?Dump@?$CArray@Vcarea@@V1@@@UBEXAAVCDumpContext@@@Z 00642f90 f i NetList.obj
 0002:0014c070       ?AssertValid@?$CArray@Vcarea@@V1@@@UBEXXZ 00643070 f i NetList.obj
 0002:0014c1d0       ??_E?$CArray@PAVdl_element@@ABQAV1@@@UAEPAXI@Z 006431d0 f i NetList.obj
 0002:0014c1d0       ??_G?$CArray@PAVdl_element@@ABQAV1@@@UAEPAXI@Z 006431d0 f i NetList.obj
 0002:0014c240       ??_G?$CArray@Vcconnect@@ABV1@@@UAEPAXI@Z 00643240 f i NetList.obj
 0002:0014c240       ??_E?$CArray@Vcconnect@@ABV1@@@UAEPAXI@Z 00643240 f i NetList.obj
 0002:0014c2b0       ??_Gcconnect@@QAEPAXI@Z    006432b0 f i NetList.obj
 0002:0014c320       ??1cconnect@@QAE@XZ        00643320 f i NetList.obj
 0002:0014c3e0       ??1?$CArray@Vcseg@@ABV1@@@UAE@XZ 006433e0 f i NetList.obj
 0002:0014c510       ?Serialize@?$CArray@Vcseg@@ABV1@@@UAEXAAVCArchive@@@Z 00643510 f i NetList.obj
 0002:0014c5e0       ?Dump@?$CArray@Vcseg@@ABV1@@@UBEXAAVCDumpContext@@@Z 006435e0 f i NetList.obj
 0002:0014c6c0       ?AssertValid@?$CArray@Vcseg@@ABV1@@@UBEXXZ 006436c0 f i NetList.obj
 0002:0014c820       ??1?$CArray@Vcvertex@@ABV1@@@UAE@XZ 00643820 f i NetList.obj
 0002:0014c950       ?Serialize@?$CArray@Vcvertex@@ABV1@@@UAEXAAVCArchive@@@Z 00643950 f i NetList.obj
 0002:0014ca20       ?Dump@?$CArray@Vcvertex@@ABV1@@@UBEXAAVCDumpContext@@@Z 00643a20 f i NetList.obj
 0002:0014cb00       ?AssertValid@?$CArray@Vcvertex@@ABV1@@@UBEXXZ 00643b00 f i NetList.obj
 0002:0014cc60       ??_G?$CArray@Vcseg@@ABV1@@@UAEPAXI@Z 00643c60 f i NetList.obj
 0002:0014cc60       ??_E?$CArray@Vcseg@@ABV1@@@UAEPAXI@Z 00643c60 f i NetList.obj
 0002:0014ccd0       ??_G?$CArray@Vcvertex@@ABV1@@@UAEPAXI@Z 00643cd0 f i NetList.obj
 0002:0014ccd0       ??_E?$CArray@Vcvertex@@ABV1@@@UAEPAXI@Z 00643cd0 f i NetList.obj
 0002:0014cd40       ??_E?$CArray@Vcpin@@ABV1@@@UAEPAXI@Z 00643d40 f i NetList.obj
 0002:0014cd40       ??_G?$CArray@Vcpin@@ABV1@@@UAEPAXI@Z 00643d40 f i NetList.obj
 0002:0014cdb0       ??_Gcpin@@QAEPAXI@Z        00643db0 f i NetList.obj
 0002:0014ce20       ??_G?$CArray@Vcarea@@V1@@@UAEPAXI@Z 00643e20 f i NetList.obj
 0002:0014ce20       ??_E?$CArray@Vcarea@@V1@@@UAEPAXI@Z 00643e20 f i NetList.obj
 0002:0014ce90       ??_Gcarea@@QAEPAXI@Z       00643e90 f i NetList.obj
 0002:0014cf00       ??1cpin@@QAE@XZ            00643f00 f i NetList.obj
 0002:0014cf80       ?SetSize@?$CArray@PAVdl_element@@ABQAV1@@@QAEXHH@Z 00643f80 f i NetList.obj
 0002:0014d510       ??$SerializeElements@PAVdl_element@@@@YGXAAVCArchive@@PAPAVdl_element@@H@Z 00644510 f i NetList.obj
 0002:0014d700       ??$DumpElements@PAVdl_element@@@@YGXAAVCDumpContext@@PBQAVdl_element@@H@Z 00644700 f i NetList.obj
 0002:0014d7f0       ?ElementAt@?$CArray@Vcpath_pt@@ABV1@@@QAEAAVcpath_pt@@H@Z 006447f0 f i NetList.obj
 0002:0014d8a0       ??$SerializeElements@Vcseg@@@@YGXAAVCArchive@@PAVcseg@@H@Z 006448a0 f i NetList.obj
 0002:0014da90       ??$DumpElements@Vcseg@@@@YGXAAVCDumpContext@@PBVcseg@@H@Z 00644a90 f i NetList.obj
 0002:0014db80       ??$SerializeElements@Vcvertex@@@@YGXAAVCArchive@@PAVcvertex@@H@Z 00644b80 f i NetList.obj
 0002:0014dd70       ??$DumpElements@Vcvertex@@@@YGXAAVCDumpContext@@PBVcvertex@@H@Z 00644d70 f i NetList.obj
 0002:0014de60       ?SetSize@?$CArray@Vcconnect@@ABV1@@@QAEXHH@Z 00644e60 f i NetList.obj
 0002:0014e560       ??0cconnect@@QAE@XZ        00645560 f i NetList.obj
 0002:0014e690       ??0?$CArray@Vcseg@@ABV1@@@QAE@XZ 00645690 f i NetList.obj
 0002:0014e720       ??0?$CArray@Vcvertex@@ABV1@@@QAE@XZ 00645720 f i NetList.obj
 0002:0014e7b0       ??$SerializeElements@Vcconnect@@@@YGXAAVCArchive@@PAVcconnect@@H@Z 006457b0 f i NetList.obj
 0002:0014e9a0       ??$DumpElements@Vcconnect@@@@YGXAAVCDumpContext@@PBVcconnect@@H@Z 006459a0 f i NetList.obj
 0002:0014ea90       ?SetSize@?$CArray@Vcpin@@ABV1@@@QAEXHH@Z 00645a90 f i NetList.obj
 0002:0014f190       ??0cpin@@QAE@XZ            00646190 f i NetList.obj
 0002:0014f220       ??$SerializeElements@Vcpin@@@@YGXAAVCArchive@@PAVcpin@@H@Z 00646220 f i NetList.obj
 0002:0014f410       ??$DumpElements@Vcpin@@@@YGXAAVCDumpContext@@PBVcpin@@H@Z 00646410 f i NetList.obj
 0002:0014f500       ?SetSize@?$CArray@Vcarea@@V1@@@QAEXHH@Z 00646500 f i NetList.obj
 0002:0014fc10       ??$SerializeElements@Vcarea@@@@YGXAAVCArchive@@PAVcarea@@H@Z 00646c10 f i NetList.obj
 0002:0014fe00       ??$DumpElements@Vcarea@@@@YGXAAVCDumpContext@@PBVcarea@@H@Z 00646e00 f i NetList.obj
 0002:0014fef0       ??0CIterator_cnet@@QAE@PBVCNetList@@@Z 00646ef0 f   Net_iter.obj
 0002:0014ffc0       ?GetFirst@CIterator_cnet@@QAEPAVcnet@@XZ 00646fc0 f   Net_iter.obj
 0002:00150050       ?GetNext@CIterator_cnet@@QAEPAVcnet@@XZ 00647050 f   Net_iter.obj
 0002:001501f0       ?OnRemove@CIterator_cnet@@SAXPBVcnet@@@Z 006471f0 f   Net_iter.obj
 0002:00150220       ??0CIterator_cconnect@@QAE@PAVcnet@@@Z 00647220 f   Net_iter.obj
 0002:001502e0       ?GetFirst@CIterator_cconnect@@QAEPAVcconnect@@XZ 006472e0 f   Net_iter.obj
 0002:00150360       ?GetNext@CIterator_cconnect@@QAEPAVcconnect@@XZ 00647360 f   Net_iter.obj
 0002:00150410       ?OnRemove@CIterator_cconnect@@QAEXH@Z 00647410 f   Net_iter.obj
 0002:001504a0       ?OnRemove@CIterator_cconnect@@QAEXPAVcconnect@@@Z 006474a0 f   Net_iter.obj
 0002:00150590       ??0CIterator_cseg@@QAE@PAVcconnect@@@Z 00647590 f   Net_iter.obj
 0002:00150650       ?GetFirst@CIterator_cseg@@QAEPAVcseg@@XZ 00647650 f   Net_iter.obj
 0002:001506d0       ?GetNext@CIterator_cseg@@QAEPAVcseg@@XZ 006476d0 f   Net_iter.obj
 0002:00150780       ?OnRemove@CIterator_cseg@@QAEXH@Z 00647780 f   Net_iter.obj
 0002:00150810       ?OnRemove@CIterator_cseg@@QAEXPAVcseg@@@Z 00647810 f   Net_iter.obj
 0002:00150900       ??0CIterator_cvertex@@QAE@PAVcconnect@@@Z 00647900 f   Net_iter.obj
 0002:001509c0       ?GetFirst@CIterator_cvertex@@QAEPAVcvertex@@XZ 006479c0 f   Net_iter.obj
 0002:00150a40       ?GetNext@CIterator_cvertex@@QAEPAVcvertex@@XZ 00647a40 f   Net_iter.obj
 0002:00150af0       ?OnRemove@CIterator_cvertex@@QAEXH@Z 00647af0 f   Net_iter.obj
 0002:00150b80       ?OnRemove@CIterator_cvertex@@QAEXPAVcvertex@@@Z 00647b80 f   Net_iter.obj
 0002:00150c70       ??0CDLinkList@@QAE@XZ      00647c70 f i Net_iter.obj
 0002:00150cd0       ??1CDLinkList@@QAE@XZ      00647cd0 f i Net_iter.obj
 0002:00150d20       ?_DLinkList_remove@CDLinkList@@AAEXXZ 00647d20 f i Net_iter.obj
 0002:00150d80       ?DLinkList_init@CDLinkList@@QAEXXZ 00647d80 f i Net_iter.obj
 0002:00150dd0       ?insert_after@CDLinkList@@QAEXPAV1@@Z 00647dd0 f i Net_iter.obj
 0002:00150e70       ?isLinked@CDLinkList@@QBEHXZ 00647e70 f i Net_iter.obj
 0002:00150ec0       ??0part_pin@@QAE@XZ        00647ec0 f   PartList.obj
 0002:00150f70       ??1part_pin@@QAE@XZ        00647f70 f   PartList.obj
 0002:00151020       ??0cpart@@QAE@XZ           00648020 f   PartList.obj
 0002:00151180       ??1cpart@@QAE@XZ           00648180 f   PartList.obj
 0002:00151290       ??0CPartList@@QAE@PAVCDisplayList@@PAVSMFontUtil@@@Z 00648290 f   PartList.obj
 0002:00151460       ??1CPartList@@QAE@XZ       00648460 f   PartList.obj
 0002:00151540       ?Add@CPartList@@QAEPAVcpart@@XZ 00648540 f   PartList.obj
 0002:001516f0       ?Add@CPartList@@QAEPAVcpart@@PAVCShape@@PAV?$CStringT@DV?$StrTraitMFC_DLL@DV?$ChTraitsCRT@D@ATL@@@@@ATL@@HHHHHH@Z 006486f0 f   PartList.obj
 0002:001517c0       ?SetPartData@CPartList@@QAEHPAVcpart@@PAVCShape@@PAV?$CStringT@DV?$StrTraitMFC_DLL@DV?$ChTraitsCRT@D@ATL@@@@@ATL@@HHHHHHH@Z 006487c0 f   PartList.obj
 0002:00151b40       ?HighlightPart@CPartList@@QAEHPAVcpart@@H@Z 00648b40 f   PartList.obj
 0002:00151cc0       ?SetLinesVis@CPartList@@QAEXPAVcpart@@H@Z 00648cc0 f   PartList.obj
 0002:00151dd0       ?SelectRefText@CPartList@@QAEHPAVcpart@@@Z 00648dd0 f   PartList.obj
 0002:00151e40       ?SelectValueText@CPartList@@QAEHPAVcpart@@@Z 00648e40 f   PartList.obj
 0002:00151ec0       ?HighlightAllPadsOnNet@CPartList@@QAEXPAVcnet@@HHHHPAVcpart@@@Z 00648ec0 f   PartList.obj
 0002:00152200       ?SelectPads@CPartList@@QAEHPAVcpart@@HHH@Z 00649200 f   PartList.obj
 0002:001522c0       ?SelectPad@CPartList@@QAEPAVdl_element@@PAVcpart@@HHHH@Z 006492c0 f   PartList.obj
 0002:00152e70       ?TestHitOnPad@CPartList@@QAEHPAVcpart@@PAV?$CStringT@DV?$StrTraitMFC_DLL@DV?$ChTraitsCRT@D@ATL@@@@@ATL@@HHH@Z 00649e70 f   PartList.obj
 0002:00153250       ?Move@CPartList@@QAEHPAVcpart@@HHHHH@Z 0064a250 f   PartList.obj
 0002:001533e0       ?MoveRefText@CPartList@@QAEHPAVcpart@@HHHHH@Z 0064a3e0 f   PartList.obj
 0002:00153580       ?ResizeRefText@CPartList@@QAEXPAVcpart@@HHHH@Z 0064a580 f   PartList.obj
 0002:00153630       ?MoveValueText@CPartList@@QAEHPAVcpart@@HHHHH@Z 0064a630 f   PartList.obj
 0002:001537d0       ?ResizeValueText@CPartList@@QAEXPAVcpart@@HHHH@Z 0064a7d0 f   PartList.obj
 0002:00153880       ?SetValue@CPartList@@QAEXPAVcpart@@PAV?$CStringT@DV?$StrTraitMFC_DLL@DV?$ChTraitsCRT@D@ATL@@@@@ATL@@HHHHHH@Z 0064a880 f   PartList.obj
 0002:00153970       ?SetValue@CPartList@@QAEXPAVcpart@@PAV?$CStringT@DV?$StrTraitMFC_DLL@DV?$ChTraitsCRT@D@ATL@@@@@ATL@@@Z 0064a970 f   PartList.obj
 0002:00153a20       ?GetSide@CPartList@@QAEHPAVcpart@@@Z 0064aa20 f   PartList.obj
 0002:00153a60       ?GetAngle@CPartList@@QAEHPAVcpart@@@Z 0064aa60 f   PartList.obj
 0002:00153aa0       ?GetRefAngle@CPartList@@QAEHPAVcpart@@@Z 0064aaa0 f   PartList.obj
 0002:00153ae0       ?GetValueAngle@CPartList@@QAEHPAVcpart@@@Z 0064aae0 f   PartList.obj
 0002:00153b20       ?GetRefPoint@CPartList@@QAE?AVCPoint@@PAVcpart@@@Z 0064ab20 f   PartList.obj
 0002:00153c50       ?GetValuePoint@CPartList@@QAE?AVCPoint@@PAVcpart@@@Z 0064ac50 f   PartList.obj
 0002:00153d90       ?GetPinPoint@CPartList@@QAE?AVCPoint@@PAVcpart@@HHH@Z 0064ad90 f   PartList.obj
 0002:00153f60       ?GetCentroidPoint@CPartList@@QAE?AVCPoint@@PAVcpart@@@Z 0064af60 f   PartList.obj
 0002:001540e0       ?GetGluePoint@CPartList@@QAE?AVCPoint@@PAVcpart@@H@Z 0064b0e0 f   PartList.obj
 0002:001542e0       ?GetPinLayer@CPartList@@QAEHPAVcpart@@H@Z 0064b2e0 f   PartList.obj
 0002:00154420       ?GetPinNet@CPartList@@QAEPAVcnet@@PAVcpart@@PAV?$CStringT@DV?$StrTraitMFC_DLL@DV?$ChTraitsCRT@D@ATL@@@@@ATL@@@Z 0064b420 f   PartList.obj
 0002:001544c0       ?GetPinNet@CPartList@@QAEPAVcnet@@PAVcpart@@H@Z 0064b4c0 f   PartList.obj
 0002:00154530       ?GetPartBoundingRect@CPartList@@QAEHPAVcpart@@PAUtagRECT@@@Z 0064b530 f   PartList.obj
 0002:001545d0       ?GetPinsBoundingRect@CPartList@@QAEHPAVcpart@@PAUtagRECT@@@Z 0064b5d0 f   PartList.obj
 0002:00154760       ?GetPartThruPadsRect@CPartList@@QAEHPAVcpart@@PAUtagRECT@@@Z 0064b760 f   PartList.obj
 0002:00154910       ?GetRefBoundingRect@CPartList@@QAEHPAVcpart@@PAUtagRECT@@@Z 0064b910 f   PartList.obj
 0002:001549b0       ?GetValueBoundingRect@CPartList@@QAEHPAVcpart@@PAUtagRECT@@@Z 0064b9b0 f   PartList.obj
 0002:00154a60       ?GetPadBounds@CPartList@@QAEHPAVcpart@@HPAUtagRECT@@@Z 0064ba60 f   PartList.obj
 0002:00154b50       ?GetPartBoundaries@CPartList@@QAEHPAUtagRECT@@@Z 0064bb50 f   PartList.obj
 0002:00154ca0       ?GetPart@CPartList@@QAEPAVcpart@@PBD@Z 0064bca0 f   PartList.obj
 0002:00154d40       ?GetFirstPart@CPartList@@QAEPAVcpart@@XZ 0064bd40 f   PartList.obj
 0002:00154da0       ?GetEndPart@CPartList@@QAEPAVcpart@@XZ 0064bda0 f   PartList.obj
 0002:00154e00       ?GetNextPart@CPartList@@QAEPAVcpart@@PAV2@@Z 0064be00 f   PartList.obj
 0002:00154e70       ?GetPrevPart@CPartList@@QAEPAVcpart@@PAV2@@Z 0064be70 f   PartList.obj
 0002:00154ee0       ?GetSelCount@CPartList@@QAEHXZ 0064bee0 f   PartList.obj
 0002:00154f70       ?GetSelParts@CPartList@@QAEHPAV?$CStringT@DV?$StrTraitMFC_DLL@DV?$ChTraitsCRT@D@ATL@@@@@ATL@@@Z 0064bf70 f   PartList.obj
 0002:001550e0       ?GetNumFootprintInstances@CPartList@@QAEHPAVCShape@@@Z 0064c0e0 f   PartList.obj
 0002:00155170       ?Remove@CPartList@@QAEHPAVcpart@@@Z 0064c170 f   PartList.obj
 0002:00155260       ??_Gcpart@@QAEPAXI@Z       0064c260 f i PartList.obj
 0002:001552d0       ?RemoveAllParts@CPartList@@QAEXXZ 0064c2d0 f   PartList.obj
 0002:00155340       ?MarkAllParts@CPartList@@QAEXH@Z 0064c340 f   PartList.obj
 0002:001553c0       ?GenerateStrokesForPartString@@YAHPAV?$CStringT@DV?$StrTraitMFC_DLL@DV?$ChTraitsCRT@D@ATL@@@@@ATL@@HHHHHHHHHHPAV?$CArray@VCPoint@@ABV1@@@PAUtagRECT@@PAVCPoint@@PAVCDisplayList@@PAVSMFontUtil@@@Z 0064c3c0 f   PartList.obj
 0002:00155e40       ?DrawPart@CPartList@@QAEHPAVcpart@@@Z 0064ce40 f   PartList.obj
 0002:00155e80       ?UndrawPart@CPartList@@QAEHPAVcpart@@@Z 0064ce80 f   PartList.obj
 0002:001561d0       ?PartFootprintChanged@CPartList@@QAEXPAVcpart@@PAVCShape@@PAV?$CStringT@DV?$StrTraitMFC_DLL@DV?$ChTraitsCRT@D@ATL@@@@@ATL@@@Z 0064d1d0 f   PartList.obj
 0002:00156510       ?FootprintChanged@CPartList@@QAEXPAVCShape@@@Z 0064d510 f   PartList.obj
 0002:00156680       ?RefTextSizeChanged@CPartList@@QAEXPAVCShape@@@Z 0064d680 f   PartList.obj
 0002:00156740       ?MakePartVisible@CPartList@@QAEXPAVcpart@@H@Z 0064d740 f   PartList.obj
 0002:00156a50       ?StartDraggingPart@CPartList@@QAEHPAVCDC@@PAVcpart@@HHHH@Z 0064da50 f   PartList.obj
 0002:001579b0       ?StartDraggingRefText@CPartList@@QAEHPAVCDC@@PAVcpart@@@Z 0064e9b0 f   PartList.obj
 0002:00157d50       ?StartDraggingValue@CPartList@@QAEHPAVCDC@@PAVcpart@@@Z 0064ed50 f   PartList.obj
 0002:00158130       ?CancelDraggingPart@CPartList@@QAEHPAVcpart@@@Z 0064f130 f   PartList.obj
 0002:00158360       ?CancelDraggingRefText@CPartList@@QAEHPAVcpart@@@Z 0064f360 f   PartList.obj
 0002:001583e0       ?CancelDraggingValue@CPartList@@QAEHPAVcpart@@@Z 0064f3e0 f   PartList.obj
 0002:00158460       ?StopDragging@CPartList@@QAEHXZ 0064f460 f   PartList.obj
 0002:001584c0       ?AddFromString@CPartList@@QAEPAVcpart@@PAV?$CStringT@DV?$StrTraitMFC_DLL@DV?$ChTraitsCRT@D@ATL@@@@@ATL@@@Z 0064f4c0 f   PartList.obj
 0002:00159690       ?SetPartString@CPartList@@QAEHPAVcpart@@PAV?$CStringT@DV?$StrTraitMFC_DLL@DV?$ChTraitsCRT@D@ATL@@@@@ATL@@@Z 00650690 f   PartList.obj
 0002:00159ba0       ?CreatePartUndoRecord@CPartList@@QAEPAUundo_part@@PAVcpart@@PAV?$CStringT@DV?$StrTraitMFC_DLL@DV?$ChTraitsCRT@D@ATL@@@@@ATL@@@Z 00650ba0 f   PartList.obj
 0002:00159ff0       ??$strcpy@PAD@@YAPADAAPADPBD@Z 00650ff0 f i PartList.obj
 0002:0015a050       ___insecure_strcpy         00651050 f i PartList.obj
 0002:0015a0b0       ?ExportPartListInfo@CPartList@@QAEHPAV?$CArray@Upart_info@@ABU1@@@PAVcpart@@@Z 006510b0 f   PartList.obj
 0002:0015a3b0       ?ImportPartListInfo@CPartList@@QAEXPAV?$CArray@Upart_info@@ABU1@@@HPAVCDlgLog@@@Z 006513b0 f   PartList.obj
 0002:0015baf0       ?PartUndoCallback@CPartList@@SAXHPAXH@Z 00652af0 f   PartList.obj
 0002:0015c450       ?GetPinConnectionStatus@CPartList@@QAEHPAVcpart@@HH@Z 00653450 f   PartList.obj
 0002:0015cbc0       ?GetPadDrawInfo@CPartList@@QAEHPAVcpart@@HHHHHHPAH1111111PAPAVcnet@@111@Z 00653bc0 f   PartList.obj
 0002:0015d4e0       ?CheckPartlist@CPartList@@QAEHPAV?$CStringT@DV?$StrTraitMFC_DLL@DV?$ChTraitsCRT@D@ATL@@@@@ATL@@@Z 006544e0 f   PartList.obj
 0002:0015db60       ?MoveOrigin@CPartList@@QAEXHH@Z 00654b60 f   PartList.obj
 0002:0015dce0       ?CheckForProblemFootprints@CPartList@@QAEHXZ 00654ce0 f   PartList.obj
 0002:0015df80       ?FindNetPointForPart@CPartList@@QAEXPAVcpart@@PAVCPoint@@PAH012H@Z 00654f80 f   PartList.obj
 0002:0015e660       ?OptimizeRatlinesOnPin@CPartList@@QAEXPAVcnet@@H@Z 00655660 f   PartList.obj
 0002:0015f040       ?RemoveAll@?$CArray@PAVdl_element@@ABQAV1@@@QAEXXZ 00656040 f i PartList.obj
 0002:0015f0a0       ??0?$CArray@Vpart_pin@@ABV1@@@QAE@XZ 006560a0 f i PartList.obj
 0002:0015f130       ??$strcpy@$0DM@@@YAPADAAY0DM@DPBD@Z 00656130 f i PartList.obj
 0002:0015f1a0       ??1?$CArray@Vpart_pin@@ABV1@@@UAE@XZ 006561a0 f i PartList.obj
 0002:0015f2d0       ?Serialize@?$CArray@Vpart_pin@@ABV1@@@UAEXAAVCArchive@@@Z 006562d0 f i PartList.obj
 0002:0015f3a0       ?Dump@?$CArray@Vpart_pin@@ABV1@@@UBEXAAVCDumpContext@@@Z 006563a0 f i PartList.obj
 0002:0015f480       ?AssertValid@?$CArray@Vpart_pin@@ABV1@@@UBEXXZ 00656480 f i PartList.obj
 0002:0015f5e0       ??_G?$CArray@Vpart_pin@@ABV1@@@UAEPAXI@Z 006565e0 f i PartList.obj
 0002:0015f5e0       ??_E?$CArray@Vpart_pin@@ABV1@@@UAEPAXI@Z 006565e0 f i PartList.obj
 0002:0015f650       ??_Gpart_pin@@QAEPAXI@Z    00656650 f i PartList.obj
 0002:0015f6c0       ?SetSize@?$CArray@Vpart_pin@@ABV1@@@QAEXHH@Z 006566c0 f i PartList.obj
 0002:0015fdc0       ??$SerializeElements@Vpart_pin@@@@YGXAAVCArchive@@PAVpart_pin@@H@Z 00656dc0 f i PartList.obj
 0002:0015ffb0       ??$DumpElements@Vpart_pin@@@@YGXAAVCDumpContext@@PBVpart_pin@@H@Z 00656fb0 f i PartList.obj
 0002:001600a0       ?GetMessageMap@CPathDialogSub@@MBEPBUAFX_MSGMAP@@XZ 006570a0 f   PathDialog.obj
 0002:001600f0       ?GetThisMessageMap@CPathDialogSub@@KGPBUAFX_MSGMAP@@XZ 006570f0 f   PathDialog.obj
 0002:00160130       ?OnOK@CPathDialogSub@@IAEXXZ 00657130 f   PathDialog.obj
 0002:00160250       ?OnChangeEditPath@CPathDialogSub@@IAEXXZ 00657250 f   PathDialog.obj
 0002:00160320       ??0CPathDialog@@QAE@PBD00PAVCWnd@@@Z 00657320 f   PathDialog.obj
 0002:001604e0       ??0CPathDialogSub@@QAE@XZ  006574e0 f i PathDialog.obj
 0002:00160540       ??_ECPathDialogSub@@UAEPAXI@Z 00657540 f i PathDialog.obj
 0002:00160540       ??_GCPathDialogSub@@UAEPAXI@Z 00657540 f i PathDialog.obj
 0002:001605b0       ?GetPathName@CPathDialog@@QAE?AV?$CStringT@DV?$StrTraitMFC_DLL@DV?$ChTraitsCRT@D@ATL@@@@@ATL@@XZ 006575b0 f   PathDialog.obj
 0002:00160640       ?BrowseCallbackProc@CPathDialog@@CGHPAUHWND__@@IJJ@Z 00657640 f   PathDialog.obj
 0002:00160ab0       ?DoModal@CPathDialog@@UAEHXZ 00657ab0 f   PathDialog.obj
 0002:00160cc0       ?IsFileNameValid@CPathDialog@@SAHPBD@Z 00657cc0 f   PathDialog.obj
 0002:00160eb0       ?MakeSurePathExists@CPathDialog@@SAHPBD@Z 00657eb0 f   PathDialog.obj
 0002:001612f0       ?Touch@CPathDialog@@SAHPBDH@Z 006582f0 f   PathDialog.obj
 0002:00161610       ?ConcatPath@CPathDialog@@SAHPADPBD@Z 00658610 f   PathDialog.obj
 0002:001616e0       ??$strcat@PAD@@YAPADAAPADPBD@Z 006586e0 f i PathDialog.obj
 0002:00161740       ___insecure_strcat         00658740 f i PathDialog.obj
 0002:001617a0       ??$strcpy@$0BAE@@@YAPADAAY0BAE@DPBD@Z 006587a0 f i PathDialog.obj
 0002:00161810       ??0polygon@@QAE@PAVvertex@@@Z 00658810 f   php_polygon.obj
 0002:00161870       ??1polygon@@QAE@XZ         00658870 f   php_polygon.obj
 0002:00161940       ??_Gvertex@@QAEPAXI@Z      00658940 f i php_polygon.obj
 0002:001619b0       ?getFirst@polygon@@QAEPAVvertex@@XZ 006589b0 f   php_polygon.obj
 0002:001619f0       ?NextPoly@polygon@@QAEPAV1@XZ 006589f0 f   php_polygon.obj
 0002:00161a50       ?NextPoly@vertex@@QAEPAVpolygon@@XZ 00658a50 f i php_polygon.obj
 0002:00161a90       ?add@polygon@@QAEXPAVvertex@@@Z 00658a90 f   php_polygon.obj
 0002:00161be0       ?setNext@vertex@@QAEXPAV1@@Z 00658be0 f i php_polygon.obj
 0002:00161c30       ?setPrev@vertex@@QAEXPAV1@@Z 00658c30 f i php_polygon.obj
 0002:00161c80       ?Prev@vertex@@QAEPAV1@XZ   00658c80 f i php_polygon.obj
 0002:00161cc0       ?Nseg@vertex@@QAEPAVsegment@@XZ 00658cc0 f i php_polygon.obj
 0002:00161d00       ?setPseg@vertex@@QAEXPAVsegment@@@Z 00658d00 f i php_polygon.obj
 0002:00161d50       ?addv@polygon@@QAEXNNNNH@Z 00658d50 f   php_polygon.obj
 0002:00161eb0       ?del@polygon@@QAEPAVvertex@@PAV2@@Z 00658eb0 f   php_polygon.obj
 0002:00161ff0       ?Next@vertex@@QAEPAV1@XZ   00658ff0 f i php_polygon.obj
 0002:00162030       ?res@polygon@@QAEXXZ       00659030 f   php_polygon.obj
 0002:001620e0       ?id@vertex@@QAEHXZ         006590e0 f i php_polygon.obj
 0002:00162120       ?isIntersect@vertex@@QAEHXZ 00659120 f i php_polygon.obj
 0002:00162160       ?copy_poly@polygon@@QAEPAV1@XZ 00659160 f   php_polygon.obj
 0002:00162310       ?X@vertex@@QAENXZ          00659310 f i php_polygon.obj
 0002:00162350       ?Y@vertex@@QAENXZ          00659350 f i php_polygon.obj
 0002:00162390       ?insertSort@polygon@@QAEXPAVvertex@@00@Z 00659390 f   php_polygon.obj
 0002:001624d0       ?Alpha@vertex@@QAENXZ      006594d0 f i php_polygon.obj
 0002:00162510       ?nxt@polygon@@QAEPAVvertex@@PAV2@@Z 00659510 f   php_polygon.obj
 0002:00162590       ?unckd_remain@polygon@@QAEHXZ 00659590 f   php_polygon.obj
 0002:00162640       ?isChecked@vertex@@QAEHXZ  00659640 f i php_polygon.obj
 0002:00162680       ?first_unckd_intersect@polygon@@QAEPAVvertex@@XZ 00659680 f   php_polygon.obj
 0002:00162730       ?dist@polygon@@QAENNNNN@Z  00659730 f   php_polygon.obj
 0002:001627b0       ?angle@polygon@@QAENNNNN@Z 006597b0 f   php_polygon.obj
 0002:001628b0       ?aAlpha@polygon@@QAENNNNNNNNNN@Z 006598b0 f   php_polygon.obj
 0002:00162a40       ?perturb@polygon@@QAEXPAVvertex@@000NN@Z 00659a40 f   php_polygon.obj
 0002:00162e40       ?setX@vertex@@QAEXN@Z      00659e40 f i php_polygon.obj
 0002:00162e90       ?setY@vertex@@QAEXN@Z      00659e90 f i php_polygon.obj
 0002:00162ee0       ?ints@polygon@@QAEHPAVvertex@@000PAHQAN222@Z 00659ee0 f   php_polygon.obj
 0002:00164ac0       ?pow@@YANNH@Z              0065bac0 f i php_polygon.obj
 0002:00164b20       ?isInside@polygon@@QAEHPAVvertex@@@Z 0065bb20 f   php_polygon.obj
 0002:00165360       ?boolean@polygon@@QAEPAV1@PAV1@H@Z 0065c360 f   php_polygon.obj
 0002:001662e0       ?setNextPoly@vertex@@QAEXPAVpolygon@@@Z 0065d2e0 f i php_polygon.obj
 0002:00166330       ?setNeighbor@vertex@@QAEXPAV1@@Z 0065d330 f i php_polygon.obj
 0002:00166380       ?Neighbor@vertex@@QAEPAV1@XZ 0065d380 f i php_polygon.obj
 0002:001663c0       ?setEntry@vertex@@QAEXH@Z  0065d3c0 f i php_polygon.obj
 0002:00166410       ?isEntry@vertex@@QAEHXZ    0065d410 f i php_polygon.obj
 0002:00166450       ??$_Pow_int@N@@YANNH@Z     0065d450 f i php_polygon.obj
 0002:00166500       ??0segment@@QAE@NNH@Z      0065d500 f   php_polygon_vertex.obj
 0002:00166560       ??0vertex@@QAE@NNNNNPAV0@0PAVpolygon@@H0NHH@Z 0065d560 f   php_polygon_vertex.obj
 0002:00166720       ??1vertex@@QAE@XZ          0065d720 f   php_polygon_vertex.obj
 0002:001667a0       ?Xc@vertex@@QAENH@Z        0065d7a0 f   php_polygon_vertex.obj
 0002:00166860       ?Xc@segment@@QAENXZ        0065d860 f i php_polygon_vertex.obj
 0002:001668a0       ?Yc@vertex@@QAENH@Z        0065d8a0 f   php_polygon_vertex.obj
 0002:00166960       ?Yc@segment@@QAENXZ        0065d960 f i php_polygon_vertex.obj
 0002:001669a0       ?d@vertex@@QAENH@Z         0065d9a0 f   php_polygon_vertex.obj
 0002:00166ab0       ?d@segment@@QAEHXZ         0065dab0 f i php_polygon_vertex.obj
 0002:00166af0       ?setChecked@vertex@@QAEXH@Z 0065daf0 f   php_polygon_vertex.obj
 0002:00166b70       ??0CPolyLine@@QAE@PAVCDisplayList@@@Z 0065db70 f   PolyLine.obj
 0002:00166eb0       ??0CPolyLine@@QAE@XZ       0065deb0 f   PolyLine.obj
 0002:001671f0       ??1CPolyLine@@QAE@XZ       0065e1f0 f   PolyLine.obj
 0002:001673c0       ??_Gpolygon@@QAEPAXI@Z     0065e3c0 f i PolyLine.obj
 0002:00167430       ?NormalizeWithGpc@CPolyLine@@QAEHPAV?$CArray@PAVCPolyLine@@ABQAV1@@@H@Z 0065e430 f   PolyLine.obj
 0002:00167d60       ?MakePhpPoly@CPolyLine@@QAEHXZ 0065ed60 f   PolyLine.obj
 0002:00167f10       ?FreePhpPoly@CPolyLine@@QAEXXZ 0065ef10 f   PolyLine.obj
 0002:00168020       ?ClipPhpPolygon@CPolyLine@@QAEXHPAV1@@Z 0065f020 f   PolyLine.obj
 0002:00168290       ?MakeGpcPoly@CPolyLine@@QAEHHPAV?$CArray@VCArc@@ABV1@@@@Z 0065f290 f   PolyLine.obj
 0002:00169000       ?FreeGpcPoly@CPolyLine@@QAEHXZ 00660000 f   PolyLine.obj
 0002:001690c0       ?RestoreArcs@CPolyLine@@QAEHPAV?$CArray@VCArc@@ABV1@@@PAV?$CArray@PAVCPolyLine@@ABQAV1@@@@Z 006600c0 f   PolyLine.obj
 0002:001698c0       ?Start@CPolyLine@@QAEXHHHHHHPAVid@@PAXH@Z 006608c0 f   PolyLine.obj
 0002:00169de0       ?AppendCorner@CPolyLine@@QAEXHHHH@Z 00660de0 f   PolyLine.obj
 0002:0016a440       ?Close@CPolyLine@@QAEXHHH@Z 00661440 f   PolyLine.obj
 0002:0016a600       ?UnClose@CPolyLine@@QAEXXZ 00661600 f   PolyLine.obj
 0002:0016a6b0       ?RecalcRectC@CPolyLine@@QAEXH@Z 006616b0 f   PolyLine.obj
 0002:0016aa70       ?MoveCorner@CPolyLine@@QAEXHHHH@Z 00661a70 f   PolyLine.obj
 0002:0016ab40       ?DeleteCorner@CPolyLine@@QAEXHHHH@Z 00661b40 f   PolyLine.obj
 0002:0016af10       ?RemoveContour@CPolyLine@@QAEXHH@Z 00661f10 f   PolyLine.obj
 0002:0016b2d0       ?InsertCorner@CPolyLine@@QAEXHHHH@Z 006622d0 f   PolyLine.obj
 0002:0016b7b0       ?Undraw@CPolyLine@@QAEXXZ  006627b0 f   PolyLine.obj
 0002:0016b980       ?Draw@CPolyLine@@QAEXPAVCDisplayList@@@Z 00662980 f   PolyLine.obj
 0002:0016c270       ?SetSideVisible@CPolyLine@@QAEXHH@Z 00663270 f   PolyLine.obj
 0002:0016c300       ?StartDraggingToInsertCorner@CPolyLine@@QAEXPAVCDC@@HHHH@Z 00663300 f   PolyLine.obj
 0002:0016c520       ?CancelDraggingToInsertCorner@CPolyLine@@QAEXH@Z 00663520 f   PolyLine.obj
 0002:0016c650       ?StartDraggingToMoveCorner@CPolyLine@@QAEXPAVCDC@@HHHH@Z 00663650 f   PolyLine.obj
 0002:0016cd10       ?CancelDraggingToMoveCorner@CPolyLine@@QAEXH@Z 00663d10 f   PolyLine.obj
 0002:0016ce60       ?HighlightSide@CPolyLine@@QAEXHHH@Z 00663e60 f   PolyLine.obj
 0002:0016d020       ?HighlightCorner@CPolyLine@@QAEPAVdl_element@@HH@Z 00664020 f   PolyLine.obj
 0002:0016d100       ?GetX@CPolyLine@@QAEHH@Z   00664100 f   PolyLine.obj
 0002:0016d160       ?GetY@CPolyLine@@QAEHH@Z   00664160 f   PolyLine.obj
 0002:0016d1d0       ?GetHatchLoc@CPolyLine@@QAE?AUtagRECT@@H@Z 006641d0 f   PolyLine.obj
 0002:0016d330       ?GetHatchSize@CPolyLine@@QAEHXZ 00664330 f   PolyLine.obj
 0002:0016d370       ?GetMerge@CPolyLine@@QAEHH@Z 00664370 f   PolyLine.obj
 0002:0016d3d0       ?GetLength@CPolyLine@@QAEHXZ 006643d0 f   PolyLine.obj
 0002:0016d590       ?GetSel@CPolyLine@@QAEHH@Z 00664590 f   PolyLine.obj
 0002:0016d640       ?GetSideSel@CPolyLine@@QAEHH@Z 00664640 f   PolyLine.obj
 0002:0016d710       ?SetMerge@CPolyLine@@QAEXHH@Z 00664710 f   PolyLine.obj
 0002:0016d770       ?SetSel@CPolyLine@@QAEXHH@Z 00664770 f   PolyLine.obj
 0002:0016d7d0       ?SetSideSel@CPolyLine@@QAEXHH@Z 006647d0 f   PolyLine.obj
 0002:0016d830       ?GetNumContour@CPolyLine@@QAEHH@Z 00664830 f   PolyLine.obj
 0002:0016d8a0       ?GetVisible@CPolyLine@@QAEHXZ 006648a0 f   PolyLine.obj
 0002:0016d8e0       ?MakeVisible@CPolyLine@@QAEXH@Z 006648e0 f   PolyLine.obj
 0002:0016da60       ?GetBounds@CPolyLine@@QAE?AUtagRECT@@XZ 00664a60 f   PolyLine.obj
 0002:0016db60       ?GetCornerBounds@CPolyLine@@QAE?AUtagRECT@@H@Z 00664b60 f   PolyLine.obj
 0002:0016dbf0       ?GetNumCorners@CPolyLine@@QAEHXZ 00664bf0 f   PolyLine.obj
 0002:0016dc30       ?GetNumArcs@CPolyLine@@QAEHXZ 00664c30 f   PolyLine.obj
 0002:0016dcd0       ?GetNumSides@CPolyLine@@QAEHXZ 00664cd0 f   PolyLine.obj
 0002:0016dd80       ?GetLayer@CPolyLine@@QAEHXZ 00664d80 f   PolyLine.obj
 0002:0016ddc0       ?GetW@CPolyLine@@QAEHXZ    00664dc0 f   PolyLine.obj
 0002:0016de00       ?GetSelBoxSize@CPolyLine@@QAEHXZ 00664e00 f   PolyLine.obj
 0002:0016de40       ?GetNumContours@CPolyLine@@QAEHXZ 00664e40 f   PolyLine.obj
 0002:0016ded0       ?GetContour@CPolyLine@@QAEHH@Z 00664ed0 f   PolyLine.obj
 0002:0016df40       ?GetContourStart@CPolyLine@@QAEHH@Z 00664f40 f   PolyLine.obj
 0002:0016dfa0       ?GetContourEnd@CPolyLine@@QAEHH@Z 00664fa0 f   PolyLine.obj
 0002:0016e040       ?GetIndexCornerBack@CPolyLine@@QAEHH@Z 00665040 f   PolyLine.obj
 0002:0016e150       ?GetIndexCornerNext@CPolyLine@@QAEHH@Z 00665150 f   PolyLine.obj
 0002:0016e220       ?GetContourSize@CPolyLine@@QAEHH@Z 00665220 f   PolyLine.obj
 0002:0016e290       ?SetSideStyle@CPolyLine@@QAEXHHH@Z 00665290 f   PolyLine.obj
 0002:0016e4b0       ?GetSideStyle@CPolyLine@@QAEHH@Z 006654b0 f   PolyLine.obj
 0002:0016e530       ?SetId@CPolyLine@@QAEXPAVid@@@Z 00665530 f   PolyLine.obj
 0002:0016e7d0       ?GetId@CPolyLine@@QAE?AVid@@XZ 006657d0 f   PolyLine.obj
 0002:0016e840       ?GetClosed@CPolyLine@@QAEHXZ 00665840 f   PolyLine.obj
 0002:0016e900       ?TransparentHatch@CPolyLine@@QAEXH@Z 00665900 f   PolyLine.obj
 0002:0016e9e0       ?Hatch@CPolyLine@@QAEXXZ   006659e0 f   PolyLine.obj
 0002:00170030       ?TestPointInside@CPolyLine@@QAEHHHH@Z 00667030 f   PolyLine.obj
 0002:001708a0       ?TestPointInsideContour@CPolyLine@@QAEHHH@Z 006678a0 f   PolyLine.obj
 0002:00170900       ?TestPolygonIntersection@CPolyLine@@QAEHHH@Z 00667900 f   PolyLine.obj
 0002:00171180       ?TestPolygonIntersection@CPolyLine@@QAEHPAV1@@Z 00668180 f   PolyLine.obj
 0002:00171930       ?SetSelBoxSize@CPolyLine@@QAEXH@Z 00668930 f   PolyLine.obj
 0002:001719b0       ?SetDisplayList@CPolyLine@@QAEXPAVCDisplayList@@@Z 006689b0 f   PolyLine.obj
 0002:00171a30       ?Copy@CPolyLine@@QAEXPAV1@@Z 00668a30 f   PolyLine.obj
 0002:00171e40       ?MoveOrigin@CPolyLine@@QAEXHH@Z 00668e40 f   PolyLine.obj
 0002:00171f50       ?SetX@CPolyLine@@QAEXHH@Z  00668f50 f   PolyLine.obj
 0002:00172120       ?SetY@CPolyLine@@QAEXHH@Z  00669120 f   PolyLine.obj
 0002:001722f0       ?SetEndContour@CPolyLine@@QAEXHH@Z 006692f0 f   PolyLine.obj
 0002:00172380       ?SetLayer@CPolyLine@@QAEXH@Z 00669380 f   PolyLine.obj
 0002:001723d0       ?SetW@CPolyLine@@QAEXH@Z   006693d0 f   PolyLine.obj
 0002:00172420       ?SetVisible@CPolyLine@@QAEXH@Z 00669420 f   PolyLine.obj
 0002:00172470       ?MakePolylineForPad@CPolyLine@@QAEPAV1@HHHHHHH@Z 00669470 f   PolyLine.obj
 0002:00172660       ?AppendArc@CPolyLine@@QAEXHHHHHHH@Z 00669660 f   PolyLine.obj
 0002:00172870       ?ClipGpcPolygon@CPolyLine@@QAEXW4gpc_op@@PAV1@@Z 00669870 f   PolyLine.obj
 0002:00172960       ?ApproximateAllArcSides@CPolyLine@@QAEXXZ 00669960 f   PolyLine.obj
 0002:00172c50       ?InsertAt@?$CArray@HABH@@QAEXHABHH@Z 00669c50 f i PolyLine.obj
 0002:00172eb0       ?SetAtGrow@?$CArray@PAVdl_element@@ABQAV1@@@QAEXHABQAVdl_element@@@Z 00669eb0 f i PolyLine.obj
 0002:00172f80       ??0?$CArray@VCPolyPt@@ABV1@@@QAE@XZ 00669f80 f i PolyLine.obj
 0002:00173010       ?GetSize@?$CArray@VCPolyPt@@ABV1@@@QBEHXZ 0066a010 f i PolyLine.obj
 0002:00173050       ?RemoveAll@?$CArray@VCPolyPt@@ABV1@@@QAEXXZ 0066a050 f i PolyLine.obj
 0002:001730b0       ?InsertAt@?$CArray@VCPolyPt@@ABV1@@@QAEXHABVCPolyPt@@H@Z 0066a0b0 f i PolyLine.obj
 0002:001733c0       ?RemoveAt@?$CArray@VCPolyPt@@ABV1@@@QAEXHH@Z 0066a3c0 f i PolyLine.obj
 0002:00173570       ??0?$CArray@VCContourData@@ABV1@@@QAE@XZ 0066a570 f i PolyLine.obj
 0002:00173600       ?GetSize@?$CArray@VCContourData@@ABV1@@@QBEHXZ 0066a600 f i PolyLine.obj
 0002:00173640       ?RemoveAll@?$CArray@VCContourData@@ABV1@@@QAEXXZ 0066a640 f i PolyLine.obj
 0002:001736a0       ??A?$CArray@VCContourData@@ABV1@@@QAEAAVCContourData@@H@Z 0066a6a0 f i PolyLine.obj
 0002:00173700       ?GetSize@?$CArray@VCArc@@ABV1@@@QBEHXZ 0066a700 f i PolyLine.obj
 0002:00173740       ??A?$CArray@VCArc@@ABV1@@@QAEAAVCArc@@H@Z 0066a740 f i PolyLine.obj
 0002:001737a0       ?GetSize@?$CArray@PAVCPolyLine@@ABQAV1@@@QBEHXZ 0066a7a0 f i PolyLine.obj
 0002:001737e0       ?ElementAt@?$CArray@VCContourData@@ABV1@@@QAEAAVCContourData@@H@Z 0066a7e0 f i PolyLine.obj
 0002:00173890       ?ElementAt@?$CArray@VCArc@@ABV1@@@QAEAAVCArc@@H@Z 0066a890 f i PolyLine.obj
 0002:00173940       ??0CPolyPt@@QAE@HHH@Z      0066a940 f i PolyLine.obj
 0002:001739b0       ??1?$CArray@VCPolyPt@@ABV1@@@UAE@XZ 0066a9b0 f i PolyLine.obj
 0002:00173ac0       ?Serialize@?$CArray@VCPolyPt@@ABV1@@@UAEXAAVCArchive@@@Z 0066aac0 f i PolyLine.obj
 0002:00173b90       ?Dump@?$CArray@VCPolyPt@@ABV1@@@UBEXAAVCDumpContext@@@Z 0066ab90 f i PolyLine.obj
 0002:00173c70       ?AssertValid@?$CArray@VCPolyPt@@ABV1@@@UBEXXZ 0066ac70 f i PolyLine.obj
 0002:00173dd0       ??1?$CArray@VCContourData@@ABV1@@@UAE@XZ 0066add0 f i PolyLine.obj
 0002:00173ee0       ?Serialize@?$CArray@VCContourData@@ABV1@@@UAEXAAVCArchive@@@Z 0066aee0 f i PolyLine.obj
 0002:00173fb0       ?Dump@?$CArray@VCContourData@@ABV1@@@UBEXAAVCDumpContext@@@Z 0066afb0 f i PolyLine.obj
 0002:00174090       ?AssertValid@?$CArray@VCContourData@@ABV1@@@UBEXXZ 0066b090 f i PolyLine.obj
 0002:001741f0       ??_E?$CArray@VCPolyPt@@ABV1@@@UAEPAXI@Z 0066b1f0 f i PolyLine.obj
 0002:001741f0       ??_G?$CArray@VCPolyPt@@ABV1@@@UAEPAXI@Z 0066b1f0 f i PolyLine.obj
 0002:00174260       ??_G?$CArray@VCContourData@@ABV1@@@UAEPAXI@Z 0066b260 f i PolyLine.obj
 0002:00174260       ??_E?$CArray@VCContourData@@ABV1@@@UAEPAXI@Z 0066b260 f i PolyLine.obj
 0002:001742d0       ?SetSize@?$CArray@VCPolyPt@@ABV1@@@QAEXHH@Z 0066b2d0 f i PolyLine.obj
 0002:001749b0       ??$SerializeElements@VCPolyPt@@@@YGXAAVCArchive@@PAVCPolyPt@@H@Z 0066b9b0 f i PolyLine.obj
 0002:00174ba0       ??$DumpElements@VCPolyPt@@@@YGXAAVCDumpContext@@PBVCPolyPt@@H@Z 0066bba0 f i PolyLine.obj
 0002:00174c90       ?SetSize@?$CArray@VCContourData@@ABV1@@@QAEXHH@Z 0066bc90 f i PolyLine.obj
 0002:00175230       ??$SerializeElements@VCContourData@@@@YGXAAVCArchive@@PAVCContourData@@H@Z 0066c230 f i PolyLine.obj
 0002:00175420       ??$DumpElements@VCContourData@@@@YGXAAVCDumpContext@@PBVCContourData@@H@Z 0066c420 f i PolyLine.obj
 0002:00175510       ?DirExists0@@YA_NPBD@Z     0066c510 f   QAFDebug.obj
 0002:00175590       ?CreateSubFolders0@@YA_NPBD@Z 0066c590 f   QAFDebug.obj
 0002:00175750       ?SHGetSpecialFolderPathCustom@@YAJPAUHWND__@@HPAXKPAD@Z 0066c750 f   QAFDebug.obj
 0002:00175870       ?qafGetLogFileName@CQAFDebug@@KAKPADK@Z 0066c870 f   QAFDebug.obj
 0002:00175900       ?tryEnable@QAFDebug@@YA_NXZ 0066c900 f   QAFDebug.obj
 0002:00175950       ?tryEnable@CQAFDebug@@SA_NXZ 0066c950 f i QAFDebug.obj
 0002:00175a50       ??0CSync@@QAE@PAU_RTL_CRITICAL_SECTION@@W4CSOP@0@@Z 0066ca50 f i QAFDebug.obj
 0002:00175af0       ??1CSync@@QAE@XZ           0066caf0 f i QAFDebug.obj
 0002:00175b80       ?SetSharedFlag@CQAFDebug@@IAE_NK@Z 0066cb80 f i QAFDebug.obj
 0002:00175c10       ?tryLock@CQAFDebug@@IAE_NXZ 0066cc10 f i QAFDebug.obj
 0002:00175c80       ?unLock@CQAFDebug@@IAEXXZ  0066cc80 f i QAFDebug.obj
 0002:00175ce0       ?instance@CQAFDebug@@KAAAV1@XZ 0066cce0 f i QAFDebug.obj
 0002:00175db0       ??0CQAFDebug@@QAE@XZ       0066cdb0 f i QAFDebug.obj
 0002:00175ff0       ?ODS@@YAXPBD@Z             0066cff0 f i QAFDebug.obj
 0002:00176050       ?tryDisable@QAFDebug@@YA_NXZ 0066d050 f   QAFDebug.obj
 0002:001760a0       ?tryDisable@CQAFDebug@@SA_NXZ 0066d0a0 f i QAFDebug.obj
 0002:001761a0       ?OutputDebugStringEx@QAFDebug@@YAXPBDH00@Z 0066d1a0 f   QAFDebug.obj
 0002:00176740       ?tryOpenLogFile@CQAFDebug@@SAPAXXZ 0066d740 f i QAFDebug.obj
 0002:00176a40       ?qafReportComError@QAFDebug@@YAJJPBDH@Z 0066da40 f   QAFDebug.obj
 0002:00176bf0       ?SetLogDir@QAFDebug@@YAXPAV?$CStringT@DV?$StrTraitMFC_DLL@DV?$ChTraitsCRT@D@ATL@@@@@ATL@@@Z 0066dbf0 f   QAFDebug.obj
 0002:00176c50       ?GetLogDir@QAFDebug@@YAKPADK@Z 0066dc50 f   QAFDebug.obj
 0002:00176e90       ?_tcsrchr@@YAPADPADI@Z     0066de90 f i QAFDebug.obj
 0002:00176ef0       __tcsrchr                  0066def0 f i QAFDebug.obj
 0002:00176f50       ??1CQAFDebug@@QAE@XZ       0066df50 f i QAFDebug.obj
 0002:001770e0       ?SpawnAndRedirect@@YAPAXPBDPAPAX0@Z 0066e0e0 f   RTcall.obj
 0002:00177430       ?RunConsoleProcess@@YAHPBDPAVCDlgLog@@@Z 0066e430 f   RTcall.obj
 0002:00177600       ??$strcpy@$0EAA@@@YAPADAAY0EAA@DPBD@Z 0066e600 f i RTcall.obj
 0002:00177670       ?ws@@YA?AV?$CStringT@DV?$StrTraitMFC_DLL@DV?$ChTraitsCRT@D@ATL@@@@@ATL@@HH@Z 0066e670 f   Shape.obj
 0002:001777c0       ??0pad@@QAE@XZ             0066e7c0 f   Shape.obj
 0002:00177820       ??8pad@@QAEHV0@@Z          0066e820 f   Shape.obj
 0002:001778d0       ??0padstack@@QAE@XZ        0066e8d0 f   Shape.obj
 0002:00177b30       ??8padstack@@QAEHV0@@Z     0066eb30 f   Shape.obj
 0002:00177eb0       ??0CShape@@QAE@XZ          0066eeb0 f   Shape.obj
 0002:001781d0       ??1CShape@@QAE@XZ          0066f1d0 f   Shape.obj
 0002:00178490       ?Clear@CShape@@QAEXXZ      0066f490 f   Shape.obj
 0002:001786a0       ?MakeFromString@CShape@@QAEHV?$CStringT@DV?$StrTraitMFC_DLL@DV?$ChTraitsCRT@D@ATL@@@@@ATL@@0@Z 0066f6a0 f   Shape.obj
 0002:0017d540       ?MakeFromFile@CShape@@QAEHPAVCStdioFile@@V?$CStringT@DV?$StrTraitMFC_DLL@DV?$ChTraitsCRT@D@ATL@@@@@ATL@@1H@Z 00674540 f   Shape.obj
 0002:00183090       ?Copy@CShape@@QAEHPAV1@@Z  0067a090 f   Shape.obj
 0002:00183510       ?Import@CShape@@QAEHPAV1@@Z 0067a510 f   Shape.obj
 0002:001838c0       ?ComparePins@CShape@@QAEHPAV1@@Z 0067a8c0 f   Shape.obj
 0002:00183ad0       ?Compare@CShape@@QAEHPAV1@@Z 0067aad0 f   Shape.obj
 0002:00184290       ??0padstack@@QAE@ABV0@@Z   0067b290 f i Shape.obj
 0002:00184570       ?GetNumPins@CShape@@QAEHXZ 0067b570 f   Shape.obj
 0002:001845d0       ?GetPinIndexByName@CShape@@QAEHPBDH@Z 0067b5d0 f   Shape.obj
 0002:001846b0       ?GetPinNameByIndex@CShape@@QAE?AV?$CStringT@DV?$StrTraitMFC_DLL@DV?$ChTraitsCRT@D@ATL@@@@@ATL@@H@Z 0067b6b0 f   Shape.obj
 0002:00184750       ?GetPinDescriptionByIndex@CShape@@QAE?AV?$CStringT@DV?$StrTraitMFC_DLL@DV?$ChTraitsCRT@D@ATL@@@@@ATL@@H@Z 0067b750 f   Shape.obj
 0002:001847f0       ?WriteFootprint@CShape@@QAEHPAVCStdioFile@@@Z 0067b7f0 f   Shape.obj
 0002:001877e0       ?CreateMetafile@CShape@@QAEPAUHENHMETAFILE__@@PAVCMetaFileDC@@PAVCDC@@HH@Z 0067e7e0 f   Shape.obj
 0002:0018bfe0       ?CreateWarningMetafile@CShape@@QAEPAUHENHMETAFILE__@@PAVCMetaFileDC@@PAVCDC@@HH@Z 00682fe0 f   Shape.obj
 0002:0018c220       ?GetDefaultCentroid@CShape@@QAE?AVCPoint@@XZ 00683220 f   Shape.obj
 0002:0018c340       ?GetAllPadBounds@CShape@@QAE?AUtagRECT@@XZ 00683340 f   Shape.obj
 0002:0018c570       ?GetPadBounds@CShape@@QAEXHPAUtagRECT@@@Z 00683570 f   Shape.obj
 0002:0018cd60       ?GetPadRowBounds@CShape@@QAE?AUtagRECT@@HH@Z 00683d60 f   Shape.obj
 0002:0018cec0       ?GetBounds@CShape@@QAE?AUtagRECT@@HH@Z 00683ec0 f   Shape.obj
 0002:0018d3b0       ?GetCornerBounds@CShape@@QAE?AUtagRECT@@XZ 006843b0 f   Shape.obj
 0002:0018d410       ?Draw@CShape@@QAEXPAVCDisplayList@@PAVSMFontUtil@@@Z 00684410 f   Shape.obj
 0002:0018d450       ?Undraw@CShape@@QAEXXZ     00684450 f   Shape.obj
 0002:0018db10       ?SelectPad@CShape@@QAEXH@Z 00684b10 f   Shape.obj
 0002:0018dbc0       ?StartDraggingPad@CShape@@QAEXPAVCDC@@H@Z 00684bc0 f   Shape.obj
 0002:0018dee0       ?CancelDraggingPad@CShape@@QAEXH@Z 00684ee0 f   Shape.obj
 0002:0018e040       ?StartDraggingPadRow@CShape@@QAEXPAVCDC@@HH@Z 00685040 f   Shape.obj
 0002:0018e2b0       ?CancelDraggingPadRow@CShape@@QAEXHH@Z 006852b0 f   Shape.obj
 0002:0018e440       ?StartDraggingGroup@CShape@@QAEXPAVCDC@@PAUtagRECT@@@Z 00685440 f   Shape.obj
 0002:0018e510       ?CancelDraggingGroup@CShape@@QAEXXZ 00685510 f   Shape.obj
 0002:0018e570       ?SelectAdhesive@CShape@@QAEXH@Z 00685570 f   Shape.obj
 0002:0018e600       ?StartDraggingAdhesive@CShape@@QAEXPAVCDC@@H@Z 00685600 f   Shape.obj
 0002:0018e710       ?CancelDraggingAdhesive@CShape@@QAEXH@Z 00685710 f   Shape.obj
 0002:0018e790       ?SelectCentroid@CShape@@QAEXXZ 00685790 f   Shape.obj
 0002:0018e820       ?StartDraggingCentroid@CShape@@QAEXPAVCDC@@@Z 00685820 f   Shape.obj
 0002:0018eb60       ?CancelDraggingCentroid@CShape@@QAEXXZ 00685b60 f   Shape.obj
 0002:0018ebd0       ?SelectRef@CShape@@QAEXXZ  00685bd0 f   Shape.obj
 0002:0018ec50       ?StartDraggingRef@CShape@@QAEXPAVCDC@@@Z 00685c50 f   Shape.obj
 0002:0018edd0       ?CancelDraggingRef@CShape@@QAEXXZ 00685dd0 f   Shape.obj
 0002:0018ee80       ?SelectValue@CShape@@QAEXXZ 00685e80 f   Shape.obj
 0002:0018ef00       ?StartDraggingValue@CShape@@QAEXPAVCDC@@@Z 00685f00 f   Shape.obj
 0002:0018f090       ?CancelDraggingValue@CShape@@QAEXXZ 00686090 f   Shape.obj
 0002:0018f140       ?ShiftToInsertPadName@CShape@@QAEXPAV?$CStringT@DV?$StrTraitMFC_DLL@DV?$ChTraitsCRT@D@ATL@@@@@ATL@@H@Z 00686140 f   Shape.obj
 0002:0018f490       ?GenerateSelectionRectangle@CShape@@QAEHPAUtagRECT@@@Z 00686490 f   Shape.obj
 0002:0018f540       ?GetHoleFlag@CShape@@QAEHXZ 00686540 f   Shape.obj
 0002:0018f5e0       ??0?$CArray@Vpadstack@@ABV1@@@QAE@XZ 006865e0 f i Shape.obj
 0002:0018f670       ?RemoveAll@?$CArray@Vpadstack@@ABV1@@@QAEXXZ 00686670 f i Shape.obj
 0002:0018f6d0       ??0?$CArray@Uglue@@ABU1@@@QAE@XZ 006866d0 f i Shape.obj
 0002:0018f760       ??$strcpy@$0BE@@@YAPADAAY0BE@DPBD@Z 00686760 f i Shape.obj
 0002:0018f7d0       ??1?$CArray@Vpadstack@@ABV1@@@UAE@XZ 006867d0 f i Shape.obj
 0002:0018f900       ?Serialize@?$CArray@Vpadstack@@ABV1@@@UAEXAAVCArchive@@@Z 00686900 f i Shape.obj
 0002:0018f9d0       ?Dump@?$CArray@Vpadstack@@ABV1@@@UBEXAAVCDumpContext@@@Z 006869d0 f i Shape.obj
 0002:0018fab0       ?AssertValid@?$CArray@Vpadstack@@ABV1@@@UBEXXZ 00686ab0 f i Shape.obj
 0002:0018fc10       ??1?$CArray@Uglue@@ABU1@@@UAE@XZ 00686c10 f i Shape.obj
 0002:0018fd20       ?Serialize@?$CArray@Uglue@@ABU1@@@UAEXAAVCArchive@@@Z 00686d20 f i Shape.obj
 0002:0018fdf0       ?Dump@?$CArray@Uglue@@ABU1@@@UBEXAAVCDumpContext@@@Z 00686df0 f i Shape.obj
 0002:0018fed0       ?AssertValid@?$CArray@Uglue@@ABU1@@@UBEXXZ 00686ed0 f i Shape.obj
 0002:00190030       ??_E?$CArray@Vpadstack@@ABV1@@@UAEPAXI@Z 00687030 f i Shape.obj
 0002:00190030       ??_G?$CArray@Vpadstack@@ABV1@@@UAEPAXI@Z 00687030 f i Shape.obj
 0002:001900a0       ??_G?$CArray@Uglue@@ABU1@@@UAEPAXI@Z 006870a0 f i Shape.obj
 0002:001900a0       ??_E?$CArray@Uglue@@ABU1@@@UAEPAXI@Z 006870a0 f i Shape.obj
 0002:00190110       ??$SerializeElements@Vpadstack@@@@YGXAAVCArchive@@PAVpadstack@@H@Z 00687110 f i Shape.obj
 0002:00190310       ??$DumpElements@Vpadstack@@@@YGXAAVCDumpContext@@PBVpadstack@@H@Z 00687310 f i Shape.obj
 0002:00190400       ??$SerializeElements@Uglue@@@@YGXAAVCArchive@@PAUglue@@H@Z 00687400 f i Shape.obj
 0002:001905f0       ??$DumpElements@Uglue@@@@YGXAAVCDumpContext@@PBUglue@@H@Z 006875f0 f i Shape.obj
 0002:001906e0       ??0SMCharacter@@QAE@XZ     006876e0 f   smcharacter.obj
 0002:00190730       ??0SMCharacter@@QAE@PAV0@@Z 00687730 f   smcharacter.obj
 0002:00190840       ??1SMCharacter@@QAE@XZ     00687840 f   smcharacter.obj
 0002:001908c0       ?Read@SMCharacter@@QAEXPAU_iobuf@@@Z 006878c0 f   smcharacter.obj
 0002:001909b0       ?Write@SMCharacter@@QAEXPAU_iobuf@@@Z 006879b0 f   smcharacter.obj
 0002:00190a50       ?ReadOldStyle@SMCharacter@@QAEHPAU_iobuf@@@Z 00687a50 f   smcharacter.obj
 0002:00190d00       ?GetFirstVertex@SMCharacter@@QAE?AW4CHARVERTEX_TYPE@1@AAUCharVertex@@AAH@Z 00687d00 f   smcharacter.obj
 0002:00190d90       ?GetNextVertex@SMCharacter@@QAE?AW4CHARVERTEX_TYPE@1@AAUCharVertex@@AAH@Z 00687d90 f   smcharacter.obj
 0002:00190e90       ??0SMFontUtil@@QAE@PAV?$CStringT@DV?$StrTraitMFC_DLL@DV?$ChTraitsCRT@D@ATL@@@@@ATL@@@Z 00687e90 f   smfontutil.obj
 0002:00191010       ??0?$CTypedPtrArray@VCPtrArray@@PAVSMCharacter@@@@QAE@XZ 00688010 f i smfontutil.obj
 0002:00191070       ??1?$CTypedPtrArray@VCPtrArray@@PAVSMCharacter@@@@UAE@XZ 00688070 f i smfontutil.obj
 0002:001910c0       ??_G?$CTypedPtrArray@VCPtrArray@@PAVSMCharacter@@@@UAEPAXI@Z 006880c0 f i smfontutil.obj
 0002:001910c0       ??_E?$CTypedPtrArray@VCPtrArray@@PAVSMCharacter@@@@UAEPAXI@Z 006880c0 f i smfontutil.obj
 0002:00191130       ??1SMFontUtil@@QAE@XZ      00688130 f   smfontutil.obj
 0002:00191270       ??_GSMCharacter@@QAEPAXI@Z 00688270 f i smfontutil.obj
 0002:001912e0       ?LoadFontData@SMFontUtil@@IAEHXZ 006882e0 f   smfontutil.obj
 0002:00191630       ?LoadXlationData@SMFontUtil@@IAEHXZ 00688630 f   smfontutil.obj
 0002:001919d0       ?SaveXlationData@SMFontUtil@@IAEXXZ 006889d0 f   smfontutil.obj
 0002:00191bb0       ?SaveFontData@SMFontUtil@@IAEXXZ 00688bb0 f   smfontutil.obj
 0002:00191d00       ?LoadOldStyleXlation@SMFontUtil@@IAEXXZ 00688d00 f   smfontutil.obj
 0002:00192110       ?LoadOldStyleFile@SMFontUtil@@IAEXXZ 00689110 f   smfontutil.obj
 0002:00192460       ?GetCharID@SMFontUtil@@QAEHEW4FONT_TYPE@@@Z 00689460 f   smfontutil.obj
 0002:001924e0       ?DrawString@SMFontUtil@@QAEXPAVCDC@@VCPoint@@NNNW4FONT_TYPE@@V?$CStringT@DV?$StrTraitMFC_DLL@DV?$ChTraitsCRT@D@ATL@@@@@ATL@@@Z 006894e0 f   smfontutil.obj
 0002:00192900       ?GetCharStrokes@SMFontUtil@@QAEHDW4FONT_TYPE@@PAN111QAY03NH@Z 00689900 f   smfontutil.obj
 0002:00192ca0       ?GetCharacter@SMFontUtil@@QAEPAVSMCharacter@@H@Z 00689ca0 f i smfontutil.obj
 0002:00192d00       ?Add@?$CTypedPtrArray@VCPtrArray@@PAVSMCharacter@@@@QAEHPAVSMCharacter@@@Z 00689d00 f i smfontutil.obj
 0002:00192d60       ??A?$CTypedPtrArray@VCPtrArray@@PAVSMCharacter@@@@QAEAAPAVSMCharacter@@H@Z 00689d60 f i smfontutil.obj
 0002:00192dc0       ?_AfxInitManaged@@YAHXZ    00689dc0 f i StdAfx.obj
 0002:00192df0       ??_Estringdispid@CComTypeInfoHolder@ATL@@QAEPAXI@Z 00689df0 f i StdAfx.obj
 0002:00192eb0       ??1stringdispid@CComTypeInfoHolder@ATL@@QAE@XZ 00689eb0 f i StdAfx.obj
 0002:00192f00       ??1CComBSTR@ATL@@QAE@XZ    00689f00 f i StdAfx.obj
 0002:00192f60       ??0Thank_you@Define_the_symbol__ATL_MIXED@@QAE@XZ 00689f60 f i StdAfx.obj
 0002:00192fb0       ?one@Thank_you@Define_the_symbol__ATL_MIXED@@UAEXXZ 00689fb0 f i StdAfx.obj
 0002:00192ff0       ??0CText@@QAE@PAVCDisplayList@@HHHHHHHHPAVSMFontUtil@@PAV?$CStringT@DV?$StrTraitMFC_DLL@DV?$ChTraitsCRT@D@ATL@@@@@ATL@@@Z 00689ff0 f   TextList.obj
 0002:001931d0       ??1CText@@QAE@XZ           0068a1d0 f   TextList.obj
 0002:00193280       ?Draw@CText@@QAEXPAVCDisplayList@@PAVSMFontUtil@@PAV?$CArray@VCPoint@@ABV1@@@@Z 0068a280 f   TextList.obj
 0002:00193c60       ?Undraw@CText@@QAEXXZ      0068ac60 f   TextList.obj
 0002:00193d20       ??0CTextList@@QAE@XZ       0068ad20 f   TextList.obj
 0002:00193d90       ??0CTextList@@QAE@PAVCDisplayList@@PAVSMFontUtil@@@Z 0068ad90 f   TextList.obj
 0002:00193e00       ??1CTextList@@QAE@XZ       0068ae00 f   TextList.obj
 0002:00193f30       ??_GCText@@QAEPAXI@Z       0068af30 f i TextList.obj
 0002:00193fa0       ?AddText@CTextList@@QAEPAVCText@@HHHHHHHHPAV?$CStringT@DV?$StrTraitMFC_DLL@DV?$ChTraitsCRT@D@ATL@@@@@ATL@@H@Z 0068afa0 f   TextList.obj
 0002:00194220       ?GetSelCount@CTextList@@QAEHXZ 0068b220 f   TextList.obj
 0002:001942d0       ?RemoveText@CTextList@@QAEHPAVCText@@@Z 0068b2d0 f   TextList.obj
 0002:00194410       ?RemoveAllTexts@CTextList@@QAEXXZ 0068b410 f   TextList.obj
 0002:001944b0       ?HighlightText@CTextList@@QAEXPAVCText@@H@Z 0068b4b0 f   TextList.obj
 0002:001945a0       ?StartDraggingText@CTextList@@QAEXPAVCDC@@PAVCText@@@Z 0068b5a0 f   TextList.obj
 0002:00194720       ?CancelDraggingText@CTextList@@QAEXPAVCText@@@Z 0068b720 f   TextList.obj
 0002:00194790       ?MoveText@CTextList@@QAEXPAVCText@@HHHHHH@Z 0068b790 f   TextList.obj
 0002:00194860       ?WriteTexts@CTextList@@QAEHPAVCStdioFile@@@Z 0068b860 f   TextList.obj
 0002:00194ed0       ?ReadTexts@CTextList@@QAEXPAVCStdioFile@@N@Z 0068bed0 f   TextList.obj
 0002:001958d0       ?CreateUndoRecord@CTextList@@QAEPAUundo_text@@PAVCText@@@Z 0068c8d0 f   TextList.obj
 0002:00195a70       ?TextUndoCallback@CTextList@@SAXHPAXH@Z 0068ca70 f   TextList.obj
 0002:00195dc0       ??_Gundo_text@@QAEPAXI@Z   0068cdc0 f i TextList.obj
 0002:00195e30       ??1undo_text@@QAE@XZ       0068ce30 f i TextList.obj
 0002:00195e90       ?MoveOrigin@CTextList@@QAEXHH@Z 0068ce90 f   TextList.obj
 0002:00195f70       ?GetText@CTextList@@QAEPAVCText@@PAU_GUID@@@Z 0068cf70 f   TextList.obj
 0002:00196040       ?GetText@CTextList@@QAEPAVCText@@HH@Z 0068d040 f   TextList.obj
 0002:00196110       ?GetFirstText@CTextList@@QAEPAVCText@@XZ 0068d110 f   TextList.obj
 0002:00196190       ?GetNextText@CTextList@@QAEPAVCText@@PAH@Z 0068d190 f   TextList.obj
 0002:00196230       ?GetTextBoundaries@CTextList@@QAEHPAUtagRECT@@@Z 0068d230 f   TextList.obj
 0002:00196760       ?GetTextRectOnPCB@CTextList@@QAEHPAVCText@@PAUtagRECT@@@Z 0068d760 f   TextList.obj
 0002:00196860       ?ReassignCopperLayers@CTextList@@QAEXHPAH@Z 0068d860 f   TextList.obj
 0002:001969b0       ?GetAt@?$CArray@VCPoint@@ABV1@@@QAEAAVCPoint@@H@Z 0068d9b0 f i TextList.obj
 0002:00196a60       ?SetAt@?$CArray@VCPoint@@ABV1@@@QAEXHABVCPoint@@@Z 0068da60 f i TextList.obj
 0002:00196b20       ??0?$CArray@PAVCText@@ABQAV1@@@QAE@XZ 0068db20 f i TextList.obj
 0002:00196bb0       ?Add@?$CArray@PAVCText@@ABQAV1@@@QAEHABQAVCText@@@Z 0068dbb0 f i TextList.obj
 0002:00196c20       ?RemoveAt@?$CArray@PAVCText@@ABQAV1@@@QAEXHH@Z 0068dc20 f i TextList.obj
 0002:00196dd0       ?SetAtGrow@?$CArray@PAVCText@@ABQAV1@@@QAEXHABQAVCText@@@Z 0068ddd0 f i TextList.obj
 0002:00196ea0       ??1?$CArray@PAVCText@@ABQAV1@@@UAE@XZ 0068dea0 f i TextList.obj
 0002:00196fb0       ?Serialize@?$CArray@PAVCText@@ABQAV1@@@UAEXAAVCArchive@@@Z 0068dfb0 f i TextList.obj
 0002:00197080       ?Dump@?$CArray@PAVCText@@ABQAV1@@@UBEXAAVCDumpContext@@@Z 0068e080 f i TextList.obj
 0002:00197160       ?AssertValid@?$CArray@PAVCText@@ABQAV1@@@UBEXXZ 0068e160 f i TextList.obj
 0002:001972c0       ??_G?$CArray@PAVCText@@ABQAV1@@@UAEPAXI@Z 0068e2c0 f i TextList.obj
 0002:001972c0       ??_E?$CArray@PAVCText@@ABQAV1@@@UAEPAXI@Z 0068e2c0 f i TextList.obj
 0002:00197330       ?SetSize@?$CArray@PAVCText@@ABQAV1@@@QAEXHH@Z 0068e330 f i TextList.obj
 0002:001978c0       ??$SerializeElements@PAVCText@@@@YGXAAVCArchive@@PAPAVCText@@H@Z 0068e8c0 f i TextList.obj
 0002:00197ab0       ??$DumpElements@PAVCText@@@@YGXAAVCDumpContext@@PBQAVCText@@H@Z 0068eab0 f i TextList.obj
 0002:00197ba0       ??0CUndoList@@QAE@HH@Z     0068eba0 f   UndoList.obj
 0002:00197c50       ??1CUndoList@@QAE@XZ       0068ec50 f   UndoList.obj
 0002:00197ca0       ?Clear@CUndoList@@QAEXXZ   0068eca0 f   UndoList.obj
 0002:00197d00       ?DropFirstEvent@CUndoList@@QAEXXZ 0068ed00 f   UndoList.obj
 0002:00197e70       ?Push@CUndoList@@QAEXHPAXP6AXH0H@ZH@Z 0068ee70 f   UndoList.obj
 0002:00197f80       ?Pop@CUndoList@@QAEHXZ     0068ef80 f   UndoList.obj
 0002:00198130       ?NewEvent@CUndoList@@QAEXXZ 0068f130 f   UndoList.obj
 0002:001981d0       ?PCB_lay@@YAHH@Z           0068f1d0 f   utility.obj
 0002:00198280       ?FP_lay@@YAHH@Z            0068f280 f   utility.obj
 0002:00198330       ?Get_Side@@YAHH@Z          0068f330 f   utility.obj
 0002:001983b0       ?Get_fp_Side@@YAHH@Z       0068f3b0 f   utility.obj
 0002:00198430       ?GetInflectionPoint@@YA?AVCPoint@@V1@0H@Z 0068f430 f   utility.obj
 0002:00198710       ?getbit@@YAEHH@Z           0068f710 f   utility.obj
 0002:00198780       ?RotatePoint@@YAXPAVCPoint@@MV1@@Z 0068f780 f   utility.obj
 0002:001988b0       ?RotatePOINTS@@YAXPAVCPoint@@HMV1@@Z 0068f8b0 f   utility.obj
 0002:00198a20       ?Angle@@YAMVCPoint@@00@Z   0068fa20 f   utility.obj
 0002:00198b20       ?FindArcElements@@YAHPAVcconnect@@PAH@Z 0068fb20 f   utility.obj
 0002:00199070       ?FindArcElements@@YAHPAVCPolyLine@@PAH1@Z 00690070 f   utility.obj
 0002:00199630       ?Check_45@@YAHVCPoint@@0@Z 00690630 f   utility.obj
 0002:00199730       ?Check_90@@YAHVCPoint@@0@Z 00690730 f   utility.obj
 0002:00199830       ?Check_45@@YAHVCPoint@@00@Z 00690830 f   utility.obj
 0002:00199860       ?Check_90@@YAHVCPoint@@00@Z 00690860 f   utility.obj
 0002:00199890       ?Angle@@YAMMMMMH@Z         00690890 f   utility.obj
 0002:00199a20       ?Rotate_i_Vertex@@YAXPAH0HHH@Z 00690a20 f   utility.obj
 0002:00199b30       ?Rotate_Vertex@@YAXPAM0M@Z 00690b30 f   utility.obj
 0002:00199d70       ?atan@@YAMM@Z              00690d70 f i utility.obj
 0002:00199dd0       _atanf                     00690dd0 f i utility.obj
 0002:00199e40       ?Colinear@@YAHHHHHHH@Z     00690e40 f   utility.obj
 0002:0019a150       ?AlignPoints@@YA?AVCPoint@@V1@00HM@Z 00691150 f   utility.obj
 0002:0019ae30       ?sqrt@@YAMM@Z              00691e30 f i utility.obj
 0002:0019ae90       _sqrtf                     00691e90 f i utility.obj
 0002:0019af00       ?TripplePointArc@@YAHHHHHHHPAVCPoint@@H@Z 00691f00 f   utility.obj
 0002:0019b130       ?Gen_HollowLinePoly@@YAHHHHHHPAVCPoint@@H@Z 00692130 f   utility.obj
 0002:0019b4b0       ?cos@@YAMM@Z               006924b0 f i utility.obj
 0002:0019b510       _cosf                      00692510 f i utility.obj
 0002:0019b580       ?sin@@YAMM@Z               00692580 f i utility.obj
 0002:0019b5e0       _sinf                      006925e0 f i utility.obj
 0002:0019b650       ?Gen_RndRectPoly@@YAHHHHHMMPAVCPoint@@H@Z 00692650 f   utility.obj
 0002:0019bd40       ?Generate_Arc@@YAHHHHHHPAVCPoint@@H@Z 00692d40 f   utility.obj
 0002:0019c250       ?Rnd_Func@@YAHMMMMMMMMPAMH@Z 00693250 f   utility.obj
 0002:0019cc30       ?MirrorRect@@YAXPAUtagRECT@@VCPoint@@@Z 00693c30 f   utility.obj
 0002:0019ccc0       ?RotateRect@@YAXPAH000HHH@Z 00693cc0 f   utility.obj
 0002:0019cde0       ?RotateRect@@YAXPAUtagRECT@@HVCPoint@@@Z 00693de0 f   utility.obj
 0002:0019d130       ?RectsIntersection@@YAHUtagRECT@@0@Z 00694130 f   utility.obj
 0002:0019d240       ?SwellRect@@YAXPAUtagRECT@@H@Z 00694240 f   utility.obj
 0002:0019d2c0       ?SwellRect@@YAXPAUtagRECT@@U1@@Z 006942c0 f   utility.obj
 0002:0019d410       ?SwellRect@@YAXPAUtagRECT@@VCPoint@@@Z 00694410 f   utility.obj
 0002:0019d520       ?SwellRect@@YAXPAUtagRECT@@HH@Z 00694520 f   utility.obj
 0002:0019d630       ?MoveRect@@YAXPAUtagRECT@@HH@Z 00694630 f   utility.obj
 0002:0019d6b0       ?rect@@YA?AUtagRECT@@HHHH@Z 006946b0 f   utility.obj
 0002:0019d810       ?SwellPolygon@@YAHPAVCPoint@@H0H@Z 00694810 f   utility.obj
 0002:0019e350       ?TestPolygon@@YAHHHPAVCPoint@@H@Z 00695350 f   utility.obj
 0002:0019e5a0       ?TestLineHit@@YAHHHHHHHN@Z 006955a0 f   utility.obj
 0002:0019e8e0       ?ReadFontFile@@YAHPAD@Z    006958e0 f   utility.obj
 0002:0019e910       ?mystrtok@@YAPADPBD0@Z     00695910 f   utility.obj
 0002:0019eaa0       ?GetDimensionFromString@@YANPAV?$CStringT@DV?$StrTraitMFC_DLL@DV?$ChTraitsCRT@D@ATL@@@@@ATL@@HH@Z 00695aa0 f   utility.obj
 0002:0019edc0       ?MakeCStringFromDimension@@YAXPAV?$CStringT@DV?$StrTraitMFC_DLL@DV?$ChTraitsCRT@D@ATL@@@@@ATL@@HHHHHHH@Z 00695dc0 f   utility.obj
 0002:0019f660       ?MakeCStringFromDouble@@YAXPAV?$CStringT@DV?$StrTraitMFC_DLL@DV?$ChTraitsCRT@D@ATL@@@@@ATL@@N@Z 00696660 f   utility.obj
 0002:0019f960       ?ParseRef@@YAHPAV?$CStringT@DV?$StrTraitMFC_DLL@DV?$ChTraitsCRT@D@ATL@@@@@ATL@@0@Z 00696960 f   utility.obj
 0002:0019fbc0       ?CheckLegalPinName@@YAHPAV?$CStringT@DV?$StrTraitMFC_DLL@DV?$ChTraitsCRT@D@ATL@@@@@ATL@@00PAH@Z 00696bc0 f   utility.obj
 0002:001a0280       ?FindLineIntersection@@YAHNNNNPAN0@Z 00697280 f   utility.obj
 0002:001a02e0       ?FindLineIntersection@@YAHNNNNNNNNPAN0@Z 006972e0 f   utility.obj
 0002:001a0450       ?MakeEllipseFromArc@@YAHHHHHHPAUEllipseTag@@@Z 00697450 f   utility.obj
 0002:001a0660       ?FindSegmentIntersections@@YAHHHHHHHHHHHQAN0@Z 00697660 f   utility.obj
 0002:001a1230       ?FindLineSegmentIntersection@@YAHNNHHHHHPAN0000@Z 00698230 f   utility.obj
 0002:001a2040       ?TestForIntersectionOfStraightLineSegments@@YAHHHHHHHHHPAH0PAN@Z 00699040 f   utility.obj
 0002:001a2df0       ?DunselFunction@@YAXXZ     00699df0 f   utility.obj
 0002:001a2e20       ?CalibrateTimer@@YAXXZ     00699e20 f   utility.obj
 0002:001a2f10       ?StartTimer@@YAXXZ         00699f10 f   utility.obj
 0002:001a2f90       ?GetElapsedTime@@YANXZ     00699f90 f   utility.obj
 0002:001a31a0       _Int64ShrlMod32@12         0069a1a0 f i utility.obj
 0002:001a3200       ?quickSort@@YAXQAH0H@Z     0069a200 f   utility.obj
 0002:001a3260       ?q_sort@@YAXQAH0HH@Z       0069a260 f   utility.obj
 0002:001a3450       ?q_sort_3way@@YAXQAH0HH@Z  0069a450 f   utility.obj
 0002:001a38d0       ?ccw@@YAHH@Z               0069a8d0 f   utility.obj
 0002:001a3920       ?t_octant@@YA?AVCPoint@@HAAV1@@Z 0069a920 f   utility.obj
 0002:001a3bf0       ?Quadratic@@YAHNNNPAN0@Z   0069abf0 f   utility.obj
 0002:001a3cc0       ?FindVerticalLineEllipseIntersections@@YAHNNNPAN0@Z 0069acc0 f   utility.obj
 0002:001a3d70       ?FindLineEllipseIntersections@@YAHNNNNPAN0@Z 0069ad70 f   utility.obj
 0002:001a3e30       ?DrawArc@@YAXPAVCDC@@HHHHHH@Z 0069ae30 f   utility.obj
 0002:001a4290       ?DrawCurve@@YAXPAVCDC@@HHHHHH@Z 0069b290 f   utility.obj
 0002:001a4f90       ?GetPadElements@@YAXHHHHHHHPAHQAVmy_rect@@0QAVmy_circle@@0QAVmy_seg@@@Z 0069bf90 f   utility.obj
 0002:001a6520       ?GetClearanceBetweenSegmentAndPad@@YAHHHHHHHHHHHHH@Z 0069d520 f   utility.obj
 0002:001a6a40       ?GetClearanceBetweenSegments@@YAHHHHHHHHHHHHHHPAH0@Z 0069da40 f   utility.obj
 0002:001a79d0       ?GetClearanceBetweenPads@@YAHHHHHHHHHHHHHHH@Z 0069e9d0 f   utility.obj
 0002:001a8790       ?GetPointToLineDistance@@YANNNHHPAN0@Z 0069f790 f   utility.obj
 0002:001a88c0       ?GetPointToLineSegmentDistance@@YANHHHHHH@Z 0069f8c0 f   utility.obj
 0002:001a8d30       ?InRange@@YAHNNN@Z         0069fd30 f   utility.obj
 0002:001a8dd0       ?Distance@@YANHHHHH@Z      0069fdd0 f   utility.obj
 0002:001a90a0       ?GetArcIntersections@@YAHPAUEllipseTag@@0PAN111@Z 006a00a0 f   utility.obj
 0002:001a9710       ?GetArcClearance@@YANPAUEllipseTag@@0PAN1@Z 006a0710 f   utility.obj
 0002:001a9f50       ?SetGuidFromString@@YAXPAV?$CStringT@DV?$StrTraitMFC_DLL@DV?$ChTraitsCRT@D@ATL@@@@@ATL@@PAU_GUID@@@Z 006a0f50 f   utility.obj
 0002:001aa030       ?GetStringFromGuid@@YAXPAU_GUID@@PAV?$CStringT@DV?$StrTraitMFC_DLL@DV?$ChTraitsCRT@D@ATL@@@@@ATL@@@Z 006a1030 f   utility.obj
 0002:001aa110       ?SplitString@@YAHPAV?$CStringT@DV?$StrTraitMFC_DLL@DV?$ChTraitsCRT@D@ATL@@@@@ATL@@00DH@Z 006a1110 f   utility.obj
 0002:001aa440       ?GetReportedAngleForPart@@YAHHHH@Z 006a1440 f   utility.obj
 0002:001aa4d0       ?GetPartAngleForReportedAngle@@YAHHHH@Z 006a14d0 f   utility.obj
 0002:001aa560       ?sign@@YAHH@Z              006a1560 f   utility.obj
 0002:001aa5b0       ??$strcpy@$0BAA@@@YAPADAAY0BAA@DPBD@Z 006a15b0 f i utility.obj
 0002:001aa620       ??$strcpy@PAD@@YAPADABQADPBD@Z 006a1620 f i utility.obj
 0002:001aa680       ??0my_circle@@QAE@XZ       006a1680 f i utility.obj
 0002:001aa6c0       ??0my_circle@@QAE@HHH@Z    006a16c0 f i utility.obj
 0002:001aa720       ??0my_rect@@QAE@XZ         006a1720 f i utility.obj
 0002:001aa760       ??0my_rect@@QAE@HHHH@Z     006a1760 f i utility.obj
 0002:001aa870       ??0my_seg@@QAE@XZ          006a1870 f i utility.obj
 0002:001aa8b0       ??0my_seg@@QAE@HHHH@Z      006a18b0 f i utility.obj
 0002:001aa916       _UuidCreate@4              006a1916 f   rpcrt4:RPCRT4.dll
 0002:001aa91c       _UuidFromStringA@8         006a191c f   rpcrt4:RPCRT4.dll
 0002:001aa922       _UuidToStringA@8           006a1922 f   rpcrt4:RPCRT4.dll
 0002:001aa930       _cpdf_createPlotDomain     006a1930 f   clibpdf:cpdfDomain.obj
 0002:001aabd0       _cpdf_createTimePlotDomain 006a1bd0 f   clibpdf:cpdfDomain.obj
 0002:001aae80       _cpdf_freePlotDomain       006a1e80 f   clibpdf:cpdfDomain.obj
 0002:001aaef0       _cpdf_fillDomainWithGray   006a1ef0 f   clibpdf:cpdfDomain.obj
 0002:001aafb0       _cpdf_fillDomainWithRGBcolor 006a1fb0 f   clibpdf:cpdfDomain.obj
 0002:001ab080       _cpdf_clipDomain           006a2080 f   clibpdf:cpdfDomain.obj
 0002:001ab130       _cpdf_setPlotDomain        006a2130 f   clibpdf:cpdfDomain.obj
 0002:001ab2b0       _cpdf_setMeshColor         006a22b0 f   clibpdf:cpdfDomain.obj
 0002:001ab340       _cpdf_drawMeshForDomain    006a2340 f   clibpdf:cpdfDomain.obj
 0002:001ab3e0       __do_meshLines_X           006a23e0 f   clibpdf:cpdfDomain.obj
 0002:001abdb0       __do_meshLines_Y           006a2db0 f   clibpdf:cpdfDomain.obj
 0002:001ac2e0       _cpdf_setLinearMeshParams  006a32e0 f   clibpdf:cpdfDomain.obj
 0002:001ac390       _x_Domain2Points           006a3390 f   clibpdf:cpdfDomain.obj
 0002:001ac4f0       _y_Domain2Points           006a34f0 f   clibpdf:cpdfDomain.obj
 0002:001ac650       _y_Points2Domain           006a3650 f   clibpdf:cpdfDomain.obj
 0002:001ac7a0       _x_Points2Domain           006a37a0 f   clibpdf:cpdfDomain.obj
 0002:001ac8f0       _my_init_debug             006a38f0 f   clibpdf:cpdfInit.obj
 0002:001ac940       _cpdf_setGlobalDocumentLimits 006a3940 f   clibpdf:cpdfInit.obj
 0002:001ac9d0       _cpdf_open                 006a39d0 f   clibpdf:cpdfInit.obj
 0002:001acf80       _cpdf_enableCompression    006a3f80 f   clibpdf:cpdfInit.obj
 0002:001ad060       _cpdf_setCompressionFilter 006a4060 f   clibpdf:cpdfInit.obj
 0002:001ad1e0       _cpdf_init                 006a41e0 f   clibpdf:cpdfInit.obj
 0002:001ad3e0       _cpdf_pageInit             006a43e0 f   clibpdf:cpdfInit.obj
 0002:001ada50       _cpdf_setPageDuration      006a4a50 f   clibpdf:cpdfInit.obj
 0002:001adab0       _cpdf_setPageTransition    006a4ab0 f   clibpdf:cpdfInit.obj
 0002:001ade70       _cpdf_setCurrentPage       006a4e70 f   clibpdf:cpdfInit.obj
 0002:001ae050       _cpdf_finalizePage         006a5050 f   clibpdf:cpdfInit.obj
 0002:001ae160       _cpdf_savePDFmemoryStreamToFile 006a5160 f   clibpdf:cpdfInit.obj
 0002:001ae230       _cpdf_getBufferForPDF      006a5230 f   clibpdf:cpdfInit.obj
 0002:001ae320       __cpdf_pdfWrite            006a5320 f   clibpdf:cpdfInit.obj
 0002:001ae3f0       __cpdf_pdfBinaryWrite      006a53f0 f   clibpdf:cpdfInit.obj
 0002:001ae4b0       _cpdf_close                006a54b0 f   clibpdf:cpdfInit.obj
 0002:001ae7f0       _cpdf_finalizeAll          006a57f0 f   clibpdf:cpdfInit.obj
 0002:001af240       _cpdf_setPageSize          006a6240 f   clibpdf:cpdfInit.obj
 0002:001af420       _cpdf_setBoundingBox       006a6420 f   clibpdf:cpdfInit.obj
 0002:001af4b0       _cpdf_setMediaBox          006a64b0 f   clibpdf:cpdfInit.obj
 0002:001af590       _cpdf_setCropBox           006a6590 f   clibpdf:cpdfInit.obj
 0002:001af670       _cpdf_setCurrentMemoryStream 006a6670 f   clibpdf:cpdfInit.obj
 0002:001af6c0       _getFileSize               006a66c0 f   clibpdf:cpdfInit.obj
 0002:001af7a0       _cpdf_setViewerPreferences 006a67a0 f   clibpdf:cpdfInit.obj
 0002:001af870       __cpdf_closeContentMemStreamForPage 006a6870 f   clibpdf:cpdfInit.obj
 0002:001afb00       __cpdf_freeAllPageInfos    006a6b00 f   clibpdf:cpdfInit.obj
 0002:001afdd0       __cpdf_file_open           006a6dd0 f   clibpdf:cpdfInit.obj
 0002:001b0030       __cpdf_file_close          006a7030 f   clibpdf:cpdfInit.obj
 0002:001b00b0       __cpdf_WriteCatalogObject  006a70b0 f   clibpdf:cpdfInit.obj
 0002:001b0700       __cpdf_WriteOutlinesObject 006a7700 f   clibpdf:cpdfInit.obj
 0002:001b09d0       __cpdf_WritePagesObject    006a79d0 f   clibpdf:cpdfInit.obj
 0002:001b0ca0       __cpdf_WritePageObject     006a7ca0 f   clibpdf:cpdfInit.obj
 0002:001b14c0       __cpdf_WriteContentsFromFile 006a84c0 f   clibpdf:cpdfInit.obj
 0002:001b19d0       __cpdf_WriteContentsFromMemory 006a89d0 f   clibpdf:cpdfInit.obj
 0002:001b1db0       __cpdf_WriteProcSetArray   006a8db0 f   clibpdf:cpdfInit.obj
 0002:001b2090       __cpdf_WriteFont           006a9090 f   clibpdf:cpdfInit.obj
 0002:001b2700       __cpdf_WriteFontDescriptor 006a9700 f   clibpdf:cpdfInit.obj
 0002:001b2dd0       __cpdf_WriteDescendantFont 006a9dd0 f   clibpdf:cpdfInit.obj
 0002:001b3160       __cpdf_WriteFontData       006aa160 f   clibpdf:cpdfInit.obj
 0002:001b3530       __cpdf_WriteImage          006aa530 f   clibpdf:cpdfInit.obj
 0002:001b3ca0       __cpdf_WriteAnnotation     006aaca0 f   clibpdf:cpdfInit.obj
 0002:001b43a0       __cpdf_WriteProducerDate   006ab3a0 f   clibpdf:cpdfInit.obj
 0002:001b4790       __cpdf_WriteXrefTrailer    006ab790 f   clibpdf:cpdfInit.obj
 0002:001b4bc0       __cpdf_initDocumentStruct  006abbc0 f   clibpdf:cpdfInit.obj
 0002:001b5030       _cpdf_moveto               006ac030 f   clibpdf:cpdfDomPlot.obj
 0002:001b50b0       _cpdf_lineto               006ac0b0 f   clibpdf:cpdfDomPlot.obj
 0002:001b5130       _cpdf_rmoveto              006ac130 f   clibpdf:cpdfDomPlot.obj
 0002:001b51b0       _cpdf_rlineto              006ac1b0 f   clibpdf:cpdfDomPlot.obj
 0002:001b5230       _cpdf_curveto              006ac230 f   clibpdf:cpdfDomPlot.obj
 0002:001b5310       _cpdf_quickCircle          006ac310 f   clibpdf:cpdfDomPlot.obj
 0002:001b53e0       _cpdf_rect                 006ac3e0 f   clibpdf:cpdfDomPlot.obj
 0002:001b54f0       _cpdf_rectRotated          006ac4f0 f   clibpdf:cpdfDomPlot.obj
 0002:001b5600       _cpdf_circle               006ac600 f   clibpdf:cpdfArc.obj
 0002:001b56d0       _cpdf_arc                  006ac6d0 f   clibpdf:cpdfArc.obj
 0002:001b57b0       _cpdf_rawCircle            006ac7b0 f   clibpdf:cpdfArc.obj
 0002:001b5990       _cpdf_rawArc               006ac990 f   clibpdf:cpdfArc.obj
 0002:001b5b60       __cpdf_arc_small           006acb60 f   clibpdf:cpdfArc.obj
 0002:001b5ed0       _rotate_xyCoordinate       006aced0 f   clibpdf:cpdfArc.obj
 0002:001b5f90       _cpdf_rawMoveto            006acf90 f   clibpdf:cpdfRawPlot.obj
 0002:001b60c0       _cpdf_rawRmoveto           006ad0c0 f   clibpdf:cpdfRawPlot.obj
 0002:001b6220       _cpdf_rawLineto            006ad220 f   clibpdf:cpdfRawPlot.obj
 0002:001b6350       _cpdf_rawRlineto           006ad350 f   clibpdf:cpdfRawPlot.obj
 0002:001b64b0       _cpdf_rawCurveto           006ad4b0 f   clibpdf:cpdfRawPlot.obj
 0002:001b6640       _cpdf_rawQuickCircle       006ad640 f   clibpdf:cpdfRawPlot.obj
 0002:001b6790       _cpdf_rawRect              006ad790 f   clibpdf:cpdfRawPlot.obj
 0002:001b68f0       _cpdf_rawRectRotated       006ad8f0 f   clibpdf:cpdfRawPlot.obj
 0002:001b6a80       _cpdf_closepath            006ada80 f   clibpdf:cpdfRawPlot.obj
 0002:001b6b20       _cpdf_stroke               006adb20 f   clibpdf:cpdfRawPlot.obj
 0002:001b6bc0       _cpdf_fill                 006adbc0 f   clibpdf:cpdfRawPlot.obj
 0002:001b6c60       _cpdf_eofill               006adc60 f   clibpdf:cpdfRawPlot.obj
 0002:001b6d00       _cpdf_fillAndStroke        006add00 f   clibpdf:cpdfRawPlot.obj
 0002:001b6da0       _cpdf_eofillAndStroke      006adda0 f   clibpdf:cpdfRawPlot.obj
 0002:001b6e40       _cpdf_clip                 006ade40 f   clibpdf:cpdfRawPlot.obj
 0002:001b6ee0       _cpdf_eoclip               006adee0 f   clibpdf:cpdfRawPlot.obj
 0002:001b6f80       _cpdf_newpath              006adf80 f   clibpdf:cpdfRawPlot.obj
 0002:001b7020       _cpdf_setgray              006ae020 f   clibpdf:cpdfColor.obj
 0002:001b7090       _cpdf_setrgbcolor          006ae090 f   clibpdf:cpdfColor.obj
 0002:001b7110       _cpdf_setcmykcolor         006ae110 f   clibpdf:cpdfColor.obj
 0002:001b71a0       _cpdf_setgrayFill          006ae1a0 f   clibpdf:cpdfColor.obj
 0002:001b72a0       _cpdf_setgrayStroke        006ae2a0 f   clibpdf:cpdfColor.obj
 0002:001b73a0       _cpdf_setrgbcolorFill      006ae3a0 f   clibpdf:cpdfColor.obj
 0002:001b74c0       _cpdf_setrgbcolorStroke    006ae4c0 f   clibpdf:cpdfColor.obj
 0002:001b75e0       _cpdf_setcmykcolorFill     006ae5e0 f   clibpdf:cpdfColor.obj
 0002:001b7720       _cpdf_setcmykcolorStroke   006ae720 f   clibpdf:cpdfColor.obj
 0002:001b7860       _cpdf_gsave                006ae860 f   clibpdf:cpdfGstate.obj
 0002:001b7900       _cpdf_grestore             006ae900 f   clibpdf:cpdfGstate.obj
 0002:001b79a0       _cpdf_setdash              006ae9a0 f   clibpdf:cpdfGstate.obj
 0002:001b7a90       _cpdf_nodash               006aea90 f   clibpdf:cpdfGstate.obj
 0002:001b7af0       _cpdf_setstrokeadjust      006aeaf0 f   clibpdf:cpdfGstate.obj
 0002:001b7b20       _cpdf_concat               006aeb20 f   clibpdf:cpdfGstate.obj
 0002:001b7bc0       _cpdf_rawConcat            006aebc0 f   clibpdf:cpdfGstate.obj
 0002:001b7d30       _cpdf_rotate               006aed30 f   clibpdf:cpdfGstate.obj
 0002:001b7de0       _cpdf_translate            006aede0 f   clibpdf:cpdfGstate.obj
 0002:001b7e60       _cpdf_rawTranslate         006aee60 f   clibpdf:cpdfGstate.obj
 0002:001b7ed0       _cpdf_scale                006aeed0 f   clibpdf:cpdfGstate.obj
 0002:001b7f40       _cpdf_setflat              006aef40 f   clibpdf:cpdfGstate.obj
 0002:001b8030       _cpdf_setlinejoin          006af030 f   clibpdf:cpdfGstate.obj
 0002:001b8120       _cpdf_setlinecap           006af120 f   clibpdf:cpdfGstate.obj
 0002:001b8210       _cpdf_setmiterlimit        006af210 f   clibpdf:cpdfGstate.obj
 0002:001b8310       _cpdf_setlinewidth         006af310 f   clibpdf:cpdfGstate.obj
 0002:001b8410       __cpdf_resetTextCTM        006af410 f   clibpdf:cpdfText.obj
 0002:001b84a0       _cpdf_beginText            006af4a0 f   clibpdf:cpdfText.obj
 0002:001b8660       _cpdf_endText              006af660 f   clibpdf:cpdfText.obj
 0002:001b8810       _cpdf_text                 006af810 f   clibpdf:cpdfText.obj
 0002:001b88b0       _cpdf_rawText              006af8b0 f   clibpdf:cpdfText.obj
 0002:001b89a0       _cpdf_textAligned          006af9a0 f   clibpdf:cpdfText.obj
 0002:001b8a30       _cpdf_rawTextAligned       006afa30 f   clibpdf:cpdfText.obj
 0002:001b8c40       _cpdf_setWordSpacing       006afc40 f   clibpdf:cpdfText.obj
 0002:001b8d40       _cpdf_setCharacterSpacing  006afd40 f   clibpdf:cpdfText.obj
 0002:001b8e40       _cpdf_setHorizontalScaling 006afe40 f   clibpdf:cpdfText.obj
 0002:001b8f40       _cpdf_setTextLeading       006aff40 f   clibpdf:cpdfText.obj
 0002:001b9040       _cpdf_setTextMatrix        006b0040 f   clibpdf:cpdfText.obj
 0002:001b9200       _cpdf_concatTextMatrix     006b0200 f   clibpdf:cpdfText.obj
 0002:001b9320       _cpdf_rotateText           006b0320 f   clibpdf:cpdfText.obj
 0002:001b9410       _cpdf_skewText             006b0410 f   clibpdf:cpdfText.obj
 0002:001b94f0       _cpdf_setTextPosition      006b04f0 f   clibpdf:cpdfText.obj
 0002:001b9570       _cpdf_rawSetTextPosition   006b0570 f   clibpdf:cpdfText.obj
 0002:001b9740       _cpdf_setTextRenderingMode 006b0740 f   clibpdf:cpdfText.obj
 0002:001b9830       _cpdf_setTextRise          006b0830 f   clibpdf:cpdfText.obj
 0002:001b9930       _cpdf_rawSetNextTextLineOffset 006b0930 f   clibpdf:cpdfText.obj
 0002:001b9a40       _cpdf_setNextTextLineOffset 006b0a40 f   clibpdf:cpdfText.obj
 0002:001b9ac0       _cpdf_textCRLF             006b0ac0 f   clibpdf:cpdfText.obj
 0002:001b9b60       _cpdf_textShow             006b0b60 f   clibpdf:cpdfText.obj
 0002:001b9e80       _cpdf_textCRLFshow         006b0e80 f   clibpdf:cpdfText.obj
 0002:001ba190       _cpdf_escapeSpecialChars   006b1190 f   clibpdf:cpdfText.obj
 0002:001ba3a0       _cpdf_escapeSpecialCharsBinary 006b13a0 f   clibpdf:cpdfText.obj
 0002:001ba5a0       _cpdf_capHeight            006b15a0 f   clibpdf:cpdfFont.obj
 0002:001ba660       _cpdf_ascent               006b1660 f   clibpdf:cpdfFont.obj
 0002:001ba720       _cpdf_descent              006b1720 f   clibpdf:cpdfFont.obj
 0002:001ba7e0       _cpdf_stringWidth          006b17e0 f   clibpdf:cpdfFont.obj
 0002:001bab00       _cpdf_setFont              006b1b00 f   clibpdf:cpdfFont.obj
 0002:001bb930       __cpdf_loadExternalFont    006b2930 f   clibpdf:cpdfFont.obj
 0002:001bbd00       __isNewFont                006b2d00 f   clibpdf:cpdfFont.obj
 0002:001bbed0       __cpdf_readFontPathFromMapFile 006b2ed0 f   clibpdf:cpdfFont.obj
 0002:001bc810       _cpdf_setFontMapFile       006b3810 f   clibpdf:cpdfFont.obj
 0002:001bc880       _cpdf_setFontDirectories   006b3880 f   clibpdf:cpdfFont.obj
 0002:001bc920       __cpdf_freeAllFontInfos    006b3920 f   clibpdf:cpdfFont.obj
 0002:001bcc20       _cpdf_suggestLinearDomainParams 006b3c20 f   clibpdf:cpdfTicInt.obj
 0002:001bd150       _cpdf_suggestMinMaxForLinearDomain 006b4150 f   clibpdf:cpdfTicInt.obj
 0002:001bd230       __cpdf_inc_docID           006b4230 f   clibpdf:cpdfUtil.obj
 0002:001bd2d0       _cpdf_localtime            006b42d0 f   clibpdf:cpdfUtil.obj
 0002:001bd340       _cpdf_mktime               006b4340 f   clibpdf:cpdfUtil.obj
 0002:001bd3b0       _cpdf_setDocumentID        006b43b0 f   clibpdf:cpdfUtil.obj
 0002:001bd400       _multiplyCTM               006b4400 f   clibpdf:cpdfUtil.obj
 0002:001bd590       _getMantissaExp            006b4590 f   clibpdf:cpdfUtil.obj
 0002:001bd6b0       __cpdf_nibbleValue         006b46b0 f   clibpdf:cpdfUtil.obj
 0002:001bd760       _cpdf_convertBinaryToHex   006b4760 f   clibpdf:cpdfUtil.obj
 0002:001bd8c0       _cpdf_convertHexToBinary   006b48c0 f   clibpdf:cpdfUtil.obj
 0002:001bd9f0       _cpdf_hexStringMode        006b49f0 f   clibpdf:cpdfUtil.obj
 0002:001bda30       _cpdf_useContentMemStream  006b4a30 f   clibpdf:cpdfUtil.obj
 0002:001bda70       _cpdf_useStdout            006b4a70 f   clibpdf:cpdfUtil.obj
 0002:001bdab0       _cpdf_setCreator           006b4ab0 f   clibpdf:cpdfUtil.obj
 0002:001bdb20       _cpdf_setTitle             006b4b20 f   clibpdf:cpdfUtil.obj
 0002:001bdb90       _cpdf_setSubject           006b4b90 f   clibpdf:cpdfUtil.obj
 0002:001bdc00       _cpdf_setKeywords          006b4c00 f   clibpdf:cpdfUtil.obj
 0002:001bdc70       _cpdf_setPDFLevel          006b4c70 f   clibpdf:cpdfUtil.obj
 0002:001bdce0       _cpdf_comments             006b4ce0 f   clibpdf:cpdfUtil.obj
 0002:001bdda0       _cpdf_getOutputFilename    006b4da0 f   clibpdf:cpdfUtil.obj
 0002:001bdde0       _cpdf_setOutputFilename    006b4de0 f   clibpdf:cpdfUtil.obj
 0002:001bde70       _cpdf_setDefaultDomainUnit 006b4e70 f   clibpdf:cpdfUtil.obj
 0002:001bdeb0       _cpdf_version              006b4eb0 f   clibpdf:cpdfUtil.obj
 0002:001bdef0       _cpdf_platform             006b4ef0 f   clibpdf:cpdfUtil.obj
 0002:001bdf30       _cpdf_convertUpathToOS     006b4f30 f   clibpdf:cpdfUtil.obj
 0002:001bdfd0       _cpdf_setErrorHandler      006b4fd0 f   clibpdf:cpdfUtil.obj
 0002:001be020       _cpdf_Error                006b5020 f   clibpdf:cpdfUtil.obj
 0002:001be0c0       __cpdf_defaultErrorHandler 006b50c0 f   clibpdf:cpdfUtil.obj
 0002:001be1b0       _cpdf_setGlobalErrorHandler 006b51b0 f   clibpdf:cpdfUtil.obj
 0002:001be200       _cpdf_GlobalError          006b5200 f   clibpdf:cpdfUtil.obj
 0002:001be290       __cpdf_defaultGlobalErrorHandler 006b5290 f   clibpdf:cpdfUtil.obj
 0002:001be380       __Big_Endian               006b5380 f   clibpdf:cpdfUtil.obj
 0002:001be400       _str_append_int            006b5400 f   clibpdf:cpdfUtil.obj
 0002:001be4d0       __cpdf_malloc_check        006b54d0 f   clibpdf:cpdfUtil.obj
 0002:001be530       _timestring                006b5530 f   clibpdf:cpdfTime.obj
 0002:001be6d0       _tm_to_NumDays             006b56d0 f   clibpdf:cpdfTime.obj
 0002:001be880       _isLeapYear                006b5880 f   clibpdf:cpdfTime.obj
 0002:001be900       __printfTime               006b5900 f   clibpdf:cpdfTime.obj
 0002:001be9a0       _cpdf_createAxis           006b59a0 f   clibpdf:cpdfAxis.obj
 0002:001bed10       _cpdf_createTimeAxis       006b5d10 f   clibpdf:cpdfAxis.obj
 0002:001bf0b0       _cpdf_freeAxis             006b60b0 f   clibpdf:cpdfAxis.obj
 0002:001bf240       _cpdf_drawAxis             006b6240 f   clibpdf:cpdfAxis.obj
 0002:001bf580       _cpdf_attachAxisToDomain   006b6580 f   clibpdf:cpdfAxis.obj
 0002:001bf5d0       _cpdf_setTicNumEnable      006b65d0 f   clibpdf:cpdfAxis.obj
 0002:001bf630       _cpdf_setAxisTicNumLabelPosition 006b6630 f   clibpdf:cpdfAxis.obj
 0002:001bf6a0       _fix_trailingZeros         006b66a0 f   clibpdf:cpdfAxis.obj
 0002:001bf770       __do_oneNumber             006b6770 f   clibpdf:cpdfAxis.obj
 0002:001bfaf0       __yearFormat               006b6af0 f   clibpdf:cpdfAxis.obj
 0002:001bfba0       _cpdf_setMonthNames        006b6ba0 f   clibpdf:cpdfAxis.obj
 0002:001bfca0       __cpdf_freeMonthNames      006b6ca0 f   clibpdf:cpdfAxis.obj
 0002:001bfd40       __do_oneTimeNumber         006b6d40 f   clibpdf:cpdfAxis.obj
 0002:001c0560       __do_linearNumbers         006b7560 f   clibpdf:cpdfAxis.obj
 0002:001c0670       __do_logNumbers            006b7670 f   clibpdf:cpdfAxis.obj
 0002:001c08a0       __do_timeNumbers           006b78a0 f   clibpdf:cpdfAxis.obj
 0002:001c0b40       __bump_tm_Time             006b7b40 f   clibpdf:cpdfAxis.obj
 0002:001c0d40       __setDefaultTimeBumpVar    006b7d40 f   clibpdf:cpdfAxis.obj
 0002:001c0e80       _cpdf_suggestTimeDomainParams 006b7e80 f   clibpdf:cpdfAxis.obj
 0002:001c14d0       __bittest                  006b84d0 f   clibpdf:cpdfAxis.obj
 0002:001c1530       _cpdf_setAxisNumberFormat  006b8530 f   clibpdf:cpdfAxis.obj
 0002:001c1590       _cpdf_setAxisNumberFormat2 006b8590 f   clibpdf:cpdfAxis.obj
 0002:001c17d0       _cpdf_setTimeAxisNumberFormat 006b87d0 f   clibpdf:cpdfAxis.obj
 0002:001c1840       _cpdf_setTimeAxisNumberFormat2 006b8840 f   clibpdf:cpdfAxis.obj
 0002:001c1a00       _cpdf_setAxisLineParams    006b8a00 f   clibpdf:cpdfAxis.obj
 0002:001c1a70       __do_oneTick               006b8a70 f   clibpdf:cpdfAxis.obj
 0002:001c1b50       __do_linearTics            006b8b50 f   clibpdf:cpdfAxis.obj
 0002:001c1d10       __do_logTics               006b8d10 f   clibpdf:cpdfAxis.obj
 0002:001c1f90       __do_timeTics              006b8f90 f   clibpdf:cpdfAxis.obj
 0002:001c22c0       _cpdf_setLinearAxisParams  006b92c0 f   clibpdf:cpdfAxis.obj
 0002:001c2330       _cpdf_setLogAxisTickSelector 006b9330 f   clibpdf:cpdfAxis.obj
 0002:001c2370       _cpdf_setLogAxisNumberSelector 006b9370 f   clibpdf:cpdfAxis.obj
 0002:001c23b0       _cpdf_setAxisLabel         006b93b0 f   clibpdf:cpdfAxis.obj
 0002:001c25d0       __do_axisLabel             006b95d0 f   clibpdf:cpdfAxis.obj
 0002:001c2900       _vAxis2Points              006b9900 f   clibpdf:cpdfAxis.obj
 0002:001c2a60       _cpdf_openMemoryStream     006b9a60 f   clibpdf:cpdfMemBuf.obj
 0002:001c2b30       _cpdf_clearMemoryStream    006b9b30 f   clibpdf:cpdfMemBuf.obj
 0002:001c2bd0       _cpdf_closeMemoryStream    006b9bd0 f   clibpdf:cpdfMemBuf.obj
 0002:001c2ca0       _cpdf_writeMemoryStream    006b9ca0 f   clibpdf:cpdfMemBuf.obj
 0002:001c2e80       _cpdf_memPutc              006b9e80 f   clibpdf:cpdfMemBuf.obj
 0002:001c2f20       _cpdf_memPuts              006b9f20 f   clibpdf:cpdfMemBuf.obj
 0002:001c2f90       _cpdf_getMemoryBuffer      006b9f90 f   clibpdf:cpdfMemBuf.obj
 0002:001c3030       _cpdf_saveMemoryStreamToFile 006ba030 f   clibpdf:cpdfMemBuf.obj
 0002:001c31f0       __checkMemMagic            006ba1f0 f   clibpdf:cpdfMemBuf.obj
 0002:001c3280       _cpdf_addOutlineEntry      006ba280 f   clibpdf:cpdfOutline.obj
 0002:001c3750       _cpdf_addOutlineAction     006ba750 f   clibpdf:cpdfOutline.obj
 0002:001c3be0       __cpdf_copy_string_with_malloc 006babe0 f   clibpdf:cpdfOutline.obj
 0002:001c3c80       __cpdf_dest_attribute      006bac80 f   clibpdf:cpdfOutline.obj
 0002:001c3ff0       __cpdf_serializeOutlineEntries 006baff0 f   clibpdf:cpdfOutline.obj
 0002:001c40a0       __cpdf_WriteOutlineEntries 006bb0a0 f   clibpdf:cpdfOutline.obj
 0002:001c4140       __cpdf_WriteOneOutlineEntry 006bb140 f   clibpdf:cpdfOutline.obj
 0002:001c4600       __cpdf_freeAllOutlineEntries 006bb600 f   clibpdf:cpdfOutline.obj
 0002:001c4700       _cpdf_setAnnotation        006bb700 f   clibpdf:cpdfAnnot.obj
 0002:001c47c0       _cpdf_setActionURL         006bb7c0 f   clibpdf:cpdfAnnot.obj
 0002:001c4880       _cpdf_setLinkGoToPage      006bb880 f   clibpdf:cpdfAnnot.obj
 0002:001c4940       _cpdf_setLinkAction        006bb940 f   clibpdf:cpdfAnnot.obj
 0002:001c4a00       _cpdf_includeTextFileAsAnnotation 006bba00 f   clibpdf:cpdfAnnot.obj
 0002:001c4ac0       _cpdf_rawSetAnnotation     006bbac0 f   clibpdf:cpdfAnnot.obj
 0002:001c5300       _cpdf_rawSetActionURL      006bc300 f   clibpdf:cpdfAnnot.obj
 0002:001c57c0       _cpdf_rawSetLinkGoToPage   006bc7c0 f   clibpdf:cpdfAnnot.obj
 0002:001c5c30       _cpdf_rawSetLinkAction     006bcc30 f   clibpdf:cpdfAnnot.obj
 0002:001c60f0       _cpdf_rawIncludeTextFileAsAnnotation 006bd0f0 f   clibpdf:cpdfAnnot.obj
 0002:001c62e0       __cpdf_freeAllAnnotInfos   006bd2e0 f   clibpdf:cpdfAnnot.obj
 0002:001c6420       _cpdf_importImage          006bd420 f   clibpdf:cpdfImage.obj
 0002:001c64d0       _cpdf_rawImportImage       006bd4d0 f   clibpdf:cpdfImage.obj
 0002:001c7030       __isNewImage               006be030 f   clibpdf:cpdfImage.obj
 0002:001c7120       _cpdf_selectImage          006be120 f   clibpdf:cpdfImage.obj
 0002:001c7180       __cpdf_freeAllImageInfos   006be180 f   clibpdf:cpdfImage.obj
 0002:001c72b0       _cpdf_readTIFFheader       006be2b0 f   clibpdf:cpdfImage.obj
 0002:001c7310       _cpdf_readTIFFimageData    006be310 f   clibpdf:cpdfImage.obj
 0002:001c7350       _cpdf_readPDFimageHeader   006be350 f   clibpdf:cpdfImage.obj
 0002:001c73b0       __cpdf_copyPDFimageHeader  006be3b0 f   clibpdf:cpdfImage.obj
 0002:001c73f0       _cpdf_readPDFimageData     006be3f0 f   clibpdf:cpdfImage.obj
 0002:001c7430       _compress2                 006be430 f   clibpdf:compress.obj
 0002:001c75a0       _compress                  006be5a0 f   clibpdf:compress.obj
 0002:001c7600       __cpdf_readPFB             006be600 f   clibpdf:cpdfReadPFB.obj
 0002:001c7d80       __cpdf_readPFM             006bed80 f   clibpdf:cpdfReadPFM.obj
 0002:001c83e0       __cpdf_readPFM_Header      006bf3e0 f   clibpdf:cpdfReadPFM.obj
 0002:001c8b50       __cpdf_readPFM_Extension   006bfb50 f   clibpdf:cpdfReadPFM.obj
 0002:001c8e50       __cpdf_byteRevPFM_Header   006bfe50 f   clibpdf:cpdfReadPFM.obj
 0002:001c9180       __cpdf_byteRevPFM_Extension 006c0180 f   clibpdf:cpdfReadPFM.obj
 0002:001c9320       _LbyteRev                  006c0320 f   clibpdf:cpdfReadPFM.obj
 0002:001c93a0       _SbyteRev                  006c03a0 f   clibpdf:cpdfReadPFM.obj
 0002:001c9400       _read_JPEG_header          006c0400 f   clibpdf:jpegsize.obj
 0002:001c9b40       _deflateInit_              006c0b40 f   clibpdf:deflate.obj
 0002:001c9bb0       _deflateInit2_             006c0bb0 f   clibpdf:deflate.obj
 0002:001c9fc0       _deflateSetDictionary      006c0fc0 f   clibpdf:deflate.obj
 0002:001ca1f0       _deflateReset              006c11f0 f   clibpdf:deflate.obj
 0002:001ca330       _deflateParams             006c1330 f   clibpdf:deflate.obj
 0002:001ca4c0       _deflate                   006c14c0 f   clibpdf:deflate.obj
 0002:001cab20       _deflateEnd                006c1b20 f   clibpdf:deflate.obj
 0002:001cacf0       _deflateCopy               006c1cf0 f   clibpdf:deflate.obj
 0002:001ccc70       _zlibVersion               006c3c70 f   clibpdf:zutil.obj
 0002:001cccb0       _zError                    006c3cb0 f   clibpdf:zutil.obj
 0002:001ccd00       _zcalloc                   006c3d00 f   clibpdf:zutil.obj
 0002:001ccd80       _zcfree                    006c3d80 f   clibpdf:zutil.obj
 0002:001ccde0       _adler32                   006c3de0 f   clibpdf:adler32.obj
 0002:001cd0e0       __tr_init                  006c40e0 f   clibpdf:trees.obj
 0002:001cd330       __tr_stored_block          006c4330 f   clibpdf:trees.obj
 0002:001cd4f0       __tr_align                 006c44f0 f   clibpdf:trees.obj
 0002:001cdb10       __tr_flush_block           006c4b10 f   clibpdf:trees.obj
 0002:001d03c0       __tr_tally                 006c73c0 f   clibpdf:trees.obj
 0002:001d154e       ??3@YAXPAX@Z               006c854e f   mfc100d:mfc100d.dll
 0002:001d1554       ??1?$CStringT@DV?$StrTraitMFC_DLL@DV?$ChTraitsCRT@D@ATL@@@@@ATL@@QAE@XZ 006c8554 f   mfc100d:mfc100d.dll
 0002:001d155a       ??0?$CStringT@DV?$StrTraitMFC_DLL@DV?$ChTraitsCRT@D@ATL@@@@@ATL@@QAE@XZ 006c855a f   mfc100d:mfc100d.dll
 0002:001d1560       ??0CPtrList@@QAE@H@Z       006c8560 f   mfc100d:mfc100d.dll
 0002:001d1566       ??1CPtrList@@UAE@XZ        006c8566 f   mfc100d:mfc100d.dll
 0002:001d156c       ?RemoveHead@CPtrList@@QAEPAXXZ 006c856c f   mfc100d:mfc100d.dll
 0002:001d1572       ?GetHead@CPtrList@@QAEAAPAXXZ 006c8572 f   mfc100d:mfc100d.dll
 0002:001d1578       ?IsEmpty@CPtrList@@QBEHXZ  006c8578 f   mfc100d:mfc100d.dll
 0002:001d157e       ?RemoveAt@CPtrList@@QAEXPAU__POSITION@@@Z 006c857e f   mfc100d:mfc100d.dll
 0002:001d1584       ?Find@CPtrList@@QBEPAU__POSITION@@PAXPAU2@@Z 006c8584 f   mfc100d:mfc100d.dll
 0002:001d158a       ??3@YAXPAXPBDH@Z           006c858a f   mfc100d:mfc100d.dll
 0002:001d1590       ?AddTail@CPtrList@@QAEPAU__POSITION@@PAX@Z 006c8590 f   mfc100d:mfc100d.dll
 0002:001d1596       ??4?$CStringT@DV?$StrTraitMFC_DLL@DV?$ChTraitsCRT@D@ATL@@@@@ATL@@QAEAAV01@ABV01@@Z 006c8596 f   mfc100d:mfc100d.dll
 0002:001d159c       ??2@YAPAXIPBDH@Z           006c859c f   mfc100d:mfc100d.dll
 0002:001d15a2       ?GetNext@CPtrList@@QAEAAPAXAAPAU__POSITION@@@Z 006c85a2 f   mfc100d:mfc100d.dll
 0002:001d15a8       ?GetHeadPosition@CPtrList@@QBEPAU__POSITION@@XZ 006c85a8 f   mfc100d:mfc100d.dll
 0002:001d15ae       ?AfxThrowInvalidArgException@@YGXXZ 006c85ae f   mfc100d:mfc100d.dll
 0002:001d15b4       ?Ellipse@CDC@@QAEHPBUtagRECT@@@Z 006c85b4 f   mfc100d:mfc100d.dll
 0002:001d15ba       ?CreatePen@CPen@@QAEHHHK@Z 006c85ba f   mfc100d:mfc100d.dll
 0002:001d15c0       ??0CPen@@QAE@XZ            006c85c0 f   mfc100d:mfc100d.dll
 0002:001d15c6       ?SetPixel@CDC@@QAEKHHK@Z   006c85c6 f   mfc100d:mfc100d.dll
 0002:001d15cc       ??1CBrush@@UAE@XZ          006c85cc f   mfc100d:mfc100d.dll
 0002:001d15d2       ?Polygon@CDC@@QAEHPBUtagPOINT@@H@Z 006c85d2 f   mfc100d:mfc100d.dll
 0002:001d15d8       ?RoundRect@CDC@@QAEHHHHHHH@Z 006c85d8 f   mfc100d:mfc100d.dll
 0002:001d15de       ?Rectangle@CDC@@QAEHHHHH@Z 006c85de f   mfc100d:mfc100d.dll
 0002:001d15e4       ?Polyline@CDC@@QAEHPBUtagPOINT@@H@Z 006c85e4 f   mfc100d:mfc100d.dll
 0002:001d15ea       ?LineTo@CDC@@QAEHHH@Z      006c85ea f   mfc100d:mfc100d.dll
 0002:001d15f0       ?MoveTo@CDC@@QAE?AVCPoint@@HH@Z 006c85f0 f   mfc100d:mfc100d.dll
 0002:001d15f6       ?Ellipse@CDC@@QAEHHHHH@Z   006c85f6 f   mfc100d:mfc100d.dll
 0002:001d15fc       ?SelectObject@CDC@@QAEPAXPAX@Z 006c85fc f   mfc100d:mfc100d.dll
 0002:001d1602       ??BCGdiObject@@QBEPAXXZ    006c8602 f   mfc100d:mfc100d.dll
 0002:001d1608       ?SetROP2@CDC@@QAEHH@Z      006c8608 f   mfc100d:mfc100d.dll
 0002:001d160e       ?BitBlt@CDC@@QAEHHHHHPAV1@HHK@Z 006c860e f   mfc100d:mfc100d.dll
 0002:001d1614       ??1CPen@@UAE@XZ            006c8614 f   mfc100d:mfc100d.dll
 0002:001d161a       ?LineTo@CDC@@QAEHUtagPOINT@@@Z 006c861a f   mfc100d:mfc100d.dll
 0002:001d1620       ?MoveTo@CDC@@QAE?AVCPoint@@UtagPOINT@@@Z 006c8620 f   mfc100d:mfc100d.dll
 0002:001d1626       ?Rectangle@CDC@@QAEHPBUtagRECT@@@Z 006c8626 f   mfc100d:mfc100d.dll
 0002:001d162c       ?GetBkMode@CDC@@QBEHXZ     006c862c f   mfc100d:mfc100d.dll
 0002:001d1632       ?SelectObject@CDC@@QAEPAVCBrush@@PAV2@@Z 006c8632 f   mfc100d:mfc100d.dll
 0002:001d1638       ?SelectObject@CDC@@QAEPAVCPen@@PAV2@@Z 006c8638 f   mfc100d:mfc100d.dll
 0002:001d163e       ??0CPen@@QAE@HHK@Z         006c863e f   mfc100d:mfc100d.dll
 0002:001d1644       ??0CBrush@@QAE@K@Z         006c8644 f   mfc100d:mfc100d.dll
 0002:001d164a       ?GetROP2@CDC@@QBEHXZ       006c864a f   mfc100d:mfc100d.dll
 0002:001d1650       ?SetWindowOrg@CDC@@QAE?AVCPoint@@HH@Z 006c8650 f   mfc100d:mfc100d.dll
 0002:001d1656       ??0CObject@@IAE@XZ         006c8656 f   mfc100d:mfc100d.dll
 0002:001d165c       ?GetRuntimeClass@CObject@@UBEPAUCRuntimeClass@@XZ 006c865c f   mfc100d:mfc100d.dll
 0002:001d1662       ??1CObject@@UAE@XZ         006c8662 f   mfc100d:mfc100d.dll
 0002:001d1668       ??_V@YAXPAX@Z              006c8668 f   mfc100d:mfc100d.dll
 0002:001d166e       ?AfxAssertValidObject@@YGXPBVCObject@@PBDH@Z 006c866e f   mfc100d:mfc100d.dll
 0002:001d1674       ?ReadCount@CArchive@@QAEKXZ 006c8674 f   mfc100d:mfc100d.dll
 0002:001d167a       ?WriteCount@CArchive@@QAEXK@Z 006c867a f   mfc100d:mfc100d.dll
 0002:001d1680       ?IsStoring@CArchive@@QBEHXZ 006c8680 f   mfc100d:mfc100d.dll
 0002:001d1686       ?Serialize@CObject@@UAEXAAVCArchive@@@Z 006c8686 f   mfc100d:mfc100d.dll
 0002:001d168c       ?GetDepth@CDumpContext@@QBEHXZ 006c868c f   mfc100d:mfc100d.dll
 0002:001d1692       ??6CDumpContext@@QAEAAV0@H@Z 006c8692 f   mfc100d:mfc100d.dll
 0002:001d1698       ??6CDumpContext@@QAEAAV0@PBD@Z 006c8698 f   mfc100d:mfc100d.dll
 0002:001d169e       ?Dump@CObject@@UBEXAAVCDumpContext@@@Z 006c869e f   mfc100d:mfc100d.dll
 0002:001d16a4       ?AfxIsValidAddress@@YGHPBXIH@Z 006c86a4 f   mfc100d:mfc100d.dll
 0002:001d16aa       ?AssertValid@CObject@@UBEXXZ 006c86aa f   mfc100d:mfc100d.dll
 0002:001d16b0       ??3CObject@@SGXPAX@Z       006c86b0 f   mfc100d:mfc100d.dll
 0002:001d16b6       ??_U@YAPAXI@Z              006c86b6 f   mfc100d:mfc100d.dll
 0002:001d16bc       ??_U@YAPAXIPBDH@Z          006c86bc f   mfc100d:mfc100d.dll
 0002:001d16c2       ?AfxThrowMemoryException@@YGXXZ 006c86c2 f   mfc100d:mfc100d.dll
 0002:001d16c8       ?EnsureRead@CArchive@@QAEXPAXI@Z 006c86c8 f   mfc100d:mfc100d.dll
 0002:001d16ce       ?Write@CArchive@@QAEXPBXI@Z 006c86ce f   mfc100d:mfc100d.dll
 0002:001d16d4       ?GetThisMessageMap@CDialog@@KGPBUAFX_MSGMAP@@XZ 006c86d4 f   mfc100d:mfc100d.dll
 0002:001d16da       ?GetThisClass@CDialog@@SGPAUCRuntimeClass@@XZ 006c86da f   mfc100d:mfc100d.dll
 0002:001d16e0       ??1CButton@@UAE@XZ         006c86e0 f   mfc100d:mfc100d.dll
 0002:001d16e6       ??1CComboBox@@UAE@XZ       006c86e6 f   mfc100d:mfc100d.dll
 0002:001d16ec       ??1CDialog@@UAE@XZ         006c86ec f   mfc100d:mfc100d.dll
 0002:001d16f2       ??0CButton@@QAE@XZ         006c86f2 f   mfc100d:mfc100d.dll
 0002:001d16f8       ??0CComboBox@@QAE@XZ       006c86f8 f   mfc100d:mfc100d.dll
 0002:001d16fe       ??0CDialog@@QAE@IPAVCWnd@@@Z 006c86fe f   mfc100d:mfc100d.dll
 0002:001d1704       ?AssertValid@CDialog@@UBEXXZ 006c8704 f   mfc100d:mfc100d.dll
 0002:001d170a       ?Dump@CDialog@@UBEXAAVCDumpContext@@@Z 006c870a f   mfc100d:mfc100d.dll
 0002:001d1710       ?OnCmdMsg@CDialog@@UAEHIHPAXPAUAFX_CMDHANDLERINFO@@@Z 006c8710 f   mfc100d:mfc100d.dll
 0002:001d1716       ?OnFinalRelease@CWnd@@UAEXXZ 006c8716 f   mfc100d:mfc100d.dll
 0002:001d171c       ?IsInvokeAllowed@CCmdTarget@@UAEHJ@Z 006c871c f   mfc100d:mfc100d.dll
 0002:001d1722       ?GetDispatchIID@CCmdTarget@@UAEHPAU_GUID@@@Z 006c8722 f   mfc100d:mfc100d.dll
 0002:001d1728       ?GetTypeInfoCount@CCmdTarget@@UAEIXZ 006c8728 f   mfc100d:mfc100d.dll
 0002:001d172e       ?GetTypeLibCache@CCmdTarget@@UAEPAVCTypeLibCache@@XZ 006c872e f   mfc100d:mfc100d.dll
 0002:001d1734       ?GetTypeLib@CCmdTarget@@UAEJKPAPAUITypeLib@@@Z 006c8734 f   mfc100d:mfc100d.dll
 0002:001d173a       ?GetCommandMap@CCmdTarget@@MBEPBUAFX_OLECMDMAP@@XZ 006c873a f   mfc100d:mfc100d.dll
 0002:001d1740       ?GetDispatchMap@CCmdTarget@@MBEPBUAFX_DISPMAP@@XZ 006c8740 f   mfc100d:mfc100d.dll
 0002:001d1746       ?GetConnectionMap@CCmdTarget@@MBEPBUAFX_CONNECTIONMAP@@XZ 006c8746 f   mfc100d:mfc100d.dll
 0002:001d174c       ?GetInterfaceMap@CWnd@@MBEPBUAFX_INTERFACEMAP@@XZ 006c874c f   mfc100d:mfc100d.dll
 0002:001d1752       ?GetEventSinkMap@CCmdTarget@@MBEPBUAFX_EVENTSINKMAP@@XZ 006c8752 f   mfc100d:mfc100d.dll
 0002:001d1758       ?OnCreateAggregates@CCmdTarget@@UAEHXZ 006c8758 f   mfc100d:mfc100d.dll
 0002:001d175e       ?GetInterfaceHook@CCmdTarget@@UAEPAUIUnknown@@PBX@Z 006c875e f   mfc100d:mfc100d.dll
 0002:001d1764       ?GetExtraConnectionPoints@CCmdTarget@@MAEHPAVCPtrArray@@@Z 006c8764 f   mfc100d:mfc100d.dll
 0002:001d176a       ?GetConnectionHook@CCmdTarget@@MAEPAUIConnectionPoint@@ABU_GUID@@@Z 006c876a f   mfc100d:mfc100d.dll
 0002:001d1770       ?PreSubclassWindow@CWnd@@UAEXXZ 006c8770 f   mfc100d:mfc100d.dll
 0002:001d1776       ?Create@CWnd@@UAEHPBD0KABUtagRECT@@PAV1@IPAUCCreateContext@@@Z 006c8776 f   mfc100d:mfc100d.dll
 0002:001d177c       ?CreateEx@CWnd@@UAEHKPBD0KABUtagRECT@@PAV1@IPAX@Z 006c877c f   mfc100d:mfc100d.dll
 0002:001d1782       ?CreateEx@CWnd@@UAEHKPBD0KHHHHPAUHWND__@@PAUHMENU__@@PAX@Z 006c8782 f   mfc100d:mfc100d.dll
 0002:001d1788       ?DestroyWindow@CWnd@@UAEHXZ 006c8788 f   mfc100d:mfc100d.dll
 0002:001d178e       ?PreCreateWindow@CWnd@@UAEHAAUtagCREATESTRUCTA@@@Z 006c878e f   mfc100d:mfc100d.dll
 0002:001d1794       ?CalcWindowRect@CWnd@@UAEXPAUtagRECT@@I@Z 006c8794 f   mfc100d:mfc100d.dll
 0002:001d179a       ?GetMenu@CWnd@@UBEPAVCMenu@@XZ 006c879a f   mfc100d:mfc100d.dll
 0002:001d17a0       ?SetMenu@CWnd@@UAEHPAVCMenu@@@Z 006c87a0 f   mfc100d:mfc100d.dll
 0002:001d17a6       ?OnToolHitTest@CWnd@@UBEHVCPoint@@PAUtagTOOLINFOA@@@Z 006c87a6 f   mfc100d:mfc100d.dll
 0002:001d17ac       ?GetScrollBarCtrl@CWnd@@UBEPAVCScrollBar@@H@Z 006c87ac f   mfc100d:mfc100d.dll
 0002:001d17b2       ?WinHelpA@CWnd@@UAEXKI@Z   006c87b2 f   mfc100d:mfc100d.dll
 0002:001d17b8       ?HtmlHelpA@CWnd@@UAEXKI@Z  006c87b8 f   mfc100d:mfc100d.dll
 0002:001d17be       ?WinHelpInternal@CWnd@@UAEXKI@Z 006c87be f   mfc100d:mfc100d.dll
 0002:001d17c4       ?ContinueModal@CWnd@@UAEHXZ 006c87c4 f   mfc100d:mfc100d.dll
 0002:001d17ca       ?EndModalLoop@CWnd@@UAEXH@Z 006c87ca f   mfc100d:mfc100d.dll
 0002:001d17d0       ?OnDrawIconicThumbnailOrLivePreview@CWnd@@UAEXAAVCDC@@VCRect@@VCSize@@HAAH@Z 006c87d0 f   mfc100d:mfc100d.dll
 0002:001d17d6       ?EnsureStdObj@CWnd@@UAEJXZ 006c87d6 f   mfc100d:mfc100d.dll
 0002:001d17dc       ?get_accParent@CWnd@@UAEJPAPAUIDispatch@@@Z 006c87dc f   mfc100d:mfc100d.dll
 0002:001d17e2       ?get_accChildCount@CWnd@@UAEJPAJ@Z 006c87e2 f   mfc100d:mfc100d.dll
 0002:001d17e8       ?get_accChild@CWnd@@UAEJUtagVARIANT@@PAPAUIDispatch@@@Z 006c87e8 f   mfc100d:mfc100d.dll
 0002:001d17ee       ?get_accName@CWnd@@UAEJUtagVARIANT@@PAPA_W@Z 006c87ee f   mfc100d:mfc100d.dll
 0002:001d17f4       ?get_accValue@CWnd@@UAEJUtagVARIANT@@PAPA_W@Z 006c87f4 f   mfc100d:mfc100d.dll
 0002:001d17fa       ?get_accDescription@CWnd@@UAEJUtagVARIANT@@PAPA_W@Z 006c87fa f   mfc100d:mfc100d.dll
 0002:001d1800       ?get_accRole@CWnd@@UAEJUtagVARIANT@@PAU2@@Z 006c8800 f   mfc100d:mfc100d.dll
 0002:001d1806       ?get_accState@CWnd@@UAEJUtagVARIANT@@PAU2@@Z 006c8806 f   mfc100d:mfc100d.dll
 0002:001d180c       ?get_accHelp@CWnd@@UAEJUtagVARIANT@@PAPA_W@Z 006c880c f   mfc100d:mfc100d.dll
 0002:001d1812       ?get_accHelpTopic@CWnd@@UAEJPAPA_WUtagVARIANT@@PAJ@Z 006c8812 f   mfc100d:mfc100d.dll
 0002:001d1818       ?get_accKeyboardShortcut@CWnd@@UAEJUtagVARIANT@@PAPA_W@Z 006c8818 f   mfc100d:mfc100d.dll
 0002:001d181e       ?get_accFocus@CWnd@@UAEJPAUtagVARIANT@@@Z 006c881e f   mfc100d:mfc100d.dll
 0002:001d1824       ?get_accSelection@CWnd@@UAEJPAUtagVARIANT@@@Z 006c8824 f   mfc100d:mfc100d.dll
 0002:001d182a       ?get_accDefaultAction@CWnd@@UAEJUtagVARIANT@@PAPA_W@Z 006c882a f   mfc100d:mfc100d.dll
 0002:001d1830       ?accSelect@CWnd@@UAEJJUtagVARIANT@@@Z 006c8830 f   mfc100d:mfc100d.dll
 0002:001d1836       ?accLocation@CWnd@@UAEJPAJ000UtagVARIANT@@@Z 006c8836 f   mfc100d:mfc100d.dll
 0002:001d183c       ?accNavigate@CWnd@@UAEJJUtagVARIANT@@PAU2@@Z 006c883c f   mfc100d:mfc100d.dll
 0002:001d1842       ?accHitTest@CWnd@@UAEJJJPAUtagVARIANT@@@Z 006c8842 f   mfc100d:mfc100d.dll
 0002:001d1848       ?accDoDefaultAction@CWnd@@UAEJUtagVARIANT@@@Z 006c8848 f   mfc100d:mfc100d.dll
 0002:001d184e       ?put_accName@CWnd@@UAEJUtagVARIANT@@PA_W@Z 006c884e f   mfc100d:mfc100d.dll
 0002:001d1854       ?put_accValue@CWnd@@UAEJUtagVARIANT@@PA_W@Z 006c8854 f   mfc100d:mfc100d.dll
 0002:001d185a       ?SetProxy@CWnd@@UAEJPAUIAccessibleProxy@@@Z 006c885a f   mfc100d:mfc100d.dll
 0002:001d1860       ?CreateAccessibleProxy@CWnd@@UAEJIJPAJ@Z 006c8860 f   mfc100d:mfc100d.dll
 0002:001d1866       ?OnCommand@CWnd@@MAEHIJ@Z  006c8866 f   mfc100d:mfc100d.dll
 0002:001d186c       ?OnNotify@CWnd@@MAEHIJPAJ@Z 006c886c f   mfc100d:mfc100d.dll
 0002:001d1872       ?GetSuperWndProcAddr@CWnd@@MAEPAP6GJPAUHWND__@@IIJ@ZXZ 006c8872 f   mfc100d:mfc100d.dll
 0002:001d1878       ?BeginModalState@CWnd@@UAEXXZ 006c8878 f   mfc100d:mfc100d.dll
 0002:001d187e       ?EndModalState@CWnd@@UAEXXZ 006c887e f   mfc100d:mfc100d.dll
 0002:001d1884       ?PreTranslateMessage@CDialog@@UAEHPAUtagMSG@@@Z 006c8884 f   mfc100d:mfc100d.dll
 0002:001d188a       ?OnAmbientProperty@CWnd@@UAEHPAVCOleControlSite@@JPAUtagVARIANT@@@Z 006c888a f   mfc100d:mfc100d.dll
 0002:001d1890       ?WindowProc@CWnd@@MAEJIIJ@Z 006c8890 f   mfc100d:mfc100d.dll
 0002:001d1896       ?OnWndMsg@CWnd@@MAEHIIJPAJ@Z 006c8896 f   mfc100d:mfc100d.dll
 0002:001d189c       ?DefWindowProcA@CWnd@@MAEJIIJ@Z 006c889c f   mfc100d:mfc100d.dll
 0002:001d18a2       ?PostNcDestroy@CWnd@@MAEXXZ 006c88a2 f   mfc100d:mfc100d.dll
 0002:001d18a8       ?OnChildNotify@CWnd@@MAEHIIJPAJ@Z 006c88a8 f   mfc100d:mfc100d.dll
 0002:001d18ae       ?OnTouchInputs@CWnd@@MAEHIPAUtagTOUCHINPUT@@@Z 006c88ae f   mfc100d:mfc100d.dll
 0002:001d18b4       ?OnTouchInput@CWnd@@MAEHVCPoint@@HHPAUtagTOUCHINPUT@@@Z 006c88b4 f   mfc100d:mfc100d.dll
 0002:001d18ba       ?GetGestureStatus@CWnd@@MAEKVCPoint@@@Z 006c88ba f   mfc100d:mfc100d.dll
 0002:001d18c0       ?OnGestureZoom@CWnd@@MAEHVCPoint@@J@Z 006c88c0 f   mfc100d:mfc100d.dll
 0002:001d18c6       ?OnGesturePan@CWnd@@MAEHVCPoint@@0@Z 006c88c6 f   mfc100d:mfc100d.dll
 0002:001d18cc       ?OnGestureRotate@CWnd@@MAEHVCPoint@@N@Z 006c88cc f   mfc100d:mfc100d.dll
 0002:001d18d2       ?OnGestureTwoFingerTap@CWnd@@MAEHVCPoint@@@Z 006c88d2 f   mfc100d:mfc100d.dll
 0002:001d18d8       ?OnGesturePressAndTap@CWnd@@MAEHVCPoint@@J@Z 006c88d8 f   mfc100d:mfc100d.dll
 0002:001d18de       ?CheckAutoCenter@CDialog@@UAEHXZ 006c88de f   mfc100d:mfc100d.dll
 0002:001d18e4       ?IsFrameWnd@CWnd@@UBEHXZ   006c88e4 f   mfc100d:mfc100d.dll
 0002:001d18ea       ?CreateControlContainer@CWnd@@MAEHPAPAVCOleControlContainer@@@Z 006c88ea f   mfc100d:mfc100d.dll
 0002:001d18f0       ?CreateControlSite@CWnd@@MAEHPAVCOleControlContainer@@PAPAVCOleControlSite@@IABU_GUID@@@Z 006c88f0 f   mfc100d:mfc100d.dll
 0002:001d18f6       ?SetOccDialogInfo@CDialog@@MAEHPAU_AFX_OCC_DIALOG_INFO@@@Z 006c88f6 f   mfc100d:mfc100d.dll
 0002:001d18fc       ?GetOccDialogInfo@CDialog@@MAEPAU_AFX_OCC_DIALOG_INFO@@XZ 006c88fc f   mfc100d:mfc100d.dll
 0002:001d1902       ?Create@CDialog@@UAEHIPAVCWnd@@@Z 006c8902 f   mfc100d:mfc100d.dll
 0002:001d1908       ?Create@CDialog@@UAEHPBDPAVCWnd@@@Z 006c8908 f   mfc100d:mfc100d.dll
 0002:001d190e       ?CreateIndirect@CDialog@@UAEHPAXPAVCWnd@@@Z 006c890e f   mfc100d:mfc100d.dll
 0002:001d1914       ?CreateIndirect@CDialog@@UAEHPBUDLGTEMPLATE@@PAVCWnd@@PAX@Z 006c8914 f   mfc100d:mfc100d.dll
 0002:001d191a       ?DoModal@CDialog@@UAEHXZ   006c891a f   mfc100d:mfc100d.dll
 0002:001d1920       ?OnInitDialog@CDialog@@UAEHXZ 006c8920 f   mfc100d:mfc100d.dll
 0002:001d1926       ?OnSetFont@CDialog@@UAEXPAVCFont@@@Z 006c8926 f   mfc100d:mfc100d.dll
 0002:001d192c       ?OnOK@CDialog@@MAEXXZ      006c892c f   mfc100d:mfc100d.dll
 0002:001d1932       ?OnCancel@CDialog@@MAEXXZ  006c8932 f   mfc100d:mfc100d.dll
 0002:001d1938       ?PreInitDialog@CDialog@@MAEXXZ 006c8938 f   mfc100d:mfc100d.dll
 0002:001d193e       ?GetCheck@CButton@@QBEHXZ  006c893e f   mfc100d:mfc100d.dll
 0002:001d1944       ?GetCurSel@CComboBox@@QBEHXZ 006c8944 f   mfc100d:mfc100d.dll
 0002:001d194a       ?SetCheck@CButton@@QAEXH@Z 006c894a f   mfc100d:mfc100d.dll
 0002:001d1950       ?SetCurSel@CComboBox@@QAEHH@Z 006c8950 f   mfc100d:mfc100d.dll
 0002:001d1956       ?InsertString@CComboBox@@QAEHHPBD@Z 006c8956 f   mfc100d:mfc100d.dll
 0002:001d195c       ?DDX_Control@@YGXPAVCDataExchange@@HAAVCWnd@@@Z 006c895c f   mfc100d:mfc100d.dll
 0002:001d1962       ?DoDataExchange@CWnd@@MAEXPAVCDataExchange@@@Z 006c8962 f   mfc100d:mfc100d.dll
 0002:001d1968       ??1CEdit@@UAE@XZ           006c8968 f   mfc100d:mfc100d.dll
 0002:001d196e       ??4?$CStringT@DV?$StrTraitMFC_DLL@DV?$ChTraitsCRT@D@ATL@@@@@ATL@@QAEAAV01@PBD@Z 006c896e f   mfc100d:mfc100d.dll
 0002:001d1974       ??0CEdit@@QAE@XZ           006c8974 f   mfc100d:mfc100d.dll
 0002:001d197a       ?SetWindowTextA@CWnd@@QAEXPBD@Z 006c897a f   mfc100d:mfc100d.dll
 0002:001d1980       ??B?$CSimpleStringT@D$00@ATL@@QBEPBDXZ 006c8980 f   mfc100d:mfc100d.dll
 0002:001d1986       ?AddString@CComboBox@@QAEHPBD@Z 006c8986 f   mfc100d:mfc100d.dll
 0002:001d198c       ?Format@?$CStringT@DV?$StrTraitMFC_DLL@DV?$ChTraitsCRT@D@ATL@@@@@ATL@@QAAXPBDZZ 006c898c f   mfc100d:mfc100d.dll
 0002:001d1992       ??0?$CStringT@DV?$StrTraitMFC_DLL@DV?$ChTraitsCRT@D@ATL@@@@@ATL@@QAE@ABV01@@Z 006c8992 f   mfc100d:mfc100d.dll
 0002:001d1998       ?GetLength@?$CSimpleStringT@D$00@ATL@@QBEHXZ 006c8998 f   mfc100d:mfc100d.dll
 0002:001d199e       ??Y?$CStringT@DV?$StrTraitMFC_DLL@DV?$ChTraitsCRT@D@ATL@@@@@ATL@@QAEAAV01@PBD@Z 006c899e f   mfc100d:mfc100d.dll
 0002:001d19a4       ??0?$CStringT@DV?$StrTraitMFC_DLL@DV?$ChTraitsCRT@D@ATL@@@@@ATL@@QAE@PBD@Z 006c89a4 f   mfc100d:mfc100d.dll
 0002:001d19aa       ?Left@?$CStringT@DV?$StrTraitMFC_DLL@DV?$ChTraitsCRT@D@ATL@@@@@ATL@@QBE?AV12@H@Z 006c89aa f   mfc100d:mfc100d.dll
 0002:001d19b0       ?Fail@CDataExchange@@QAEXXZ 006c89b0 f   mfc100d:mfc100d.dll
 0002:001d19b6       ?AfxMessageBox@@YGHPBDII@Z 006c89b6 f   mfc100d:mfc100d.dll
 0002:001d19bc       ?Find@?$CStringT@DV?$StrTraitMFC_DLL@DV?$ChTraitsCRT@D@ATL@@@@@ATL@@QBEHPBDH@Z 006c89bc f   mfc100d:mfc100d.dll
 0002:001d19c2       ?GetWindowTextA@CWnd@@QBEXAAV?$CStringT@DV?$StrTraitMFC_DLL@DV?$ChTraitsCRT@D@ATL@@@@@ATL@@@Z 006c89c2 f   mfc100d:mfc100d.dll
 0002:001d19c8       ?Compare@?$CStringT@DV?$StrTraitMFC_DLL@DV?$ChTraitsCRT@D@ATL@@@@@ATL@@QBEHPBD@Z 006c89c8 f   mfc100d:mfc100d.dll
 0002:001d19ce       ??1CStatic@@UAE@XZ         006c89ce f   mfc100d:mfc100d.dll
 0002:001d19d4       ??1CListBox@@UAE@XZ        006c89d4 f   mfc100d:mfc100d.dll
 0002:001d19da       ??1CTreeCtrl@@UAE@XZ       006c89da f   mfc100d:mfc100d.dll
 0002:001d19e0       ??0CStatic@@QAE@XZ         006c89e0 f   mfc100d:mfc100d.dll
 0002:001d19e6       ??0CListBox@@QAE@XZ        006c89e6 f   mfc100d:mfc100d.dll
 0002:001d19ec       ??0CTreeCtrl@@QAE@XZ       006c89ec f   mfc100d:mfc100d.dll
 0002:001d19f2       ?GetCurSel@CListBox@@QBEHXZ 006c89f2 f   mfc100d:mfc100d.dll
 0002:001d19f8       ?SetAt@CMapStringToPtr@@QAEXPBDPAX@Z 006c89f8 f   mfc100d:mfc100d.dll
 0002:001d19fe       ?Lookup@CMapStringToPtr@@QBEHPBDAAPAX@Z 006c89fe f   mfc100d:mfc100d.dll
 0002:001d1a04       ?Right@?$CStringT@DV?$StrTraitMFC_DLL@DV?$ChTraitsCRT@D@ATL@@@@@ATL@@QBE?AV12@H@Z 006c8a04 f   mfc100d:mfc100d.dll
 0002:001d1a0a       ?FindOneOf@?$CStringT@DV?$StrTraitMFC_DLL@DV?$ChTraitsCRT@D@ATL@@@@@ATL@@QBEHPBD@Z 006c8a0a f   mfc100d:mfc100d.dll
 0002:001d1a10       ?PrepareEditCtrl@CDataExchange@@QAEPAUHWND__@@H@Z 006c8a10 f   mfc100d:mfc100d.dll
 0002:001d1a16       ?Trim@?$CStringT@DV?$StrTraitMFC_DLL@DV?$ChTraitsCRT@D@ATL@@@@@ATL@@QAEAAV12@XZ 006c8a16 f   mfc100d:mfc100d.dll
 0002:001d1a1c       ?EnableWindow@CWnd@@QAEHH@Z 006c8a1c f   mfc100d:mfc100d.dll
 0002:001d1a22       ?GetCount@CComboBox@@QBEHXZ 006c8a22 f   mfc100d:mfc100d.dll
 0002:001d1a28       ?SetCurSel@CListBox@@QAEHH@Z 006c8a28 f   mfc100d:mfc100d.dll
 0002:001d1a2e       ??A?$CSimpleStringT@D$00@ATL@@QBEDH@Z 006c8a2e f   mfc100d:mfc100d.dll
 0002:001d1a34       ?InsertString@CListBox@@QAEHHPBD@Z 006c8a34 f   mfc100d:mfc100d.dll
 0002:001d1a3a       ?DeleteItem@CTreeCtrl@@QAEHPAU_TREEITEM@@@Z 006c8a3a f   mfc100d:mfc100d.dll
 0002:001d1a40       ?CompareNoCase@?$CStringT@DV?$StrTraitMFC_DLL@DV?$ChTraitsCRT@D@ATL@@@@@ATL@@QBEHPBD@Z 006c8a40 f   mfc100d:mfc100d.dll
 0002:001d1a46       ?GetNextAssoc@CMapStringToPtr@@QBEXAAPAU__POSITION@@AAV?$CStringT@DV?$StrTraitMFC_DLL@DV?$ChTraitsCRT@D@ATL@@@@@ATL@@AAPAX@Z 006c8a46 f   mfc100d:mfc100d.dll
 0002:001d1a4c       ?GetStartPosition@CMapStringToPtr@@QBEPAU__POSITION@@XZ 006c8a4c f   mfc100d:mfc100d.dll
 0002:001d1a52       ?SetItemState@CTreeCtrl@@QAEHPAU_TREEITEM@@II@Z 006c8a52 f   mfc100d:mfc100d.dll
 0002:001d1a58       ?InsertItem@CTreeCtrl@@QAEPAU_TREEITEM@@PAUtagTVINSERTSTRUCTA@@@Z 006c8a58 f   mfc100d:mfc100d.dll
 0002:001d1a5e       ??BCWnd@@QBEPAUHWND__@@XZ  006c8a5e f   mfc100d:mfc100d.dll
 0002:001d1a64       ?DeleteAllItems@CTreeCtrl@@QAEHXZ 006c8a64 f   mfc100d:mfc100d.dll
 0002:001d1a6a       ??1CMetaFileDC@@UAE@XZ     006c8a6a f   mfc100d:mfc100d.dll
 0002:001d1a70       ?ReleaseDC@CWnd@@QAEHPAVCDC@@@Z 006c8a70 f   mfc100d:mfc100d.dll
 0002:001d1a76       ?SetEnhMetaFile@CStatic@@QAEPAUHENHMETAFILE__@@PAU2@@Z 006c8a76 f   mfc100d:mfc100d.dll
 0002:001d1a7c       ?GetClientRect@CWnd@@QBEXPAUtagRECT@@@Z 006c8a7c f   mfc100d:mfc100d.dll
 0002:001d1a82       ?GetDC@CWnd@@QAEPAVCDC@@XZ 006c8a82 f   mfc100d:mfc100d.dll
 0002:001d1a88       ??0CMetaFileDC@@QAE@XZ     006c8a88 f   mfc100d:mfc100d.dll
 0002:001d1a8e       ?GetItemText@CTreeCtrl@@QBE?AV?$CStringT@DV?$StrTraitMFC_DLL@DV?$ChTraitsCRT@D@ATL@@@@@ATL@@PAU_TREEITEM@@@Z 006c8a8e f   mfc100d:mfc100d.dll
 0002:001d1a94       ?GetSelectedItem@CTreeCtrl@@QBEPAU_TREEITEM@@XZ 006c8a94 f   mfc100d:mfc100d.dll
 0002:001d1a9a       ?RedrawWindow@CWnd@@QAEHPBUtagRECT@@PAVCRgn@@I@Z 006c8a9a f   mfc100d:mfc100d.dll
 0002:001d1aa0       ?GetItemState@CTreeCtrl@@QBEIPAU_TREEITEM@@I@Z 006c8aa0 f   mfc100d:mfc100d.dll
 0002:001d1aa6       ?GetNextItem@CTreeCtrl@@QBEPAU_TREEITEM@@PAU2@I@Z 006c8aa6 f   mfc100d:mfc100d.dll
 0002:001d1aac       ?BringWindowToTop@CWnd@@QAEXXZ 006c8aac f   mfc100d:mfc100d.dll
 0002:001d1ab2       ?UpdateWindow@CWnd@@QAEXXZ 006c8ab2 f   mfc100d:mfc100d.dll
 0002:001d1ab8       ?ShowWindow@CWnd@@QAEHH@Z  006c8ab8 f   mfc100d:mfc100d.dll
 0002:001d1abe       ??1CWnd@@UAE@XZ            006c8abe f   mfc100d:mfc100d.dll
 0002:001d1ac4       ?Concatenate@?$CSimpleStringT@D$00@ATL@@KAXAAV12@PBDH1H@Z 006c8ac4 f   mfc100d:mfc100d.dll
 0002:001d1aca       ??0?$CStringT@DV?$StrTraitMFC_DLL@DV?$ChTraitsCRT@D@ATL@@@@@ATL@@QAE@PAUIAtlStringMgr@1@@Z 006c8aca f   mfc100d:mfc100d.dll
 0002:001d1ad0       ?GetManager@?$CStringT@DV?$StrTraitMFC_DLL@DV?$ChTraitsCRT@D@ATL@@@@@ATL@@QBEPAUIAtlStringMgr@2@XZ 006c8ad0 f   mfc100d:mfc100d.dll
 0002:001d1ad6       ?GetAt@?$CSimpleStringT@D$00@ATL@@QBEDH@Z 006c8ad6 f   mfc100d:mfc100d.dll
 0002:001d1adc       ?GetSel@CListBox@@QBEHH@Z  006c8adc f   mfc100d:mfc100d.dll
 0002:001d1ae2       ?GetCount@CListBox@@QBEHXZ 006c8ae2 f   mfc100d:mfc100d.dll
 0002:001d1ae8       ?FindString@CComboBox@@QBEHHPBD@Z 006c8ae8 f   mfc100d:mfc100d.dll
 0002:001d1aee       ??$SerializeElements@V?$CStringT@DV?$StrTraitMFC_DLL@DV?$ChTraitsCRT@D@ATL@@@@@ATL@@@@YGXAAVCArchive@@PAV?$CStringT@DV?$StrTraitMFC_DLL@DV?$ChTraitsCRT@D@ATL@@@@@ATL@@H@Z 006c8aee f   mfc100d:mfc100d.dll
 0002:001d1af4       ?Find@?$CStringT@DV?$StrTraitMFC_DLL@DV?$ChTraitsCRT@D@ATL@@@@@ATL@@QBEHDH@Z 006c8af4 f   mfc100d:mfc100d.dll
 0002:001d1afa       ?DDX_Text@@YGXPAVCDataExchange@@HAAV?$CStringT@DV?$StrTraitMFC_DLL@DV?$ChTraitsCRT@D@ATL@@@@@ATL@@@Z 006c8afa f   mfc100d:mfc100d.dll
 0002:001d1b00       ?PrepareCtrl@CDataExchange@@QAEPAUHWND__@@H@Z 006c8b00 f   mfc100d:mfc100d.dll
 0002:001d1b06       ?SetFocus@CWnd@@QAEPAV1@XZ 006c8b06 f   mfc100d:mfc100d.dll
 0002:001d1b0c       ?DDV_MaxChars@@YGXPAVCDataExchange@@ABV?$CStringT@DV?$StrTraitMFC_DLL@DV?$ChTraitsCRT@D@ATL@@@@@ATL@@H@Z 006c8b0c f   mfc100d:mfc100d.dll
 0002:001d1b12       ?DDX_CBString@@YGXPAVCDataExchange@@HAAV?$CStringT@DV?$StrTraitMFC_DLL@DV?$ChTraitsCRT@D@ATL@@@@@ATL@@@Z 006c8b12 f   mfc100d:mfc100d.dll
 0002:001d1b18       ?StringLength@?$CSimpleStringT@D$00@ATL@@SAHPBD@Z 006c8b18 f   mfc100d:mfc100d.dll
 0002:001d1b1e       ?DDV_MinMaxUInt@@YGXPAVCDataExchange@@III@Z 006c8b1e f   mfc100d:mfc100d.dll
 0002:001d1b24       ?DDX_Text@@YGXPAVCDataExchange@@HAAH@Z 006c8b24 f   mfc100d:mfc100d.dll
 0002:001d1b2a       ?MakeLower@?$CStringT@DV?$StrTraitMFC_DLL@DV?$ChTraitsCRT@D@ATL@@@@@ATL@@QAEAAV12@XZ 006c8b2a f   mfc100d:mfc100d.dll
 0002:001d1b30       ?WriteString@CStdioFile@@UAEXPBD@Z 006c8b30 f   mfc100d:mfc100d.dll
 0002:001d1b36       ??1CStdioFile@@UAE@XZ      006c8b36 f   mfc100d:mfc100d.dll
 0002:001d1b3c       ?Close@CStdioFile@@UAEXXZ  006c8b3c f   mfc100d:mfc100d.dll
 0002:001d1b42       ?Open@CStdioFile@@UAEHPBDIPAVCFileException@@@Z 006c8b42 f   mfc100d:mfc100d.dll
 0002:001d1b48       ??0CStdioFile@@QAE@XZ      006c8b48 f   mfc100d:mfc100d.dll
 0002:001d1b4e       ?ReverseFind@?$CStringT@DV?$StrTraitMFC_DLL@DV?$ChTraitsCRT@D@ATL@@@@@ATL@@QBEHD@Z 006c8b4e f   mfc100d:mfc100d.dll
 0002:001d1b54       ?GetText@CListBox@@QBEXHAAV?$CStringT@DV?$StrTraitMFC_DLL@DV?$ChTraitsCRT@D@ATL@@@@@ATL@@@Z 006c8b54 f   mfc100d:mfc100d.dll
 0002:001d1b5a       ?GetState@CButton@@QBEIXZ  006c8b5a f   mfc100d:mfc100d.dll
 0002:001d1b60       ?DeleteString@CListBox@@QAEHI@Z 006c8b60 f   mfc100d:mfc100d.dll
 0002:001d1b66       ?GetSelItems@CListBox@@QBEHHPAH@Z 006c8b66 f   mfc100d:mfc100d.dll
 0002:001d1b6c       ?GetSelCount@CListBox@@QBEHXZ 006c8b6c f   mfc100d:mfc100d.dll
 0002:001d1b72       ?SetButtonStyle@CButton@@QAEXIH@Z 006c8b72 f   mfc100d:mfc100d.dll
 0002:001d1b78       ?AddString@CListBox@@QAEHPBD@Z 006c8b78 f   mfc100d:mfc100d.dll
 0002:001d1b7e       ?FindStringExact@CListBox@@QBEHHPBD@Z 006c8b7e f   mfc100d:mfc100d.dll
 0002:001d1b84       ?SetSel@CListBox@@QAEHHH@Z 006c8b84 f   mfc100d:mfc100d.dll
 0002:001d1b8a       ?FindString@CListBox@@QBEHHPBD@Z 006c8b8a f   mfc100d:mfc100d.dll
 0002:001d1b90       ?GetLBText@CComboBox@@QBEXHAAV?$CStringT@DV?$StrTraitMFC_DLL@DV?$ChTraitsCRT@D@ATL@@@@@ATL@@@Z 006c8b90 f   mfc100d:mfc100d.dll
 0002:001d1b96       ?GetFocus@CWnd@@SGPAV1@XZ  006c8b96 f   mfc100d:mfc100d.dll
 0002:001d1b9c       ?DDX_CBIndex@@YGXPAVCDataExchange@@HAAH@Z 006c8b9c f   mfc100d:mfc100d.dll
 0002:001d1ba2       ??1CListCtrl@@UAE@XZ       006c8ba2 f   mfc100d:mfc100d.dll
 0002:001d1ba8       ??0CListCtrl@@QAE@XZ       006c8ba8 f   mfc100d:mfc100d.dll
 0002:001d1bae       ?GetItemData@CListCtrl@@QBEKH@Z 006c8bae f   mfc100d:mfc100d.dll
 0002:001d1bb4       ?GetItemCount@CListCtrl@@QBEHXZ 006c8bb4 f   mfc100d:mfc100d.dll
 0002:001d1bba       ?MoveWindow@CWnd@@QAEXHHHHH@Z 006c8bba f   mfc100d:mfc100d.dll
 0002:001d1bc0       ?GetWindowRect@CWnd@@QBEXPAUtagRECT@@@Z 006c8bc0 f   mfc100d:mfc100d.dll
 0002:001d1bc6       ?SetItem@CListCtrl@@QAEHHHIPBDHIIJ@Z 006c8bc6 f   mfc100d:mfc100d.dll
 0002:001d1bcc       ?SetItemData@CListCtrl@@QAEHHK@Z 006c8bcc f   mfc100d:mfc100d.dll
 0002:001d1bd2       ?InsertItem@CListCtrl@@QAEHHPBD@Z 006c8bd2 f   mfc100d:mfc100d.dll
 0002:001d1bd8       ?InsertColumn@CListCtrl@@QAEHHPBDHHH@Z 006c8bd8 f   mfc100d:mfc100d.dll
 0002:001d1bde       ?SetExtendedStyle@CListCtrl@@QAEKK@Z 006c8bde f   mfc100d:mfc100d.dll
 0002:001d1be4       ?GetExtendedStyle@CListCtrl@@QBEKXZ 006c8be4 f   mfc100d:mfc100d.dll
 0002:001d1bea       ?SelectString@CComboBox@@QAEHHPBD@Z 006c8bea f   mfc100d:mfc100d.dll
 0002:001d1bf0       ?DDX_Text@@YGXPAVCDataExchange@@HAAN@Z 006c8bf0 f   mfc100d:mfc100d.dll
 0002:001d1bf6       ?SortItems@CListCtrl@@QAEHP6GHJJJ@ZK@Z 006c8bf6 f   mfc100d:mfc100d.dll
 0002:001d1bfc       ?Append@?$CSimpleStringT@D$00@ATL@@QAEXPBD@Z 006c8bfc f   mfc100d:mfc100d.dll
 0002:001d1c02       ?DDX_Check@@YGXPAVCDataExchange@@HAAH@Z 006c8c02 f   mfc100d:mfc100d.dll
 0002:001d1c08       ?LoadIconA@CWinApp@@QBEPAUHICON__@@I@Z 006c8c08 f   mfc100d:mfc100d.dll
 0002:001d1c0e       ?AfxGetApp@@YGPAVCWinApp@@XZ 006c8c0e f   mfc100d:mfc100d.dll
 0002:001d1c14       ?GetRuntimeClass@CDialog@@UBEPAUCRuntimeClass@@XZ 006c8c14 f   mfc100d:mfc100d.dll
 0002:001d1c1a       ?OnSysCommand@CWnd@@IAEXIJ@Z 006c8c1a f   mfc100d:mfc100d.dll
 0002:001d1c20       ?OnPaint@CDialog@@IAEXXZ   006c8c20 f   mfc100d:mfc100d.dll
 0002:001d1c26       ??1CPaintDC@@UAE@XZ        006c8c26 f   mfc100d:mfc100d.dll
 0002:001d1c2c       ?DrawIcon@CDC@@QAEHHHPAUHICON__@@@Z 006c8c2c f   mfc100d:mfc100d.dll
 0002:001d1c32       ?SendMessageA@CWnd@@QBEJIIJ@Z 006c8c32 f   mfc100d:mfc100d.dll
 0002:001d1c38       ?GetSafeHdc@CDC@@QBEPAUHDC__@@XZ 006c8c38 f   mfc100d:mfc100d.dll
 0002:001d1c3e       ??0CPaintDC@@QAE@PAVCWnd@@@Z 006c8c3e f   mfc100d:mfc100d.dll
 0002:001d1c44       ?IsIconic@CWnd@@QBEHXZ     006c8c44 f   mfc100d:mfc100d.dll
 0002:001d1c4a       ?ReplaceSel@CEdit@@QAEXPBDH@Z 006c8c4a f   mfc100d:mfc100d.dll
 0002:001d1c50       ??0CBrush@@QAE@XZ          006c8c50 f   mfc100d:mfc100d.dll
 0002:001d1c56       ?GetDlgItem@CWnd@@QBEPAV1@H@Z 006c8c56 f   mfc100d:mfc100d.dll
 0002:001d1c5c       ??BCBrush@@QBEPAUHBRUSH__@@XZ 006c8c5c f   mfc100d:mfc100d.dll
 0002:001d1c62       ?CreateSolidBrush@CBrush@@QAEHK@Z 006c8c62 f   mfc100d:mfc100d.dll
 0002:001d1c68       ?DeleteObject@CGdiObject@@QAEHXZ 006c8c68 f   mfc100d:mfc100d.dll
 0002:001d1c6e       ?SetBkMode@CDC@@QAEHH@Z    006c8c6e f   mfc100d:mfc100d.dll
 0002:001d1c74       ?GetDlgCtrlID@CWnd@@QBEHXZ 006c8c74 f   mfc100d:mfc100d.dll
 0002:001d1c7a       ?OnCtlColor@CWnd@@IAEPAUHBRUSH__@@PAVCDC@@PAV1@I@Z 006c8c7a f   mfc100d:mfc100d.dll
 0002:001d1c80       ?Invalidate@CWnd@@QAEXH@Z  006c8c80 f   mfc100d:mfc100d.dll
 0002:001d1c86       ?GetColor@CColorDialog@@QBEKXZ 006c8c86 f   mfc100d:mfc100d.dll
 0002:001d1c8c       ?DoModal@CColorDialog@@UAEHXZ 006c8c8c f   mfc100d:mfc100d.dll
 0002:001d1c92       ??0CColorDialog@@QAE@KKPAVCWnd@@@Z 006c8c92 f   mfc100d:mfc100d.dll
 0002:001d1c98       ?GetRuntimeClass@CCommonDialog@@UBEPAUCRuntimeClass@@XZ 006c8c98 f   mfc100d:mfc100d.dll
 0002:001d1c9e       ?GetMessageMap@CCommonDialog@@MBEPBUAFX_MSGMAP@@XZ 006c8c9e f   mfc100d:mfc100d.dll
 0002:001d1ca4       ?OnOK@CCommonDialog@@MAEXXZ 006c8ca4 f   mfc100d:mfc100d.dll
 0002:001d1caa       ?OnCancel@CCommonDialog@@MAEXXZ 006c8caa f   mfc100d:mfc100d.dll
 0002:001d1cb0       ??Y?$CStringT@DV?$StrTraitMFC_DLL@DV?$ChTraitsCRT@D@ATL@@@@@ATL@@QAEAAV01@ABV?$CSimpleStringT@D$00@1@@Z 006c8cb0 f   mfc100d:mfc100d.dll
 0002:001d1cb6       ?DeleteString@CComboBox@@QAEHI@Z 006c8cb6 f   mfc100d:mfc100d.dll
 0002:001d1cbc       ?LimitText@CEdit@@QAEXH@Z  006c8cbc f   mfc100d:mfc100d.dll
 0002:001d1cc2       ?MoveWindow@CWnd@@QAEXPBUtagRECT@@H@Z 006c8cc2 f   mfc100d:mfc100d.dll
 0002:001d1cc8       ?SetSel@CEdit@@QAEXHHH@Z   006c8cc8 f   mfc100d:mfc100d.dll
 0002:001d1cce       ?AfxGetMainWnd@@YGPAVCWnd@@XZ 006c8cce f   mfc100d:mfc100d.dll
 0002:001d1cd4       ?OnSetCursor@CWnd@@IAEHPAV1@II@Z 006c8cd4 f   mfc100d:mfc100d.dll
 0002:001d1cda       ?SetItemState@CListCtrl@@QAEHHII@Z 006c8cda f   mfc100d:mfc100d.dll
 0002:001d1ce0       ?DeleteAllItems@CListCtrl@@QAEHXZ 006c8ce0 f   mfc100d:mfc100d.dll
 0002:001d1ce6       ?GetItemText@CListCtrl@@QBEHHHPADH@Z 006c8ce6 f   mfc100d:mfc100d.dll
 0002:001d1cec       ?GetNextSelectedItem@CListCtrl@@QBEHAAPAU__POSITION@@@Z 006c8cec f   mfc100d:mfc100d.dll
 0002:001d1cf2       ?GetFirstSelectedItemPosition@CListCtrl@@QBEPAU__POSITION@@XZ 006c8cf2 f   mfc100d:mfc100d.dll
 0002:001d1cf8       ?GetSelectedCount@CListCtrl@@QBEIXZ 006c8cf8 f   mfc100d:mfc100d.dll
 0002:001d1cfe       ?DeleteItem@CListCtrl@@QAEHH@Z 006c8cfe f   mfc100d:mfc100d.dll
 0002:001d1d04       ?GetItemState@CListCtrl@@QBEIHI@Z 006c8d04 f   mfc100d:mfc100d.dll
 0002:001d1d0a       ?DDV_MinMaxInt@@YGXPAVCDataExchange@@HHH@Z 006c8d0a f   mfc100d:mfc100d.dll
 0002:001d1d10       ?DDX_Radio@@YGXPAVCDataExchange@@HAAH@Z 006c8d10 f   mfc100d:mfc100d.dll
 0002:001d1d16       ?TrimRight@?$CStringT@DV?$StrTraitMFC_DLL@DV?$ChTraitsCRT@D@ATL@@@@@ATL@@QAEAAV12@XZ 006c8d16 f   mfc100d:mfc100d.dll
 0002:001d1d1c       ?FreeDataChain@CPlex@@QAEXXZ 006c8d1c f   mfc100d:mfc100d.dll
 0002:001d1d22       ?Create@CPlex@@SGPAU1@AAPAU1@II@Z 006c8d22 f   mfc100d:mfc100d.dll
 0002:001d1d28       ??3CObject@@SGXPAXPBDH@Z   006c8d28 f   mfc100d:mfc100d.dll
 0002:001d1d2e       ??0CStdioFile@@QAE@PBDI@Z  006c8d2e f   mfc100d:mfc100d.dll
 0002:001d1d34       ??2CObject@@SGPAXIPBDH@Z   006c8d34 f   mfc100d:mfc100d.dll
 0002:001d1d3a       ?Replace@?$CStringT@DV?$StrTraitMFC_DLL@DV?$ChTraitsCRT@D@ATL@@@@@ATL@@QAEHDD@Z 006c8d3a f   mfc100d:mfc100d.dll
 0002:001d1d40       ??0CMapStringToPtr@@QAE@H@Z 006c8d40 f   mfc100d:mfc100d.dll
 0002:001d1d46       ??1CMapStringToPtr@@UAE@XZ 006c8d46 f   mfc100d:mfc100d.dll
 0002:001d1d4c       ?SetItemData@CListBox@@QAEHHK@Z 006c8d4c f   mfc100d:mfc100d.dll
 0002:001d1d52       ?GetItemData@CListBox@@QBEKH@Z 006c8d52 f   mfc100d:mfc100d.dll
 0002:001d1d58       ??1CBitmap@@UAE@XZ         006c8d58 f   mfc100d:mfc100d.dll
 0002:001d1d5e       ??0CBitmap@@QAE@XZ         006c8d5e f   mfc100d:mfc100d.dll
 0002:001d1d64       ?SetBitmap@CStatic@@QAEPAUHBITMAP__@@PAU2@@Z 006c8d64 f   mfc100d:mfc100d.dll
 0002:001d1d6a       ??BCBitmap@@QBEPAUHBITMAP__@@XZ 006c8d6a f   mfc100d:mfc100d.dll
 0002:001d1d70       ?LoadBitmapA@CBitmap@@QAEHI@Z 006c8d70 f   mfc100d:mfc100d.dll
 0002:001d1d76       ?AppendChar@?$CSimpleStringT@D$00@ATL@@QAEXD@Z 006c8d76 f   mfc100d:mfc100d.dll
 0002:001d1d7c       ?Tokenize@?$CStringT@DV?$StrTraitMFC_DLL@DV?$ChTraitsCRT@D@ATL@@@@@ATL@@QBE?AV12@PBDAAH@Z 006c8d7c f   mfc100d:mfc100d.dll
 0002:001d1d82       ?GetPosition@CStdioFile@@UBE_KXZ 006c8d82 f   mfc100d:mfc100d.dll
 0002:001d1d88       ?ReadString@CStdioFile@@UAEHAAV?$CStringT@DV?$StrTraitMFC_DLL@DV?$ChTraitsCRT@D@ATL@@@@@ATL@@@Z 006c8d88 f   mfc100d:mfc100d.dll
 0002:001d1d8e       ?RemoveKey@CMapStringToPtr@@QAEHPBD@Z 006c8d8e f   mfc100d:mfc100d.dll
 0002:001d1d94       ??1CFileFind@@UAE@XZ       006c8d94 f   mfc100d:mfc100d.dll
 0002:001d1d9a       ?Close@CFileFind@@QAEXXZ   006c8d9a f   mfc100d:mfc100d.dll
 0002:001d1da0       ?IsDirectory@CFileFind@@QBEHXZ 006c8da0 f   mfc100d:mfc100d.dll
 0002:001d1da6       ?GetFileName@CFileFind@@UBE?AV?$CStringT@DV?$StrTraitMFC_DLL@DV?$ChTraitsCRT@D@ATL@@@@@ATL@@XZ 006c8da6 f   mfc100d:mfc100d.dll
 0002:001d1dac       ?FindNextFileA@CFileFind@@UAEHXZ 006c8dac f   mfc100d:mfc100d.dll
 0002:001d1db2       ?FindFile@CFileFind@@UAEHPBDK@Z 006c8db2 f   mfc100d:mfc100d.dll
 0002:001d1db8       ??0CFileFind@@QAE@XZ       006c8db8 f   mfc100d:mfc100d.dll
 0002:001d1dbe       ?RemoveAll@CMapStringToPtr@@QAEXXZ 006c8dbe f   mfc100d:mfc100d.dll
 0002:001d1dc4       ?GetThisMessageMap@CView@@KGPBUAFX_MSGMAP@@XZ 006c8dc4 f   mfc100d:mfc100d.dll
 0002:001d1dca       ?OnFilePrintPreview@CView@@IAEXXZ 006c8dca f   mfc100d:mfc100d.dll
 0002:001d1dd0       ?OnFilePrint@CView@@IAEXXZ 006c8dd0 f   mfc100d:mfc100d.dll
 0002:001d1dd6       ?GetThisClass@CView@@SGPAUCRuntimeClass@@XZ 006c8dd6 f   mfc100d:mfc100d.dll
 0002:001d1ddc       ??1CDC@@UAE@XZ             006c8ddc f   mfc100d:mfc100d.dll
 0002:001d1de2       ??1CRgn@@UAE@XZ            006c8de2 f   mfc100d:mfc100d.dll
 0002:001d1de8       ??1CFont@@UAE@XZ           006c8de8 f   mfc100d:mfc100d.dll
 0002:001d1dee       ??1CView@@UAE@XZ           006c8dee f   mfc100d:mfc100d.dll
 0002:001d1df4       ?CreateFontA@CFont@@QAEHHHHHHEEEEEEEEPBD@Z 006c8df4 f   mfc100d:mfc100d.dll
 0002:001d1dfa       ??0CDC@@QAE@XZ             006c8dfa f   mfc100d:mfc100d.dll
 0002:001d1e00       ??0CRgn@@QAE@XZ            006c8e00 f   mfc100d:mfc100d.dll
 0002:001d1e06       ??0CFont@@QAE@XZ           006c8e06 f   mfc100d:mfc100d.dll
 0002:001d1e0c       ??0CView@@IAE@XZ           006c8e0c f   mfc100d:mfc100d.dll
 0002:001d1e12       ?OnCmdMsg@CView@@UAEHIHPAXPAUAFX_CMDHANDLERINFO@@@Z 006c8e12 f   mfc100d:mfc100d.dll
 0002:001d1e18       ?CalcWindowRect@CView@@UAEXPAUtagRECT@@I@Z 006c8e18 f   mfc100d:mfc100d.dll
 0002:001d1e1e       ?GetScrollBarCtrl@CView@@UBEPAVCScrollBar@@H@Z 006c8e1e f   mfc100d:mfc100d.dll
 0002:001d1e24       ?PreTranslateMessage@CWnd@@UAEHPAUtagMSG@@@Z 006c8e24 f   mfc100d:mfc100d.dll
 0002:001d1e2a       ?PostNcDestroy@CView@@MAEXXZ 006c8e2a f   mfc100d:mfc100d.dll
 0002:001d1e30       ?CheckAutoCenter@CWnd@@UAEHXZ 006c8e30 f   mfc100d:mfc100d.dll
 0002:001d1e36       ?SetOccDialogInfo@CWnd@@MAEHPAU_AFX_OCC_DIALOG_INFO@@@Z 006c8e36 f   mfc100d:mfc100d.dll
 0002:001d1e3c       ?GetOccDialogInfo@CWnd@@MAEPAU_AFX_OCC_DIALOG_INFO@@XZ 006c8e3c f   mfc100d:mfc100d.dll
 0002:001d1e42       ?IsSelected@CView@@UBEHPBVCObject@@@Z 006c8e42 f   mfc100d:mfc100d.dll
 0002:001d1e48       ?OnScroll@CView@@UAEHIIH@Z 006c8e48 f   mfc100d:mfc100d.dll
 0002:001d1e4e       ?OnScrollBy@CView@@UAEHVCSize@@H@Z 006c8e4e f   mfc100d:mfc100d.dll
 0002:001d1e54       ?OnDragEnter@CView@@UAEKPAVCOleDataObject@@KVCPoint@@@Z 006c8e54 f   mfc100d:mfc100d.dll
 0002:001d1e5a       ?OnDragOver@CView@@UAEKPAVCOleDataObject@@KVCPoint@@@Z 006c8e5a f   mfc100d:mfc100d.dll
 0002:001d1e60       ?OnDragLeave@CView@@UAEXXZ 006c8e60 f   mfc100d:mfc100d.dll
 0002:001d1e66       ?OnDrop@CView@@UAEHPAVCOleDataObject@@KVCPoint@@@Z 006c8e66 f   mfc100d:mfc100d.dll
 0002:001d1e6c       ?OnDropEx@CView@@UAEKPAVCOleDataObject@@KKVCPoint@@@Z 006c8e6c f   mfc100d:mfc100d.dll
 0002:001d1e72       ?OnDragScroll@CView@@UAEKKVCPoint@@@Z 006c8e72 f   mfc100d:mfc100d.dll
 0002:001d1e78       ?OnPrepareDC@CView@@UAEXPAVCDC@@PAUCPrintInfo@@@Z 006c8e78 f   mfc100d:mfc100d.dll
 0002:001d1e7e       ?OnInitialUpdate@CView@@UAEXXZ 006c8e7e f   mfc100d:mfc100d.dll
 0002:001d1e84       ?OnActivateView@CView@@MAEXHPAV1@0@Z 006c8e84 f   mfc100d:mfc100d.dll
 0002:001d1e8a       ?OnActivateFrame@CView@@MAEXIPAVCFrameWnd@@@Z 006c8e8a f   mfc100d:mfc100d.dll
 0002:001d1e90       ?OnUpdate@CView@@MAEXPAV1@JPAVCObject@@@Z 006c8e90 f   mfc100d:mfc100d.dll
 0002:001d1e96       ?OnPrint@CView@@MAEXPAVCDC@@PAUCPrintInfo@@@Z 006c8e96 f   mfc100d:mfc100d.dll
 0002:001d1e9c       ?OnEndPrintPreview@CView@@MAEXPAVCDC@@PAUCPrintInfo@@UtagPOINT@@PAVCPreviewView@@@Z 006c8e9c f   mfc100d:mfc100d.dll
 0002:001d1ea2       ?PreCreateWindow@CView@@MAEHAAUtagCREATESTRUCTA@@@Z 006c8ea2 f   mfc100d:mfc100d.dll
 0002:001d1ea8       ?SelectClipRgn@CDC@@QAEHPAVCRgn@@@Z 006c8ea8 f   mfc100d:mfc100d.dll
 0002:001d1eae       ?FillSolidRect@CDC@@QAEXPBUtagRECT@@K@Z 006c8eae f   mfc100d:mfc100d.dll
 0002:001d1eb4       ?DoPreparePrinting@CView@@QAEHPAUCPrintInfo@@@Z 006c8eb4 f   mfc100d:mfc100d.dll
 0002:001d1eba       ?AssertValid@CView@@UBEXXZ 006c8eba f   mfc100d:mfc100d.dll
 0002:001d1ec0       ?Dump@CView@@UBEXAAVCDumpContext@@@Z 006c8ec0 f   mfc100d:mfc100d.dll
 0002:001d1ec6       ?IsKindOf@CObject@@QBEHPBUCRuntimeClass@@@Z 006c8ec6 f   mfc100d:mfc100d.dll
 0002:001d1ecc       ?SelectObject@CDC@@QAEPAVCBitmap@@PAV2@@Z 006c8ecc f   mfc100d:mfc100d.dll
 0002:001d1ed2       ?CreateCompatibleBitmap@CBitmap@@QAEHPAVCDC@@HH@Z 006c8ed2 f   mfc100d:mfc100d.dll
 0002:001d1ed8       ?CreateCompatibleDC@CDC@@QAEHPAV1@@Z 006c8ed8 f   mfc100d:mfc100d.dll
 0002:001d1ede       ?CreateRectRgn@CRgn@@QAEHHHHH@Z 006c8ede f   mfc100d:mfc100d.dll
 0002:001d1ee4       ?OnSize@CWnd@@IAEXIHH@Z    006c8ee4 f   mfc100d:mfc100d.dll
 0002:001d1eea       ?OnLButtonUp@CWnd@@IAEXIVCPoint@@@Z 006c8eea f   mfc100d:mfc100d.dll
 0002:001d1ef0       ?OnLButtonDown@CWnd@@IAEXIVCPoint@@@Z 006c8ef0 f   mfc100d:mfc100d.dll
 0002:001d1ef6       ?OnLButtonDblClk@CWnd@@IAEXIVCPoint@@@Z 006c8ef6 f   mfc100d:mfc100d.dll
 0002:001d1efc       ?OnRButtonDown@CWnd@@IAEXIVCPoint@@@Z 006c8efc f   mfc100d:mfc100d.dll
 0002:001d1f02       ?OnSysKeyDown@CWnd@@IAEXIII@Z 006c8f02 f   mfc100d:mfc100d.dll
 0002:001d1f08       ?OnSysKeyUp@CWnd@@IAEXIII@Z 006c8f08 f   mfc100d:mfc100d.dll
 0002:001d1f0e       ?OnKeyDown@CWnd@@IAEXIII@Z 006c8f0e f   mfc100d:mfc100d.dll
 0002:001d1f14       ?DrawDragRect@CDC@@QAEXPBUtagRECT@@UtagSIZE@@01PAVCBrush@@2@Z 006c8f14 f   mfc100d:mfc100d.dll
 0002:001d1f1a       ?OnMouseWheel@CWnd@@IAEHIFVCPoint@@@Z 006c8f1a f   mfc100d:mfc100d.dll
 0002:001d1f20       ??1CMenu@@UAE@XZ           006c8f20 f   mfc100d:mfc100d.dll
 0002:001d1f26       ?EnableMenuItem@CMenu@@QAEIII@Z 006c8f26 f   mfc100d:mfc100d.dll
 0002:001d1f2c       ?TrackPopupMenu@CMenu@@QAEHIHHPAVCWnd@@PBUtagRECT@@@Z 006c8f2c f   mfc100d:mfc100d.dll
 0002:001d1f32       ?GetSubMenu@CMenu@@QBEPAV1@H@Z 006c8f32 f   mfc100d:mfc100d.dll
 0002:001d1f38       ?LoadMenuA@CMenu@@QAEHI@Z  006c8f38 f   mfc100d:mfc100d.dll
 0002:001d1f3e       ??0CMenu@@QAE@XZ           006c8f3e f   mfc100d:mfc100d.dll
 0002:001d1f44       ?DrawMenuBar@CWnd@@QAEXXZ  006c8f44 f   mfc100d:mfc100d.dll
 0002:001d1f4a       ?GetThisMessageMap@CDocument@@KGPBUAFX_MSGMAP@@XZ 006c8f4a f   mfc100d:mfc100d.dll
 0002:001d1f50       ?GetThisClass@CDocument@@SGPAUCRuntimeClass@@XZ 006c8f50 f   mfc100d:mfc100d.dll
 0002:001d1f56       ??1CDocument@@UAE@XZ       006c8f56 f   mfc100d:mfc100d.dll
 0002:001d1f5c       ??0CDocument@@QAE@XZ       006c8f5c f   mfc100d:mfc100d.dll
 0002:001d1f62       ?OnCmdMsg@CDocument@@UAEHIHPAXPAUAFX_CMDHANDLERINFO@@@Z 006c8f62 f   mfc100d:mfc100d.dll
 0002:001d1f68       ?OnFinalRelease@CDocument@@UAEXXZ 006c8f68 f   mfc100d:mfc100d.dll
 0002:001d1f6e       ?GetInterfaceMap@CCmdTarget@@MBEPBUAFX_INTERFACEMAP@@XZ 006c8f6e f   mfc100d:mfc100d.dll
 0002:001d1f74       ?SetTitle@CDocument@@UAEXPBD@Z 006c8f74 f   mfc100d:mfc100d.dll
 0002:001d1f7a       ?SetPathName@CDocument@@UAEXPBDH@Z 006c8f7a f   mfc100d:mfc100d.dll
 0002:001d1f80       ?ClearPathName@CDocument@@UAEXXZ 006c8f80 f   mfc100d:mfc100d.dll
 0002:001d1f86       ?IsModified@CDocument@@UAEHXZ 006c8f86 f   mfc100d:mfc100d.dll
 0002:001d1f8c       ?SetModifiedFlag@CDocument@@UAEXH@Z 006c8f8c f   mfc100d:mfc100d.dll
 0002:001d1f92       ?GetFirstViewPosition@CDocument@@UBEPAU__POSITION@@XZ 006c8f92 f   mfc100d:mfc100d.dll
 0002:001d1f98       ?GetNextView@CDocument@@UBEPAVCView@@AAPAU__POSITION@@@Z 006c8f98 f   mfc100d:mfc100d.dll
 0002:001d1f9e       ?OnChangedViewList@CDocument@@UAEXXZ 006c8f9e f   mfc100d:mfc100d.dll
 0002:001d1fa4       ?DeleteContents@CDocument@@UAEXXZ 006c8fa4 f   mfc100d:mfc100d.dll
 0002:001d1faa       ?OnOpenDocument@CDocument@@UAEHPBD@Z 006c8faa f   mfc100d:mfc100d.dll
 0002:001d1fb0       ?OnCloseDocument@CDocument@@UAEXXZ 006c8fb0 f   mfc100d:mfc100d.dll
 0002:001d1fb6       ?ReportSaveLoadException@CDocument@@UAEXPBDPAVCException@@HI@Z 006c8fb6 f   mfc100d:mfc100d.dll
 0002:001d1fbc       ?GetFile@CDocument@@UAEPAVCFile@@PBDIPAVCFileException@@@Z 006c8fbc f   mfc100d:mfc100d.dll
 0002:001d1fc2       ?ReleaseFile@CDocument@@UAEXPAVCFile@@H@Z 006c8fc2 f   mfc100d:mfc100d.dll
 0002:001d1fc8       ?OnRichPreviewUnload@CDocument@@UAEXXZ 006c8fc8 f   mfc100d:mfc100d.dll
 0002:001d1fce       ?LoadDocumentFromStream@CDocument@@UAEJPAUIStream@@K@Z 006c8fce f   mfc100d:mfc100d.dll
 0002:001d1fd4       ?GetThumbnail@CDocument@@UAEHIPAPAUHBITMAP__@@PAW4WTS_ALPHATYPE@@@Z 006c8fd4 f   mfc100d:mfc100d.dll
 0002:001d1fda       ?ClearChunkList@CDocument@@UAEXXZ 006c8fda f   mfc100d:mfc100d.dll
 0002:001d1fe0       ?SetChunkValue@CDocument@@UAEHPAUIFilterChunkValue@ATL@@@Z 006c8fe0 f   mfc100d:mfc100d.dll
 0002:001d1fe6       ?BeginReadChunks@CDocument@@UAEXXZ 006c8fe6 f   mfc100d:mfc100d.dll
 0002:001d1fec       ?ReadNextChunkValue@CDocument@@UAEHPAPAUIFilterChunkValue@ATL@@@Z 006c8fec f   mfc100d:mfc100d.dll
 0002:001d1ff2       ?RemoveChunk@CDocument@@UAEXABU_GUID@@K@Z 006c8ff2 f   mfc100d:mfc100d.dll
 0002:001d1ff8       ?FindChunk@CDocument@@UAEPAU__POSITION@@ABU_GUID@@K@Z 006c8ff8 f   mfc100d:mfc100d.dll
 0002:001d1ffe       ?OnDocumentEvent@CDocument@@UAEXW4DocumentEvent@1@@Z 006c8ffe f   mfc100d:mfc100d.dll
 0002:001d2004       ?CanCloseFrame@CDocument@@UAEHPAVCFrameWnd@@@Z 006c9004 f   mfc100d:mfc100d.dll
 0002:001d200a       ?SaveModified@CDocument@@UAEHXZ 006c900a f   mfc100d:mfc100d.dll
 0002:001d2010       ?PreCloseFrame@CDocument@@UAEXPAVCFrameWnd@@@Z 006c9010 f   mfc100d:mfc100d.dll
 0002:001d2016       ?DoSave@CDocument@@UAEHPBDH@Z 006c9016 f   mfc100d:mfc100d.dll
 0002:001d201c       ?DoFileSave@CDocument@@UAEHXZ 006c901c f   mfc100d:mfc100d.dll
 0002:001d2022       ?UpdateFrameCounts@CDocument@@UAEXXZ 006c9022 f   mfc100d:mfc100d.dll
 0002:001d2028       ?GetDefaultMenu@CDocument@@UAEPAUHMENU__@@XZ 006c9028 f   mfc100d:mfc100d.dll
 0002:001d202e       ?GetDefaultAccelerator@CDocument@@UAEPAUHACCEL__@@XZ 006c902e f   mfc100d:mfc100d.dll
 0002:001d2034       ?OnIdle@CDocument@@UAEXXZ  006c9034 f   mfc100d:mfc100d.dll
 0002:001d203a       ?OnLoadDocumentFromStream@CDocument@@UAEJPAUIStream@@K@Z 006c903a f   mfc100d:mfc100d.dll
 0002:001d2040       ?OnPreviewHandlerQueryFocus@CDocument@@UAEJPAPAUHWND__@@@Z 006c9040 f   mfc100d:mfc100d.dll
 0002:001d2046       ?OnPreviewHandlerTranslateAccelerator@CDocument@@UAEJPAUtagMSG@@@Z 006c9046 f   mfc100d:mfc100d.dll
 0002:001d204c       ?OnCreatePreviewFrame@CDocument@@UAEHXZ 006c904c f   mfc100d:mfc100d.dll
 0002:001d2052       ?OnUnloadHandler@CDocument@@UAEXXZ 006c9052 f   mfc100d:mfc100d.dll
 0002:001d2058       ?OnDrawThumbnail@CDocument@@UAEXAAVCDC@@PAUtagRECT@@@Z 006c9058 f   mfc100d:mfc100d.dll
 0002:001d205e       ?SendInitialUpdate@CDocument@@QAEXXZ 006c905e f   mfc100d:mfc100d.dll
 0002:001d2064       ?OnNewDocument@CDocument@@UAEHXZ 006c9064 f   mfc100d:mfc100d.dll
 0002:001d206a       ?AssertValid@CDocument@@UBEXXZ 006c906a f   mfc100d:mfc100d.dll
 0002:001d2070       ?Dump@CDocument@@UBEXAAVCDumpContext@@@Z 006c9070 f   mfc100d:mfc100d.dll
 0002:001d2076       ?OnSaveDocument@CDocument@@UAEHPBD@Z 006c9076 f   mfc100d:mfc100d.dll
 0002:001d207c       ?GetSafeHwnd@CWnd@@QBEPAUHWND__@@XZ 006c907c f   mfc100d:mfc100d.dll
 0002:001d2082       ?GetMainWnd@CWinThread@@UAEPAVCWnd@@XZ 006c9082 f   mfc100d:mfc100d.dll
 0002:001d2088       ?GetActiveWindow@CWnd@@SGPAV1@XZ 006c9088 f   mfc100d:mfc100d.dll
 0002:001d208e       ?GetLastWriteTime@CFileFind@@UBEHAAVCTime@ATL@@@Z 006c908e f   mfc100d:mfc100d.dll
 0002:001d2094       ?Seek@CStdioFile@@UAE_K_JI@Z 006c9094 f   mfc100d:mfc100d.dll
 0002:001d209a       ?GetFilePath@CFileFind@@UBE?AV?$CStringT@DV?$StrTraitMFC_DLL@DV?$ChTraitsCRT@D@ATL@@@@@ATL@@XZ 006c909a f   mfc100d:mfc100d.dll
 0002:001d20a0       ?IsDots@CFileFind@@UBEHXZ  006c90a0 f   mfc100d:mfc100d.dll
 0002:001d20a6       ?GetSafeHmenu@CMenu@@QBEPAUHMENU__@@XZ 006c90a6 f   mfc100d:mfc100d.dll
 0002:001d20ac       ?DeleteMenu@CMenu@@QAEHII@Z 006c90ac f   mfc100d:mfc100d.dll
 0002:001d20b2       ?Delete@CException@@QAEXXZ 006c90b2 f   mfc100d:mfc100d.dll
 0002:001d20b8       ??2@YAPAXI@Z               006c90b8 f   mfc100d:mfc100d.dll
 0002:001d20be       ?OnMove@CWnd@@IAEXHH@Z     006c90be f   mfc100d:mfc100d.dll
 0002:001d20c4       ?OnKeyUp@CWnd@@IAEXIII@Z   006c90c4 f   mfc100d:mfc100d.dll
 0002:001d20ca       ?FindWindowA@CWnd@@SGPAV1@PBD0@Z 006c90ca f   mfc100d:mfc100d.dll
 0002:001d20d0       ?GetThisMessageMap@CWinApp@@KGPBUAFX_MSGMAP@@XZ 006c90d0 f   mfc100d:mfc100d.dll
 0002:001d20d6       ?OnFilePrintSetup@CWinApp@@IAEXXZ 006c90d6 f   mfc100d:mfc100d.dll
 0002:001d20dc       ?OnFileOpen@CWinApp@@IAEXXZ 006c90dc f   mfc100d:mfc100d.dll
 0002:001d20e2       ?OnFileNew@CWinApp@@IAEXXZ 006c90e2 f   mfc100d:mfc100d.dll
 0002:001d20e8       ??1CWinApp@@UAE@XZ         006c90e8 f   mfc100d:mfc100d.dll
 0002:001d20ee       ??0CWinApp@@QAE@PBD@Z      006c90ee f   mfc100d:mfc100d.dll
 0002:001d20f4       ?GetRuntimeClass@CWinApp@@UBEPAUCRuntimeClass@@XZ 006c90f4 f   mfc100d:mfc100d.dll
 0002:001d20fa       ?AssertValid@CWinApp@@UBEXXZ 006c90fa f   mfc100d:mfc100d.dll
 0002:001d2100       ?Dump@CWinApp@@UBEXAAVCDumpContext@@@Z 006c9100 f   mfc100d:mfc100d.dll
 0002:001d2106       ?OnCmdMsg@CCmdTarget@@UAEHIHPAXPAUAFX_CMDHANDLERINFO@@@Z 006c9106 f   mfc100d:mfc100d.dll
 0002:001d210c       ?OnFinalRelease@CCmdTarget@@UAEXXZ 006c910c f   mfc100d:mfc100d.dll
 0002:001d2112       ?Run@CWinApp@@UAEHXZ       006c9112 f   mfc100d:mfc100d.dll
 0002:001d2118       ?PreTranslateMessage@CWinThread@@UAEHPAUtagMSG@@@Z 006c9118 f   mfc100d:mfc100d.dll
 0002:001d211e       ?PumpMessage@CWinThread@@UAEHXZ 006c911e f   mfc100d:mfc100d.dll
 0002:001d2124       ?OnIdle@CWinApp@@UAEHJ@Z   006c9124 f   mfc100d:mfc100d.dll
 0002:001d212a       ?IsIdleMessage@CWinThread@@UAEHPAUtagMSG@@@Z 006c912a f   mfc100d:mfc100d.dll
 0002:001d2130       ?ProcessWndProcException@CWinApp@@UAEJPAVCException@@PBUtagMSG@@@Z 006c9130 f   mfc100d:mfc100d.dll
 0002:001d2136       ?ProcessMessageFilter@CWinThread@@UAEHHPAUtagMSG@@@Z 006c9136 f   mfc100d:mfc100d.dll
 0002:001d213c       ?Delete@CWinThread@@UAEXXZ 006c913c f   mfc100d:mfc100d.dll
 0002:001d2142       ?GetProfileIntA@CWinApp@@UAEIPBD0H@Z 006c9142 f   mfc100d:mfc100d.dll
 0002:001d2148       ?WriteProfileInt@CWinApp@@UAEHPBD0H@Z 006c9148 f   mfc100d:mfc100d.dll
 0002:001d214e       ?GetProfileStringA@CWinApp@@UAE?AV?$CStringT@DV?$StrTraitMFC_DLL@DV?$ChTraitsCRT@D@ATL@@@@@ATL@@PBD00@Z 006c914e f   mfc100d:mfc100d.dll
 0002:001d2154       ?WriteProfileStringA@CWinApp@@UAEHPBD00@Z 006c9154 f   mfc100d:mfc100d.dll
 0002:001d215a       ?GetProfileBinary@CWinApp@@UAEHPBD0PAPAEPAI@Z 006c915a f   mfc100d:mfc100d.dll
 0002:001d2160       ?WriteProfileBinary@CWinApp@@UAEHPBD0PAEI@Z 006c9160 f   mfc100d:mfc100d.dll
 0002:001d2166       ?InitLibId@CWinApp@@UAEXXZ 006c9166 f   mfc100d:mfc100d.dll
 0002:001d216c       ?Register@CWinApp@@UAEHXZ  006c916c f   mfc100d:mfc100d.dll
 0002:001d2172       ?Unregister@CWinApp@@UAEHXZ 006c9172 f   mfc100d:mfc100d.dll
 0002:001d2178       ?OpenDocumentFile@CWinApp@@UAEPAVCDocument@@PBDH@Z 006c9178 f   mfc100d:mfc100d.dll
 0002:001d217e       ?OpenDocumentFile@CWinApp@@UAEPAVCDocument@@PBD@Z 006c917e f   mfc100d:mfc100d.dll
 0002:001d2184       ?AddToRecentFileList@CWinApp@@UAEXPBD@Z 006c9184 f   mfc100d:mfc100d.dll
 0002:001d218a       ?InitApplication@CWinApp@@UAEHXZ 006c918a f   mfc100d:mfc100d.dll
 0002:001d2190       ?SaveAllModified@CWinApp@@UAEHXZ 006c9190 f   mfc100d:mfc100d.dll
 0002:001d2196       ?DoWaitCursor@CWinApp@@UAEXH@Z 006c9196 f   mfc100d:mfc100d.dll
 0002:001d219c       ?OnDDECommand@CWinApp@@UAEHPAD@Z 006c919c f   mfc100d:mfc100d.dll
 0002:001d21a2       ?WinHelpA@CWinApp@@UAEXKI@Z 006c91a2 f   mfc100d:mfc100d.dll
 0002:001d21a8       ?HtmlHelpA@CWinApp@@UAEXKI@Z 006c91a8 f   mfc100d:mfc100d.dll
 0002:001d21ae       ?WinHelpInternal@CWinApp@@UAEXKI@Z 006c91ae f   mfc100d:mfc100d.dll
 0002:001d21b4       ?RegisterWithRestartManager@CWinApp@@UAEJPB_WKP6GKPAX@Z1KK@Z 006c91b4 f   mfc100d:mfc100d.dll
 0002:001d21ba       ?RegisterWithRestartManager@CWinApp@@UAEJHABV?$CStringT@DV?$StrTraitMFC_DLL@DV?$ChTraitsCRT@D@ATL@@@@@ATL@@@Z 006c91ba f   mfc100d:mfc100d.dll
 0002:001d21c0       ?ApplicationRecoveryCallback@CWinApp@@UAEKPAX@Z 006c91c0 f   mfc100d:mfc100d.dll
 0002:001d21c6       ?GetDataRecoveryHandler@CWinApp@@UAEPAVCDataRecoveryHandler@@XZ 006c91c6 f   mfc100d:mfc100d.dll
 0002:001d21cc       ?IsTaskbarInteractionEnabled@CWinApp@@UAEHXZ 006c91cc f   mfc100d:mfc100d.dll
 0002:001d21d2       ?RestartInstance@CWinApp@@UAEHXZ 006c91d2 f   mfc100d:mfc100d.dll
 0002:001d21d8       ?LoadAppLangResourceDLL@CWinApp@@UAEPAUHINSTANCE__@@XZ 006c91d8 f   mfc100d:mfc100d.dll
 0002:001d21de       ?LoadSysPolicies@CWinApp@@UAEHXZ 006c91de f   mfc100d:mfc100d.dll
 0002:001d21e4       ?GetActiveView@CFrameWnd@@QBEPAVCView@@XZ 006c91e4 f   mfc100d:mfc100d.dll
 0002:001d21ea       ??1CCommandLineInfo@@UAE@XZ 006c91ea f   mfc100d:mfc100d.dll
 0002:001d21f0       ?ProcessShellCommand@CWinApp@@QAEHAAVCCommandLineInfo@@@Z 006c91f0 f   mfc100d:mfc100d.dll
 0002:001d21f6       ?ParseCommandLine@CWinApp@@QAEXAAVCCommandLineInfo@@@Z 006c91f6 f   mfc100d:mfc100d.dll
 0002:001d21fc       ??0CCommandLineInfo@@QAE@XZ 006c91fc f   mfc100d:mfc100d.dll
 0002:001d2202       ?AddDocTemplate@CWinApp@@QAEXPAVCDocTemplate@@@Z 006c9202 f   mfc100d:mfc100d.dll
 0002:001d2208       ??0CSingleDocTemplate@@QAE@IPAUCRuntimeClass@@00@Z 006c9208 f   mfc100d:mfc100d.dll
 0002:001d220e       ?EnableShellOpen@CWinApp@@IAEXXZ 006c920e f   mfc100d:mfc100d.dll
 0002:001d2214       ?LoadStdProfileSettings@CWinApp@@IAEXI@Z 006c9214 f   mfc100d:mfc100d.dll
 0002:001d221a       ?SetRegistryKey@CWinApp@@IAEXPBD@Z 006c921a f   mfc100d:mfc100d.dll
 0002:001d2220       ?Enable3dControls@CWinApp@@IAEHXZ 006c9220 f   mfc100d:mfc100d.dll
 0002:001d2226       ?AfxEnableControlContainer@@YAXPAVCOccManager@@@Z 006c9226 f   mfc100d:mfc100d.dll
 0002:001d222c       ?SetActiveView@CFrameWnd@@QAEXPAVCView@@H@Z 006c922c f   mfc100d:mfc100d.dll
 0002:001d2232       ?AfxStaticDownCast@@YAPAVCObject@@PAUCRuntimeClass@@PAV1@@Z 006c9232 f   mfc100d:mfc100d.dll
 0002:001d2238       ?CreateView@CFrameWnd@@QAEPAVCWnd@@PAUCCreateContext@@I@Z 006c9238 f   mfc100d:mfc100d.dll
 0002:001d223e       ??0CCreateContext@@QAE@XZ  006c923e f   mfc100d:mfc100d.dll
 0002:001d2244       ?ExitInstance@CWinApp@@UAEHXZ 006c9244 f   mfc100d:mfc100d.dll
 0002:001d224a       ?OnOpenRecentFile@CWinApp@@IAEHI@Z 006c924a f   mfc100d:mfc100d.dll
 0002:001d2250       ?DoMessageBox@CWinApp@@UAEHPBDII@Z 006c9250 f   mfc100d:mfc100d.dll
 0002:001d2256       ?Remove@?$CStringT@DV?$StrTraitMFC_DLL@DV?$ChTraitsCRT@D@ATL@@@@@ATL@@QAEHD@Z 006c9256 f   mfc100d:mfc100d.dll
 0002:001d225c       ?MakeUpper@?$CStringT@DV?$StrTraitMFC_DLL@DV?$ChTraitsCRT@D@ATL@@@@@ATL@@QAEAAV12@XZ 006c925c f   mfc100d:mfc100d.dll
 0002:001d2262       ?GetThisMessageMap@CFrameWnd@@KGPBUAFX_MSGMAP@@XZ 006c9262 f   mfc100d:mfc100d.dll
 0002:001d2268       ?GetThisClass@CFrameWnd@@SGPAUCRuntimeClass@@XZ 006c9268 f   mfc100d:mfc100d.dll
 0002:001d226e       ??1CFrameWnd@@UAE@XZ       006c926e f   mfc100d:mfc100d.dll
 0002:001d2274       ??0CStatusBar@@QAE@XZ      006c9274 f   mfc100d:mfc100d.dll
 0002:001d227a       ??0CFrameWnd@@QAE@XZ       006c927a f   mfc100d:mfc100d.dll
 0002:001d2280       ?OnCmdMsg@CFrameWnd@@UAEHIHPAXPAUAFX_CMDHANDLERINFO@@@Z 006c9280 f   mfc100d:mfc100d.dll
 0002:001d2286       ?GetMenu@CFrameWnd@@UBEPAVCMenu@@XZ 006c9286 f   mfc100d:mfc100d.dll
 0002:001d228c       ?SetMenu@CFrameWnd@@UAEHPAVCMenu@@@Z 006c928c f   mfc100d:mfc100d.dll
 0002:001d2292       ?OnCommand@CFrameWnd@@MAEHIJ@Z 006c9292 f   mfc100d:mfc100d.dll
 0002:001d2298       ?BeginModalState@CFrameWnd@@UAEXXZ 006c9298 f   mfc100d:mfc100d.dll
 0002:001d229e       ?EndModalState@CFrameWnd@@UAEXXZ 006c929e f   mfc100d:mfc100d.dll
 0002:001d22a4       ?PreTranslateMessage@CFrameWnd@@UAEHPAUtagMSG@@@Z 006c92a4 f   mfc100d:mfc100d.dll
 0002:001d22aa       ?PostNcDestroy@CFrameWnd@@MAEXXZ 006c92aa f   mfc100d:mfc100d.dll
 0002:001d22b0       ?IsFrameWnd@CFrameWnd@@UBEHXZ 006c92b0 f   mfc100d:mfc100d.dll
 0002:001d22b6       ?Create@CFrameWnd@@UAEHPBD0KABUtagRECT@@PAVCWnd@@0KPAUCCreateContext@@@Z 006c92b6 f   mfc100d:mfc100d.dll
 0002:001d22bc       ?LoadFrame@CFrameWnd@@UAEHIKPAVCWnd@@PAUCCreateContext@@@Z 006c92bc f   mfc100d:mfc100d.dll
 0002:001d22c2       ?GetActiveDocument@CFrameWnd@@UAEPAVCDocument@@XZ 006c92c2 f   mfc100d:mfc100d.dll
 0002:001d22c8       ?GetActiveFrame@CFrameWnd@@UAEPAV1@XZ 006c92c8 f   mfc100d:mfc100d.dll
 0002:001d22ce       ?GetMessageString@CFrameWnd@@UBEXIAAV?$CStringT@DV?$StrTraitMFC_DLL@DV?$ChTraitsCRT@D@ATL@@@@@ATL@@@Z 006c92ce f   mfc100d:mfc100d.dll
 0002:001d22d4       ?RecalcLayout@CFrameWnd@@UAEXH@Z 006c92d4 f   mfc100d:mfc100d.dll
 0002:001d22da       ?ActivateFrame@CFrameWnd@@UAEXH@Z 006c92da f   mfc100d:mfc100d.dll
 0002:001d22e0       ?SetMenuBarVisibility@CFrameWnd@@UAEXK@Z 006c92e0 f   mfc100d:mfc100d.dll
 0002:001d22e6       ?GetMenuBarVisibility@CFrameWnd@@UBEKXZ 006c92e6 f   mfc100d:mfc100d.dll
 0002:001d22ec       ?SetMenuBarState@CFrameWnd@@UAEHK@Z 006c92ec f   mfc100d:mfc100d.dll
 0002:001d22f2       ?GetMenuBarState@CFrameWnd@@UBEKXZ 006c92f2 f   mfc100d:mfc100d.dll
 0002:001d22f8       ?OnSetPreviewMode@CFrameWnd@@UAEXHPAUCPrintPreviewState@@@Z 006c92f8 f   mfc100d:mfc100d.dll
 0002:001d22fe       ?GetMessageBar@CFrameWnd@@UAEPAVCWnd@@XZ 006c92fe f   mfc100d:mfc100d.dll
 0002:001d2304       ?NegotiateBorderSpace@CFrameWnd@@UAEHIPAUtagRECT@@@Z 006c9304 f   mfc100d:mfc100d.dll
 0002:001d230a       ?OnCreateClient@CFrameWnd@@MAEHPAUtagCREATESTRUCTA@@PAUCCreateContext@@@Z 006c930a f   mfc100d:mfc100d.dll
 0002:001d2310       ?OnUpdateFrameTitle@CFrameWnd@@UAEXH@Z 006c9310 f   mfc100d:mfc100d.dll
 0002:001d2316       ?OnUpdateFrameMenu@CFrameWnd@@UAEXPAUHMENU__@@@Z 006c9316 f   mfc100d:mfc100d.dll
 0002:001d231c       ?GetDefaultAccelerator@CFrameWnd@@UAEPAUHACCEL__@@XZ 006c931c f   mfc100d:mfc100d.dll
 0002:001d2322       ?DelayUpdateFrameMenu@CFrameWnd@@UAEXPAUHMENU__@@@Z 006c9322 f   mfc100d:mfc100d.dll
 0002:001d2328       ?ExitHelpMode@CFrameWnd@@UAEXXZ 006c9328 f   mfc100d:mfc100d.dll
 0002:001d232e       ?OnShowMenuBar@CFrameWnd@@MAEXXZ 006c932e f   mfc100d:mfc100d.dll
 0002:001d2334       ?OnHideMenuBar@CFrameWnd@@MAEXXZ 006c9334 f   mfc100d:mfc100d.dll
 0002:001d233a       ??1CStatusBar@@UAE@XZ      006c933a f   mfc100d:mfc100d.dll
 0002:001d2340       ?DragAcceptFiles@CWnd@@QAEXH@Z 006c9340 f   mfc100d:mfc100d.dll
 0002:001d2346       ?SetTimer@CWnd@@QAEIIIP6GXPAUHWND__@@IIK@Z@Z 006c9346 f   mfc100d:mfc100d.dll
 0002:001d234c       ?SetPaneText@CStatusBar@@QAEHHPBDH@Z 006c934c f   mfc100d:mfc100d.dll
 0002:001d2352       ?GetFont@CWnd@@QBEPAVCFont@@XZ 006c9352 f   mfc100d:mfc100d.dll
 0002:001d2358       ?SetPaneInfo@CStatusBar@@QAEXHIIH@Z 006c9358 f   mfc100d:mfc100d.dll
 0002:001d235e       ?GetPaneInfo@CStatusBar@@QBEXHAAI0AAH@Z 006c935e f   mfc100d:mfc100d.dll
 0002:001d2364       ?SetIndicators@CStatusBar@@QAEHPBIH@Z 006c9364 f   mfc100d:mfc100d.dll
 0002:001d236a       ?OnCreate@CFrameWnd@@IAEHPAUtagCREATESTRUCTA@@@Z 006c936a f   mfc100d:mfc100d.dll
 0002:001d2370       ?PreCreateWindow@CFrameWnd@@MAEHAAUtagCREATESTRUCTA@@@Z 006c9370 f   mfc100d:mfc100d.dll
 0002:001d2376       ?AssertValid@CFrameWnd@@UBEXXZ 006c9376 f   mfc100d:mfc100d.dll
 0002:001d237c       ?Dump@CFrameWnd@@UBEXAAVCDumpContext@@@Z 006c937c f   mfc100d:mfc100d.dll
 0002:001d2382       ?OnSysCommand@CFrameWnd@@IAEXIJ@Z 006c9382 f   mfc100d:mfc100d.dll
 0002:001d2388       ?OnTimer@CWnd@@IAEXI@Z     006c9388 f   mfc100d:mfc100d.dll
 0002:001d238e       ?OnSetCursor@CFrameWnd@@IAEHPAVCWnd@@II@Z 006c938e f   mfc100d:mfc100d.dll
 0002:001d2394       ?OnSize@CFrameWnd@@IAEXIHH@Z 006c9394 f   mfc100d:mfc100d.dll
 0002:001d239a       ?GetWindowPlacement@CWnd@@QBEHPAUtagWINDOWPLACEMENT@@@Z 006c939a f   mfc100d:mfc100d.dll
 0002:001d23a0       ?GetThisMessageMap@CToolBar@@KGPBUAFX_MSGMAP@@XZ 006c93a0 f   mfc100d:mfc100d.dll
 0002:001d23a6       ?GetThisClass@CToolBar@@SGPAUCRuntimeClass@@XZ 006c93a6 f   mfc100d:mfc100d.dll
 0002:001d23ac       ??1CToolBar@@UAE@XZ        006c93ac f   mfc100d:mfc100d.dll
 0002:001d23b2       ??0CToolBar@@QAE@XZ        006c93b2 f   mfc100d:mfc100d.dll
 0002:001d23b8       ?AssertValid@CToolBar@@UBEXXZ 006c93b8 f   mfc100d:mfc100d.dll
 0002:001d23be       ?Dump@CToolBar@@UBEXAAVCDumpContext@@@Z 006c93be f   mfc100d:mfc100d.dll
 0002:001d23c4       ?DestroyWindow@CControlBar@@UAEHXZ 006c93c4 f   mfc100d:mfc100d.dll
 0002:001d23ca       ?PreCreateWindow@CControlBar@@UAEHAAUtagCREATESTRUCTA@@@Z 006c93ca f   mfc100d:mfc100d.dll
 0002:001d23d0       ?OnToolHitTest@CToolBar@@UBEHVCPoint@@PAUtagTOOLINFOA@@@Z 006c93d0 f   mfc100d:mfc100d.dll
 0002:001d23d6       ?get_accName@CToolBar@@UAEJUtagVARIANT@@PAPA_W@Z 006c93d6 f   mfc100d:mfc100d.dll
 0002:001d23dc       ?PreTranslateMessage@CControlBar@@UAEHPAUtagMSG@@@Z 006c93dc f   mfc100d:mfc100d.dll
 0002:001d23e2       ?WindowProc@CControlBar@@UAEJIIJ@Z 006c93e2 f   mfc100d:mfc100d.dll
 0002:001d23e8       ?PostNcDestroy@CControlBar@@UAEXXZ 006c93e8 f   mfc100d:mfc100d.dll
 0002:001d23ee       ?CalcFixedLayout@CToolBar@@UAE?AVCSize@@HH@Z 006c93ee f   mfc100d:mfc100d.dll
 0002:001d23f4       ?CalcDynamicLayout@CToolBar@@UAE?AVCSize@@HK@Z 006c93f4 f   mfc100d:mfc100d.dll
 0002:001d23fa       ?OnUpdateCmdUI@CToolBar@@UAEXPAVCFrameWnd@@H@Z 006c93fa f   mfc100d:mfc100d.dll
 0002:001d2400       ?CalcInsideRect@CControlBar@@UBEXAAVCRect@@H@Z 006c9400 f   mfc100d:mfc100d.dll
 0002:001d2406       ?DoPaint@CControlBar@@UAEXPAVCDC@@@Z 006c9406 f   mfc100d:mfc100d.dll
 0002:001d240c       ?DrawBorders@CControlBar@@UAEXPAVCDC@@AAVCRect@@@Z 006c940c f   mfc100d:mfc100d.dll
 0002:001d2412       ?DrawGripper@CControlBar@@UAEXPAVCDC@@ABVCRect@@@Z 006c9412 f   mfc100d:mfc100d.dll
 0002:001d2418       ?DrawNCGripper@CControlBar@@UAEXPAVCDC@@ABVCRect@@@Z 006c9418 f   mfc100d:mfc100d.dll
 0002:001d241e       ?DrawThemedGripper@CControlBar@@UAEHPAVCDC@@ABVCRect@@H@Z 006c941e f   mfc100d:mfc100d.dll
 0002:001d2424       ?DrawNonThemedGripper@CControlBar@@UAEHPAVCDC@@ABVCRect@@@Z 006c9424 f   mfc100d:mfc100d.dll
 0002:001d242a       ?DelayShow@CControlBar@@UAEXH@Z 006c942a f   mfc100d:mfc100d.dll
 0002:001d2430       ?IsVisible@CControlBar@@UBEHXZ 006c9430 f   mfc100d:mfc100d.dll
 0002:001d2436       ?RecalcDelayShow@CControlBar@@UAEKPAUAFX_SIZEPARENTPARAMS@@@Z 006c9436 f   mfc100d:mfc100d.dll
 0002:001d243c       ?IsDockBar@CControlBar@@UBEHXZ 006c943c f   mfc100d:mfc100d.dll
 0002:001d2442       ?OnBarStyleChange@CToolBar@@UAEXKK@Z 006c9442 f   mfc100d:mfc100d.dll
 0002:001d2448       ?SetStatusText@CControlBar@@UAEHH@Z 006c9448 f   mfc100d:mfc100d.dll
 0002:001d244e       ?Create@CToolBar@@UAEHPAVCWnd@@KI@Z 006c944e f   mfc100d:mfc100d.dll
 0002:001d2454       ?CreateEx@CToolBar@@UAEHPAVCWnd@@KKVCRect@@I@Z 006c9454 f   mfc100d:mfc100d.dll
 0002:001d245a       ?GetItemRect@CToolBar@@UBEXHPAUtagRECT@@@Z 006c945a f   mfc100d:mfc100d.dll
 0002:001d2460       ?SetFont@CWnd@@QAEXPAVCFont@@H@Z 006c9460 f   mfc100d:mfc100d.dll
 0002:001d2466       ?SetButtonInfo@CToolBar@@QAEXHIIH@Z 006c9466 f   mfc100d:mfc100d.dll
 0002:001d246c       ?LoadToolBar@CToolBar@@QAEHI@Z 006c946c f   mfc100d:mfc100d.dll
 0002:001d2472       ?OnCreate@CControlBar@@QAEHPAUtagCREATESTRUCTA@@@Z 006c9472 f   mfc100d:mfc100d.dll
 0002:001d2478       ?ResetContent@CComboBox@@QAEXXZ 006c9478 f   mfc100d:mfc100d.dll
 0002:001d247e       ?GetSize@CMapStringToPtr@@QBEHXZ 006c947e f   mfc100d:mfc100d.dll
 0002:001d2484       ?Append@?$CSimpleStringT@D$00@ATL@@QAEXABV12@@Z 006c9484 f   mfc100d:mfc100d.dll
 0002:001d248a       ?GetThisMessageMap@CWnd@@KGPBUAFX_MSGMAP@@XZ 006c948a f   mfc100d:mfc100d.dll
 0002:001d2490       ?GetSafeOwner@CWnd@@SGPAV1@PAV1@PAPAUHWND__@@@Z 006c9490 f   mfc100d:mfc100d.dll
 0002:001d2496       ??0CWnd@@QAE@XZ            006c9496 f   mfc100d:mfc100d.dll
 0002:001d249c       ?GetRuntimeClass@CWnd@@UBEPAUCRuntimeClass@@XZ 006c949c f   mfc100d:mfc100d.dll
 0002:001d24a2       ?AssertValid@CWnd@@UBEXXZ  006c94a2 f   mfc100d:mfc100d.dll
 0002:001d24a8       ?Dump@CWnd@@UBEXAAVCDumpContext@@@Z 006c94a8 f   mfc100d:mfc100d.dll
 0002:001d24ae       ?SubclassWindow@CWnd@@QAEHPAUHWND__@@@Z 006c94ae f   mfc100d:mfc100d.dll
 0002:001d24b4       ?EndWaitCursor@CCmdTarget@@QAEXXZ 006c94b4 f   mfc100d:mfc100d.dll
 0002:001d24ba       ?CloseEnhanced@CMetaFileDC@@QAEPAUHENHMETAFILE__@@XZ 006c94ba f   mfc100d:mfc100d.dll
 0002:001d24c0       ??BCDC@@QBEPAUHDC__@@XZ    006c94c0 f   mfc100d:mfc100d.dll
 0002:001d24c6       ?CreateEnhanced@CMetaFileDC@@QAEHPAVCDC@@PBDPBUtagRECT@@1@Z 006c94c6 f   mfc100d:mfc100d.dll
 0002:001d24cc       ?GetDeviceCaps@CDC@@QBEHH@Z 006c94cc f   mfc100d:mfc100d.dll
 0002:001d24d2       ??0CPtrArray@@QAE@XZ       006c94d2 f   mfc100d:mfc100d.dll
 0002:001d24d8       ?GetRuntimeClass@CPtrArray@@UBEPAUCRuntimeClass@@XZ 006c94d8 f   mfc100d:mfc100d.dll
 0002:001d24de       ?AssertValid@CPtrArray@@UBEXXZ 006c94de f   mfc100d:mfc100d.dll
 0002:001d24e4       ?Dump@CPtrArray@@UBEXAAVCDumpContext@@@Z 006c94e4 f   mfc100d:mfc100d.dll
 0002:001d24ea       ??1CPtrArray@@UAE@XZ       006c94ea f   mfc100d:mfc100d.dll
 0002:001d24f0       ?RemoveAll@CPtrArray@@QAEXXZ 006c94f0 f   mfc100d:mfc100d.dll
 0002:001d24f6       ??1CFileDialog@@UAE@XZ     006c94f6 f   mfc100d:mfc100d.dll
 0002:001d24fc       ?GetPathName@CFileDialog@@QBE?AV?$CStringT@DV?$StrTraitMFC_DLL@DV?$ChTraitsCRT@D@ATL@@@@@ATL@@XZ 006c94fc f   mfc100d:mfc100d.dll
 0002:001d2502       ?DoModal@CFileDialog@@UAEHXZ 006c9502 f   mfc100d:mfc100d.dll
 0002:001d2508       ?GetOFN@CFileDialog@@QAEAAUtagOFNA@@XZ 006c9508 f   mfc100d:mfc100d.dll
 0002:001d250e       ??0CFileDialog@@QAE@HPBD0K0PAVCWnd@@KH@Z 006c950e f   mfc100d:mfc100d.dll
 0002:001d2514       ?Add@CPtrArray@@QAEHPAX@Z  006c9514 f   mfc100d:mfc100d.dll
 0002:001d251a       ??ACPtrArray@@QAEAAPAXH@Z  006c951a f   mfc100d:mfc100d.dll
 0002:001d2520       ?GetBuffer@?$CSimpleStringT@D$00@ATL@@QAEPADXZ 006c9520 f   mfc100d:mfc100d.dll
 0002:001d2526       ?SpanIncluding@?$CStringT@DV?$StrTraitMFC_DLL@DV?$ChTraitsCRT@D@ATL@@@@@ATL@@QBE?AV12@PBD@Z 006c9526 f   mfc100d:mfc100d.dll
 0002:001d252c       ?Arc@CDC@@QAEHHHHHHHHH@Z   006c952c f   mfc100d:mfc100d.dll
 0002:001d2532       ?Arc@CDC@@QAEHPBUtagRECT@@UtagPOINT@@1@Z 006c9532 f   mfc100d:mfc100d.dll
 0002:001d2538       ??4?$CStringT@DV?$StrTraitMFC_DLL@DV?$ChTraitsCRT@D@ATL@@@@@ATL@@QAEAAV01@PBE@Z 006c9538 f   mfc100d:mfc100d.dll
 0002:001d253e       __CrtDbgReport             006c953e f   msvcrtd:MSVCR100D.dll
 0002:001d2550       __RTC_CheckEsp             006c9550 f   msvcrtd:_stack_.obj
 0002:001d2580       @_RTC_CheckStackVars@8     006c9580 f   msvcrtd:_stack_.obj
 0002:001d2600       @_RTC_AllocaHelper@12      006c9600 f   msvcrtd:_stack_.obj
 0002:001d2640       @_RTC_CheckStackVars2@12   006c9640 f   msvcrtd:_stack_.obj
 0002:001d2750       __RTC_InitBase             006c9750 f   msvcrtd:_init_.obj
 0002:001d2790       __RTC_Shutdown             006c9790 f   msvcrtd:_init_.obj
 0002:001d27a8       _srand                     006c97a8 f   msvcrtd:MSVCR100D.dll
 0002:001d27ae       __wassert                  006c97ae f   msvcrtd:MSVCR100D.dll
 0002:001d27b4       _rand                      006c97b4 f   msvcrtd:MSVCR100D.dll
 0002:001d27c0       ?_RTC_Failure@@YAXPAXH@Z   006c97c0 f   msvcrtd:_error_.obj
 0002:001d2c50       ?_RTC_StackFailure@@YAXPAXPBD@Z 006c9c50 f   msvcrtd:_error_.obj
 0002:001d2d90       ?_RTC_AllocaFailure@@YAXPAXPAU_RTC_ALLOCA_NODE@@H@Z 006c9d90 f   msvcrtd:_error_.obj
 0002:001d2fa0       __RTC_UninitUse            006c9fa0 f   msvcrtd:_error_.obj
 0002:001d30c4       ___CxxFrameHandler3        006ca0c4 f   msvcrtd:MSVCR100D.dll
 0002:001d30d0       @__security_check_cookie@4 006ca0d0 f   msvcrtd:secchk.obj
 0002:001d30f0       __ftol2_sse                006ca0f0 f   msvcrtd:ftol2.obj
 0002:001d30f9       __ftol2_pentium4           006ca0f9 f   msvcrtd:ftol2.obj
 0002:001d310c       __ftol2_sse_excpt          006ca10c f   msvcrtd:ftol2.obj
 0002:001d3126       __ftol2                    006ca126 f   msvcrtd:ftol2.obj
 0002:001d31c6       _free                      006ca1c6 f   msvcrtd:MSVCR100D.dll
 0002:001d31cc       _abs                       006ca1cc f   msvcrtd:MSVCR100D.dll
 0002:001d31e0       __chkstk                   006ca1e0 f   msvcrtd:chkstk.obj
 0002:001d31e0       __alloca_probe             006ca1e0     msvcrtd:chkstk.obj
 0002:001d3220       __allmul                   006ca220 f   msvcrtd:llmul.obj
 0002:001d3262       _floor                     006ca262 f   msvcrtd:MSVCR100D.dll
 0002:001d3268       _calloc                    006ca268 f   msvcrtd:MSVCR100D.dll
 0002:001d3270       ??0type_info@@AAE@ABV0@@Z  006ca270 f   msvcrtd:ti_inst.obj
 0002:001d32a0       ??_Etype_info@@UAEPAXI@Z   006ca2a0 f i msvcrtd:ti_inst.obj
 0002:001d3330       ??4type_info@@AAEAAV0@ABV0@@Z 006ca330 f   msvcrtd:ti_inst.obj
 0002:001d3346       _memset                    006ca346 f   msvcrtd:MSVCR100D.dll
 0002:001d334c       _memcpy_s                  006ca34c f   msvcrtd:MSVCR100D.dll
 0002:001d3352       _atoi                      006ca352 f   msvcrtd:MSVCR100D.dll
 0002:001d3358       _atof                      006ca358 f   msvcrtd:MSVCR100D.dll
 0002:001d3360       __onexit                   006ca360 f   msvcrtd:atonexit.obj
 0002:001d3490       _atexit                    006ca490 f   msvcrtd:atonexit.obj
 0002:001d34c0       ??_L@YGXPAXIHP6EX0@Z1@Z    006ca4c0 f   msvcrtd:ehvecctr.obj
 0002:001d35a0       ??_M@YGXPAXIHP6EX0@Z@Z     006ca5a0 f   msvcrtd:ehvecdtr.obj
 0002:001d3680       ?__ArrayUnwind@@YGXPAXIHP6EX0@Z@Z 006ca680 f   msvcrtd:ehvecdtr.obj
 0002:001d376a       _memmove_s                 006ca76a f   msvcrtd:MSVCR100D.dll
 0002:001d3770       __chdir                    006ca770 f   msvcrtd:MSVCR100D.dll
 0002:001d3776       __mkdir                    006ca776 f   msvcrtd:MSVCR100D.dll
 0002:001d377c       __stat64i32                006ca77c f   msvcrtd:MSVCR100D.dll
 0002:001d3782       __localtime64              006ca782 f   msvcrtd:MSVCR100D.dll
 0002:001d3788       __time64                   006ca788 f   msvcrtd:MSVCR100D.dll
 0002:001d378e       _strcmp                    006ca78e f   msvcrtd:MSVCR100D.dll
 0002:001d3794       _cos                       006ca794 f   msvcrtd:MSVCR100D.dll
 0002:001d379a       _sin                       006ca79a f   msvcrtd:MSVCR100D.dll
 0002:001d37a0       _sqrt                      006ca7a0 f   msvcrtd:MSVCR100D.dll
 0002:001d37a6       _fabs                      006ca7a6 f   msvcrtd:MSVCR100D.dll
 0002:001d37ac       _qsort                     006ca7ac f   msvcrtd:MSVCR100D.dll
 0002:001d37b2       _malloc                    006ca7b2 f   msvcrtd:MSVCR100D.dll
 0002:001d37b8       _ldiv                      006ca7b8 f   msvcrtd:MSVCR100D.dll
 0002:001d37be       _rename                    006ca7be f   msvcrtd:MSVCR100D.dll
 0002:001d37c4       _remove                    006ca7c4 f   msvcrtd:MSVCR100D.dll
 0002:001d37ca       __splitpath                006ca7ca f   msvcrtd:MSVCR100D.dll
 0002:001d37d0       _strcat_s                  006ca7d0 f   msvcrtd:MSVCR100D.dll
 0002:001d37d6       _strlen                    006ca7d6 f   msvcrtd:MSVCR100D.dll
 0002:001d37dc       _labs                      006ca7dc f   msvcrtd:MSVCR100D.dll
 0002:001d37e2       __ftime64                  006ca7e2 f   msvcrtd:MSVCR100D.dll
 0002:001d37e8       __difftime64               006ca7e8 f   msvcrtd:MSVCR100D.dll
 0002:001d37ee       _atan2                     006ca7ee f   msvcrtd:MSVCR100D.dll
 0002:001d37f4       _fmod                      006ca7f4 f   msvcrtd:MSVCR100D.dll
 0002:001d37fa       _strcpy_s                  006ca7fa f   msvcrtd:MSVCR100D.dll
 0002:001d3800       __fullpath                 006ca800 f   msvcrtd:MSVCR100D.dll
 0002:001d3806       _memcpy                    006ca806 f   msvcrtd:MSVCR100D.dll
 0002:001d380c       ___sys_errlist             006ca80c f   msvcrtd:MSVCR100D.dll
 0002:001d3812       __CxxThrowException@8      006ca812 f   msvcrtd:MSVCR100D.dll
 0002:001d3818       __purecall                 006ca818 f   msvcrtd:MSVCR100D.dll
 0002:001d381e       _modf                      006ca81e f   msvcrtd:MSVCR100D.dll
 0002:001d3830       __alldiv                   006ca830 f   msvcrtd:lldiv.obj
 0002:001d3904       _memcmp                    006ca904 f   msvcrtd:MSVCR100D.dll
 0002:001d390a       _tan                       006ca90a f   msvcrtd:MSVCR100D.dll
 0002:001d3910       _llabs                     006ca910 f   msvcrtd:MSVCR100D.dll
 0002:001d3916       _exit                      006ca916 f   msvcrtd:MSVCR100D.dll
 0002:001d391c       _fprintf                   006ca91c f   msvcrtd:MSVCR100D.dll
 0002:001d3922       ___iob_func                006ca922 f   msvcrtd:MSVCR100D.dll
 0002:001d3928       _fscanf                    006ca928 f   msvcrtd:MSVCR100D.dll
 0002:001d392e       _strcpy                    006ca92e f   msvcrtd:MSVCR100D.dll
 0002:001d3934       __access                   006ca934 f   msvcrtd:MSVCR100D.dll
 0002:001d393a       _strcat                    006ca93a f   msvcrtd:MSVCR100D.dll
 0002:001d3940       _acos                      006ca940 f   msvcrtd:MSVCR100D.dll
 0002:001d3946       _asin                      006ca946 f   msvcrtd:MSVCR100D.dll
 0002:001d394c       __mbsrchr                  006ca94c f   msvcrtd:MSVCR100D.dll
 0002:001d3952       _fread                     006ca952 f   msvcrtd:MSVCR100D.dll
 0002:001d3958       _fwrite                    006ca958 f   msvcrtd:MSVCR100D.dll
 0002:001d395e       _sscanf                    006ca95e f   msvcrtd:MSVCR100D.dll
 0002:001d3964       _fgets                     006ca964 f   msvcrtd:MSVCR100D.dll
 0002:001d396a       _feof                      006ca96a f   msvcrtd:MSVCR100D.dll
 0002:001d3970       _fclose                    006ca970 f   msvcrtd:MSVCR100D.dll
 0002:001d3976       _fopen                     006ca976 f   msvcrtd:MSVCR100D.dll
 0002:001d397c       __exit                     006ca97c f   msvcrtd:MSVCR100D.dll
 0002:001d3982       _atan                      006ca982 f   msvcrtd:MSVCR100D.dll
 0002:001d3ab0       _WinMainCRTStartup         006caab0 f   msvcrtd:crtexew.obj
 0002:001d3e90       _NtCurrentTeb              006cae90 f i msvcrtd:crtexew.obj
 0002:001d3f2a       _log10                     006caf2a f   msvcrtd:MSVCR100D.dll
 0002:001d3f30       _pow                       006caf30 f   msvcrtd:MSVCR100D.dll
 0002:001d3f36       _strstr                    006caf36 f   msvcrtd:MSVCR100D.dll
 0002:001d3f3c       _strncpy                   006caf3c f   msvcrtd:MSVCR100D.dll
 0002:001d3f42       _sprintf                   006caf42 f   msvcrtd:MSVCR100D.dll
 0002:001d3f48       _fputs                     006caf48 f   msvcrtd:MSVCR100D.dll
 0002:001d3f4e       _fputc                     006caf4e f   msvcrtd:MSVCR100D.dll
 0002:001d3f54       _strncmp                   006caf54 f   msvcrtd:MSVCR100D.dll
 0002:001d3f5a       _strchr                    006caf5a f   msvcrtd:MSVCR100D.dll
 0002:001d3f60       _ceil                      006caf60 f   msvcrtd:MSVCR100D.dll
 0002:001d3f66       _vfprintf                  006caf66 f   msvcrtd:MSVCR100D.dll
 0002:001d3f6c       _strncat                   006caf6c f   msvcrtd:MSVCR100D.dll
 0002:001d3f72       _printf                    006caf72 f   msvcrtd:MSVCR100D.dll
 0002:001d3f78       _realloc                   006caf78 f   msvcrtd:MSVCR100D.dll
 0002:001d3f7e       _fgetc                     006caf7e f   msvcrtd:MSVCR100D.dll
 0002:001d3f84       _getc                      006caf84 f   msvcrtd:MSVCR100D.dll
 0002:001d3f8a       _fseek                     006caf8a f   msvcrtd:MSVCR100D.dll
 0002:001d3f90       __RTC_NumErrors            006caf90 f   msvcrtd:_userapi_.obj
 0002:001d3fa0       __RTC_GetErrDesc           006cafa0 f   msvcrtd:_userapi_.obj
 0002:001d3fc0       __RTC_SetErrorType         006cafc0 f   msvcrtd:_userapi_.obj
 0002:001d3ff0       __RTC_SetErrorFunc         006caff0 f   msvcrtd:_userapi_.obj
 0002:001d4020       __RTC_SetErrorFuncW        006cb020 f   msvcrtd:_userapi_.obj
 0002:001d4050       ?_RTC_GetErrorFunc@@YAP6AHHPBDH00ZZPBX@Z 006cb050 f   msvcrtd:_userapi_.obj
 0002:001d4060       ?_RTC_GetErrorFuncW@@YAP6AHHPB_WH00ZZPBX@Z 006cb060 f   msvcrtd:_userapi_.obj
 0002:001d4066       __CRT_RTC_INITW            006cb066 f   msvcrtd:MSVCR100D.dll
 0002:001d4070       ?_RTC_GetSrcLine@@YAHPAEPA_WKPAH1K@Z 006cb070 f   msvcrtd:_pdblkup_.obj
 0002:001d4650       __except_handler4          006cb650 f   msvcrtd:chandler4gs.obj
 0002:001d4690       ___report_gsfailure        006cb690 f   msvcrtd:gs_report.obj
 0002:001d47f0       ___sse2_available_init     006cb7f0 f   msvcrtd:cpu_disp.obj
 0002:001d480c       __unlock                   006cb80c f   msvcrtd:MSVCR100D.dll
 0002:001d4812       ___dllonexit               006cb812 f   msvcrtd:MSVCR100D.dll
 0002:001d4818       __lock                     006cb818 f   msvcrtd:MSVCR100D.dll
 0002:001d481e       ?terminate@@YAXXZ          006cb81e f   msvcrtd:MSVCR100D.dll
 0002:001d4830       ?__CxxUnhandledExceptionFilter@@YGJPAU_EXCEPTION_POINTERS@@@Z 006cb830 f   msvcrtd:unhandld.obj
 0002:001d48b0       ___CxxSetUnhandledExceptionFilter 006cb8b0 f   msvcrtd:unhandld.obj
 0002:001d48ca       __configthreadlocale       006cb8ca f   msvcrtd:MSVCR100D.dll
 0002:001d48d0       __setdefaultprecision      006cb8d0 f   msvcrtd:fp8.obj
 0002:001d4920       __invoke_watson_if_error   006cb920 f i msvcrtd:fp8.obj
 0002:001d4952       ___setusermatherr          006cb952 f   msvcrtd:MSVCR100D.dll
 0002:001d4960       __matherr                  006cb960 f   msvcrtd:merr.obj
 0002:001d4970       __setargv                  006cb970 f   msvcrtd:dllargv.obj
 0002:001d4980       __RTC_Initialize           006cb980 f   msvcrtd:_initsect_.obj
 0002:001d49b0       __RTC_Terminate            006cb9b0 f   msvcrtd:_initsect_.obj
 0002:001d49e0       ___set_app_type            006cb9e0 f   msvcrtd:MSVCR100D.dll
 0002:001d49e6       __amsg_exit                006cb9e6 f   msvcrtd:MSVCR100D.dll
 0002:001d49ec       ___getmainargs             006cb9ec f   msvcrtd:MSVCR100D.dll
 0002:001d4a00       ___security_init_cookie    006cba00 f   msvcrtd:gs_support.obj
 0002:001d4b18       __XcptFilter               006cbb18 f   msvcrtd:MSVCR100D.dll
 0002:001d4b1e       __cexit                    006cbb1e f   msvcrtd:MSVCR100D.dll
 0002:001d4b24       __ismbblead                006cbb24 f   msvcrtd:MSVCR100D.dll
 0002:001d4b2a       __CrtSetCheckCount         006cbb2a f   msvcrtd:MSVCR100D.dll
 0002:001d4b30       __ValidateImageBase        006cbb30 f   msvcrtd:pesect.obj
 0002:001d4bb0       __FindPESection            006cbbb0 f   msvcrtd:pesect.obj
 0002:001d4c50       __IsNonwritableInCurrentImage 006cbc50 f   msvcrtd:pesect.obj
 0002:001d4da6       __CrtDbgReportW            006cbda6 f   msvcrtd:MSVCR100D.dll
 0002:001d4dac       __initterm                 006cbdac f   msvcrtd:MSVCR100D.dll
 0002:001d4db2       __initterm_e               006cbdb2 f   msvcrtd:MSVCR100D.dll
 0002:001d4db8       __stat32                   006cbdb8 f   msvcrtd:MSVCR100D.dll
 0002:001d4dbe       __localtime32              006cbdbe f   msvcrtd:MSVCR100D.dll
 0002:001d4dc4       __mktime32                 006cbdc4 f   msvcrtd:MSVCR100D.dll
 0002:001d4dca       __time32                   006cbdca f   msvcrtd:MSVCR100D.dll
 0002:001d4dd0       __except_handler4_common   006cbdd0 f   msvcrtd:MSVCR100D.dll
 0002:001d4dd6       __crt_debugger_hook        006cbdd6 f   msvcrtd:MSVCR100D.dll
 0002:001d4ddc       ??1type_info@@UAE@XZ       006cbddc f   msvcrtd:MSVCR100D.dll
 0002:001d4ddc       ?_type_info_dtor_internal_method@type_info@@QAEXXZ 006cbddc f   msvcrtd:MSVCR100D.dll
 0002:001d4de2       __controlfp_s              006cbde2 f   msvcrtd:MSVCR100D.dll
 0002:001d4de8       __invoke_watson            006cbde8 f   msvcrtd:MSVCR100D.dll
 0002:001d4dee       _DeleteFileA@4             006cbdee f   kernel32:KERNEL32.dll
 0002:001d4df4       _FindNextFileA@8           006cbdf4 f   kernel32:KERNEL32.dll
 0002:001d4dfa       _FindFirstFileA@8          006cbdfa f   kernel32:KERNEL32.dll
 0002:001d4e00       _GetCommandLineA@0         006cbe00 f   kernel32:KERNEL32.dll
 0002:001d4e06       _GetFullPathNameA@16       006cbe06 f   kernel32:KERNEL32.dll
 0002:001d4e0c       _Sleep@4                   006cbe0c f   kernel32:KERNEL32.dll
 0002:001d4e12       _GlobalAlloc@8             006cbe12 f   kernel32:KERNEL32.dll
 0002:001d4e18       _CopyFileA@12              006cbe18 f   kernel32:KERNEL32.dll
 0002:001d4e1e       _GetLastError@0            006cbe1e f   kernel32:KERNEL32.dll
 0002:001d4e24       _GetFileAttributesA@4      006cbe24 f   kernel32:KERNEL32.dll
 0002:001d4e2a       _InterlockedIncrement@4    006cbe2a f   kernel32:KERNEL32.dll
 0002:001d4e30       _InterlockedDecrement@4    006cbe30 f   kernel32:KERNEL32.dll
 0002:001d4e36       _GetCurrentDirectoryA@8    006cbe36 f   kernel32:KERNEL32.dll
 0002:001d4e3c       _CreateDirectoryA@8        006cbe3c f   kernel32:KERNEL32.dll
 0002:001d4e42       _FreeLibrary@4             006cbe42 f   kernel32:KERNEL32.dll
 0002:001d4e48       _GetProcAddress@8          006cbe48 f   kernel32:KERNEL32.dll
 0002:001d4e4e       _LoadLibraryA@4            006cbe4e f   kernel32:KERNEL32.dll
 0002:001d4e54       _EnterCriticalSection@4    006cbe54 f   kernel32:KERNEL32.dll
 0002:001d4e5a       _InitializeCriticalSection@4 006cbe5a f   kernel32:KERNEL32.dll
 0002:001d4e60       _DeleteCriticalSection@4   006cbe60 f   kernel32:KERNEL32.dll
 0002:001d4e66       _LeaveCriticalSection@4    006cbe66 f   kernel32:KERNEL32.dll
 0002:001d4e6c       _WaitForSingleObject@8     006cbe6c f   kernel32:KERNEL32.dll
 0002:001d4e72       _ReleaseMutex@4            006cbe72 f   kernel32:KERNEL32.dll
 0002:001d4e78       _MapViewOfFile@20          006cbe78 f   kernel32:KERNEL32.dll
 0002:001d4e7e       _CreateFileMappingA@24     006cbe7e f   kernel32:KERNEL32.dll
 0002:001d4e84       _CreateMutexA@12           006cbe84 f   kernel32:KERNEL32.dll
 0002:001d4e8a       _OutputDebugStringA@4      006cbe8a f   kernel32:KERNEL32.dll
 0002:001d4e90       _CloseHandle@4             006cbe90 f   kernel32:KERNEL32.dll
 0002:001d4e96       _WriteFile@20              006cbe96 f   kernel32:KERNEL32.dll
 0002:001d4e9c       _SetFilePointer@16         006cbe9c f   kernel32:KERNEL32.dll
 0002:001d4ea2       _GetModuleFileNameA@12     006cbea2 f   kernel32:KERNEL32.dll
 0002:001d4ea8       _GetCurrentThreadId@0      006cbea8 f   kernel32:KERNEL32.dll
 0002:001d4eae       _GetCurrentProcessId@0     006cbeae f   kernel32:KERNEL32.dll
 0002:001d4eb4       _GetLocalTime@4            006cbeb4 f   kernel32:KERNEL32.dll
 0002:001d4eba       _MoveFileExA@12            006cbeba f   kernel32:KERNEL32.dll
 0002:001d4ec0       _GetFileSize@8             006cbec0 f   kernel32:KERNEL32.dll
 0002:001d4ec6       _CreateFileA@28            006cbec6 f   kernel32:KERNEL32.dll
 0002:001d4ecc       _LocalFree@4               006cbecc f   kernel32:KERNEL32.dll
 0002:001d4ed2       _FormatMessageA@28         006cbed2 f   kernel32:KERNEL32.dll
 0002:001d4ed8       _GetEnvironmentVariableA@12 006cbed8 f   kernel32:KERNEL32.dll
 0002:001d4ede       _UnmapViewOfFile@4         006cbede f   kernel32:KERNEL32.dll
 0002:001d4ee4       _CreateProcessA@40         006cbee4 f   kernel32:KERNEL32.dll
 0002:001d4eea       _GetStdHandle@4            006cbeea f   kernel32:KERNEL32.dll
 0002:001d4ef0       _DuplicateHandle@28        006cbef0 f   kernel32:KERNEL32.dll
 0002:001d4ef6       _GetCurrentProcess@0       006cbef6 f   kernel32:KERNEL32.dll
 0002:001d4efc       _CreatePipe@16             006cbefc f   kernel32:KERNEL32.dll
 0002:001d4f02       _ReadFile@20               006cbf02 f   kernel32:KERNEL32.dll
 0002:001d4f08       _QueryPerformanceFrequency@4 006cbf08 f   kernel32:KERNEL32.dll
 0002:001d4f0e       _QueryPerformanceCounter@4 006cbf0e f   kernel32:KERNEL32.dll
 0002:001d4f14       _SetThreadPriority@8       006cbf14 f   kernel32:KERNEL32.dll
 0002:001d4f1a       _GetCurrentThread@0        006cbf1a f   kernel32:KERNEL32.dll
 0002:001d4f20       _WideCharToMultiByte@32    006cbf20 f   kernel32:KERNEL32.dll
 0002:001d4f26       _IsDebuggerPresent@0       006cbf26 f   kernel32:KERNEL32.dll
 0002:001d4f2c       _MultiByteToWideChar@24    006cbf2c f   kernel32:KERNEL32.dll
 0002:001d4f32       _RaiseException@16         006cbf32 f   kernel32:KERNEL32.dll
 0002:001d4f38       _lstrlenA@4                006cbf38 f   kernel32:KERNEL32.dll
 0002:001d4f3e       _LoadLibraryW@4            006cbf3e f   kernel32:KERNEL32.dll
 0002:001d4f44       _EncodePointer@4           006cbf44 f   kernel32:KERNEL32.dll
 0002:001d4f4a       _DecodePointer@4           006cbf4a f   kernel32:KERNEL32.dll
 0002:001d4f50       _InterlockedExchange@8     006cbf50 f   kernel32:KERNEL32.dll
 0002:001d4f56       _InterlockedCompareExchange@12 006cbf56 f   kernel32:KERNEL32.dll
 0002:001d4f5c       _HeapSetInformation@16     006cbf5c f   kernel32:KERNEL32.dll
 0002:001d4f62       _GetStartupInfoW@4         006cbf62 f   kernel32:KERNEL32.dll
 0002:001d4f68       _HeapFree@12               006cbf68 f   kernel32:KERNEL32.dll
 0002:001d4f6e       _HeapAlloc@12              006cbf6e f   kernel32:KERNEL32.dll
 0002:001d4f74       _GetProcessHeap@0          006cbf74 f   kernel32:KERNEL32.dll
 0002:001d4f7a       _GetModuleFileNameW@12     006cbf7a f   kernel32:KERNEL32.dll
 0002:001d4f80       _VirtualQuery@12           006cbf80 f   kernel32:KERNEL32.dll
 0002:001d4f86       _TerminateProcess@8        006cbf86 f   kernel32:KERNEL32.dll
 0002:001d4f8c       _UnhandledExceptionFilter@4 006cbf8c f   kernel32:KERNEL32.dll
 0002:001d4f92       _SetUnhandledExceptionFilter@4 006cbf92 f   kernel32:KERNEL32.dll
 0002:001d4f98       _IsProcessorFeaturePresent@4 006cbf98 f   kernel32:KERNEL32.dll
 0002:001d4f9e       _GetTickCount@0            006cbf9e f   kernel32:KERNEL32.dll
 0002:001d4fa4       _GetSystemTimeAsFileTime@4 006cbfa4 f   kernel32:KERNEL32.dll
 0002:001d4faa       _PostQuitMessage@4         006cbfaa f   user32:USER32.dll
 0002:001d4fb0       _PeekMessageA@20           006cbfb0 f   user32:USER32.dll
 0002:001d4fb6       _SetWindowLongA@12         006cbfb6 f   user32:USER32.dll
 0002:001d4fbc       _GetWindowLongA@8          006cbfbc f   user32:USER32.dll
 0002:001d4fc2       _ShowCursor@4              006cbfc2 f   user32:USER32.dll
 0002:001d4fc8       _SendMessageA@16           006cbfc8 f   user32:USER32.dll
 0002:001d4fce       _GetSystemMetrics@4        006cbfce f   user32:USER32.dll
 0002:001d4fd4       _SetCursorPos@8            006cbfd4 f   user32:USER32.dll
 0002:001d4fda       _GetCursorPos@4            006cbfda f   user32:USER32.dll
 0002:001d4fe0       _GetKeyState@4             006cbfe0 f   user32:USER32.dll
 0002:001d4fe6       _UpdateWindow@4            006cbfe6 f   user32:USER32.dll
 0002:001d4fec       _SetForegroundWindow@4     006cbfec f   user32:USER32.dll
 0002:001d4ff2       _ShowWindow@8              006cbff2 f   user32:USER32.dll
 0002:001d4ff8       _FindWindowA@8             006cbff8 f   user32:USER32.dll
 0002:001d4ffe       _CloseClipboard@0          006cbffe f   user32:USER32.dll
 0002:001d5004       _SetClipboardData@8        006cc004 f   user32:USER32.dll
 0002:001d500a       _EmptyClipboard@0          006cc00a f   user32:USER32.dll
 0002:001d5010       _OpenClipboard@4           006cc010 f   user32:USER32.dll
 0002:001d5016       _AppendMenuA@16            006cc016 f   user32:USER32.dll
 0002:001d501c       _InsertMenuItemA@16        006cc01c f   user32:USER32.dll
 0002:001d5022       _CreatePopupMenu@0         006cc022 f   user32:USER32.dll
 0002:001d5028       _LoadCursorA@8             006cc028 f   user32:USER32.dll
 0002:001d502e       _SetCursor@4               006cc02e f   user32:USER32.dll
 0002:001d5034       _SetFocus@4                006cc034 f   user32:USER32.dll
 0002:001d503a       _EndDialog@8               006cc03a f   user32:USER32.dll
 0002:001d5040       _GetWindowTextA@12         006cc040 f   user32:USER32.dll
 0002:001d5046       _GetDlgItem@8              006cc046 f   user32:USER32.dll
 0002:001d504c       _CreateWindowExA@48        006cc04c f   user32:USER32.dll
 0002:001d5052       _ScreenToClient@8          006cc052 f   user32:USER32.dll
 0002:001d5058       _GetWindowRect@8           006cc058 f   user32:USER32.dll
 0002:001d505e       _SetWindowTextA@8          006cc05e f   user32:USER32.dll
 0002:001d5064       _wsprintfA                 006cc064 f   user32:USER32.dll
 0002:001d506a       _MessageBoxA@16            006cc06a f   user32:USER32.dll
 0002:001d5070       _GetStockObject@4          006cc070 f   gdi32:GDI32.dll
 0002:001d5076       _SelectObject@8            006cc076 f   gdi32:GDI32.dll
 0002:001d507c       _ShellExecuteA@24          006cc07c f   shell32:SHELL32.dll
 0002:001d5082       _ShellExecuteExA@4         006cc082 f   shell32:SHELL32.dll
 0002:001d5088       _DragFinish@4              006cc088 f   shell32:SHELL32.dll
 0002:001d508e       _DragQueryFileA@16         006cc08e f   shell32:SHELL32.dll
 0002:001d5094       _SHGetPathFromIDListA@8    006cc094 f   shell32:SHELL32.dll
 0002:001d509a       _SHBrowseForFolderA@4      006cc09a f   shell32:SHELL32.dll
 0002:001d50a0       _SHGetMalloc@4             006cc0a0 f   shell32:SHELL32.dll
 0002:001d50b0       ??0CSize@@QAE@XZ           006cc0b0 f   atlsd:atltypes.obj
 0002:001d50e0       ??0CSize@@QAE@HH@Z         006cc0e0 f   atlsd:atltypes.obj
 0002:001d5110       ??0CSize@@QAE@UtagSIZE@@@Z 006cc110 f   atlsd:atltypes.obj
 0002:001d5140       ??0CSize@@QAE@UtagPOINT@@@Z 006cc140 f   atlsd:atltypes.obj
 0002:001d5170       ??0CSize@@QAE@K@Z          006cc170 f   atlsd:atltypes.obj
 0002:001d51c0       ??8CSize@@QBEHUtagSIZE@@@Z 006cc1c0 f   atlsd:atltypes.obj
 0002:001d5210       ??9CSize@@QBEHUtagSIZE@@@Z 006cc210 f   atlsd:atltypes.obj
 0002:001d5260       ??YCSize@@QAEXUtagSIZE@@@Z 006cc260 f   atlsd:atltypes.obj
 0002:001d52a0       ??ZCSize@@QAEXUtagSIZE@@@Z 006cc2a0 f   atlsd:atltypes.obj
 0002:001d52e0       ?SetSize@CSize@@QAEXHH@Z   006cc2e0 f   atlsd:atltypes.obj
 0002:001d5310       ??HCSize@@QBE?AV0@UtagSIZE@@@Z 006cc310 f   atlsd:atltypes.obj
 0002:001d5350       ??GCSize@@QBE?AV0@UtagSIZE@@@Z 006cc350 f   atlsd:atltypes.obj
 0002:001d5390       ??GCSize@@QBE?AV0@XZ       006cc390 f   atlsd:atltypes.obj
 0002:001d53d0       ??HCSize@@QBE?AVCPoint@@UtagPOINT@@@Z 006cc3d0 f   atlsd:atltypes.obj
 0002:001d5410       ??GCSize@@QBE?AVCPoint@@UtagPOINT@@@Z 006cc410 f   atlsd:atltypes.obj
 0002:001d5450       ??HCSize@@QBE?AVCRect@@PBUtagRECT@@@Z 006cc450 f   atlsd:atltypes.obj
 0002:001d54c0       ??GCSize@@QBE?AVCRect@@PBUtagRECT@@@Z 006cc4c0 f   atlsd:atltypes.obj
 0002:001d5530       ??0CPoint@@QAE@XZ          006cc530 f   atlsd:atltypes.obj
 0002:001d5560       ??0CPoint@@QAE@HH@Z        006cc560 f   atlsd:atltypes.obj
 0002:001d5590       ??0CPoint@@QAE@UtagPOINT@@@Z 006cc590 f   atlsd:atltypes.obj
 0002:001d55c0       ??0CPoint@@QAE@UtagSIZE@@@Z 006cc5c0 f   atlsd:atltypes.obj
 0002:001d55f0       ??0CPoint@@QAE@J@Z         006cc5f0 f   atlsd:atltypes.obj
 0002:001d5640       ?Offset@CPoint@@QAEXHH@Z   006cc640 f   atlsd:atltypes.obj
 0002:001d5680       ?Offset@CPoint@@QAEXUtagPOINT@@@Z 006cc680 f   atlsd:atltypes.obj
 0002:001d56c0       ?Offset@CPoint@@QAEXUtagSIZE@@@Z 006cc6c0 f   atlsd:atltypes.obj
 0002:001d5700       ?SetPoint@CPoint@@QAEXHH@Z 006cc700 f   atlsd:atltypes.obj
 0002:001d5730       ??8CPoint@@QBEHUtagPOINT@@@Z 006cc730 f   atlsd:atltypes.obj
 0002:001d5780       ??9CPoint@@QBEHUtagPOINT@@@Z 006cc780 f   atlsd:atltypes.obj
 0002:001d57d0       ??YCPoint@@QAEXUtagSIZE@@@Z 006cc7d0 f   atlsd:atltypes.obj
 0002:001d5810       ??ZCPoint@@QAEXUtagSIZE@@@Z 006cc810 f   atlsd:atltypes.obj
 0002:001d5850       ??YCPoint@@QAEXUtagPOINT@@@Z 006cc850 f   atlsd:atltypes.obj
 0002:001d5890       ??ZCPoint@@QAEXUtagPOINT@@@Z 006cc890 f   atlsd:atltypes.obj
 0002:001d58d0       ??HCPoint@@QBE?AV0@UtagSIZE@@@Z 006cc8d0 f   atlsd:atltypes.obj
 0002:001d5910       ??GCPoint@@QBE?AV0@UtagSIZE@@@Z 006cc910 f   atlsd:atltypes.obj
 0002:001d5950       ??GCPoint@@QBE?AV0@XZ      006cc950 f   atlsd:atltypes.obj
 0002:001d5990       ??HCPoint@@QBE?AV0@UtagPOINT@@@Z 006cc990 f   atlsd:atltypes.obj
 0002:001d59d0       ??GCPoint@@QBE?AVCSize@@UtagPOINT@@@Z 006cc9d0 f   atlsd:atltypes.obj
 0002:001d5a10       ??HCPoint@@QBE?AVCRect@@PBUtagRECT@@@Z 006cca10 f   atlsd:atltypes.obj
 0002:001d5a80       ??GCPoint@@QBE?AVCRect@@PBUtagRECT@@@Z 006cca80 f   atlsd:atltypes.obj
 0002:001d5af0       ??0CRect@@QAE@XZ           006ccaf0 f   atlsd:atltypes.obj
 0002:001d5b40       ??0CRect@@QAE@HHHH@Z       006ccb40 f   atlsd:atltypes.obj
 0002:001d5b90       ??0CRect@@QAE@ABUtagRECT@@@Z 006ccb90 f   atlsd:atltypes.obj
 0002:001d5bc0       ??0CRect@@QAE@PBUtagRECT@@@Z 006ccbc0 f   atlsd:atltypes.obj
 0002:001d5bf0       ??0CRect@@QAE@UtagPOINT@@UtagSIZE@@@Z 006ccbf0 f   atlsd:atltypes.obj
 0002:001d5c40       ??0CRect@@QAE@UtagPOINT@@0@Z 006ccc40 f   atlsd:atltypes.obj
 0002:001d5c90       ?Width@CRect@@QBEHXZ       006ccc90 f   atlsd:atltypes.obj
 0002:001d5cb0       ?Height@CRect@@QBEHXZ      006cccb0 f   atlsd:atltypes.obj
 0002:001d5cd0       ?Size@CRect@@QBE?AVCSize@@XZ 006cccd0 f   atlsd:atltypes.obj
 0002:001d5d10       ?TopLeft@CRect@@QAEAAVCPoint@@XZ 006ccd10 f   atlsd:atltypes.obj
 0002:001d5d30       ?BottomRight@CRect@@QAEAAVCPoint@@XZ 006ccd30 f   atlsd:atltypes.obj
 0002:001d5d50       ?TopLeft@CRect@@QBEABVCPoint@@XZ 006ccd50 f   atlsd:atltypes.obj
 0002:001d5d70       ?BottomRight@CRect@@QBEABVCPoint@@XZ 006ccd70 f   atlsd:atltypes.obj
 0002:001d5d90       ?CenterPoint@CRect@@QBE?AVCPoint@@XZ 006ccd90 f   atlsd:atltypes.obj
 0002:001d5de0       ?SwapLeftRight@CRect@@QAEXXZ 006ccde0 f   atlsd:atltypes.obj
 0002:001d5e00       ?SwapLeftRight@CRect@@SGXPAUtagRECT@@@Z 006cce00 f   atlsd:atltypes.obj
 0002:001d5e40       ??BCRect@@QAEPAUtagRECT@@XZ 006cce40 f   atlsd:atltypes.obj
 0002:001d5e60       ??BCRect@@QBEPBUtagRECT@@XZ 006cce60 f   atlsd:atltypes.obj
 0002:001d5e80       ?IsRectEmpty@CRect@@QBEHXZ 006cce80 f   atlsd:atltypes.obj
 0002:001d5ea0       ?IsRectNull@CRect@@QBEHXZ  006ccea0 f   atlsd:atltypes.obj
 0002:001d5f00       ?PtInRect@CRect@@QBEHUtagPOINT@@@Z 006ccf00 f   atlsd:atltypes.obj
 0002:001d5f30       ?SetRect@CRect@@QAEXHHHH@Z 006ccf30 f   atlsd:atltypes.obj
 0002:001d5f70       ?SetRect@CRect@@QAEXUtagPOINT@@0@Z 006ccf70 f   atlsd:atltypes.obj
 0002:001d5fb0       ?SetRectEmpty@CRect@@QAEXXZ 006ccfb0 f   atlsd:atltypes.obj
 0002:001d5fd0       ?CopyRect@CRect@@QAEXPBUtagRECT@@@Z 006ccfd0 f   atlsd:atltypes.obj
 0002:001d6000       ?EqualRect@CRect@@QBEHPBUtagRECT@@@Z 006cd000 f   atlsd:atltypes.obj
 0002:001d6030       ?InflateRect@CRect@@QAEXHH@Z 006cd030 f   atlsd:atltypes.obj
 0002:001d6060       ?InflateRect@CRect@@QAEXUtagSIZE@@@Z 006cd060 f   atlsd:atltypes.obj
 0002:001d6090       ?DeflateRect@CRect@@QAEXHH@Z 006cd090 f   atlsd:atltypes.obj
 0002:001d60c0       ?DeflateRect@CRect@@QAEXUtagSIZE@@@Z 006cd0c0 f   atlsd:atltypes.obj
 0002:001d60f0       ?OffsetRect@CRect@@QAEXHH@Z 006cd0f0 f   atlsd:atltypes.obj
 0002:001d6120       ?OffsetRect@CRect@@QAEXUtagPOINT@@@Z 006cd120 f   atlsd:atltypes.obj
 0002:001d6150       ?OffsetRect@CRect@@QAEXUtagSIZE@@@Z 006cd150 f   atlsd:atltypes.obj
 0002:001d6180       ?MoveToY@CRect@@QAEXH@Z    006cd180 f   atlsd:atltypes.obj
 0002:001d61c0       ?MoveToX@CRect@@QAEXH@Z    006cd1c0 f   atlsd:atltypes.obj
 0002:001d6200       ?MoveToXY@CRect@@QAEXHH@Z  006cd200 f   atlsd:atltypes.obj
 0002:001d6230       ?MoveToXY@CRect@@QAEXUtagPOINT@@@Z 006cd230 f   atlsd:atltypes.obj
 0002:001d6260       ?IntersectRect@CRect@@QAEHPBUtagRECT@@0@Z 006cd260 f   atlsd:atltypes.obj
 0002:001d6290       ?UnionRect@CRect@@QAEHPBUtagRECT@@0@Z 006cd290 f   atlsd:atltypes.obj
 0002:001d62c0       ??4CRect@@QAEXABUtagRECT@@@Z 006cd2c0 f   atlsd:atltypes.obj
 0002:001d62f0       ??8CRect@@QBEHABUtagRECT@@@Z 006cd2f0 f   atlsd:atltypes.obj
 0002:001d6320       ??9CRect@@QBEHABUtagRECT@@@Z 006cd320 f   atlsd:atltypes.obj
 0002:001d6350       ??YCRect@@QAEXUtagPOINT@@@Z 006cd350 f   atlsd:atltypes.obj
 0002:001d6380       ??YCRect@@QAEXUtagSIZE@@@Z 006cd380 f   atlsd:atltypes.obj
 0002:001d63b0       ??YCRect@@QAEXPBUtagRECT@@@Z 006cd3b0 f   atlsd:atltypes.obj
 0002:001d63e0       ??ZCRect@@QAEXUtagPOINT@@@Z 006cd3e0 f   atlsd:atltypes.obj
 0002:001d6410       ??ZCRect@@QAEXUtagSIZE@@@Z 006cd410 f   atlsd:atltypes.obj
 0002:001d6440       ??ZCRect@@QAEXPBUtagRECT@@@Z 006cd440 f   atlsd:atltypes.obj
 0002:001d6470       ??_4CRect@@QAEXABUtagRECT@@@Z 006cd470 f   atlsd:atltypes.obj
 0002:001d64a0       ??_5CRect@@QAEXABUtagRECT@@@Z 006cd4a0 f   atlsd:atltypes.obj
 0002:001d64d0       ??HCRect@@QBE?AV0@UtagPOINT@@@Z 006cd4d0 f   atlsd:atltypes.obj
 0002:001d6560       ??GCRect@@QBE?AV0@UtagPOINT@@@Z 006cd560 f   atlsd:atltypes.obj
 0002:001d65f0       ??HCRect@@QBE?AV0@UtagSIZE@@@Z 006cd5f0 f   atlsd:atltypes.obj
 0002:001d6680       ??GCRect@@QBE?AV0@UtagSIZE@@@Z 006cd680 f   atlsd:atltypes.obj
 0002:001d6710       ??HCRect@@QBE?AV0@PBUtagRECT@@@Z 006cd710 f   atlsd:atltypes.obj
 0002:001d6780       ??GCRect@@QBE?AV0@PBUtagRECT@@@Z 006cd780 f   atlsd:atltypes.obj
 0002:001d67f0       ??ICRect@@QBE?AV0@ABUtagRECT@@@Z 006cd7f0 f   atlsd:atltypes.obj
 0002:001d6870       ??UCRect@@QBE?AV0@ABUtagRECT@@@Z 006cd870 f   atlsd:atltypes.obj
 0002:001d68f0       ?SubtractRect@CRect@@QAEHPBUtagRECT@@0@Z 006cd8f0 f   atlsd:atltypes.obj
 0002:001d6920       ?NormalizeRect@CRect@@QAEXXZ 006cd920 f   atlsd:atltypes.obj
 0002:001d69a0       ?InflateRect@CRect@@QAEXPBUtagRECT@@@Z 006cd9a0 f   atlsd:atltypes.obj
 0002:001d6a10       ?InflateRect@CRect@@QAEXHHHH@Z 006cda10 f   atlsd:atltypes.obj
 0002:001d6a70       ?DeflateRect@CRect@@QAEXPBUtagRECT@@@Z 006cda70 f   atlsd:atltypes.obj
 0002:001d6ae0       ?DeflateRect@CRect@@QAEXHHHH@Z 006cdae0 f   atlsd:atltypes.obj
 0002:001d6b40       ?MulDiv@CRect@@QBE?AV1@HH@Z 006cdb40 f   atlsd:atltypes.obj
 0002:001d6bd0       ??0CTimeSpan@ATL@@QAE@XZ   006cdbd0 f   atlsd:atltime.obj
 0002:001d6c00       ??0CTimeSpan@ATL@@QAE@_J@Z 006cdc00 f   atlsd:atltime.obj
 0002:001d6c30       ??0CTimeSpan@ATL@@QAE@JHHH@Z 006cdc30 f   atlsd:atltime.obj
 0002:001d6cd0       ?GetDays@CTimeSpan@ATL@@QBE_JXZ 006cdcd0 f   atlsd:atltime.obj
 0002:001d6d00       ?GetTotalHours@CTimeSpan@ATL@@QBE_JXZ 006cdd00 f   atlsd:atltime.obj
 0002:001d6d30       ?GetHours@CTimeSpan@ATL@@QBEJXZ 006cdd30 f   atlsd:atltime.obj
 0002:001d6d80       ?GetTotalMinutes@CTimeSpan@ATL@@QBE_JXZ 006cdd80 f   atlsd:atltime.obj
 0002:001d6db0       ?GetMinutes@CTimeSpan@ATL@@QBEJXZ 006cddb0 f   atlsd:atltime.obj
 0002:001d6e00       ?GetTotalSeconds@CTimeSpan@ATL@@QBE_JXZ 006cde00 f   atlsd:atltime.obj
 0002:001d6e20       ?GetSeconds@CTimeSpan@ATL@@QBEJXZ 006cde20 f   atlsd:atltime.obj
 0002:001d6e70       ?GetTimeSpan@CTimeSpan@ATL@@QBE_JXZ 006cde70 f   atlsd:atltime.obj
 0002:001d6e90       ??HCTimeSpan@ATL@@QBE?AV01@V01@@Z 006cde90 f   atlsd:atltime.obj
 0002:001d6ed0       ??GCTimeSpan@ATL@@QBE?AV01@V01@@Z 006cded0 f   atlsd:atltime.obj
 0002:001d6f10       ??YCTimeSpan@ATL@@QAEAAV01@V01@@Z 006cdf10 f   atlsd:atltime.obj
 0002:001d6f50       ??ZCTimeSpan@ATL@@QAEAAV01@V01@@Z 006cdf50 f   atlsd:atltime.obj
 0002:001d6f90       ??8CTimeSpan@ATL@@QBE_NV01@@Z 006cdf90 f   atlsd:atltime.obj
 0002:001d6fe0       ??9CTimeSpan@ATL@@QBE_NV01@@Z 006cdfe0 f   atlsd:atltime.obj
 0002:001d7030       ??MCTimeSpan@ATL@@QBE_NV01@@Z 006ce030 f   atlsd:atltime.obj
 0002:001d7090       ??OCTimeSpan@ATL@@QBE_NV01@@Z 006ce090 f   atlsd:atltime.obj
 0002:001d70f0       ??NCTimeSpan@ATL@@QBE_NV01@@Z 006ce0f0 f   atlsd:atltime.obj
 0002:001d7150       ??PCTimeSpan@ATL@@QBE_NV01@@Z 006ce150 f   atlsd:atltime.obj
 0002:001d71b0       ?GetTickCount@CTime@ATL@@SG?AV12@XZ 006ce1b0 f   atlsd:atltime.obj
 0002:001d71e0       ?IsValidFILETIME@CTime@ATL@@SGHABU_FILETIME@@@Z 006ce1e0 f   atlsd:atltime.obj
 0002:001d7250       ??0CTime@ATL@@QAE@XZ       006ce250 f   atlsd:atltime.obj
 0002:001d7280       ??0CTime@ATL@@QAE@_J@Z     006ce280 f   atlsd:atltime.obj
 0002:001d72b0       ??0CTime@ATL@@QAE@HHHHHHH@Z 006ce2b0 f   atlsd:atltime.obj
 0002:001d7690       ??0CTime@ATL@@QAE@GGH@Z    006ce690 f   atlsd:atltime.obj
 0002:001d77d0       ??0CTime@ATL@@QAE@ABU_SYSTEMTIME@@H@Z 006ce7d0 f   atlsd:atltime.obj
 0002:001d7890       ??0CTime@ATL@@QAE@ABU_FILETIME@@H@Z 006ce890 f   atlsd:atltime.obj
 0002:001d7960       ??4CTime@ATL@@QAEAAV01@_J@Z 006ce960 f   atlsd:atltime.obj
 0002:001d7990       ??YCTime@ATL@@QAEAAV01@VCTimeSpan@1@@Z 006ce990 f   atlsd:atltime.obj
 0002:001d79d0       ??ZCTime@ATL@@QAEAAV01@VCTimeSpan@1@@Z 006ce9d0 f   atlsd:atltime.obj
 0002:001d7a10       ??GCTime@ATL@@QBE?AVCTimeSpan@1@V01@@Z 006cea10 f   atlsd:atltime.obj
 0002:001d7a50       ??GCTime@ATL@@QBE?AV01@VCTimeSpan@1@@Z 006cea50 f   atlsd:atltime.obj
 0002:001d7a90       ??HCTime@ATL@@QBE?AV01@VCTimeSpan@1@@Z 006cea90 f   atlsd:atltime.obj
 0002:001d7ad0       ??8CTime@ATL@@QBE_NV01@@Z  006cead0 f   atlsd:atltime.obj
 0002:001d7b20       ??9CTime@ATL@@QBE_NV01@@Z  006ceb20 f   atlsd:atltime.obj
 0002:001d7b70       ??MCTime@ATL@@QBE_NV01@@Z  006ceb70 f   atlsd:atltime.obj
 0002:001d7bd0       ??OCTime@ATL@@QBE_NV01@@Z  006cebd0 f   atlsd:atltime.obj
 0002:001d7c30       ??NCTime@ATL@@QBE_NV01@@Z  006cec30 f   atlsd:atltime.obj
 0002:001d7c90       ??PCTime@ATL@@QBE_NV01@@Z  006cec90 f   atlsd:atltime.obj
 0002:001d7cf0       ?GetGmtTm@CTime@ATL@@QBEPAUtm@@PAU3@@Z 006cecf0 f   atlsd:atltime.obj
 0002:001d7dd0       ?GetLocalTm@CTime@ATL@@QBEPAUtm@@PAU3@@Z 006cedd0 f   atlsd:atltime.obj
 0002:001d7eb0       ?GetAsSystemTime@CTime@ATL@@QBE_NAAU_SYSTEMTIME@@@Z 006ceeb0 f   atlsd:atltime.obj
 0002:001d7f90       ?GetTime@CTime@ATL@@QBE_JXZ 006cef90 f   atlsd:atltime.obj
 0002:001d7fb0       ?GetYear@CTime@ATL@@QBEHXZ 006cefb0 f   atlsd:atltime.obj
 0002:001d8020       ?GetMonth@CTime@ATL@@QBEHXZ 006cf020 f   atlsd:atltime.obj
 0002:001d8090       ?GetDay@CTime@ATL@@QBEHXZ  006cf090 f   atlsd:atltime.obj
 0002:001d80f0       ?GetHour@CTime@ATL@@QBEHXZ 006cf0f0 f   atlsd:atltime.obj
 0002:001d8150       ?GetMinute@CTime@ATL@@QBEHXZ 006cf150 f   atlsd:atltime.obj
 0002:001d81b0       ?GetSecond@CTime@ATL@@QBEHXZ 006cf1b0 f   atlsd:atltime.obj
 0002:001d8210       ?GetDayOfWeek@CTime@ATL@@QBEHXZ 006cf210 f   atlsd:atltime.obj
 0002:001d8280       ??0CFileTimeSpan@ATL@@QAE@XZ 006cf280 f   atlsd:atltime.obj
 0002:001d82b0       ??0CFileTimeSpan@ATL@@QAE@ABV01@@Z 006cf2b0 f   atlsd:atltime.obj
 0002:001d82e0       ??0CFileTimeSpan@ATL@@QAE@_J@Z 006cf2e0 f   atlsd:atltime.obj
 0002:001d8310       ??4CFileTimeSpan@ATL@@QAEAAV01@ABV01@@Z 006cf310 f   atlsd:atltime.obj
 0002:001d8340       ??YCFileTimeSpan@ATL@@QAEAAV01@V01@@Z 006cf340 f   atlsd:atltime.obj
 0002:001d8380       ??ZCFileTimeSpan@ATL@@QAEAAV01@V01@@Z 006cf380 f   atlsd:atltime.obj
 0002:001d83c0       ??HCFileTimeSpan@ATL@@QBE?AV01@V01@@Z 006cf3c0 f   atlsd:atltime.obj
 0002:001d8400       ??GCFileTimeSpan@ATL@@QBE?AV01@V01@@Z 006cf400 f   atlsd:atltime.obj
 0002:001d8440       ??8CFileTimeSpan@ATL@@QBE_NV01@@Z 006cf440 f   atlsd:atltime.obj
 0002:001d8490       ??9CFileTimeSpan@ATL@@QBE_NV01@@Z 006cf490 f   atlsd:atltime.obj
 0002:001d84e0       ??MCFileTimeSpan@ATL@@QBE_NV01@@Z 006cf4e0 f   atlsd:atltime.obj
 0002:001d8540       ??OCFileTimeSpan@ATL@@QBE_NV01@@Z 006cf540 f   atlsd:atltime.obj
 0002:001d85a0       ??NCFileTimeSpan@ATL@@QBE_NV01@@Z 006cf5a0 f   atlsd:atltime.obj
 0002:001d8600       ??PCFileTimeSpan@ATL@@QBE_NV01@@Z 006cf600 f   atlsd:atltime.obj
 0002:001d8660       ?GetTimeSpan@CFileTimeSpan@ATL@@QBE_JXZ 006cf660 f   atlsd:atltime.obj
 0002:001d8680       ?SetTimeSpan@CFileTimeSpan@ATL@@QAEX_J@Z 006cf680 f   atlsd:atltime.obj
 0002:001d86b0       ??0CFileTime@ATL@@QAE@XZ   006cf6b0 f   atlsd:atltime.obj
 0002:001d86e0       ??0CFileTime@ATL@@QAE@ABU_FILETIME@@@Z 006cf6e0 f   atlsd:atltime.obj
 0002:001d8720       ??0CFileTime@ATL@@QAE@_K@Z 006cf720 f   atlsd:atltime.obj
 0002:001d8760       ??4CFileTime@ATL@@QAEAAV01@ABU_FILETIME@@@Z 006cf760 f   atlsd:atltime.obj
 0002:001d87a0       ?GetTickCount@CFileTime@ATL@@SG?AV12@XZ 006cf7a0 f   atlsd:atltime.obj
 0002:001d87e0       ??YCFileTime@ATL@@QAEAAV01@VCFileTimeSpan@1@@Z 006cf7e0 f   atlsd:atltime.obj
 0002:001d8830       ??ZCFileTime@ATL@@QAEAAV01@VCFileTimeSpan@1@@Z 006cf830 f   atlsd:atltime.obj
 0002:001d8880       ??HCFileTime@ATL@@QBE?AV01@VCFileTimeSpan@1@@Z 006cf880 f   atlsd:atltime.obj
 0002:001d88d0       ??GCFileTime@ATL@@QBE?AV01@VCFileTimeSpan@1@@Z 006cf8d0 f   atlsd:atltime.obj
 0002:001d8920       ??GCFileTime@ATL@@QBE?AVCFileTimeSpan@1@V01@@Z 006cf920 f   atlsd:atltime.obj
 0002:001d8970       ??8CFileTime@ATL@@QBE_NV01@@Z 006cf970 f   atlsd:atltime.obj
 0002:001d89e0       ??9CFileTime@ATL@@QBE_NV01@@Z 006cf9e0 f   atlsd:atltime.obj
 0002:001d8a50       ??MCFileTime@ATL@@QBE_NV01@@Z 006cfa50 f   atlsd:atltime.obj
 0002:001d8ac0       ??OCFileTime@ATL@@QBE_NV01@@Z 006cfac0 f   atlsd:atltime.obj
 0002:001d8b30       ??NCFileTime@ATL@@QBE_NV01@@Z 006cfb30 f   atlsd:atltime.obj
 0002:001d8ba0       ??PCFileTime@ATL@@QBE_NV01@@Z 006cfba0 f   atlsd:atltime.obj
 0002:001d8c10       ?GetTime@CFileTime@ATL@@QBE_KXZ 006cfc10 f   atlsd:atltime.obj
 0002:001d8c50       ?SetTime@CFileTime@ATL@@QAEX_K@Z 006cfc50 f   atlsd:atltime.obj
 0002:001d8c90       ?UTCToLocal@CFileTime@ATL@@QBE?AV12@XZ 006cfc90 f   atlsd:atltime.obj
 0002:001d8ce0       ?LocalToUTC@CFileTime@ATL@@QBE?AV12@XZ 006cfce0 f   atlsd:atltime.obj
 0002:001d8d30       ?AtlThrowImpl@ATL@@YGXJ@Z  006cfd30 f i atlsd:atltime.obj
 0002:001d8de0       ??RCTraceFileAndLineInfo@ATL@@QBAXKIPBDZZ 006cfde0 f i atlsd:atltime.obj
 0002:001d8e40       ?_AtlRaiseException@ATL@@YAXKK@Z 006cfe40 f i atlsd:atltime.obj
 0002:001d8e60       ??0CAtlAllocator@@QAE@XZ   006cfe60 f i atlsd:Externs.obj
 0002:001d8ec0       ??0CTraceSnapshot@@QAE@XZ  006cfec0 f i atlsd:Externs.obj
 0002:001d8ef0       ??0?$CSimpleArray@UCModuleInfo@CTraceSnapshot@@V?$CSimpleArrayEqualHelper@UCModuleInfo@CTraceSnapshot@@@ATL@@@ATL@@QAE@XZ 006cfef0 f i atlsd:Externs.obj
 0002:001d8f30       ??0?$CSimpleArray@KV?$CSimpleArrayEqualHelper@K@ATL@@@ATL@@QAE@XZ 006cff30 f i atlsd:Externs.obj
 0002:001d90a0       ??0CAtlException@ATL@@QAE@J@Z 006d00a0 f i atlsd:Externs.obj
 0002:001d90c0       ?AtlCrtErrorCheck@ATL@@YAHH@Z 006d00c0 f i atlsd:Externs.obj
 0002:001d91a0       ??0CTrace@ATL@@AAE@P6AHHPBDH00ZZ@Z 006d01a0 f i atlsd:Externs.obj
 0002:001d91f0       ??1CAtlAllocator@@QAE@XZ   006d01f0 f i atlsd:Externs.obj
 0002:001d9220       ??1CTraceSnapshot@@QAE@XZ  006d0220 f i atlsd:Externs.obj
 0002:001d9250       ??1?$CSimpleArray@UCModuleInfo@CTraceSnapshot@@V?$CSimpleArrayEqualHelper@UCModuleInfo@CTraceSnapshot@@@ATL@@@ATL@@QAE@XZ 006d0250 f i atlsd:Externs.obj
 0002:001d9270       ??1?$CSimpleArray@KV?$CSimpleArrayEqualHelper@K@ATL@@@ATL@@QAE@XZ 006d0270 f i atlsd:Externs.obj
 0002:001d9290       ?RemoveAll@?$CSimpleArray@UCModuleInfo@CTraceSnapshot@@V?$CSimpleArrayEqualHelper@UCModuleInfo@CTraceSnapshot@@@ATL@@@ATL@@QAEXXZ 006d0290 f i atlsd:Externs.obj
 0002:001d9310       ?RemoveAll@?$CSimpleArray@KV?$CSimpleArrayEqualHelper@K@ATL@@@ATL@@QAEXXZ 006d0310 f i atlsd:Externs.obj
 0002:001d9390       ??1CTrace@ATL@@AAE@XZ      006d0390 f i atlsd:Externs.obj
 0002:001d93b0       ??0CTraceCategory@ATL@@QAE@PBDI@Z 006d03b0 f i atlsd:atltrace.obj
 0002:001d9410       ?ChangeCategory@CTrace@ATL@@QAE_NKIW4ATLTRACESTATUS@2@@Z 006d0410 f i atlsd:atltrace.obj
 0002:001d9450       ?RegisterCategory@CTrace@ATL@@QAEKPBD@Z 006d0450 f i atlsd:atltrace.obj
 0002:001d9480       ?NotifyTool@ATL@@YGXXZ     006d0480 f   atlsd:AtlDebugAPI.obj
 0002:001d94d0       _AtlTraceRegister@8        006d04d0 f   atlsd:AtlDebugAPI.obj
 0002:001d9560       _AtlTraceUnregister@4      006d0560 f   atlsd:AtlDebugAPI.obj
 0002:001d95a0       _AtlTraceRegisterCategoryA@8 006d05a0 f   atlsd:AtlDebugAPI.obj
 0002:001d9620       _AtlTraceRegisterCategoryU@8 006d0620 f   atlsd:AtlDebugAPI.obj
 0002:001d9680       _AtlTraceModifyProcess@20  006d0680 f   atlsd:AtlDebugAPI.obj
 0002:001d9750       ?GetProcess@CAtlAllocator@@QBEPAVCAtlTraceProcess@@XZ 006d0750 f i atlsd:AtlDebugAPI.obj
 0002:001d9770       _AtlTraceModifyModule@16   006d0770 f   atlsd:AtlDebugAPI.obj
 0002:001d9890       _AtlTraceModifyCategory@16 006d0890 f   atlsd:AtlDebugAPI.obj
 0002:001d9970       _AtlTraceGetProcess@20     006d0970 f   atlsd:AtlDebugAPI.obj
 0002:001d9a80       _AtlTraceGetModule@16      006d0a80 f   atlsd:AtlDebugAPI.obj
 0002:001d9bd0       _AtlTraceGetCategory@16    006d0bd0 f   atlsd:AtlDebugAPI.obj
 0002:001d9cf0       _AtlTraceGetUpdateEventNameA@4 006d0cf0 f   atlsd:AtlDebugAPI.obj
 0002:001d9d30       _AtlTraceGetUpdateEventNameA_s@8 006d0d30 f   atlsd:AtlDebugAPI.obj
 0002:001d9d70       _AtlTraceGetUpdateEventNameU@4 006d0d70 f   atlsd:AtlDebugAPI.obj
 0002:001d9df0       _AtlTraceGetUpdateEventNameU_s@8 006d0df0 f   atlsd:AtlDebugAPI.obj
 0002:001d9e80       _AtlTraceVA                006d0e80 f   atlsd:AtlDebugAPI.obj
 0002:001da260       ?Name@CAtlTraceCategory@@QBEPB_WXZ 006d1260 f i atlsd:AtlDebugAPI.obj
 0002:001da280       _AtlTraceVU                006d1280 f   atlsd:AtlDebugAPI.obj
 0002:001da6a0       _AtlTraceOpenProcess@4     006d16a0 f   atlsd:AtlDebugAPI.obj
 0002:001da7d0       ??_GCAtlAllocator@@QAEPAXI@Z 006d17d0 f i atlsd:AtlDebugAPI.obj
 0002:001da810       _AtlTraceCloseProcess@4    006d1810 f   atlsd:AtlDebugAPI.obj
 0002:001da8d0       _AtlTraceSnapshotProcess@4 006d18d0 f   atlsd:AtlDebugAPI.obj
 0002:001da960       _AtlTraceGetProcessInfo@8  006d1960 f   atlsd:AtlDebugAPI.obj
 0002:001dab70       ?Path@CAtlTraceModuleInfo@@QBEPB_WXZ 006d1b70 f i atlsd:AtlDebugAPI.obj
 0002:001dab90       ?Name@CAtlTraceModuleInfo@@QBEPB_WXZ 006d1b90 f i atlsd:AtlDebugAPI.obj
 0002:001dabb0       ?Id@CAtlTraceProcess@@QBEKXZ 006d1bb0 f i atlsd:AtlDebugAPI.obj
 0002:001dabd0       _AtlTraceGetModuleInfo@12  006d1bd0 f   atlsd:AtlDebugAPI.obj
 0002:001dadd0       _AtlTraceGetCategoryInfo@16 006d1dd0 f   atlsd:AtlDebugAPI.obj
 0002:001db230       ?CrtDbgReport@CAtlTraceModule@@QBEP6AHHPBDH00ZZXZ 006d2230 f i atlsd:AtlDebugAPI.obj
 0002:001db250       ?_IsTracingEnabled@ATL@@YA_NKKI@Z 006d2250 f   atlsd:AtlDebugAPI.obj
 0002:001db290       ?GetSize@?$CSimpleArray@UCModuleInfo@CTraceSnapshot@@V?$CSimpleArrayEqualHelper@UCModuleInfo@CTraceSnapshot@@@ATL@@@ATL@@QBEHXZ 006d2290 f i atlsd:AtlDebugAPI.obj
 0002:001db2b0       ??A?$CSimpleArray@UCModuleInfo@CTraceSnapshot@@V?$CSimpleArrayEqualHelper@UCModuleInfo@CTraceSnapshot@@@ATL@@@ATL@@QAEAAUCModuleInfo@CTraceSnapshot@@H@Z 006d22b0 f i atlsd:AtlDebugAPI.obj
 0002:001db340       ?strcpy_s@Checked@ATL@@YAXPADIPBD@Z 006d2340 f i atlsd:AtlDebugAPI.obj
 0002:001db370       ?wcscpy_s@Checked@ATL@@YAXPA_WIPB_W@Z 006d2370 f i atlsd:AtlDebugAPI.obj
 0002:001db3a0       ??0?$CA2WEX@$0IA@@ATL@@QAE@PBD@Z 006d23a0 f i atlsd:AtlDebugAPI.obj
 0002:001db3e0       ?_AtlGetConversionACP@ATL@@YGIXZ 006d23e0 f i atlsd:AtlDebugAPI.obj
 0002:001db3f0       ??1?$CA2WEX@$0IA@@ATL@@QAE@XZ 006d23f0 f i atlsd:AtlDebugAPI.obj
 0002:001db420       ??B?$CA2WEX@$0IA@@ATL@@QBEPA_WXZ 006d2420 f i atlsd:AtlDebugAPI.obj
 0002:001db440       ?Init@?$CA2WEX@$0IA@@ATL@@AAEXPBDI@Z 006d2440 f i atlsd:AtlDebugAPI.obj
 0002:001db580       ?AtlThrowLastWin32@ATL@@YGXXZ 006d2580 f i atlsd:AtlDebugAPI.obj
 0002:001db5b0       _HRESULT_FROM_WIN32        006d25b0 f i atlsd:AtlDebugAPI.obj
 0002:001db5f0       ??$AtlConvFreeMemory@_W@ATL@@YAXPA_W0H@Z 006d25f0 f i atlsd:AtlDebugAPI.obj
 0002:001db640       ??$AtlConvAllocMemory@_W@ATL@@YAXPAPA_WHPA_WH@Z 006d2640 f i atlsd:AtlDebugAPI.obj
 0002:001db830       ?Init@CAtlAllocator@@QAE_NPBDK@Z 006d2830 f   atlsd:Allocate.obj
 0002:001dbc30       ?IncRef@CAtlTraceProcess@@QAEIXZ 006d2c30 f i atlsd:Allocate.obj
 0002:001dbc70       ?Base@CAtlTraceProcess@@QBEPAXXZ 006d2c70 f i atlsd:Allocate.obj
 0002:001dbc90       ?Open@CAtlAllocator@@QAE_NPBD@Z 006d2c90 f   atlsd:Allocate.obj
 0002:001dbe20       ?Close@CAtlAllocator@@QAEX_N@Z 006d2e20 f   atlsd:Allocate.obj
 0002:001dbea0       ?DecRef@CAtlTraceProcess@@QAEIXZ 006d2ea0 f i atlsd:Allocate.obj
 0002:001dbee0       ?GetModule@CAtlAllocator@@QBEPAVCAtlTraceModule@@H@Z 006d2ee0 f   atlsd:Allocate.obj
 0002:001dbfa0       ?ModuleCount@CAtlTraceProcess@@QBEHXZ 006d2fa0 f i atlsd:Allocate.obj
 0002:001dbfc0       ?GetCategory@CAtlAllocator@@QBEPAVCAtlTraceCategory@@H@Z 006d2fc0 f   atlsd:Allocate.obj
 0002:001dc0a0       ?MaxSize@CAtlTraceProcess@@QBEKXZ 006d30a0 f i atlsd:Allocate.obj
 0002:001dc0c0       ?CategoryCount@CAtlTraceProcess@@QBEHXZ 006d30c0 f i atlsd:Allocate.obj
 0002:001dc0e0       ?GetCategoryCount@CAtlAllocator@@QBEHH@Z 006d30e0 f   atlsd:Allocate.obj
 0002:001dc180       ?GetCategoryCount@CAtlAllocator@@QBEHABVCAtlTraceModule@@@Z 006d3180 f   atlsd:Allocate.obj
 0002:001dc200       ?GetModuleCount@CAtlAllocator@@QBEHXZ 006d3200 f   atlsd:Allocate.obj
 0002:001dc270       ?FindModule@CAtlAllocator@@QBE_NPB_WPAI@Z 006d3270 f   atlsd:Allocate.obj
 0002:001dc310       ?AddModule@CAtlAllocator@@QAEHPAUHINSTANCE__@@@Z 006d3310 f   atlsd:Allocate.obj
 0002:001dc550       ?TryAllocate@CAtlTraceSettings@@QAE_NXZ 006d3550 f i atlsd:Allocate.obj
 0002:001dc5a0       ?MarkValid@CAtlTraceSettings@@QAEXJ@Z 006d35a0 f i atlsd:Allocate.obj
 0002:001dc5f0       ?IncModuleCount@CAtlTraceProcess@@QAEXI@Z 006d35f0 f i atlsd:Allocate.obj
 0002:001dc620       ?AddCategory@CAtlAllocator@@QAEHHPB_W@Z 006d3620 f   atlsd:Allocate.obj
 0002:001dc8e0       ?TryAddRef@CAtlTraceSettings@@QAE_NXZ 006d38e0 f i atlsd:Allocate.obj
 0002:001dc930       ?Release@CAtlTraceSettings@@QAEXXZ 006d3930 f i atlsd:Allocate.obj
 0002:001dc970       ?IncCategoryCount@CAtlTraceProcess@@QAEXI@Z 006d3970 f i atlsd:Allocate.obj
 0002:001dc9a0       ?RemoveModule@CAtlAllocator@@QAE_NH@Z 006d39a0 f   atlsd:Allocate.obj
 0002:001dca80       ?CleanUp@CAtlAllocator@@QAEXXZ 006d3a80 f   atlsd:Allocate.obj
 0002:001dcaa0       ?TakeSnapshot@CAtlAllocator@@QAEXXZ 006d3aa0 f   atlsd:Allocate.obj
 0002:001dcd00       ?ReleaseSnapshot@CAtlAllocator@@QAEXXZ 006d3d00 f   atlsd:Allocate.obj
 0002:001dce10       ?Add@?$CSimpleArray@UCModuleInfo@CTraceSnapshot@@V?$CSimpleArrayEqualHelper@UCModuleInfo@CTraceSnapshot@@@ATL@@@ATL@@QAEHABUCModuleInfo@CTraceSnapshot@@@Z 006d3e10 f i atlsd:Allocate.obj
 0002:001dcf90       ?GetSize@?$CSimpleArray@KV?$CSimpleArrayEqualHelper@K@ATL@@@ATL@@QBEHXZ 006d3f90 f i atlsd:Allocate.obj
 0002:001dcfb0       ?Add@?$CSimpleArray@KV?$CSimpleArrayEqualHelper@K@ATL@@@ATL@@QAEHABK@Z 006d3fb0 f i atlsd:Allocate.obj
 0002:001dd130       ?RemoveAt@?$CSimpleArray@KV?$CSimpleArrayEqualHelper@K@ATL@@@ATL@@QAEHH@Z 006d4130 f i atlsd:Allocate.obj
 0002:001dd220       ??A?$CSimpleArray@KV?$CSimpleArrayEqualHelper@K@ATL@@@ATL@@QAEAAKH@Z 006d4220 f i atlsd:Allocate.obj
 0002:001dd2b0       ?InternalSetAtIndex@?$CSimpleArray@UCModuleInfo@CTraceSnapshot@@V?$CSimpleArrayEqualHelper@UCModuleInfo@CTraceSnapshot@@@ATL@@@ATL@@QAEXHABUCModuleInfo@CTraceSnapshot@@@Z 006d42b0 f i atlsd:Allocate.obj
 0002:001dd310       ?InternalSetAtIndex@?$CSimpleArray@KV?$CSimpleArrayEqualHelper@K@ATL@@@ATL@@QAEXHABK@Z 006d4310 f i atlsd:Allocate.obj
 0002:001dd370       ??0Wrapper@?$CSimpleArray@UCModuleInfo@CTraceSnapshot@@V?$CSimpleArrayEqualHelper@UCModuleInfo@CTraceSnapshot@@@ATL@@@ATL@@QAE@ABUCModuleInfo@CTraceSnapshot@@@Z 006d4370 f i atlsd:Allocate.obj
 0002:001dd3b0       ??0Wrapper@?$CSimpleArray@KV?$CSimpleArrayEqualHelper@K@ATL@@@ATL@@QAE@ABK@Z 006d43b0 f i atlsd:Allocate.obj
 0002:001dd3e0       ??$?2UCModuleInfo@CTraceSnapshot@@@Wrapper@?$CSimpleArray@UCModuleInfo@CTraceSnapshot@@V?$CSimpleArrayEqualHelper@UCModuleInfo@CTraceSnapshot@@@ATL@@@ATL@@SAPAXIPAUCModuleInfo@CTraceSnapshot@@@Z 006d43e0 f i atlsd:Allocate.obj
 0002:001dd3f0       ??$?2K@Wrapper@?$CSimpleArray@KV?$CSimpleArrayEqualHelper@K@ATL@@@ATL@@SAPAXIPAK@Z 006d43f0 f i atlsd:Allocate.obj
 0002:001dd400       ??0CAtlTraceModuleInfo@@QAE@XZ 006d4400 f   atlsd:AtlTraceModuleManager.obj
 0002:001dd460       ?Reset@CAtlTraceModuleInfo@@QAEXPAUHINSTANCE__@@@Z 006d4460 f   atlsd:AtlTraceModuleManager.obj
 0002:001dd5f0       ??0CAtlTraceCategory@@QAE@XZ 006d45f0 f   atlsd:AtlTraceModuleManager.obj
 0002:001dd640       ??0CAtlTraceSettings@@QAE@XZ 006d4640 f i atlsd:AtlTraceModuleManager.obj
 0002:001dd690       ?Reset@CAtlTraceCategory@@QAEXPB_WJ@Z 006d4690 f   atlsd:AtlTraceModuleManager.obj
 0002:001dd6f0       ??0CAtlTraceModule@@QAE@XZ 006d46f0 f   atlsd:AtlTraceModuleManager.obj
 0002:001dd730       ?CrtDbgReport@CAtlTraceModule@@QAEXP6AHHPBDH00ZZ@Z 006d4730 f   atlsd:AtlTraceModuleManager.obj
 0002:001dd770       ??0CAtlTraceProcess@@QAE@K@Z 006d4770 f   atlsd:AtlTraceModuleManager.obj
 0002:001dd880       ?GetNextCookie@CAtlTraceProcess@@QAEJXZ 006d4880 f   atlsd:AtlTraceModuleManager.obj
 0002:001dd8a4       _SysFreeString@4           006d48a4 f   oleaut32:OLEAUT32.dll
 0002:001dd8b0       _WinMain@16                006d48b0 f   mfcs100d:appmodul.obj
 0002:001dd8e0       ?AfxInitialize@@YGHHK@Z    006d48e0 f   mfcs100d:appmodul.obj
 0002:001dd94c       __mktime64                 006d494c f   msvcrtd:MSVCR100D.dll
 0002:001dd952       __gmtime64_s               006d4952 f   msvcrtd:MSVCR100D.dll
 0002:001dd958       __localtime64_s            006d4958 f   msvcrtd:MSVCR100D.dll
 0002:001dd960       __aullshr                  006d4960 f   msvcrtd:ullshr.obj
 0002:001dd990       __allshl                   006d4990 f   msvcrtd:llshl.obj
 0002:001dd9b6       __snprintf_s               006d49b6 f   msvcrtd:MSVCR100D.dll
 0002:001dd9bc       __errno                    006d49bc f   msvcrtd:MSVCR100D.dll
 0002:001dd9c2       _wcscpy                    006d49c2 f   msvcrtd:MSVCR100D.dll
 0002:001dd9c8       __vsnprintf_s              006d49c8 f   msvcrtd:MSVCR100D.dll
 0002:001dd9ce       __vsnwprintf_s             006d49ce f   msvcrtd:MSVCR100D.dll
 0002:001dd9d4       __snwprintf_s              006d49d4 f   msvcrtd:MSVCR100D.dll
 0002:001dd9da       _wcscpy_s                  006d49da f   msvcrtd:MSVCR100D.dll
 0002:001dd9e0       _wcsncpy_s                 006d49e0 f   msvcrtd:MSVCR100D.dll
 0002:001dd9e6       __recalloc                 006d49e6 f   msvcrtd:MSVCR100D.dll
 0002:001dd9ec       __wcsicmp                  006d49ec f   msvcrtd:MSVCR100D.dll
 0002:001dd9f2       _wcslen                    006d49f2 f   msvcrtd:MSVCR100D.dll
 0002:001dd9f8       __setmode                  006d49f8 f   msvcrtd:MSVCR100D.dll
 0002:001dd9f8       _setmode                   006d49f8 f   msvcrtd:MSVCR100D.dll
 0002:001dd9fe       __fileno                   006d49fe f   msvcrtd:MSVCR100D.dll
 0002:001dda04       __setmbcp                  006d4a04 f   msvcrtd:MSVCR100D.dll
 0002:001dda0a       _MulDiv@12                 006d4a0a f   kernel32:KERNEL32.dll
 0002:001dda10       _FileTimeToSystemTime@8    006d4a10 f   kernel32:KERNEL32.dll
 0002:001dda16       _FileTimeToLocalFileTime@8 006d4a16 f   kernel32:KERNEL32.dll
 0002:001dda1c       _LocalFileTimeToFileTime@8 006d4a1c f   kernel32:KERNEL32.dll
 0002:001dda22       _SetEvent@4                006d4a22 f   kernel32:KERNEL32.dll
 0002:001dda28       _OpenEventA@12             006d4a28 f   kernel32:KERNEL32.dll
 0002:001dda2e       _OutputDebugStringW@4      006d4a2e f   kernel32:KERNEL32.dll
 0002:001dda34       _VirtualAlloc@16           006d4a34 f   kernel32:KERNEL32.dll
 0002:001dda3a       _GetSystemInfo@4           006d4a3a f   kernel32:KERNEL32.dll
 0002:001dda40       _OpenFileMappingA@12       006d4a40 f   kernel32:KERNEL32.dll
 0002:001dda46       _CopyRect@8                006d4a46 f   user32:USER32.dll
 0002:001dda4c       _IsRectEmpty@4             006d4a4c f   user32:USER32.dll
 0002:001dda52       _PtInRect@12               006d4a52 f   user32:USER32.dll
 0002:001dda58       _SetRect@20                006d4a58 f   user32:USER32.dll
 0002:001dda5e       _SetRectEmpty@4            006d4a5e f   user32:USER32.dll
 0002:001dda64       _EqualRect@8               006d4a64 f   user32:USER32.dll
 0002:001dda6a       _InflateRect@12            006d4a6a f   user32:USER32.dll
 0002:001dda70       _OffsetRect@12             006d4a70 f   user32:USER32.dll
 0002:001dda76       _IntersectRect@12          006d4a76 f   user32:USER32.dll
 0002:001dda7c       _UnionRect@12              006d4a7c f   user32:USER32.dll
 0002:001dda82       _SubtractRect@12           006d4a82 f   user32:USER32.dll
 0002:001dda88       _SetThreadToken@8          006d4a88 f   advapi32:ADVAPI32.dll
 0002:001dda8e       _RevertToSelf@0            006d4a8e f   advapi32:ADVAPI32.dll
 0002:001dda94       _OpenThreadToken@16        006d4a94 f   advapi32:ADVAPI32.dll
 0002:001dda9a       ?AfxWinMain@@YGHPAUHINSTANCE__@@0PADH@Z 006d4a9a f   mfc100d:mfc100d.dll
 0002:001ddaa0       ?AfxGetModuleState@@YGPAVAFX_MODULE_STATE@@XZ 006d4aa0 f   mfc100d:mfc100d.dll
 0002:001f74e0       ??__Fstd_err@?1??instance@CQAFDebug@@KAAAV1@XZ@YAXXZ 006ee4e0 f i QAFDebug.obj
 0003:00000000       ___xc_a                    006f0000     msvcrtd:cinitexe.obj
 0003:00000654       ___xc_z                    006f0654     msvcrtd:cinitexe.obj
 0003:00000758       ___xi_a                    006f0758     msvcrtd:cinitexe.obj
 0003:00000b68       ___xi_z                    006f0b68     msvcrtd:cinitexe.obj
 0003:00000c8c       ??_C@_13COJANIEC@?$AA0?$AA?$AA@ 006f0c8c     Cuid.obj
 0003:00000c90       ??_C@_1CI@CHPBNIIH@?$AAc?$AA?3?$AA?2?$AAf?$AAr?$AAe?$AAe?$AAs?$AAc?$AAh?$AA?2?$AAc?$AAu?$AAi?$AAd?$AA?4?$AAc?$AAp?$AAp?$AA?$AA@ 006f0c90     Cuid.obj
 0003:00000cc0       __real@4000000000000000    006f0cc0     DesignRules.obj
 0003:00000cd0       __real@413360f000000000    006f0cd0     DesignRules.obj
 0003:00000cdc       ??_C@_0BL@JACIDEHJ@c?3?2freesch?2designrules?4cpp?$AA@ 006f0cdc     DesignRules.obj
 0003:00000d00       ??_C@_0FB@LMHGDHBC@c?3?2program?5files?5?$CIx86?$CJ?2microsoft@ 006f0d00     DesignRules.obj
 0003:00000d68       __real@0000000000000000    006f0d68     DisplayList.obj
 0003:00000d78       __real@4093d80000000000    006f0d78     DisplayList.obj
 0003:00000d84       ??_C@_0BL@KNENPJJC@c?3?2freesch?2displaylist?4cpp?$AA@ 006f0d84     DisplayList.obj
 0003:00000da8       __real@403e000000000000    006f0da8     DisplayList.obj
 0003:00000db8       __real@4024000000000000    006f0db8     DisplayList.obj
 0003:00000dc8       __real@402e000000000000    006f0dc8     DisplayList.obj
 0003:00000dd4       ??_C@_1DG@NAMHKPOC@?$AAc?$AA?3?$AA?2?$AAf?$AAr?$AAe?$AAe?$AAs?$AAc?$AAh?$AA?2?$AAd?$AAi?$AAs?$AAp?$AAl?$AAa?$AAy?$AAl?$AAi?$AAs?$AAt?$AA?4?$AAc?$AAp?$AAp?$AA?$AA@ 006f0dd4     DisplayList.obj
 0003:00000e18       __real@4010000000000000    006f0e18     DisplayList.obj
 0003:00000e28       __real@4014000000000000    006f0e28     DisplayList.obj
 0003:00000e38       __real@3fe0000000000000    006f0e38     DisplayList.obj
 0003:00000e44       ??_C@_1DM@MMGFGJEG@?$AAm?$AA_?$AAd?$AAr?$AAa?$AAg?$AA_?$AAs?$AAt?$AAy?$AAl?$AAe?$AA1?$AA?5?$AA?$DN?$AA?$DN?$AA?5?$AAD?$AAS?$AAS?$AA_?$AAS?$AAT?$AAR?$AAA?$AAI?$AAG?$AAH?$AAT?$AA?$AA@ 006f0e44     DisplayList.obj
 0003:00000e8c       ??_C@_1DM@FJBFLNND@?$AAm?$AA_?$AAd?$AAr?$AAa?$AAg?$AA_?$AAs?$AAt?$AAy?$AAl?$AAe?$AA0?$AA?5?$AA?$DN?$AA?$DN?$AA?5?$AAD?$AAS?$AAS?$AA_?$AAS?$AAT?$AAR?$AAA?$AAI?$AAG?$AAH?$AAT?$AA?$AA@ 006f0e8c     DisplayList.obj
 0003:00000ed4       __real@c2b40000            006f0ed4     DisplayList.obj
 0003:00000edc       ??_7?$CArray@VCPoint@@ABV1@@@6B@ 006f0edc     DisplayList.obj
 0003:00000ef4       ??_C@_01EEMJAFIK@?6?$AA@   006f0ef4     DisplayList.obj
 0003:00000ef8       ??_C@_05PLCFPPOI@with?5?$AA@ 006f0ef8     DisplayList.obj
 0003:00000f00       ??_C@_09HCLNAIDE@?5elements?$AA@ 006f0f00     DisplayList.obj
 0003:00000f0c       ??_C@_0BC@KHHBAGNL@CDlgAddMaskCutout?$AA@ 006f0f0c     DlgAddMaskCutout.obj
 0003:00000f24       ?classCDlgAddMaskCutout@CDlgAddMaskCutout@@2UCRuntimeClass@@B 006f0f24     DlgAddMaskCutout.obj
 0003:00000f74       ??_7CDlgAddMaskCutout@@6B@ 006f0f74     DlgAddMaskCutout.obj
 0003:00001158       ??_C@_1EA@MFLKANIF@?$AAc?$AA?3?$AA?2?$AAf?$AAr?$AAe?$AAe?$AAs?$AAc?$AAh?$AA?2?$AAd?$AAl?$AAg?$AAa?$AAd?$AAd?$AAm?$AAa?$AAs?$AAk?$AAc?$AAu?$AAt?$AAo?$AAu?$AAt?$AA?4?$AAc?$AAp?$AAp?$AA?$AA@ 006f1158     DlgAddMaskCutout.obj
 0003:000011a4       ??_C@_0BD@BAAMCCMN@Additional?5layer?58?$AA@ 006f11a4     DlgAddMaskCutout.obj
 0003:000011bc       ??_C@_0BD@JHJEDOAC@Additional?5layer?57?$AA@ 006f11bc     DlgAddMaskCutout.obj
 0003:000011d4       ??_C@_0BD@IOIPAPED@Additional?5layer?56?$AA@ 006f11d4     DlgAddMaskCutout.obj
 0003:000011ec       ??_C@_0BD@KFKCFMIA@Additional?5layer?55?$AA@ 006f11ec     DlgAddMaskCutout.obj
 0003:00001204       ??_C@_0BD@LMLJGNMB@Additional?5layer?54?$AA@ 006f1204     DlgAddMaskCutout.obj
 0003:0000121c       ??_C@_0BD@PDPIPLAG@Additional?5layer?53?$AA@ 006f121c     DlgAddMaskCutout.obj
 0003:00001234       ??_C@_0BD@OKODMKEH@Additional?5layer?52?$AA@ 006f1234     DlgAddMaskCutout.obj
 0003:0000124c       ??_C@_0BD@MBMOJJIE@Additional?5layer?51?$AA@ 006f124c     DlgAddMaskCutout.obj
 0003:00001264       ??_C@_0N@DONNMJEN@CDlgAddMerge?$AA@ 006f1264     DlgAddMerge.obj
 0003:00001274       ?classCDlgAddMerge@CDlgAddMerge@@2UCRuntimeClass@@B 006f1274     DlgAddMerge.obj
 0003:000012be       ??_C@_00CNPNBAHC@?$AA@     006f12be     DlgAddMerge.obj
 0003:000012c4       ??_7CDlgAddMerge@@6B@      006f12c4     DlgAddMerge.obj
 0003:000014a4       ??_C@_08ELFMLPKD@Units?5NM?$AA@ 006f14a4     DlgAddMerge.obj
 0003:000014b0       ??_C@_09GOEKJNG@Units?5MIL?$AA@ 006f14b0     DlgAddMerge.obj
 0003:000014bc       ??_C@_08EJBKABPK@Units?5MM?$AA@ 006f14bc     DlgAddMerge.obj
 0003:000014c8       ??_C@_03MDAFIFFL@0?40?$AA@ 006f14c8     DlgAddMerge.obj
 0003:000014cc       ??_C@_04OHJIHAFH@None?$AA@ 006f14cc     DlgAddMerge.obj
 0003:000014d4       ??_C@_08PJDIHONO@Merge?9?$CFs?$AA@ 006f14d4     DlgAddMerge.obj
 0003:000014e0       ??_C@_07GGADEGEP@Merge?91?$AA@ 006f14e0     DlgAddMerge.obj
 0003:000014ec       ??_C@_05LGDANENA@Empty?$AA@ 006f14ec     DlgAddMerge.obj
 0003:000014f4       ??_C@_03JEECBGEF@MIL?$AA@  006f14f4     DlgAddMerge.obj
 0003:000014f8       ??_C@_02DNCLAJDG@MM?$AA@   006f14f8     DlgAddMerge.obj
 0003:00001500       ??_C@_0EA@ELJPDJIE@Illegal?5merge?5name?4?5The?5name?5can@ 006f1500     DlgAddMerge.obj
 0003:0000154c       ??_C@_01CLKCMJKC@?5?$AA@   006f154c     DlgAddMerge.obj
 0003:00001550       ??_C@_0EC@GCOJNCKG@Illegal?5merge?5name?4?5The?5name?5can@ 006f1550     DlgAddMerge.obj
 0003:000015a0       ??_C@_01BJJEKLCA@?$CC?$AA@ 006f15a0     DlgAddMerge.obj
 0003:000015a4       ??_C@_0L@EPNFDFAO@CDlgAddNet?$AA@ 006f15a4     DlgAddNet.obj
 0003:000015b4       ?classCDlgAddNet@CDlgAddNet@@2UCRuntimeClass@@B 006f15b4     DlgAddNet.obj
 0003:00001604       ??_7CDlgAddNet@@6B@        006f1604     DlgAddNet.obj
 0003:000017e4       ??_C@_0M@PIJLIGMG@CDlgAddPart?$AA@ 006f17e4     DlgAddPart.obj
 0003:000017f4       ?classCDlgAddPart@CDlgAddPart@@2UCRuntimeClass@@B 006f17f4     DlgAddPart.obj
 0003:00001964       ??_7CDlgAddPart@@6B@       006f1964     DlgAddPart.obj
 0003:00001b48       ??_C@_0JM@CDNBCOHD@Warning?3?5?$CFs?5has?5fewer?5pins?5than?5@ 006f1b48     DlgAddPart.obj
 0003:00001c08       ??_C@_0EH@DFAPOAHH@Warning?3?5?$CFs?5has?5fewer?5pins?5than?5@ 006f1c08     DlgAddPart.obj
 0003:00001c60       ??_C@_1DE@CPJINAOK@?$AAc?$AA?3?$AA?2?$AAf?$AAr?$AAe?$AAe?$AAs?$AAc?$AAh?$AA?2?$AAd?$AAl?$AAg?$AAa?$AAd?$AAd?$AAp?$AAa?$AAr?$AAt?$AA?4?$AAc?$AAp?$AAp?$AA?$AA@ 006f1c60     DlgAddPart.obj
 0003:00001ca0       ??_C@_0BN@PMAGCCDM@Error?3?5No?5footprint?5selected?$AA@ 006f1ca0     DlgAddPart.obj
 0003:00001cc4       ??_C@_0BK@LPJJNEA@c?3?2freesch?2dlgaddpart?4cpp?$AA@ 006f1cc4     DlgAddPart.obj
 0003:00001ce8       ??_C@_0FE@FPMEDOOE@Loading?5this?5new?5footprint?5will?5@ 006f1ce8     DlgAddPart.obj
 0003:00001d50       ??_C@_0EF@MILNOPKJ@Warning?3?5A?5footprint?5named?5?$CC?$CFs?$CC?$AN@ 006f1d50     DlgAddPart.obj
 0003:00001da4       ??_C@_01MCMALHOG@a?$AA@    006f1da4     DlgAddPart.obj
 0003:00001da8       ??_C@_01FHEEJDEE@A?$AA@    006f1da8     DlgAddPart.obj
 0003:00001dac       ??_C@_02LHLLMGKI@A1?$AA@   006f1dac     DlgAddPart.obj
 0003:00001db0       ??_C@_01HIHLOKLC@1?$AA@    006f1db0     DlgAddPart.obj
 0003:00001db4       ??_C@_0M@BIOLIJGA@EMPTY_SHAPE?$AA@ 006f1db4     DlgAddPart.obj
 0003:00001dc4       ??_C@_0BJ@PLOFHNAH@Value?5cannot?5contain?5?$CC?$EA?$CC?$AA@ 006f1dc4     DlgAddPart.obj
 0003:00001de4       ??_C@_01EOFPKCAF@?$EA?$AA@ 006f1de4     DlgAddPart.obj
 0003:00001de8       ??_C@_0DL@BEFHMLCI@Part?5?$CFs?5already?5exists?5and?5will?5@ 006f1de8     DlgAddPart.obj
 0003:00001e30       ??_C@_04HGGBINEM@?$CFs?$CFd?$AA@ 006f1e30     DlgAddPart.obj
 0003:00001e38       ??_C@_0GA@FCMNPDDM@?5Duplicate?5reference?$CB?5?$CFs?5already@ 006f1e38     DlgAddPart.obj
 0003:00001eac       ??_C@_02EAOCEIGI@?$DP?$CK?$AA@ 006f1eac     DlgAddPart.obj
 0003:00001eb0       ??_C@_01OGPIMHDM@?$DP?$AA@ 006f1eb0     DlgAddPart.obj
 0003:00001eb4       ??_C@_0CC@DFCOOCID@Illegal?5reference?5designator?5?$CC?$CFs@ 006f1eb4     DlgAddPart.obj
 0003:00001edc       ??_C@_03JDAIHPCN@?0?4?5?$AA@ 006f1edc     DlgAddPart.obj
 0003:00001ee0       ??_C@_0BN@BOBOMOCC@Illegal?5reference?5designator?$AA@ 006f1ee0     DlgAddPart.obj
 0003:00001f04       ??_C@_08CKJFGDBG@multiple?$AA@ 006f1f04     DlgAddPart.obj
 0003:00001f10       ??_C@_01GBGANLPD@0?$AA@    006f1f10     DlgAddPart.obj
 0003:00001f14       ??_C@_06PMMPCIPB@bottom?$AA@ 006f1f14     DlgAddPart.obj
 0003:00001f1c       ??_C@_03FGFCOCMD@top?$AA@  006f1f1c     DlgAddPart.obj
 0003:00001f20       ??_C@_0M@OIAKCIF@local?5cache?$AA@ 006f1f20     DlgAddPart.obj
 0003:00001f30       ??_C@_0BO@OPJKDEJF@Warning?3?5Library?5was?5changed?$CB?$AA@ 006f1f30     DlgAddPart.obj
 0003:00001f58       __real@412e848000000000    006f1f58     DlgAddPart.obj
 0003:00001f68       __real@40d8ce0000000000    006f1f68     DlgAddPart.obj
 0003:00001f74       ??_C@_0M@HAMKBNN@Open?5Folder?$AA@ 006f1f74     DlgAddPart.obj
 0003:00001f84       ??_C@_0CA@DNAHDAEA@Select?5footprint?5library?5folder?$AA@ 006f1f84     DlgAddPart.obj
 0003:00001fac       ??_C@_0L@EGCEBGBN@CDlgAddPin?$AA@ 006f1fac     DlgAddPin.obj
 0003:00001fbc       ?classCDlgAddPin@CDlgAddPin@@2UCRuntimeClass@@B 006f1fbc     DlgAddPin.obj
 0003:000023a0       __real@4044000000000000    006f23a0     DlgAddPin.obj
 0003:000023b4       ??_7CDlgAddPin@@6B@        006f23b4     DlgAddPin.obj
 0003:00002594       ??_C@_04HDOCAJNK@?$CFs?$CFs?$AA@ 006f2594     DlgAddPin.obj
 0003:0000259c       ??_C@_0DC@CEKCPGIG@or?5NO?5to?5set?5them?5all?5to?5the?5lay@ 006f259c     DlgAddPin.obj
 0003:000025d8       ??_C@_0DB@HJFKDKLP@Click?5YES?5to?5preserve?5the?5layers@ 006f25d8     DlgAddPin.obj
 0003:00002614       ??_C@_0CB@IBABIBBG@on?5both?5top?5and?5bottom?5layers?4?6?6@ 006f2614     DlgAddPin.obj
 0003:0000263c       ??_C@_0DB@GJLDMHHA@You?5are?5applying?5new?5pad?5paramet@ 006f263c     DlgAddPin.obj
 0003:00002678       ??_C@_0EO@CHMFFMDD@Pin?5names?5?$CC?$CFs?$CFd?$CC?5through?5?$CC?$CFs?$CFd?$CC?5@ 006f2678     DlgAddPin.obj
 0003:000026d8       ??_C@_0DO@MILAFAFC@Pin?5name?5?$CC?$CFs?$CC?5conflicts?5with?5an?5@ 006f26d8     DlgAddPin.obj
 0003:00002724       ??_C@_0DH@CAMOPKPB@Radius?5of?5inner?5rounded?9rect?5pad@ 006f2724     DlgAddPin.obj
 0003:00002768       ??_C@_0DO@CCHMJPAF@Radius?5of?5bottom?5paste?5rounded?9r@ 006f2768     DlgAddPin.obj
 0003:000027b4       ??_C@_0DN@GJJFGDHB@Radius?5of?5bottom?5mask?5rounded?9re@ 006f27b4     DlgAddPin.obj
 0003:00002800       ??_C@_0DI@IJJIEECD@Radius?5of?5bottom?5rounded?9rect?5pa@ 006f2800     DlgAddPin.obj
 0003:00002844       ??_C@_0DL@KAPEEDOO@Radius?5of?5top?5paste?5rounded?9rect@ 006f2844     DlgAddPin.obj
 0003:0000288c       ??_C@_0DK@OJLNEJCH@Radius?5of?5top?5mask?5rounded?9rect?5@ 006f288c     DlgAddPin.obj
 0003:000028d4       ??_C@_0DF@OJPLDOLB@Radius?5of?5top?5rounded?9rect?5pad?5?$DO@ 006f28d4     DlgAddPin.obj
 0003:00002914       ??_C@_0BD@EKBEKCCI@Illegal?5mask?5width?$AA@ 006f2914     DlgAddPin.obj
 0003:0000292c       ??_C@_0BE@HKHDINCE@Illegal?5paste?5width?$AA@ 006f292c     DlgAddPin.obj
 0003:00002944       ??_C@_0BO@DOEFNNGK@SMT?5pad?5shape?5can?8t?5be?5?$CCnone?$CC?$AA@ 006f2944     DlgAddPin.obj
 0003:00002968       ??_C@_0BJ@EHADMEKJ@Illegal?5bottom?5pad?5width?$AA@ 006f2968     DlgAddPin.obj
 0003:00002988       ??_C@_0BI@HPFGFGKL@Illegal?5inner?5pad?5width?$AA@ 006f2988     DlgAddPin.obj
 0003:000029a4       ??_C@_0BG@LMKDHNKC@Illegal?5top?5pad?5width?$AA@ 006f29a4     DlgAddPin.obj
 0003:000029c0       ??_C@_0DA@KDJLJKPK@For?5through?9hole?5pin?0?5hole?5diame@ 006f29c0     DlgAddPin.obj
 0003:000029fc       ??_C@_0BE@JKOKBCDO@illegal?5row?5spacing?$AA@ 006f29fc     DlgAddPin.obj
 0003:00002a14       ??_C@_0BN@OOHJLBBO@while?51A?0?5A2B3?0?5A?33?5are?5not?6?$AA@ 006f2a14     DlgAddPin.obj
 0003:00002a38       ??_C@_0CL@FOBNMFOE@For?5example?3?51?0?523?0?5A12?0?5SOURCE?5@ 006f2a38     DlgAddPin.obj
 0003:00002a6c       ??_C@_0DK@PKJGELBA@The?5characters?5?$CC?5?4?0?$DL?3?1?$CB?$EA?$CD$?$CF?$FO?$CG?$CK?$CI?$CJ@ 006f2a6c     DlgAddPin.obj
 0003:00002ab4       ??_C@_0CC@IOMJPDLL@Followed?5by?5zero?5or?5more?5numbers@ 006f2ab4     DlgAddPin.obj
 0003:00002adc       ??_C@_0CP@DGBNMBH@Pin?5name?5must?5consist?5of?5zero?5or@ 006f2adc     DlgAddPin.obj
 0003:00002b14       ??_C@_02DPKJAMEF@?$CFd?$AA@ 006f2b14     DlgAddPin.obj
 0003:00002b18       ??_C@_06BPGFIOAL@?$CFs?$CI?$CFd?$CJ?$AA@ 006f2b18     DlgAddPin.obj
 0003:00002b20       ??_C@_0BC@LNNPBBLO@?$CFs?5?$CI?5?$CFs?5?$CFs?5x?5?$CFs?5?$CJ?$AA@ 006f2b20     DlgAddPin.obj
 0003:00002b38       ??_C@_04MNFAFELN@oct?5?$AA@ 006f2b38     DlgAddPin.obj
 0003:00002b40       ??_C@_05JGNOHADM@oval?5?$AA@ 006f2b40     DlgAddPin.obj
 0003:00002b48       ??_C@_06OBLDAJLH@rrect?5?$AA@ 006f2b48     DlgAddPin.obj
 0003:00002b50       ??_C@_05LGOKLGGI@rect?5?$AA@ 006f2b50     DlgAddPin.obj
 0003:00002b58       ??_C@_04JGNNMNJI@sqr?5?$AA@ 006f2b58     DlgAddPin.obj
 0003:00002b60       ??_C@_04LLGMHMCD@rnd?5?$AA@ 006f2b60     DlgAddPin.obj
 0003:00002b68       ??_C@_05NDLFFNHM@paste?$AA@ 006f2b68     DlgAddPin.obj
 0003:00002b70       ??_C@_04LFLEPBN@mask?$AA@  006f2b70     DlgAddPin.obj
 0003:00002b78       ??_C@_04KKJNHOJN@hole?$AA@ 006f2b78     DlgAddPin.obj
 0003:00002b80       ??_C@_08HFNFBPNK@thru?5pad?$AA@ 006f2b80     DlgAddPin.obj
 0003:00002b8c       ??_C@_03BBKEAIF@?$DP?$DP?$DP?$AA@ 006f2b8c     DlgAddPin.obj
 0003:00002b90       ??_C@_04FPJBBKHA@vert?$AA@ 006f2b90     DlgAddPin.obj
 0003:00002b98       ??_C@_05OCBIDKDD@horiz?$AA@ 006f2b98     DlgAddPin.obj
 0003:00002ba0       ??_C@_06CGLIEPEJ@middle?$AA@ 006f2ba0     DlgAddPin.obj
 0003:00002ba8       ??_C@_05DHJDAOHK@right?$AA@ 006f2ba8     DlgAddPin.obj
 0003:00002bb0       ??_C@_06BBLOAEEI@center?$AA@ 006f2bb0     DlgAddPin.obj
 0003:00002bb8       ??_C@_04GOOOJOPP@left?$AA@ 006f2bb8     DlgAddPin.obj
 0003:00002bc0       ??_C@_02JAOCGLHE@mm?$AA@   006f2bc0     DlgAddPin.obj
 0003:00002bc4       ??_C@_03JJLJNLDJ@mil?$AA@  006f2bc4     DlgAddPin.obj
 0003:00002bc8       ??_C@_09IOAPNCJN@?$DMdefault?$DO?$AA@ 006f2bc8     DlgAddPin.obj
 0003:00002bd4       ??_C@_07DKNNAFN@octagon?$AA@ 006f2bd4     DlgAddPin.obj
 0003:00002be0       ??_C@_04OMLGJCIC@oval?$AA@ 006f2be0     DlgAddPin.obj
 0003:00002be8       ??_C@_0N@ODNJDEMF@rounded?9rect?$AA@ 006f2be8     DlgAddPin.obj
 0003:00002bf8       ??_C@_04LHPFHFPH@rect?$AA@ 006f2bf8     DlgAddPin.obj
 0003:00002c00       ??_C@_06ICDKOIFG@square?$AA@ 006f2c00     DlgAddPin.obj
 0003:00002c08       ??_C@_05MIMAKCN@round?$AA@ 006f2c08     DlgAddPin.obj
 0003:00002c10       ??_C@_04CGFJFPFD@none?$AA@ 006f2c10     DlgAddPin.obj
 0003:00002c18       ??_C@_1DC@ECKCBHKB@?$AAc?$AA?3?$AA?2?$AAf?$AAr?$AAe?$AAe?$AAs?$AAc?$AAh?$AA?2?$AAd?$AAl?$AAg?$AAa?$AAd?$AAd?$AAp?$AAi?$AAn?$AA?4?$AAc?$AAp?$AAp?$AA?$AA@ 006f2c18     DlgAddPin.obj
 0003:00002c58       ??_7?$CArray@V?$CStringT@DV?$StrTraitMFC_DLL@DV?$ChTraitsCRT@D@ATL@@@@@ATL@@ABV12@@@6B@ 006f2c58     DlgAddPin.obj
 0003:00002c70       ??_C@_0M@LLFCABMC@CDlgAddPoly?$AA@ 006f2c70     DlgAddPoly.obj
 0003:00002c80       ?classCDlgAddPoly@CDlgAddPoly@@2UCRuntimeClass@@B 006f2c80     DlgAddPoly.obj
 0003:00002cec       ??_7CDlgAddPoly@@6B@       006f2cec     DlgAddPoly.obj
 0003:00002ecc       ??_C@_0CD@GIIDCIJF@Width?5out?5of?5range?5?$CI1?5to?5999?5mil@ 006f2ecc     DlgAddPoly.obj
 0003:00002ef8       ??_C@_0M@IPOODCIH@CDlgAddText?$AA@ 006f2ef8     DlgAddText.obj
 0003:00002f08       ?classCDlgAddText@CDlgAddText@@2UCRuntimeClass@@B 006f2f08     DlgAddText.obj
 0003:00003044       ??_7CDlgAddText@@6B@       006f3044     DlgAddText.obj
 0003:00003224       ??_C@_0BM@EDNKKDNO@Text?5string?5can?8t?5contain?5?$CC?$AA@ 006f3224     DlgAddText.obj
 0003:00003248       ??_C@_0BE@CKHKHGKB@Invalid?5text?5string?$AA@ 006f3248     DlgAddText.obj
 0003:00003260       ??_C@_0N@IHNMGOJG@CDlgAddWidth?$AA@ 006f3260     DlgAddWidth.obj
 0003:00003270       ?classCDlgAddWidth@CDlgAddWidth@@2UCRuntimeClass@@B 006f3270     DlgAddWidth.obj
 0003:000032c4       ??_7CDlgAddWidth@@6B@      006f32c4     DlgAddWidth.obj
 0003:000034a4       ??_C@_0N@FKAFOHHC@DlgAreaLayer?$AA@ 006f34a4     DlgAreaLayer.obj
 0003:000034b4       ?classDlgAreaLayer@DlgAreaLayer@@2UCRuntimeClass@@B 006f34b4     DlgAreaLayer.obj
 0003:00003504       ??_7DlgAreaLayer@@6B@      006f3504     DlgAreaLayer.obj
 0003:000036e4       ??_C@_0N@BANIIAEA@DlgAssignNet?$AA@ 006f36e4     DlgAssignNet.obj
 0003:000036f4       ?classDlgAssignNet@DlgAssignNet@@2UCRuntimeClass@@B 006f36f4     DlgAssignNet.obj
 0003:0000377c       ??_7DlgAssignNet@@6B@      006f377c     DlgAssignNet.obj
 0003:0000395c       ??_C@_0BG@IKIBNLK@Neither?5pin?5nor?5net?5?$CC?$AA@ 006f395c     DlgAssignNet.obj
 0003:00003978       ??_C@_0CJ@PPDCHELD@?$CC?5was?5found?5in?5netlist?6Create?5th@ 006f3978     DlgAssignNet.obj
 0003:000039ac       ??_C@_01LFCBOECM@?4?$AA@   006f39ac     DlgAssignNet.obj
 0003:000039b0       ??_C@_05FBBPPKHG@Net?5?$CC?$AA@ 006f39b0     DlgAssignNet.obj
 0003:000039b8       ??_C@_0CD@KKEAALFB@?$CC?5not?5found?5in?5netlist?6Create?5it@ 006f39b8     DlgAssignNet.obj
 0003:000039e4       ??_C@_05NNFHCGPF@?$CFs?4?$CFs?$AA@ 006f39e4     DlgAssignNet.obj
 0003:000039ec       ??_C@_0BB@KAOONMBF@Illegal?5net?5name?$AA@ 006f39ec     DlgAssignNet.obj
 0003:00003a00       ??_C@_05BBJCMEOB@N?$CF?45d?$AA@ 006f3a00     DlgAssignNet.obj
 0003:00003a08       ??_C@_07LFEDEKKL@CDlgCAD?$AA@ 006f3a08     DlgCAD.obj
 0003:00003a14       ?classCDlgCAD@CDlgCAD@@2UCRuntimeClass@@B 006f3a14     DlgCAD.obj
 0003:00003b84       ??_7CDlgCAD@@6B@           006f3b84     DlgCAD.obj
 0003:00003d64       ??_C@_0DL@PKBLBIPK@?$CK?$CK?$CK?$CK?$CK?$CK?$CK?$CK?$CK?$CK?$CK?$CK?$CK?$CK?$CK?$CK?$CK?$CK?$CK?$CK?$CK?$CK?$CK?$CK?$CK?5DONE?5?$CK@ 006f3d64     DlgCAD.obj
 0003:00003dac       ??_C@_05FJMIFMML@Run?3?5?$AA@ 006f3dac     DlgCAD.obj
 0003:00003db4       ??_C@_02PCIJFNDE@?$AN?6?$AA@ 006f3db4     DlgCAD.obj
 0003:00003db8       ??_C@_0DL@MLENLFGE@?$CK?$CK?$CK?$CK?$CK?$CK?$CK?$CK?$CK?$CK?$CK?5RENDERING?5?4PNG?5FILES@ 006f3db8     DlgCAD.obj
 0003:00003e00       ??_C@_0DL@LNBDDELK@?$CK?$CK?$CK?$CK?$CK?$CK?$CK?$CK?$CK?$CK?$CK?$CK?5ALL?5GERBERS?5CREATED@ 006f3e00     DlgCAD.obj
 0003:00003e48       ??_C@_0DL@FJPIMHHJ@?$CK?$CK?$CK?$CK?$CK?$CK?5ERRORS?5OCCURRED?5DURING?5CR@ 006f3e48     DlgCAD.obj
 0003:00003e90       ??_C@_0CD@ECGOIABJ@?2GerberRender?4exe?5?9r?51200?5?9a?50?40@ 006f3e90     DlgCAD.obj
 0003:00003ebc       ??_C@_09OEOEKGON@?9?9mirror?5?$AA@ 006f3ebc     DlgCAD.obj
 0003:00003ec8       ??_C@_05MJMNOEPO@M02?$CK?6?$AA@ 006f3ec8     DlgCAD.obj
 0003:00003ed0       ??_C@_08MCNGNGCP@G04?5?$CFs?$CK?6?$AA@ 006f3ed0     DlgCAD.obj
 0003:00003edc       ??_C@_0BP@KEKOFMID@G04?5WebSite?3?5www?4freepcb?4dev?$CK?6?$AA@ 006f3edc     DlgCAD.obj
 0003:00003f04       ??_C@_0BN@JEMLEJMA@G04?5Version?3?5FreeSCH?91?4000?$CK?6?$AA@ 006f3f04     DlgCAD.obj
 0003:00003f28       ??_C@_0BO@HMILDLLA@G04?5FreePCB?5MFC?5Application?$CK?6?$AA@ 006f3f28     DlgCAD.obj
 0003:00003f4c       ??_C@_1CM@JEIPJKBG@?$AAc?$AA?3?$AA?2?$AAf?$AAr?$AAe?$AAe?$AAs?$AAc?$AAh?$AA?2?$AAd?$AAl?$AAg?$AAc?$AAa?$AAd?$AA?4?$AAc?$AAp?$AAp?$AA?$AA@ 006f3f4c     DlgCAD.obj
 0003:00003f80       ??_C@_0O@DKLONDKO@?$CFs?4HIGHLIGHTS?$AA@ 006f3f80     DlgCAD.obj
 0003:00003f90       ??_C@_0P@BJIMOIGC@HIGHLIGHTS?4gbr?$AA@ 006f3f90     DlgCAD.obj
 0003:00003fa4       ??_C@_06NOGAFMFF@?$CFs?4NTB?$AA@ 006f3fa4     DlgCAD.obj
 0003:00003fac       ??_C@_0BB@LIIMAIJP@BOTTOM_NOTES?4gbr?$AA@ 006f3fac     DlgCAD.obj
 0003:00003fc0       ??_C@_06MCPIOJIC@?$CFs?4NTT?$AA@ 006f3fc0     DlgCAD.obj
 0003:00003fc8       ??_C@_0O@BPGEIJFF@TOP_NOTES?4gbr?$AA@ 006f3fc8     DlgCAD.obj
 0003:00003fd8       ??_C@_08DBFIMICH@?$CFs?4V_CUT?$AA@ 006f3fd8     DlgCAD.obj
 0003:00003fe4       ??_C@_0O@OOKLAKGP@V_CUTOUTS?4gbr?$AA@ 006f3fe4     DlgCAD.obj
 0003:00003ff4       ??_C@_06HLBKHLML@?$CFs?4SPB?$AA@ 006f3ff4     DlgCAD.obj
 0003:00003ffc       ??_C@_0BB@FHMKBNLD@BOTTOM_PASTE?4gbr?$AA@ 006f3ffc     DlgCAD.obj
 0003:00004010       ??_C@_06GHICMOBM@?$CFs?4SPT?$AA@ 006f4010     DlgCAD.obj
 0003:00004018       ??_C@_0O@PACCJMHJ@TOP_PASTE?4gbr?$AA@ 006f4018     DlgCAD.obj
 0003:00004028       ??_C@_06MGGBDINJ@?$CFs?4BRD?$AA@ 006f4028     DlgCAD.obj
 0003:00004030       ??_C@_0O@HCKGPGAG@FREE_LINE?4gbr?$AA@ 006f4030     DlgCAD.obj
 0003:00004040       ??_C@_0M@HIFFJNJO@?$CFs?4INNER_14?$AA@ 006f4040     DlgCAD.obj
 0003:00004050       ??_C@_0N@CAGLIBPP@INNER_14?4gbr?$AA@ 006f4050     DlgCAD.obj
 0003:00004060       ??_C@_0M@DHBEALFJ@?$CFs?4INNER_13?$AA@ 006f4060     DlgCAD.obj
 0003:00004070       ??_C@_0N@DNGOLBEH@INNER_13?4gbr?$AA@ 006f4070     DlgCAD.obj
 0003:00004080       ??_C@_0M@COAPDKBI@?$CFs?4INNER_12?$AA@ 006f4080     DlgCAD.obj
 0003:00004090       ??_C@_0N@PGDCGCOC@INNER_12?4gbr?$AA@ 006f4090     DlgCAD.obj
 0003:000040a0       ??_C@_0M@FCCGJNL@?$CFs?4INNER_11?$AA@ 006f40a0     DlgCAD.obj
 0003:000040b0       ??_C@_0N@HAKGBAEM@INNER_11?4gbr?$AA@ 006f40b0     DlgCAD.obj
 0003:000040c0       ??_C@_0M@BMDJFIJK@?$CFs?4INNER_10?$AA@ 006f40c0     DlgCAD.obj
 0003:000040d0       ??_C@_0N@LLPKMDOJ@INNER_10?4gbr?$AA@ 006f40d0     DlgCAD.obj
 0003:000040e0       ??_C@_0L@LLDJECPF@?$CFs?4INNER_9?$AA@ 006f40e0     DlgCAD.obj
 0003:000040f0       ??_C@_0M@NGBJJGCG@INNER_9?4gbr?$AA@ 006f40f0     DlgCAD.obj
 0003:00004100       ??_C@_0L@KCCCHDLE@?$CFs?4INNER_8?$AA@ 006f4100     DlgCAD.obj
 0003:00004110       ??_C@_0M@BNEFEFID@INNER_8?4gbr?$AA@ 006f4110     DlgCAD.obj
 0003:00004120       ??_C@_0L@CFLKGPHL@?$CFs?4INNER_7?$AA@ 006f4120     DlgCAD.obj
 0003:00004130       ??_C@_0M@OMBDPHFG@INNER_7?4gbr?$AA@ 006f4130     DlgCAD.obj
 0003:00004140       ??_C@_0L@DMKBFODK@?$CFs?4INNER_6?$AA@ 006f4140     DlgCAD.obj
 0003:00004150       ??_C@_0M@CHEPCEPD@INNER_6?4gbr?$AA@ 006f4150     DlgCAD.obj
 0003:00004160       ??_C@_0L@BHIMANPJ@?$CFs?4INNER_5?$AA@ 006f4160     DlgCAD.obj
 0003:00004170       ??_C@_0M@KBNLFGFN@INNER_5?4gbr?$AA@ 006f4170     DlgCAD.obj
 0003:00004180       ??_C@_0L@OJHDMLI@?$CFs?4INNER_4?$AA@ 006f4180     DlgCAD.obj
 0003:00004190       ??_C@_0M@GKIHIFPI@INNER_4?4gbr?$AA@ 006f4190     DlgCAD.obj
 0003:000041a0       ??_C@_0L@EBNGKKHP@?$CFs?4INNER_3?$AA@ 006f41a0     DlgCAD.obj
 0003:000041b0       ??_C@_0M@HHICLFEA@INNER_3?4gbr?$AA@ 006f41b0     DlgCAD.obj
 0003:000041c0       ??_C@_0L@FIMNJLDO@?$CFs?4INNER_2?$AA@ 006f41c0     DlgCAD.obj
 0003:000041d0       ??_C@_0M@LMNOGGOF@INNER_2?4gbr?$AA@ 006f41d0     DlgCAD.obj
 0003:000041e0       ??_C@_0L@HDOAMIPN@?$CFs?4INNER_1?$AA@ 006f41e0     DlgCAD.obj
 0003:000041f0       ??_C@_0M@DKEKBEEL@INNER_1?4gbr?$AA@ 006f41f0     DlgCAD.obj
 0003:00004200       ??_C@_06JIFNBKKL@?$CFs?4BOT?$AA@ 006f4200     DlgCAD.obj
 0003:00004208       ??_C@_0BC@NJNHDHNJ@BOTTOM_COPPER?4gbr?$AA@ 006f4208     DlgCAD.obj
 0003:00004220       ??_C@_06IJEDNHOM@?$CFs?4TOP?$AA@ 006f4220     DlgCAD.obj
 0003:00004228       ??_C@_0P@KCMBPEPG@TOP_COPPER?4gbr?$AA@ 006f4228     DlgCAD.obj
 0003:0000423c       ??_C@_06GPOEELOI@?$CFs?4SMB?$AA@ 006f423c     DlgCAD.obj
 0003:00004244       ??_C@_0BA@PHFLBCFN@BOTTOM_MASK?4gbr?$AA@ 006f4244     DlgCAD.obj
 0003:00004258       ??_C@_06HDHMPODP@?$CFs?4SMT?$AA@ 006f4258     DlgCAD.obj
 0003:00004260       ??_C@_0N@HIPMLJLJ@TOP_MASK?4gbr?$AA@ 006f4260     DlgCAD.obj
 0003:00004270       ??_C@_06HJFMMFJC@?$CFs?4SSB?$AA@ 006f4270     DlgCAD.obj
 0003:00004278       ??_C@_0BA@NBCKHMCM@BOTTOM_SILK?4gbr?$AA@ 006f4278     DlgCAD.obj
 0003:0000428c       ??_C@_06GFMEHAEF@?$CFs?4SST?$AA@ 006f428c     DlgCAD.obj
 0003:00004294       ??_C@_0N@FOINNHMI@TOP_SILK?4gbr?$AA@ 006f4294     DlgCAD.obj
 0003:000042a4       ??_C@_0BF@HIGIJKHM@Writing?5file?3?5?$CC?$CFs?$CC?$AN?6?$AA@ 006f42a4     DlgCAD.obj
 0003:000042c0       ??_C@_0CC@JLJFFLOC@ERROR?3?5Unable?5to?5open?5file?5?$CC?$CFs?$CC?$AN@ 006f42c0     DlgCAD.obj
 0003:000042e8       ??_C@_0M@KACBGDNJ@?$CFs?2?$CFs?4DRILL?$AA@ 006f42e8     DlgCAD.obj
 0003:000042f8       ??_C@_0N@EFHPEIHP@?$CFs?2HOLES?4drl?$AA@ 006f42f8     DlgCAD.obj
 0003:00004308       ??_C@_04GNFFGBEG@?4drl?$AA@ 006f4308     DlgCAD.obj
 0003:00004310       ??_C@_04EEOGCCFB@?4png?$AA@ 006f4310     DlgCAD.obj
 0003:00004318       ??_C@_04LHIHFCAH@?4gbr?$AA@ 006f4318     DlgCAD.obj
 0003:00004320       ??_C@_02KHDDNBB@?2?$CK?$AA@ 006f4320     DlgCAD.obj
 0003:00004324       ??_C@_0DF@HIFCGAFL@?6Are?5you?5SURE?5that?5you?5don?8t?5nee@ 006f4324     DlgCAD.obj
 0003:00004368       ??_C@_0FJ@BICPJOHA@?6This?5will?5disable?5automatic?5gen@ 006f4368     DlgCAD.obj
 0003:000043d8       ??_C@_0EA@GFJHCJEJ@WARNING?3?5You?5have?5set?5the?5copper@ 006f43d8     DlgCAD.obj
 0003:00004424       ??_C@_0BN@PFFOHNOK@Unable?5to?5create?5folder?5?$CC?$CFs?$CC?$AA@ 006f4424     DlgCAD.obj
 0003:00004448       ??_C@_0CH@IOFJJIGB@Folder?5?$CC?$CFs?$CC?5doesn?8t?5exist?0?5creat@ 006f4448     DlgCAD.obj
 0003:00004478       ??_C@_01KICIPPFI@?2?$AA@   006f4478     DlgCAD.obj
 0003:0000447c       ??_C@_0L@GIKPDBCF@?$CFs?2CAM?$CI?$CFs?$CJ?$AA@ 006f447c     DlgCAD.obj
 0003:0000448c       ??_C@_01ODHLEDKK@?$CI?$AA@ 006f448c     DlgCAD.obj
 0003:00004490       ??_C@_0BA@MEGKEBLG@?$CFs?2?$CFs?$CI?$CFd?9?$CFd?9?$CFd?$CJ?$AA@ 006f4490     DlgCAD.obj
 0003:000044a4       ??_C@_0N@LHLKAIHL@?$CFs?2View2?$CI?$CFs?$CJ?$AA@ 006f44a4     DlgCAD.obj
 0003:000044b4       ??_C@_0N@DBCOHKNF@?$CFs?2View1?$CI?$CFs?$CJ?$AA@ 006f44b4     DlgCAD.obj
 0003:000044c4       ??_C@_0N@OINJIBLD@?$CFs?2Print?$CI?$CFs?$CJ?$AA@ 006f44c4     DlgCAD.obj
 0003:000044d4       ??_C@_0O@GBCKEAFH@Select?5Folder?$AA@ 006f44d4     DlgCAD.obj
 0003:000044e4       ??_C@_0BG@CLFOKELM@Set?5CAM?5output?5folder?$AA@ 006f44e4     DlgCAD.obj
 0003:00004500       ??_C@_0N@DILCDAOF@CDlgCentroid?$AA@ 006f4500     DlgCentroid.obj
 0003:00004510       ?classCDlgCentroid@CDlgCentroid@@2UCRuntimeClass@@B 006f4510     DlgCentroid.obj
 0003:000045bc       ??_7CDlgCentroid@@6B@      006f45bc     DlgCentroid.obj
 0003:0000479c       ??_C@_03HKPLNFCP@270?$AA@  006f479c     DlgCentroid.obj
 0003:000047a0       ??_C@_03GDBCDNPM@180?$AA@  006f47a0     DlgCentroid.obj
 0003:000047a4       ??_C@_02PEECMOAB@90?$AA@   006f47a4     DlgCentroid.obj
 0003:000047a8       ??_C@_0BA@BMPJKOBI@CDlgChangeLayer?$AA@ 006f47a8     DlgChangeLayer.obj
 0003:000047bc       ?classCDlgChangeLayer@CDlgChangeLayer@@2UCRuntimeClass@@B 006f47bc     DlgChangeLayer.obj
 0003:0000480c       ??_7CDlgChangeLayer@@6B@   006f480c     DlgChangeLayer.obj
 0003:000049ec       ??_C@_0BC@BDEDDGEG@CDlgChooseNetName?$AA@ 006f49ec     DlgChooseNetName.obj
 0003:00004a04       ?classCDlgChooseNetName@CDlgChooseNetName@@2UCRuntimeClass@@B 006f4a04     DlgChooseNetName.obj
 0003:00004a54       ??_7CDlgChooseNetName@@6B@ 006f4a54     DlgChooseNetName.obj
 0003:00004c34       ??_C@_06CGOJDMOF@DlgDRC?$AA@ 006f4c34     DlgDRC.obj
 0003:00004c3c       ?classDlgDRC@DlgDRC@@2UCRuntimeClass@@B 006f4c3c     DlgDRC.obj
 0003:00004d04       ??_7DlgDRC@@6B@            006f4d04     DlgDRC.obj
 0003:00004ee8       ??_C@_0ED@LMOAAOIB@Warning?3?5Your?5design?5rule?5for?5mi@ 006f4ee8     DlgDRC.obj
 0003:00004f38       ??_C@_0DP@JGBDNMCH@Do?5you?5want?5to?5set?5the?5CAM?5param@ 006f4f38     DlgDRC.obj
 0003:00004f84       ??_C@_0CI@GFIOPDAN@This?5will?5probably?5create?5DRC?5er@ 006f4f84     DlgDRC.obj
 0003:00004fb4       ??_C@_0DL@MEFJONKN@exceeds?5the?5default?5annular?5ring@ 006f4fb4     DlgDRC.obj
 0003:00005000       ??_C@_0ED@DCNKPNMK@Warning?3?5Your?5design?5rule?5for?5mi@ 006f5000     DlgDRC.obj
 0003:00005050       ??_C@_0BF@FOAHHNBB@CDlgDupFootprintName?$AA@ 006f5050     DlgDupFootprintName.obj
 0003:0000506c       ?classCDlgDupFootprintName@CDlgDupFootprintName@@2UCRuntimeClass@@B 006f506c     DlgDupFootprintName.obj
 0003:00005114       ??_7CDlgDupFootprintName@@6B@ 006f5114     DlgDupFootprintName.obj
 0003:000052f4       ??_C@_0CF@MCAODJCD@New?5footprint?5name?5is?5already?5in@ 006f52f4     DlgDupFootprintName.obj
 0003:00005320       ??_C@_0CE@KOLKAIDB@You?5must?5enter?5a?5new?5footprint?5n@ 006f5320     DlgDupFootprintName.obj
 0003:0000534c       ??_C@_0BD@MBGLLCNE@DlgEditBoardCorner?$AA@ 006f534c     DlgEditBoardCorner.obj
 0003:00005364       ?classDlgEditBoardCorner@DlgEditBoardCorner@@2UCRuntimeClass@@B 006f5364     DlgEditBoardCorner.obj
 0003:000053d4       ??_7DlgEditBoardCorner@@6B@ 006f53d4     DlgEditBoardCorner.obj
 0003:000055b4       ??_C@_0M@BFDGBILL@CDlgEditNet?$AA@ 006f55b4     DlgEditNet.obj
 0003:000055c4       ?classCDlgEditNet@CDlgEditNet@@2UCRuntimeClass@@B 006f55c4     DlgEditNet.obj
 0003:000056fc       ??_7CDlgEditNet@@6B@       006f56fc     DlgEditNet.obj
 0003:000058dc       ??_C@_1DE@HGPCGOII@?$AAc?$AA?3?$AA?2?$AAf?$AAr?$AAe?$AAe?$AAs?$AAc?$AAh?$AA?2?$AAd?$AAl?$AAg?$AAe?$AAd?$AAi?$AAt?$AAn?$AAe?$AAt?$AA?4?$AAc?$AAp?$AAp?$AA?$AA@ 006f58dc     DlgEditNet.obj
 0003:0000591c       ??_C@_0BD@MAGNCHGF@duplicate?5net?5name?$AA@ 006f591c     DlgEditNet.obj
 0003:00005934       ??_C@_0BD@GFPNNHFP@illegal?5hole?5width?$AA@ 006f5934     DlgEditNet.obj
 0003:0000594c       ??_C@_0BC@PEMMALA@illegal?5via?5width?$AA@ 006f594c     DlgEditNet.obj
 0003:00005964       ??_C@_0BE@LPGHDKPH@illegal?5trace?5width?$AA@ 006f5964     DlgEditNet.obj
 0003:0000597c       ??_C@_01JOAMLHOP@?9?$AA@   006f597c     DlgEditNet.obj
 0003:00005980       ??_C@_0CI@JAOAHOKP@Max?5length?5of?5net?5name?5is?5?$CFd?5cha@ 006f5980     DlgEditNet.obj
 0003:000059b0       ??_C@_0DI@PHIFLKCB@Pin?5?$CFs?4?$CFs?5is?5assigned?5to?5net?5?$CC?$CFs@ 006f59b0     DlgEditNet.obj
 0003:000059f4       ??_C@_0CF@LCCFABB@Pin?5?$CC?$CFs?$CC?5not?5found?5in?5footprint?5@ 006f59f4     DlgEditNet.obj
 0003:00005a20       ??_C@_0CE@LBNPKAEK@Part?5?$CC?$CFs?$CC?5does?5not?5have?5a?5footpr@ 006f5a20     DlgEditNet.obj
 0003:00005a4c       ??_C@_0BI@CHMNKPPH@while?51A?0?5A2B3?5are?5not?6?$AA@ 006f5a4c     DlgEditNet.obj
 0003:00005a68       ??_C@_0BJ@NEEOPJMI@Part?5?$CC?$CFs?$CC?5does?5not?5exist?$AA@ 006f5a68     DlgEditNet.obj
 0003:00005a88       ??_C@_0BI@HPJAHHIK@Pin?5already?5in?5this?5net?$AA@ 006f5a88     DlgEditNet.obj
 0003:00005aa4       ??_C@_0M@DAFOIINH@Illegal?5pin?$AA@ 006f5aa4     DlgEditNet.obj
 0003:00005ab8       ??_7?$CArray@HH@@6B@       006f5ab8     DlgEditNet.obj
 0003:00005ad0       ??_C@_0O@CLFOLICH@CDlgExportDsn?$AA@ 006f5ad0     DlgExportDsn.obj
 0003:00005ae0       ?classCDlgExportDsn@CDlgExportDsn@@2UCRuntimeClass@@B 006f5ae0     DlgExportDsn.obj
 0003:00005bc4       ??_7CDlgExportDsn@@6B@     006f5bc4     DlgExportDsn.obj
 0003:00005da4       ??_C@_0N@CHDDDHOJ@CDlgFindPart?$AA@ 006f5da4     DlgFindPart.obj
 0003:00005db4       ?classCDlgFindPart@CDlgFindPart@@2UCRuntimeClass@@B 006f5db4     DlgFindPart.obj
 0003:00005e04       ??_7CDlgFindPart@@6B@      006f5e04     DlgFindPart.obj
 0003:00005fe4       ??_C@_0O@JJOCCJLB@CDlgFpRefText?$AA@ 006f5fe4     DlgFpRefText.obj
 0003:00005ff4       ?classCDlgFpRefText@CDlgFpRefText@@2UCRuntimeClass@@B 006f5ff4     DlgFpRefText.obj
 0003:000060bc       ??_7CDlgFpRefText@@6B@     006f60bc     DlgFpRefText.obj
 0003:0000629c       ??_C@_0L@NANJOLJH@CDlgFpText?$AA@ 006f629c     DlgFpText.obj
 0003:000062ac       ?classCDlgFpText@CDlgFpText@@2UCRuntimeClass@@B 006f62ac     DlgFpText.obj
 0003:000063c4       ??_7CDlgFpText@@6B@        006f63c4     DlgFpText.obj
 0003:000065a4       ??_C@_08NLEKPIEM@CDlgGlue?$AA@ 006f65a4     DlgGlue.obj
 0003:000065b0       ?classCDlgGlue@CDlgGlue@@2UCRuntimeClass@@B 006f65b0     DlgGlue.obj
 0003:000066b4       ??_7CDlgGlue@@6B@          006f66b4     DlgGlue.obj
 0003:00006894       ??_C@_0P@HPNFCNKB@CDlgGroupPaste?$AA@ 006f6894     DlgGroupPaste.obj
 0003:000068a8       ?classCDlgGroupPaste@CDlgGroupPaste@@2UCRuntimeClass@@B 006f68a8     DlgGroupPaste.obj
 0003:00006a74       ??_7CDlgGroupPaste@@6B@    006f6a74     DlgGroupPaste.obj
 0003:00006c54       ??_C@_1DK@NMAIHOMI@?$AAc?$AA?3?$AA?2?$AAf?$AAr?$AAe?$AAe?$AAs?$AAc?$AAh?$AA?2?$AAd?$AAl?$AAg?$AAg?$AAr?$AAo?$AAu?$AAp?$AAp?$AAa?$AAs?$AAt?$AAe?$AA?4?$AAc?$AAp?$AAp?$AA?$AA@ 006f6c54     DlgGroupPaste.obj
 0003:00006c9c       ??_C@_04GLFMFBJJ@Hole?$AA@ 006f6c9c     DlgGroupPaste.obj
 0003:00006ca4       ??_C@_05EOOFLNJP@Via?5W?$AA@ 006f6ca4     DlgGroupPaste.obj
 0003:00006cac       ??_C@_05IBAMDCFI@Width?$AA@ 006f6cac     DlgGroupPaste.obj
 0003:00006cb4       ??_C@_04BLLLDLP@Pins?$AA@  006f6cb4     DlgGroupPaste.obj
 0003:00006cbc       ??_C@_04FABLJDN@Name?$AA@  006f6cbc     DlgGroupPaste.obj
 0003:00006cc4       ??_C@_03IAFHKNMP@Sel?$AA@  006f6cc4     DlgGroupPaste.obj
 0003:00006ccc       ??_7?$CArray@Unet_info@@ABU1@@@6B@ 006f6ccc     DlgGroupPaste.obj
 0003:00006ce4       ??_C@_08FIFIFIIM@CDlgHole?$AA@ 006f6ce4     DlgHole.obj
 0003:00006cf0       ?classCDlgHole@CDlgHole@@2UCRuntimeClass@@B 006f6cf0     DlgHole.obj
 0003:00006dd4       ??_7CDlgHole@@6B@          006f6dd4     DlgHole.obj
 0003:00006fb4       ??_C@_0BE@KIJLJMAG@CDlgImportFootprint?$AA@ 006f6fb4     DlgImportFootprint.obj
 0003:00006fcc       ?classCDlgImportFootprint@CDlgImportFootprint@@2UCRuntimeClass@@B 006f6fcc     DlgImportFootprint.obj
 0003:00007094       ??_7CDlgImportFootprint@@6B@ 006f7094     DlgImportFootprint.obj
 0003:00007278       ??_C@_1EE@JGKNCDB@?$AAc?$AA?3?$AA?2?$AAf?$AAr?$AAe?$AAe?$AAs?$AAc?$AAh?$AA?2?$AAd?$AAl?$AAg?$AAi?$AAm?$AAp?$AAo?$AAr?$AAt?$AAf?$AAo?$AAo?$AAt?$AAp?$AAr?$AAi?$AAn?$AAt?$AA?4?$AAc?$AAp@ 006f7278     DlgImportFootprint.obj
 0003:000072cc       ??_C@_0BC@ICACCMBB@CDlgImportOptions?$AA@ 006f72cc     DlgImportOptions.obj
 0003:000072e4       ?classCDlgImportOptions@CDlgImportOptions@@2UCRuntimeClass@@B 006f72e4     DlgImportOptions.obj
 0003:0000736c       ??_7CDlgImportOptions@@6B@ 006f736c     DlgImportOptions.obj
 0003:0000754c       ??_C@_0O@PNDMIDGP@CDlgImportSes?$AA@ 006f754c     DlgImportSes.obj
 0003:0000755c       ?classCDlgImportSes@CDlgImportSes@@2UCRuntimeClass@@B 006f755c     DlgImportSes.obj
 0003:000075e4       ??_7CDlgImportSes@@6B@     006f75e4     DlgImportSes.obj
 0003:000077c4       ??_C@_04HEKILFAL@?4ses?$AA@ 006f77c4     DlgImportSes.obj
 0003:000077cc       ??_C@_0M@OODPBGFC@_routed?4fpc?$AA@ 006f77cc     DlgImportSes.obj
 0003:000077dc       ??_C@_03ONDPAMGP@ses?$AA@  006f77dc     DlgImportSes.obj
 0003:000077e0       ??_C@_0N@NNLFCKGG@CDlgIndexing?$AA@ 006f77e0     DlgIndexing.obj
 0003:000077f0       ?classCDlgIndexing@CDlgIndexing@@2UCRuntimeClass@@B 006f77f0     DlgIndexing.obj
 0003:00007844       ??_7CDlgIndexing@@6B@      006f7844     DlgIndexing.obj
 0003:00007b3c       ??_7CivexDlg@@6B@          006f7b3c     DlgIvex.obj
 0003:00007d1c       ??_C@_04MENIHNKD@?4fpl?$AA@ 006f7d1c     DlgIvex.obj
 0003:00007d24       ??_C@_04MMHKJEOH@?4mod?$AA@ 006f7d24     DlgIvex.obj
 0003:00007d2c       ??_C@_03FFONCNID@mod?$AA@  006f7d2c     DlgIvex.obj
 0003:00007d30       ??_C@_06DMAFEADM@done?$AN?6?$AA@ 006f7d30     DlgIvex.obj
 0003:00007d38       ??_C@_0BN@PNLAEPJI@Converting?5Ivex?5file?5?$CFs?4?4?4?$AN?6?$AA@ 006f7d38     DlgIvex.obj
 0003:00007d5c       ??_C@_0BH@CJLNCLJP@Unable?5to?5open?5file?5?$CFs?$AA@ 006f7d5c     DlgIvex.obj
 0003:00007d78       ??_C@_0L@MHKEJNED@CDlgLayers?$AA@ 006f7d78     DlgLayers.obj
 0003:00007d88       ?classCDlgLayers@CDlgLayers@@2UCRuntimeClass@@B 006f7d88     DlgLayers.obj
 0003:00008174       ??_7CDlgLayers@@6B@        006f8174     DlgLayers.obj
 0003:0000835c       ??_7CCommonDialog@@6B@     006f835c     DlgLayers.obj
 0003:0000853c       ??_C@_0BD@JAGFHHDI@CDlgLibraryManager?$AA@ 006f853c     DlgLibraryManager.obj
 0003:00008554       ?classCDlgLibraryManager@CDlgLibraryManager@@2UCRuntimeClass@@B 006f8554     DlgLibraryManager.obj
 0003:000085dc       ??_7CDlgLibraryManager@@6B@ 006f85dc     DlgLibraryManager.obj
 0003:000087bc       ??_C@_0M@HCLFNFDD@mm?5and?5mils?$AA@ 006f87bc     DlgLibraryManager.obj
 0003:000087cc       ??_C@_04FLIOBLOG@mils?$AA@ 006f87cc     DlgLibraryManager.obj
 0003:000087d4       ??_C@_0BF@FIPHIFLB@native?5for?5footprint?$AA@ 006f87d4     DlgLibraryManager.obj
 0003:000087f0       ??_C@_0BD@DDKFNMCJ@A4?5?5?$CI210?5x?5297?5mm?$CJ?$AA@ 006f87f0     DlgLibraryManager.obj
 0003:00008808       ??_C@_0BI@FHIOGLOG@letter?5?5?$CI8?45?5x?511?40?5in?$CJ?$AA@ 006f8808     DlgLibraryManager.obj
 0003:00008824       ??_C@_0BK@BJGLNCCL@?$CK?$CK?$CK?5all?5library?5files?5?$CK?$CK?$CK?$AA@ 006f8824     DlgLibraryManager.obj
 0003:00008844       ??_C@_0CG@JOIECCFI@?$CK?$CK?$CK?5Error?3?5unable?5to?5write?5file?5@ 006f8844     DlgLibraryManager.obj
 0003:00008878       ??_C@_0EP@JPIDLDEJ@Error?3?5Unable?5to?5write?5file?6It?5m@ 006f8878     DlgLibraryManager.obj
 0003:000088d8       __real@43340000            006f88d8     DlgLibraryManager.obj
 0003:000088dc       __real@43e10000            006f88dc     DlgLibraryManager.obj
 0003:000088e0       __real@42b40000            006f88e0     DlgLibraryManager.obj
 0003:000088e4       __real@43870000            006f88e4     DlgLibraryManager.obj
 0003:000088e8       __real@4066800000000000    006f88e8     DlgLibraryManager.obj
 0003:000088f8       __real@400921fb54442eea    006f88f8     DlgLibraryManager.obj
 0003:00008904       __real@43b40000            006f8904     DlgLibraryManager.obj
 0003:00008908       __real@3e99999a            006f8908     DlgLibraryManager.obj
 0003:0000890c       ??_C@_0L@MFJBOPAE@Scale?51?364?$AA@ 006f890c     DlgLibraryManager.obj
 0003:0000891c       ??_C@_0L@JFAAIKGJ@Scale?51?332?$AA@ 006f891c     DlgLibraryManager.obj
 0003:0000892c       ??_C@_0L@PCOIJLAD@Scale?51?316?$AA@ 006f892c     DlgLibraryManager.obj
 0003:0000893c       ??_C@_09JEODGDID@Scale?51?38?$AA@ 006f893c     DlgLibraryManager.obj
 0003:00008948       ??_C@_09DIFGCMIP@Scale?51?34?$AA@ 006f8948     DlgLibraryManager.obj
 0003:00008954       ??_C@_09GOAMILAJ@Scale?51?32?$AA@ 006f8954     DlgLibraryManager.obj
 0003:00008960       ??_C@_09EFCBNIMK@Scale?51?31?$AA@ 006f8960     DlgLibraryManager.obj
 0003:0000896c       ??_C@_09FHJEHHCE@Scale?52?31?$AA@ 006f896c     DlgLibraryManager.obj
 0003:00008978       ??_C@_09HCPPCIPI@Scale?54?31?$AA@ 006f8978     DlgLibraryManager.obj
 0003:00008984       ??_C@_09DICJJHEA@Scale?58?31?$AA@ 006f8984     DlgLibraryManager.obj
 0003:00008990       __real@3f847ae147ae147b    006f8990     DlgLibraryManager.obj
 0003:0000899c       __real@3c800000            006f899c     DlgLibraryManager.obj
 0003:000089a0       __real@3f90000000000000    006f89a0     DlgLibraryManager.obj
 0003:000089ac       __real@3d000000            006f89ac     DlgLibraryManager.obj
 0003:000089b0       __real@3fa0000000000000    006f89b0     DlgLibraryManager.obj
 0003:000089bc       __real@3d800000            006f89bc     DlgLibraryManager.obj
 0003:000089c0       __real@3fb0000000000000    006f89c0     DlgLibraryManager.obj
 0003:000089cc       __real@3e000000            006f89cc     DlgLibraryManager.obj
 0003:000089d0       __real@3fc0000000000000    006f89d0     DlgLibraryManager.obj
 0003:000089dc       __real@3e800000            006f89dc     DlgLibraryManager.obj
 0003:000089e0       __real@3fd0000000000000    006f89e0     DlgLibraryManager.obj
 0003:000089ec       __real@3f000000            006f89ec     DlgLibraryManager.obj
 0003:000089f0       __real@3ff0000000000000    006f89f0     DlgLibraryManager.obj
 0003:000089fc       __real@40000000            006f89fc     DlgLibraryManager.obj
 0003:00008a00       __real@40800000            006f8a00     DlgLibraryManager.obj
 0003:00008a04       __real@41000000            006f8a04     DlgLibraryManager.obj
 0003:00008a08       __real@4020000000000000    006f8a08     DlgLibraryManager.obj
 0003:00008a14       __real@4bc1c960            006f8a14     DlgLibraryManager.obj
 0003:00008a18       ??_C@_03JMFMNIFM@?9?9?9?$AA@ 006f8a18     DlgLibraryManager.obj
 0003:00008a1c       ??_C@_07PKNLLCAL@Octagon?$AA@ 006f8a1c     DlgLibraryManager.obj
 0003:00008a28       ??_C@_04CNHHLNIG@Oval?$AA@ 006f8a28     DlgLibraryManager.obj
 0003:00008a30       ??_C@_07IKNLPMMI@RndRect?$AA@ 006f8a30     DlgLibraryManager.obj
 0003:00008a3c       ??_C@_04HGDEFKPD@Rect?$AA@ 006f8a3c     DlgLibraryManager.obj
 0003:00008a44       ??_C@_06ENIHNBMK@Square?$AA@ 006f8a44     DlgLibraryManager.obj
 0003:00008a4c       ??_C@_05LCAAPBL@Round?$AA@ 006f8a4c     DlgLibraryManager.obj
 0003:00008a54       ??_C@_02FDKLGFIM@TH?$AA@   006f8a54     DlgLibraryManager.obj
 0003:00008a58       ??_C@_03KBJGAGGM@SMT?$AA@  006f8a58     DlgLibraryManager.obj
 0003:00008a5c       ??_C@_05BIKBEGBP@?$CFd?9?$CFd?$AA@ 006f8a5c     DlgLibraryManager.obj
 0003:00008a64       ??_C@_04GGKHJMOF@HOLE?$AA@ 006f8a64     DlgLibraryManager.obj
 0003:00008a6c       ??_C@_04EMFHLKGI@SIZE?$AA@ 006f8a6c     DlgLibraryManager.obj
 0003:00008a74       ??_C@_05GOLOJNCF@SHAPE?$AA@ 006f8a74     DlgLibraryManager.obj
 0003:00008a7c       ??_C@_04KDPJLEDB@TYPE?$AA@ 006f8a7c     DlgLibraryManager.obj
 0003:00008a84       ??_C@_03PAPLECLH@PAD?$AA@  006f8a84     DlgLibraryManager.obj
 0003:00008a88       ??_C@_06PJKFLKIJ@PIN?$CIs?$CJ?$AA@ 006f8a88     DlgLibraryManager.obj
 0003:00008a90       __real@3f800000            006f8a90     DlgLibraryManager.obj
 0003:00008a94       ??_C@_0BG@CJMGCMCL@?5?5?5?5?5?5?5?5Pin?5spacing?3?5?$AA@ 006f8a94     DlgLibraryManager.obj
 0003:00008ab0       ??_C@_01LBDDMOBJ@?$FN?$AA@ 006f8ab0     DlgLibraryManager.obj
 0003:00008ab4       ??_C@_03LBOPJCJH@?5x?5?$AA@ 006f8ab4     DlgLibraryManager.obj
 0003:00008ab8       ??_C@_02GBLMOEJC@?5?$FL?$AA@ 006f8ab8     DlgLibraryManager.obj
 0003:00008abc       ??_C@_06FMLHDGIC@Size?3?5?$AA@ 006f8abc     DlgLibraryManager.obj
 0003:00008ac4       ??_C@_0BD@EFGBEFHB@Size?5?$CI?5mm?$FLmil?$FN?5?$CJ?3?5?$AA@ 006f8ac4     DlgLibraryManager.obj
 0003:00008adc       ??_C@_0L@CDFCKLOG@Times?9Bold?$AA@ 006f8adc     DlgLibraryManager.obj
 0003:00008aec       __real@00000000            006f8aec     DlgLibraryManager.obj
 0003:00008af0       ??_C@_07MAEKLEBO@page?5?$CFd?$AA@ 006f8af0     DlgLibraryManager.obj
 0003:00008afc       ??_C@_0O@BKHMEJIK@Description?3?5?$AA@ 006f8afc     DlgLibraryManager.obj
 0003:00008b0c       ??_C@_09GBJGAPBG@Package?3?5?$AA@ 006f8b0c     DlgLibraryManager.obj
 0003:00008b18       ??_C@_0M@PJFPENK@Times?9Roman?$AA@ 006f8b18     DlgLibraryManager.obj
 0003:00008b28       ??_C@_08KOADNGIB@Author?3?5?$AA@ 006f8b28     DlgLibraryManager.obj
 0003:00008b34       ??_C@_0N@BGMEIPGP@Times?9Italic?$AA@ 006f8b34     DlgLibraryManager.obj
 0003:00008b44       ??_C@_0BB@OKBMIGNG@MacRomanEncoding?$AA@ 006f8b44     DlgLibraryManager.obj
 0003:00008b58       ??_C@_0M@GCLAENCJ@0?50?5595?5842?$AA@ 006f8b58     DlgLibraryManager.obj
 0003:00008b68       ??_C@_0M@JCGOLHBA@0?50?5612?5792?$AA@ 006f8b68     DlgLibraryManager.obj
 0003:00008b78       ??_C@_0BG@HALLNCFO@Creating?5file?3?5?$CC?$CFs?$CC?$AN?6?$AA@ 006f8b78     DlgLibraryManager.obj
 0003:00008b94       ??_C@_04FAGKJGMG@?4pdf?$AA@ 006f8b94     DlgLibraryManager.obj
 0003:00008ba0       __real@3fc999999999999a    006f8ba0     DlgLibraryManager.obj
 0003:00008bb0       __real@3ff6666666666666    006f8bb0     DlgLibraryManager.obj
 0003:00008bc0       __real@3fe6666666666666    006f8bc0     DlgLibraryManager.obj
 0003:00008bd0       __real@3fa999999999999a    006f8bd0     DlgLibraryManager.obj
 0003:00008be0       __real@402c000000000000    006f8be0     DlgLibraryManager.obj
 0003:00008bf0       __real@402a000000000000    006f8bf0     DlgLibraryManager.obj
 0003:00008c00       __real@4052000000000000    006f8c00     DlgLibraryManager.obj
 0003:00008c10       __real@3fb999999999999a    006f8c10     DlgLibraryManager.obj
 0003:00008c20       __real@4028000000000000    006f8c20     DlgLibraryManager.obj
 0003:00008c30       __real@3fe8000000000000    006f8c30     DlgLibraryManager.obj
 0003:00008c40       __real@3fd1ac5111534a5d    006f8c40     DlgLibraryManager.obj
 0003:00008c50       ??_C@_1EC@MPHIDEJP@?$AAc?$AA?3?$AA?2?$AAf?$AAr?$AAe?$AAe?$AAs?$AAc?$AAh?$AA?2?$AAd?$AAl?$AAg?$AAl?$AAi?$AAb?$AAr?$AAa?$AAr?$AAy?$AAm?$AAa?$AAn?$AAa?$AAg?$AAe?$AAr?$AA?4?$AAc?$AAp?$AAp@ 006f8c50     DlgLibraryManager.obj
 0003:00008ca0       __real@402762c58b162c59    006f8ca0     DlgLibraryManager.obj
 0003:00008cb0       __real@4020891224489123    006f8cb0     DlgLibraryManager.obj
 0003:00008cc0       __real@4027000000000000    006f8cc0     DlgLibraryManager.obj
 0003:00008cd0       __real@4021000000000000    006f8cd0     DlgLibraryManager.obj
 0003:00008ce0       ??_7?$CArray@HABH@@6B@     006f8ce0     DlgLibraryManager.obj
 0003:00008cf8       ??_C@_07GBFKEGHG@CDlgLog?$AA@ 006f8cf8     DlgLog.obj
 0003:00008d04       ?classCDlgLog@CDlgLog@@2UCRuntimeClass@@B 006f8d04     DlgLog.obj
 0003:00008dac       ??_7CDlgLog@@6B@           006f8dac     DlgLog.obj
 0003:00008f8c       ??_C@_0P@DPLMKJBL@CDlgMoveOrigin?$AA@ 006f8f8c     DlgMoveOrigin.obj
 0003:00008fa0       ?classCDlgMoveOrigin@CDlgMoveOrigin@@2UCRuntimeClass@@B 006f8fa0     DlgMoveOrigin.obj
 0003:0000904c       ??_7CDlgMoveOrigin@@6B@    006f904c     DlgMoveOrigin.obj
 0003:0000922c       ??_C@_0BB@FCGLJEHF@CDlgMyMessageBox?$AA@ 006f922c     DlgMyMessageBox.obj
 0003:00009240       ?classCDlgMyMessageBox@CDlgMyMessageBox@@2UCRuntimeClass@@B 006f9240     DlgMyMessageBox.obj
 0003:000092ac       ??_7CDlgMyMessageBox@@6B@  006f92ac     DlgMyMessageBox.obj
 0003:0000948c       ??_C@_0BC@MNENLKFG@CDlgMyMessageBox2?$AA@ 006f948c     DlgMyMessageBox2.obj
 0003:000094a4       ?classCDlgMyMessageBox2@CDlgMyMessageBox2@@2UCRuntimeClass@@B 006f94a4     DlgMyMessageBox2.obj
 0003:00009514       ??_7CDlgMyMessageBox2@@6B@ 006f9514     DlgMyMessageBox2.obj
 0003:000096f4       ??_C@_0P@OMBKBMDK@CDlgNetCombine?$AA@ 006f96f4     DlgNetCombine.obj
 0003:00009708       ?classCDlgNetCombine@CDlgNetCombine@@2UCRuntimeClass@@B 006f9708     DlgNetCombine.obj
 0003:000097b4       ??_7CDlgNetCombine@@6B@    006f97b4     DlgNetCombine.obj
 0003:00009994       ??_C@_0BB@HOBPANMH@No?5nets?5selected?$AA@ 006f9994     DlgNetCombine.obj
 0003:000099a8       ??_C@_0M@CELNIKBK@CDlgNetlist?$AA@ 006f99a8     DlgNetlist.obj
 0003:000099b8       ?classCDlgNetlist@CDlgNetlist@@2UCRuntimeClass@@B 006f99b8     DlgNetlist.obj
 0003:00009b84       ??_7CDlgNetlist@@6B@       006f9b84     DlgNetlist.obj
 0003:00009d64       ??_C@_07DLHCIBDH@default?$AA@ 006f9d64     DlgNetlist.obj
 0003:00009d70       ??_C@_03HDMJKKAH@Vis?$AA@  006f9d70     DlgNetlist.obj
 0003:00009d74       ??_C@_1DE@OHCFEPON@?$AAc?$AA?3?$AA?2?$AAf?$AAr?$AAe?$AAe?$AAs?$AAc?$AAh?$AA?2?$AAd?$AAl?$AAg?$AAn?$AAe?$AAt?$AAl?$AAi?$AAs?$AAt?$AA?4?$AAc?$AAp?$AAp?$AA?$AA@ 006f9d74     DlgNetlist.obj
 0003:00009db4       ??_C@_0CE@KGBEJEHM@You?5have?5more?5than?5one?5net?5selec@ 006f9db4     DlgNetlist.obj
 0003:00009de0       ??_C@_0BJ@CBFLIOAA@You?5have?5no?5net?5selected?$AA@ 006f9de0     DlgNetlist.obj
 0003:00009e00       ??_C@_0BM@PBKCOJF@You?5have?5no?5net?$CIs?$CJ?5selected?$AA@ 006f9e00     DlgNetlist.obj
 0003:00009e24       ??_C@_0N@CIADPENJ@CDlgPartlist?$AA@ 006f9e24     DlgPartlist.obj
 0003:00009e34       ?classCDlgPartlist@CDlgPartlist@@2UCRuntimeClass@@B 006f9e34     DlgPartlist.obj
 0003:00009f4c       ??_7CDlgPartlist@@6B@      006f9f4c     DlgPartlist.obj
 0003:0000a12c       ??_C@_05LPIJGKJ@Value?$AA@ 006fa12c     DlgPartlist.obj
 0003:0000a134       ??_C@_09NKODLEAL@Footprint?$AA@ 006fa134     DlgPartlist.obj
 0003:0000a140       ??_C@_07FEDAHNII@Package?$AA@ 006fa140     DlgPartlist.obj
 0003:0000a14c       ??_C@_09OGLAPBDF@Reference?$AA@ 006fa14c     DlgPartlist.obj
 0003:0000a158       ??_C@_09OOPJIFBA@Value?5Vis?$AA@ 006fa158     DlgPartlist.obj
 0003:0000a164       ??_C@_0DJ@ODPBGIBP@To?5edit?5multiple?5parts?0?5please?5s@ 006fa164     DlgPartlist.obj
 0003:0000a1a8       ??_C@_0FE@BNCHDPKD@You?5want?5to?5select?5the?5same?5foot@ 006fa1a8     DlgPartlist.obj
 0003:0000a20c       ??_C@_1DG@BMFMMDAE@?$AAc?$AA?3?$AA?2?$AAf?$AAr?$AAe?$AAe?$AAs?$AAc?$AAh?$AA?2?$AAd?$AAl?$AAg?$AAp?$AAa?$AAr?$AAt?$AAl?$AAi?$AAs?$AAt?$AA?4?$AAc?$AAp?$AAp?$AA?$AA@ 006fa20c     DlgPartlist.obj
 0003:0000a24c       ??_C@_0BK@KBKKFHBL@You?5have?5no?5part?5selected?$AA@ 006fa24c     DlgPartlist.obj
 0003:0000a270       ??_7?$CArray@Upart_info@@ABU1@@@6B@ 006fa270     DlgPartlist.obj
 0003:0000a288       ??_C@_0BD@LNPBMPBJ@CDlgProjectOptions?$AA@ 006fa288     DlgProjectOptions.obj
 0003:0000a2a0       ?classCDlgProjectOptions@CDlgProjectOptions@@2UCRuntimeClass@@B 006fa2a0     DlgProjectOptions.obj
 0003:0000a434       ??_7CDlgProjectOptions@@6B@ 006fa434     DlgProjectOptions.obj
 0003:0000a614       ??_C@_03LOMMJFNL@0mm?$AA@  006fa614     DlgProjectOptions.obj
 0003:0000a618       ??_C@_03BHEEIFFN@def?$AA@  006fa618     DlgProjectOptions.obj
 0003:0000a61c       ??_C@_0BM@HFEHFNEO@Please?5enter?5library?5folder?$AA@ 006fa61c     DlgProjectOptions.obj
 0003:0000a640       ??_C@_0BM@JJJIOJBL@Please?5enter?5project?5folder?$AA@ 006fa640     DlgProjectOptions.obj
 0003:0000a664       ??_C@_0BO@EDGNJEK@Please?5enter?5name?5for?5project?$AA@ 006fa664     DlgProjectOptions.obj
 0003:0000a688       ??_C@_0L@DHDDJIDP@fp_lib?2lib?$AA@ 006fa688     DlgProjectOptions.obj
 0003:0000a698       ??_C@_1EC@MHJOLKEN@?$AAc?$AA?3?$AA?2?$AAf?$AAr?$AAe?$AAe?$AAs?$AAc?$AAh?$AA?2?$AAd?$AAl?$AAg?$AAp?$AAr?$AAo?$AAj?$AAe?$AAc?$AAt?$AAo?$AAp?$AAt?$AAi?$AAo?$AAn?$AAs?$AA?4?$AAc?$AAp?$AAp@ 006fa698     DlgProjectOptions.obj
 0003:0000a6e8       ??_C@_0P@ICBHMAND@Via?5hole?5width?$AA@ 006fa6e8     DlgProjectOptions.obj
 0003:0000a6fc       ??_C@_0O@KDFAJHIF@Via?5pad?5width?$AA@ 006fa6fc     DlgProjectOptions.obj
 0003:0000a70c       ??_C@_0M@NJPJJPIP@Trace?5width?$AA@ 006fa70c     DlgProjectOptions.obj
 0003:0000a720       ??_C@_0GH@ECHMCLAN@Illegal?5values?5?$CIAfter?5the?5number@ 006fa720     DlgProjectOptions.obj
 0003:0000a7a0       __real@3f50624dd2f1a9fc    006fa7a0     DlgProjectOptions.obj
 0003:0000a7b0       __real@40a3d80000000000    006fa7b0     DlgProjectOptions.obj
 0003:0000a7bc       ??_C@_0BF@LPKJCMHB@Illegal?5trace?5width?4?$AA@ 006fa7bc     DlgProjectOptions.obj
 0003:0000a7d8       ??_C@_0BG@KHLKLJCP@no?5menu?5item?5selected?$AA@ 006fa7d8     DlgProjectOptions.obj
 0003:0000a7f4       ??_C@_0P@IAANDAHI@Library?5Folder?$AA@ 006fa7f4     DlgProjectOptions.obj
 0003:0000a808       ??_C@_0BO@GKKHCOCJ@Select?5default?5library?5folder?$AA@ 006fa808     DlgProjectOptions.obj
 0003:0000a82c       ??_C@_0P@GMNCIECN@Project?5Folder?$AA@ 006fa82c     DlgProjectOptions.obj
 0003:0000a840       ??_C@_0BG@EEGBEHGB@Select?5project?5folder?$AA@ 006fa840     DlgProjectOptions.obj
 0003:0000a85c       ??_C@_0BD@KKBGMADI@CDlgReassignLayers?$AA@ 006fa85c     DlgReassignLayers.obj
 0003:0000a874       ?classCDlgReassignLayers@CDlgReassignLayers@@2UCRuntimeClass@@B 006fa874     DlgReassignLayers.obj
 0003:0000a8c4       ??_7CDlgReassignLayers@@6B@ 006fa8c4     DlgReassignLayers.obj
 0003:0000aaa4       ??_C@_06FOBLBEIN@delete?$AA@ 006faaa4     DlgReassignLayers.obj
 0003:0000aaac       ??_C@_0M@JGGFKOPA@CDlgRefText?$AA@ 006faaac     DlgRefText.obj
 0003:0000aabc       ?classCDlgRefText@CDlgRefText@@2UCRuntimeClass@@B 006faabc     DlgRefText.obj
 0003:0000ab84       ??_7CDlgRefText@@6B@       006fab84     DlgRefText.obj
 0003:0000ad64       ??_C@_0L@EGDICMBE@CDlgReport?$AA@ 006fad64     DlgReport.obj
 0003:0000ad74       ?classCDlgReport@CDlgReport@@2UCRuntimeClass@@B 006fad74     DlgReport.obj
 0003:0000adfc       ??_7CDlgReport@@6B@        006fadfc     DlgReport.obj
 0003:0000afdc       ??_C@_01JLIPDDHJ@?3?$AA@   006fafdc     DlgReport.obj
 0003:0000afe0       ??_C@_0BF@HCDPKGIN@?$DN?$DN?$DN?$DN?$DN?$DN?$DN?$DN?$DN?$DN?$DN?$DN?$DN?$DN?$DN?$DN?$DN?$DN?$DN?6?$AA@ 006fafe0     DlgReport.obj
 0003:0000affc       ??_C@_0BG@JOHJHIMM@?6Connectivity?5errors?6?$AA@ 006faffc     DlgReport.obj
 0003:0000b018       ??_C@_0BH@BJGDPMLN@routed?5connection?5from?$AA@ 006fb018     DlgReport.obj
 0003:0000b034       ??_C@_0N@PNAFHMCO@?6DRC?5errors?6?$AA@ 006fb034     DlgReport.obj
 0003:0000b044       ??_C@_0CP@GGNNHMMM@Minimum?5copper?5area?5to?5copper?5ar@ 006fb044     DlgReport.obj
 0003:0000b07c       ??_C@_0CH@CKPJHELF@Minimum?5board?5edge?5to?5hole?5clear@ 006fb07c     DlgReport.obj
 0003:0000b0ac       ??_C@_0CJ@ENMKIKLM@Minimum?5board?5edge?5to?5copper?5cle@ 006fb0ac     DlgReport.obj
 0003:0000b0e0       ??_C@_0BO@MODNAPBL@Minimum?5annular?5ring?5?$CIvias?$CJ?3?5?$AA@ 006fb0e0     DlgReport.obj
 0003:0000b104       ??_C@_0BO@PJAELEEJ@Minimum?5annular?5ring?5?$CIpins?$CJ?3?5?$AA@ 006fb104     DlgReport.obj
 0003:0000b128       ??_C@_0CB@EJKFGGK@Minimum?5hole?5to?5hole?5clearance?3?5@ 006fb128     DlgReport.obj
 0003:0000b150       ??_C@_0CD@JOAKDMOL@Minimum?5hole?5to?5copper?5clearance@ 006fb150     DlgReport.obj
 0003:0000b17c       ??_C@_0CD@OOABKODA@Minimum?5trace?5to?5trace?5clearance@ 006fb17c     DlgReport.obj
 0003:0000b1a8       ??_C@_0CB@CMOGICAN@Minimum?5pad?5to?5trace?5clearance?3?5@ 006fb1a8     DlgReport.obj
 0003:0000b1d0       ??_C@_0CO@KEIFMLOM@Minimum?5pad?5to?5pad?5clearance?$CIbet@ 006fb1d0     DlgReport.obj
 0003:0000b208       ??_C@_0BG@IKCHFPOK@Minimum?5trace?5width?3?5?$AA@ 006fb208     DlgReport.obj
 0003:0000b224       ??_C@_0O@LLACHEDF@?$DN?$DN?$DN?$DN?$DN?$DN?$DN?$DN?$DN?$DN?$DN?$DN?6?$AA@ 006fb224     DlgReport.obj
 0003:0000b234       ??_C@_0P@IHGGGGKM@?6DRC?5settings?6?$AA@ 006fb234     DlgReport.obj
 0003:0000b248       ??_C@_0CL@IAMOBFKL@Amount?5to?5shrink?5SMT?5pads?5for?5pa@ 006fb248     DlgReport.obj
 0003:0000b27c       ??_C@_0CE@CJJKLIGN@Minimum?5annular?5ring?5width?5?$CIvias@ 006fb27c     DlgReport.obj
 0003:0000b2a8       ??_C@_0CE@BOKDADDP@Minimum?5annular?5ring?5width?5?$CIpins@ 006fb2a8     DlgReport.obj
 0003:0000b2d4       ??_C@_0BM@HMFNMKCB@Thermal?5relief?5line?5width?3?5?$AA@ 006fb2d4     DlgReport.obj
 0003:0000b2f8       ??_C@_0CA@BBBCIFCC@Minimum?5silkscreen?5line?5width?3?5?$AA@ 006fb2f8     DlgReport.obj
 0003:0000b320       ??_C@_0BG@IMKFFPDJ@Pilot?5hole?5diameter?3?5?$AA@ 006fb320     DlgReport.obj
 0003:0000b33c       ??_C@_0BI@NIKNDGNI@Solder?5mask?5clearance?3?5?$AA@ 006fb33c     DlgReport.obj
 0003:0000b358       ??_C@_0CF@PMANDKIL@Hole?9edge?5to?5copper?9fill?5clearan@ 006fb358     DlgReport.obj
 0003:0000b384       ??_C@_0CC@EBPBKDNF@Copper?5to?5copper?9fill?5clearance?3@ 006fb384     DlgReport.obj
 0003:0000b3ac       ??_C@_0CI@HGHNMAOL@Use?590?9degree?5thermals?5for?5round@ 006fb3ac     DlgReport.obj
 0003:0000b3dc       ??_C@_0CE@CFMMKMBH@Make?5solder?9mask?5cutouts?5for?5via@ 006fb3dc     DlgReport.obj
 0003:0000b408       ??_C@_0BI@FPJNOCDJ@Use?5thermals?5for?5vias?3?5?$AA@ 006fb408     DlgReport.obj
 0003:0000b424       ??_C@_0CF@HGGOPENP@Use?5thermals?5for?5through?9hole?5pi@ 006fb424     DlgReport.obj
 0003:0000b450       ??_C@_0BM@DNNAAJHJ@Use?5thermals?5for?5SMT?5pins?3?5?$AA@ 006fb450     DlgReport.obj
 0003:0000b474       ??_C@_0CD@JECMGKBH@Connect?5SMT?5pins?5to?5copper?5areas@ 006fb474     DlgReport.obj
 0003:0000b4a0       ??_C@_0BG@LJHOLCB@Include?5pilot?5holes?3?5?$AA@ 006fb4a0     DlgReport.obj
 0003:0000b4bc       ??_C@_0CB@NGDDKDMB@Include?5layer?5description?5text?3?5@ 006fb4bc     DlgReport.obj
 0003:0000b4e4       ??_C@_0BB@GMBKMGCA@Include?5moires?3?5?$AA@ 006fb4e4     DlgReport.obj
 0003:0000b4f8       ??_C@_0BI@COGLKJEO@Include?5board?5outline?3?5?$AA@ 006fb4f8     DlgReport.obj
 0003:0000b514       ??_C@_03IPHJCBHH@YES?$AA@  006fb514     DlgReport.obj
 0003:0000b518       ??_C@_02NFLNFON@NO?$AA@    006fb518     DlgReport.obj
 0003:0000b51c       ??_C@_0BG@EILANLKE@?$DN?$DN?$DN?$DN?$DN?$DN?$DN?$DN?$DN?$DN?$DN?$DN?$DN?$DN?$DN?$DN?$DN?$DN?$DN?$DN?6?$AA@ 006fb51c     DlgReport.obj
 0003:0000b538       ??_C@_0BH@EHNDGFEP@?6Gerber?5file?5settings?6?$AA@ 006fb538     DlgReport.obj
 0003:0000b554       ??_C@_0BD@MLKBENFG@No?5selected?5parts?6?$AA@ 006fb554     DlgReport.obj
 0003:0000b56c       ??_C@_07JGEAAKKP@?9?9?9?9?9?9?9?$AA@ 006fb56c     DlgReport.obj
 0003:0000b578       ??_C@_09NJPFFACE@?9?9?9?9?9?9?9?9?9?$AA@ 006fb578     DlgReport.obj
 0003:0000b584       ??_C@_04ECGLBLOI@?9?9?9?9?$AA@ 006fb584     DlgReport.obj
 0003:0000b58c       ??_C@_05IOLJFLLO@?9?9?9?9?9?$AA@ 006fb58c     DlgReport.obj
 0003:0000b594       ??_C@_06MHNHNDP@?9?9?9?9?9?9?$AA@ 006fb594     DlgReport.obj
 0003:0000b59c       ??_C@_06CPDFHPF@GLUE?9W?$AA@ 006fb59c     DlgReport.obj
 0003:0000b5a4       ??_C@_06IFGLELDK@GLUE?9X?$AA@ 006fb5a4     DlgReport.obj
 0003:0000b5ac       ??_C@_06JMHAHKHL@GLUE?9Y?$AA@ 006fb5ac     DlgReport.obj
 0003:0000b5b4       ??_C@_03GPMNEAGC@REF?$AA@  006fb5b4     DlgReport.obj
 0003:0000b5b8       ??_C@_07FABLKDFK@PACKAGE?$AA@ 006fb5b8     DlgReport.obj
 0003:0000b5c4       ??_C@_05MHMCHENB@VALUE?$AA@ 006fb5c4     DlgReport.obj
 0003:0000b5cc       ??_C@_09KFEPIKCM@FOOTPRINT?$AA@ 006fb5cc     DlgReport.obj
 0003:0000b5d8       ??_C@_04MEAHOMD@PINS?$AA@  006fb5d8     DlgReport.obj
 0003:0000b5e0       ??_C@_05EBJALPPM@HOLES?$AA@ 006fb5e0     DlgReport.obj
 0003:0000b5e8       ??_C@_04FKOPDEBC@SIDE?$AA@ 006fb5e8     DlgReport.obj
 0003:0000b5f0       ??_C@_05JPLHMONN@ANGLE?$AA@ 006fb5f0     DlgReport.obj
 0003:0000b5f8       ??_C@_06KJLOKIII@CENT?9X?$AA@ 006fb5f8     DlgReport.obj
 0003:0000b600       ??_C@_06LAKFJJMJ@CENT?9Y?$AA@ 006fb600     DlgReport.obj
 0003:0000b608       ??_C@_06IELCOJJB@PIN1?9X?$AA@ 006fb608     DlgReport.obj
 0003:0000b610       ??_C@_06JNKJNINA@PIN1?9Y?$AA@ 006fb610     DlgReport.obj
 0003:0000b618       ??_C@_0BG@BHCGDPHK@?5?5?$CF?$CF?$CFds?5?5?$CF?$CF?$CFds?5?5?$CF?$CF?$CFds?$AA@ 006fb618     DlgReport.obj
 0003:0000b638       ??_C@_0FD@EDFDHGGM@?$CF?$CF?$CFds?5?5?$CF?$CF?$CFds?5?5?$CF?$CF?$CFds?5?5?$CF?$CF?$CFds?5?5?$CF?$CF?$CFd@ 006fb638     DlgReport.obj
 0003:0000b6a0       __real@4076800000000000    006fb6a0     DlgReport.obj
 0003:0000b6ac       ??_C@_06ODKKPBAP@?5?5?5top?$AA@ 006fb6ac     DlgReport.obj
 0003:0000b6b4       ??_C@_1DC@DFCJBLEA@?$AAc?$AA?3?$AA?2?$AAf?$AAr?$AAe?$AAe?$AAs?$AAc?$AAh?$AA?2?$AAd?$AAl?$AAg?$AAr?$AAe?$AAp?$AAo?$AAr?$AAt?$AA?4?$AAc?$AAp?$AAp?$AA?$AA@ 006fb6b4     DlgReport.obj
 0003:0000b6f0       ??_C@_0DG@ODBCCAP@All?5centroid?5coordinates?5are?5as?5@ 006fb6f0     DlgReport.obj
 0003:0000b730       ??_C@_0GP@EJABIAJE@For?5parts?5on?5the?5bottom?3?5the?5ang@ 006fb730     DlgReport.obj
 0003:0000b7b8       ??_C@_0EN@PODMAIIE@For?5parts?5on?5the?5bottom?3?5the?5ang@ 006fb7b8     DlgReport.obj
 0003:0000b818       ??_C@_0EG@FKDAJLMN@For?5parts?5on?5top?3?5the?5angle?5is?5i@ 006fb818     DlgReport.obj
 0003:0000b86c       ??_C@_02IHJINOOH@CW?$AA@   006fb86c     DlgReport.obj
 0003:0000b870       ??_C@_03NADMCPDK@CCW?$AA@  006fb870     DlgReport.obj
 0003:0000b874       ??_C@_0L@NHMBDCEK@?$DN?$DN?$DN?$DN?$DN?$DN?$DN?$DN?$DN?6?$AA@ 006fb874     DlgReport.obj
 0003:0000b884       ??_C@_0M@CKPNNDFH@?6Part?5list?6?$AA@ 006fb884     DlgReport.obj
 0003:0000b894       ??_C@_0P@NAICGEFI@?$CF5d?5?5?5?$CFs?5?$CI?$CFs?$CJ?6?$AA@ 006fb894     DlgReport.obj
 0003:0000b8a8       ??_C@_09LHGCAGOA@?$CF5d?5?5?5?$CFs?6?$AA@ 006fb8a8     DlgReport.obj
 0003:0000b8b4       ??_C@_0BC@GPIOKBNI@?9?9?9?9?9?9?5?5?9?9?9?9?9?9?9?9?6?$AA@ 006fb8b4     DlgReport.obj
 0003:0000b8cc       ??_C@_0BC@HMEFPPFL@NUMBER?5?5DIAMETER?6?$AA@ 006fb8cc     DlgReport.obj
 0003:0000b8e4       ??_C@_0M@ENBFHCCD@?$DN?$DN?$DN?$DN?$DN?$DN?$DN?$DN?$DN?$DN?6?$AA@ 006fb8e4     DlgReport.obj
 0003:0000b8f4       ??_C@_0N@LLCKJEON@?6Drill?5list?6?$AA@ 006fb8f4     DlgReport.obj
 0003:0000b904       ??_C@_0BF@ILNJEOOM@Number?5of?5holes?3?5?$CFd?6?$AA@ 006fb904     DlgReport.obj
 0003:0000b920       ??_C@_0BE@ONKKBONL@Number?5of?5vias?3?5?$CFd?6?$AA@ 006fb920     DlgReport.obj
 0003:0000b938       ??_C@_0CO@IBCKNJFD@Number?5of?5pins?3?5?$CFd?5?$CI?$CFd?5through?9h@ 006fb938     DlgReport.obj
 0003:0000b970       ??_C@_0BF@FFDGPDIH@Number?5of?5parts?3?5?$CFd?6?$AA@ 006fb970     DlgReport.obj
 0003:0000b98c       ??_C@_0CP@NGABAIMC@Number?5of?5parts?3?5?$CFd?5?$CIwithout?5foo@ 006fb98c     DlgReport.obj
 0003:0000b9c4       ??_C@_0BJ@KLKMPAIB@Default?5library?5folder?3?5?$AA@ 006fb9c4     DlgReport.obj
 0003:0000b9e4       ??_C@_0P@CCOHGPJC@Project?5file?3?5?$AA@ 006fb9e4     DlgReport.obj
 0003:0000b9f8       ??_C@_0P@MADLIKCI@Project?5name?3?5?$AA@ 006fb9f8     DlgReport.obj
 0003:0000ba0c       ??_C@_0CO@EHDLHOBC@?$DN?$DN?$DN?$DN?$DN?$DN?$DN?$DN?$DN?$DN?$DN?$DN?$DN?$DN?$DN?$DN?$DN?$DN?$DN?$DN?$DN?$DN?$DN?$DN?$DN?$DN?$DN?$DN?$DN?$DN?$DN?$DN@ 006fba0c     DlgReport.obj
 0003:0000ba44       ??_C@_0CJ@GOPAAOEA@FreePCB?5project?5report?5?$CIdefault?5@ 006fba44     DlgReport.obj
 0003:0000ba78       ??_C@_02MNMNLDAI@?$CJ?6?$AA@ 006fba78     DlgReport.obj
 0003:0000ba7c       ??_C@_0BH@LNGEDDIN@Unable?5to?5open?5file?5?$CC?5?$AA@ 006fba7c     DlgReport.obj
 0003:0000ba98       ??_C@_0L@JMMJLGLG@report?4txt?$AA@ 006fba98     DlgReport.obj
 0003:0000baac       ??_7?$CMap@HHHH@@6B@       006fbaac     DlgReport.obj
 0003:0000bac4       ??_C@_04OAFLPOMH@?$FN?5?$DN?5?$AA@ 006fbac4     DlgReport.obj
 0003:0000bacc       ??_C@_03OHJIHPJH@?6?7?$FL?$AA@ 006fbacc     DlgReport.obj
 0003:0000bad4       ??_7?$CArray@V?$CArray@V?$CStringT@DV?$StrTraitMFC_DLL@DV?$ChTraitsCRT@D@ATL@@@@@ATL@@ABV12@@@ABV1@@@6B@ 006fbad4     DlgReport.obj
 0003:0000baec       ??_C@_0BC@FJABLEM@CDlgSaveFootprint?$AA@ 006fbaec     DlgSaveFootprint.obj
 0003:0000bb04       ?classCDlgSaveFootprint@CDlgSaveFootprint@@2UCRuntimeClass@@B 006fbb04     DlgSaveFootprint.obj
 0003:0000bbac       ??_7CDlgSaveFootprint@@6B@ 006fbbac     DlgSaveFootprint.obj
 0003:0000bd8c       ??_C@_04LPBONMDM@?5mil?$AA@ 006fbd8c     DlgSaveFootprint.obj
 0003:0000bd94       ??_C@_03OONFMCEE@?5mm?$AA@ 006fbd94     DlgSaveFootprint.obj
 0003:0000bd98       ??_C@_0DL@GCADDPBF@The?5original?5file?5has?5been?5delet@ 006fbd98     DlgSaveFootprint.obj
 0003:0000bde0       ??_C@_0CP@IMMNGLBA@The?5modified?5file?5has?5been?5saved@ 006fbde0     DlgSaveFootprint.obj
 0003:0000be18       ??_C@_0ED@JHAPMGHK@File?5could?5be?5read?9only?5or?5you?5d@ 006fbe18     DlgSaveFootprint.obj
 0003:0000be68       ??_C@_0DC@NIGDJHND@File?5system?5error?3?5Unable?5to?5mod@ 006fbe68     DlgSaveFootprint.obj
 0003:0000bea4       ??_C@_05HKGIJGOH@name?3?$AA@ 006fbea4     DlgSaveFootprint.obj
 0003:0000beac       ??_C@_01OHGJGJJP@?$FL?$AA@ 006fbeac     DlgSaveFootprint.obj
 0003:0000beb0       ??_C@_08EGOMNEAH@temp?4txt?$AA@ 006fbeb0     DlgSaveFootprint.obj
 0003:0000bebc       ??_C@_0BF@MCKLGNCN@Unable?5to?5open?5file?5?$AA@ 006fbebc     DlgSaveFootprint.obj
 0003:0000bed8       ??_C@_0FL@GJEEGGFK@Footprint?5?$CC?$CFs?$CC?5already?5exists?5in@ 006fbed8     DlgSaveFootprint.obj
 0003:0000bf48       ??_C@_0DH@JFCLFIHO@Footprint?5?$CC?$CFs?$CC?5already?5exists?5in@ 006fbf48     DlgSaveFootprint.obj
 0003:0000bf8c       ??_C@_0CK@NPNKPNP@Name?5too?5long?0?5can?8t?5exceed?5?$CFd?5c@ 006fbf8c     DlgSaveFootprint.obj
 0003:0000bfc0       ??_C@_0BP@LDHHGMNL@Indexing?5library?5folder?5?$CC?$CFs?$CC?$AN?6?$AA@ 006fbfc0     DlgSaveFootprint.obj
 0003:0000bfe8       ??_C@_0CA@IPDOIGDF@c?3?2freesch?2dlgsavefootprint?4cpp?$AA@ 006fbfe8     DlgSaveFootprint.obj
 0003:0000c010       ??_C@_0BK@CLCDALKP@Unable?5to?5create?5folder?5?$CC?$AA@ 006fc010     DlgSaveFootprint.obj
 0003:0000c030       ??_C@_0M@PPJLFKEE@Create?5it?5?$DP?$AA@ 006fc030     DlgSaveFootprint.obj
 0003:0000c040       ??_C@_08GNNNNIPM@Folder?5?$CC?$AA@ 006fc040     DlgSaveFootprint.obj
 0003:0000c04c       ??_C@_0BB@IOJHNKK@?$CC?5doesn?8t?5exist?6?$AA@ 006fc04c     DlgSaveFootprint.obj
 0003:0000c060       ??_C@_0BB@BOEGIOKO@user_created?4fpl?$AA@ 006fc060     DlgSaveFootprint.obj
 0003:0000c078       ??_7?$CArray@VCFootLib@@ABV1@@@6B@ 006fc078     DlgSaveFootprint.obj
 0003:0000c094       ??_7?$CArray@VCFootLibEntry@@ABV1@@@6B@ 006fc094     DlgSaveFootprint.obj
 0003:0000c0ac       ??_C@_0M@ONFBIFPE@CDlgSaveLib?$AA@ 006fc0ac     DlgSaveLib.obj
 0003:0000c0bc       ?classCDlgSaveLib@CDlgSaveLib@@2UCRuntimeClass@@B 006fc0bc     DlgSaveLib.obj
 0003:0000c19c       ??_7CDlgSaveLib@@6B@       006fc19c     DlgSaveLib.obj
 0003:0000c37c       ??_C@_0BK@HENCCIOJ@c?3?2freesch?2dlgsavelib?4cpp?$AA@ 006fc37c     DlgSaveLib.obj
 0003:0000c39c       ??_C@_0BB@DIEEDJNF@CDlgSetAreaHatch?$AA@ 006fc39c     DlgSetAreaHatch.obj
 0003:0000c3b0       ?classCDlgSetAreaHatch@CDlgSetAreaHatch@@2UCRuntimeClass@@B 006fc3b0     DlgSetAreaHatch.obj
 0003:0000c404       ??_7CDlgSetAreaHatch@@6B@  006fc404     DlgSetAreaHatch.obj
 0003:0000c5e4       ??_C@_0BD@BHPNFEGH@DlgSetSegmentWidth?$AA@ 006fc5e4     DlgSetSegmentWidth.obj
 0003:0000c5fc       ?classDlgSetSegmentWidth@DlgSetSegmentWidth@@2UCRuntimeClass@@B 006fc5fc     DlgSetSegmentWidth.obj
 0003:0000c78c       ??_7DlgSetSegmentWidth@@6B@ 006fc78c     DlgSetSegmentWidth.obj
 0003:0000c96c       ??_C@_0BD@OMFNOBDG@CDlgSetTraceWidths?$AA@ 006fc96c     DlgSetTraceWidths.obj
 0003:0000c984       ?classCDlgSetTraceWidths@CDlgSetTraceWidths@@2UCRuntimeClass@@B 006fc984     DlgSetTraceWidths.obj
 0003:0000caf4       ??_7CDlgSetTraceWidths@@6B@ 006fcaf4     DlgSetTraceWidths.obj
 0003:0000ccd4       ??_C@_0O@LIJBJIKC@CDlgShortcuts?$AA@ 006fccd4     DlgShortcuts.obj
 0003:0000cce4       ?classCDlgShortcuts@CDlgShortcuts@@2UCRuntimeClass@@B 006fcce4     DlgShortcuts.obj
 0003:0000cd34       ??_7CDlgShortcuts@@6B@     006fcd34     DlgShortcuts.obj
 0003:0000cf14       ??_C@_0O@NMOLLEEM@CDlgSideStyle?$AA@ 006fcf14     DlgSideStyle.obj
 0003:0000cf24       ?classCDlgSideStyle@CDlgSideStyle@@2UCRuntimeClass@@B 006fcf24     DlgSideStyle.obj
 0003:0000cf74       ??_7CDlgSideStyle@@6B@     006fcf74     DlgSideStyle.obj
 0003:0000d154       ??_C@_08MECMMLI@CDlgSlot?$AA@ 006fd154     DlgSlot.obj
 0003:0000d160       ?classCDlgSlot@CDlgSlot@@2UCRuntimeClass@@B 006fd160     DlgSlot.obj
 0003:0000d244       ??_7CDlgSlot@@6B@          006fd244     DlgSlot.obj
 0003:0000d424       ??_C@_02NAHCJHOC@UP?$AA@   006fd424     DlgSlot.obj
 0003:0000d428       ??_C@_04KCNEHMIH@LEFT?$AA@ 006fd428     DlgSlot.obj
 0003:0000d430       ??_C@_04FANAOELO@DOWN?$AA@ 006fd430     DlgSlot.obj
 0003:0000d438       ??_C@_05PMAFOJDE@RIGHT?$AA@ 006fd438     DlgSlot.obj
 0003:0000d440       ??_C@_0O@HEPKFBEE@CDlgValueText?$AA@ 006fd440     DlgValueText.obj
 0003:0000d450       ?classCDlgValueText@CDlgValueText@@2UCRuntimeClass@@B 006fd450     DlgValueText.obj
 0003:0000d51c       ??_7CDlgValueText@@6B@     006fd51c     DlgValueText.obj
 0003:0000d6fc       ??_C@_07MCJCKLJ@CDlgVia?$AA@ 006fd6fc     DlgVia.obj
 0003:0000d708       ?classCDlgVia@CDlgVia@@2UCRuntimeClass@@B 006fd708     DlgVia.obj
 0003:0000d774       ??_7CDlgVia@@6B@           006fd774     DlgVia.obj
 0003:0000d954       ??_C@_0BH@BONHADCK@Illegal?5via?5hole?5width?$AA@ 006fd954     DlgVia.obj
 0003:0000d970       ??_C@_0BC@FCAKHIIA@Illegal?5via?5width?$AA@ 006fd970     DlgVia.obj
 0003:0000d988       ??_C@_0M@KMPNFKEB@CDlgWizQuad?$AA@ 006fd988     DlgWizQuad.obj
 0003:0000d998       ?classCDlgWizQuad@CDlgWizQuad@@2UCRuntimeClass@@B 006fd998     DlgWizQuad.obj
 0003:0000dcdc       ??_7CDlgWizQuad@@6B@       006fdcdc     DlgWizQuad.obj
 0003:0000debc       ??_C@_05CBDJEANE@EDGE2?$AA@ 006fdebc     DlgWizQuad.obj
 0003:0000dec4       ??_C@_04EFGDDALE@EDGE?$AA@ 006fdec4     DlgWizQuad.obj
 0003:0000decc       ??_C@_07GEGIIMAM@PGA?1BGA?$AA@ 006fdecc     DlgWizQuad.obj
 0003:0000ded8       ??_C@_07DBGDICPA@HEADER2?$AA@ 006fded8     DlgWizQuad.obj
 0003:0000dee4       ??_C@_06MFNLEOCO@HEADER?$AA@ 006fdee4     DlgWizQuad.obj
 0003:0000deec       ??_C@_04CFDAHMPP@QUAD?$AA@ 006fdeec     DlgWizQuad.obj
 0003:0000def4       ??_C@_03PDNAEJC@DIP?$AA@   006fdef4     DlgWizQuad.obj
 0003:0000def8       ??_C@_03MCPDGLLE@SIP?$AA@  006fdef8     DlgWizQuad.obj
 0003:0000defc       ??_C@_0BH@DPIFPKIB@top?5row?0?5left?9most?5pin?$AA@ 006fdefc     DlgWizQuad.obj
 0003:0000df18       ??_C@_0BK@HIIGDPCC@bottom?5row?0?5left?9most?5pin?$AA@ 006fdf18     DlgWizQuad.obj
 0003:0000df38       ??_C@_0BE@IFFLFCOD@top?5row?0?5center?5pin?$AA@ 006fdf38     DlgWizQuad.obj
 0003:0000df50       ??_C@_0N@CNPIEDOK@Rounded?5Rect?$AA@ 006fdf50     DlgWizQuad.obj
 0003:0000df60       ??_C@_0M@CEJBNPML@Rectangular?$AA@ 006fdf60     DlgWizQuad.obj
 0003:0000df70       ??_C@_0BL@KEOIOBLO@Pin?51?5square?0?5others?5round?$AA@ 006fdf70     DlgWizQuad.obj
 0003:0000df90       ??_C@_06FMBNCPDL@Cancel?$AA@ 006fdf90     DlgWizQuad.obj
 0003:0000df98       ??_C@_04KNCIGIPG@Done?$AA@ 006fdf98     DlgWizQuad.obj
 0003:0000dfa0       ??_C@_01FDFGLJHB@2?$AA@    006fdfa0     DlgWizQuad.obj
 0003:0000dfa4       ??_C@_1DE@CALFPMLG@?$AAc?$AA?3?$AA?2?$AAf?$AAr?$AAe?$AAe?$AAs?$AAc?$AAh?$AA?2?$AAd?$AAl?$AAg?$AAw?$AAi?$AAz?$AAq?$AAu?$AAa?$AAd?$AA?4?$AAc?$AAp?$AAp?$AA?$AA@ 006fdfa4     DlgWizQuad.obj
 0003:0000dfe4       ??_C@_05GCFKMIBK@?$CF6?43f?$AA@ 006fdfe4     DlgWizQuad.obj
 0003:0000dfec       ??_C@_0DK@JBIILKLM@CShape?3?3MakeFromString?$CI?$CJ?5failed?5@ 006fdfec     DlgWizQuad.obj
 0003:0000e034       ??_C@_02ILMNDBAG@HW?$AA@   006fe034     DlgWizQuad.obj
 0003:0000e038       ??_C@_02OEIPDHIL@PR?$AA@   006fe038     DlgWizQuad.obj
 0003:0000e03c       ??_C@_02OBAMLDBN@PE?$AA@   006fe03c     DlgWizQuad.obj
 0003:0000e040       ??_C@_03NCOFOL@_PI?$AA@    006fe040     DlgWizQuad.obj
 0003:0000e044       ??_C@_02JJPIMDMO@PW?$AA@   006fe044     DlgWizQuad.obj
 0003:0000e048       ??_C@_02FEKCMNFA@PH?$AA@   006fe048     DlgWizQuad.obj
 0003:0000e04c       ??_C@_05JBHFNLGG@NONE_?$AA@ 006fe04c     DlgWizQuad.obj
 0003:0000e054       ??_C@_05GAGLNGOJ@OVAL_?$AA@ 006fe054     DlgWizQuad.obj
 0003:0000e05c       ??_C@_08MHGDENPF@RNDRECT_?$AA@ 006fe05c     DlgWizQuad.obj
 0003:0000e068       ??_C@_08MCNCNLIH@OCTAGON_?$AA@ 006fe068     DlgWizQuad.obj
 0003:0000e074       ??_C@_06OJFPGLJE@ROUND_?$AA@ 006fe074     DlgWizQuad.obj
 0003:0000e07c       ??_C@_07NHHABHJE@SQUARE_?$AA@ 006fe07c     DlgWizQuad.obj
 0003:0000e088       ??_C@_07BJKLIBJD@RNDSQ1_?$AA@ 006fe088     DlgWizQuad.obj
 0003:0000e094       ??_C@_05EAFPBALN@RECT_?$AA@ 006fe094     DlgWizQuad.obj
 0003:0000e09c       ??_C@_05BAKCHJGI@UMIL_?$AA@ 006fe09c     DlgWizQuad.obj
 0003:0000e0a4       ??_C@_04OFDBJHLB@UMM_?$AA@ 006fe0a4     DlgWizQuad.obj
 0003:0000e0ac       ??_C@_0M@MIBAEOOM@SIP_?$CFd_H?$CFd_?$AA@ 006fe0ac     DlgWizQuad.obj
 0003:0000e0bc       ??_C@_0BB@MOIEBGLJ@DIP_?$CFd_H?$CFd_RT?$CFs_?$AA@ 006fe0bc     DlgWizQuad.obj
 0003:0000e0d0       ??_C@_0BG@CBJHIEMP@HDR_?$CFd_H?$CFd_LRBT_PV?$CFs_?$AA@ 006fe0d0     DlgWizQuad.obj
 0003:0000e0ec       ??_C@_0BG@HAFCANJL@HDR_?$CFd_H?$CFd_BTLR_PV?$CFs_?$AA@ 006fe0ec     DlgWizQuad.obj
 0003:0000e108       ??_C@_02KNMJPBLE@RB?$AA@   006fe108     DlgWizQuad.obj
 0003:0000e10c       ??_C@_02DDEKNMDK@RL?$AA@   006fe10c     DlgWizQuad.obj
 0003:0000e110       ??_C@_01IDAFKMJL@_?$AA@    006fe110     DlgWizQuad.obj
 0003:0000e114       ??_C@_05NODOGKFH@P1TL_?$AA@ 006fe114     DlgWizQuad.obj
 0003:0000e11c       ??_C@_05KLEMGCBE@P1BL_?$AA@ 006fe11c     DlgWizQuad.obj
 0003:0000e124       ??_C@_05NFGCCNGK@P1TC_?$AA@ 006fe124     DlgWizQuad.obj
 0003:0000e12c       ??_C@_0M@LHNDCELF@QFP_?$CFd_H?$CFd_?$AA@ 006fe12c     DlgWizQuad.obj
 0003:0000e140       ??_C@_0EJ@FKFKFONF@Illegal?5pad?5shape?5for?5edge?5conne@ 006fe140     DlgWizQuad.obj
 0003:0000e198       ??_C@_0CN@HCOCFNAB@Illegal?5distance?5between?5left?5an@ 006fe198     DlgWizQuad.obj
 0003:0000e1d0       ??_C@_0CN@BGBDIBCC@Illegal?5distance?5between?5top?5and@ 006fe1d0     DlgWizQuad.obj
 0003:0000e208       ??_C@_0BI@KDJLDLHO@Illegal?5pad?5spacing?5?$CIE?$CJ?$AA@ 006fe208     DlgWizQuad.obj
 0003:0000e224       ??_C@_0DA@EJPGJCBA@Pad?5shape?5?$CCNone?$CC?5requires?5a?5non?9@ 006fe224     DlgWizQuad.obj
 0003:0000e260       ??_C@_0BM@DDHAKHBJ@Pad?5corner?5radius?5too?5large?$AA@ 006fe260     DlgWizQuad.obj
 0003:0000e284       ??_C@_0BK@JLHAMEGN@Illegal?5pad?5corner?5radius?$AA@ 006fe284     DlgWizQuad.obj
 0003:0000e2a4       ??_C@_0BH@KBLPLNON@Illegal?5pad?5length?5?$CIY?$CJ?$AA@ 006fe2a4     DlgWizQuad.obj
 0003:0000e2c0       ??_C@_0BG@HAPNPAHM@Illegal?5pad?5width?5?$CIX?$CJ?$AA@ 006fe2c0     DlgWizQuad.obj
 0003:0000e2dc       ??_C@_0O@IEPNIJAB@Too?5many?5rows?$AA@ 006fe2dc     DlgWizQuad.obj
 0003:0000e2ec       ??_C@_0CI@IJHHPJG@Illegal?5number?5of?5pins?5per?5verti@ 006fe2ec     DlgWizQuad.obj
 0003:0000e31c       ??_C@_0CK@EGNHBOLO@Illegal?5number?5of?5pins?5per?5horiz@ 006fe31c     DlgWizQuad.obj
 0003:0000e350       ??_C@_0O@MIKBBNEC@Too?5many?5pins?$AA@ 006fe350     DlgWizQuad.obj
 0003:0000e360       ??_C@_0BH@DOHGHOKN@Illegal?5number?5of?5pins?$AA@ 006fe360     DlgWizQuad.obj
 0003:0000e37c       ??_C@_0N@BICPDJEI@Illegal?5name?$AA@ 006fe37c     DlgWizQuad.obj
 0003:0000e38c       ??_C@_0CF@FAMJCBNH@Warning?3?5error?5of?5ParseKeyString@ 006fe38c     file_io.obj
 0003:0000e3b8       ??_C@_04MOKNAJPP@?5?0?6?7?$AA@ 006fe3b8     file_io.obj
 0003:0000e3c0       ??_C@_05JELBNFFE@?5?3?0?6?7?$AA@ 006fe3c0     file_io.obj
 0003:0000e3c8       ??_C@_0CF@BGFFMOCN@Unable?5to?5convert?5string?5?$CC?$CFs?$CC?5to@ 006fe3c8     file_io.obj
 0003:0000e3f4       ??_C@_0BH@BOGBLBJP@c?3?2freesch?2file_io?4cpp?$AA@ 006fe3f4     file_io.obj
 0003:0000e410       __real@c1cdcd64ff800000    006fe410     file_io.obj
 0003:0000e420       __real@41cdcd64ff800000    006fe420     file_io.obj
 0003:0000e42c       ??_C@_0CI@CBGOIDOF@Unable?5to?5convert?5string?5?$CC?$CFs?$CC?5to@ 006fe42c     file_io.obj
 0003:0000e45c       ??_C@_08EEGPGHLF@package?3?$AA@ 006fe45c     FootprintLib.obj
 0003:0000e468       ??_C@_0CA@MHBLHLML@Unable?5to?5open?5library?5file?6?6?5?$CC?$AA@ 006fe468     FootprintLib.obj
 0003:0000e490       ??_C@_0BJ@JEDJBKAG@Indexing?5library?3?5?$CC?$CFs?$CC?$AN?6?$AA@ 006fe490     FootprintLib.obj
 0003:0000e4b0       ??_C@_05BFAPANEN@?$CK?4fpl?$AA@ 006fe4b0     FootprintLib.obj
 0003:0000e4b8       ??_C@_0CD@JEDPCNMJ@Unable?5to?5open?5library?5folder?5?$CC?$CF@ 006fe4b8     FootprintLib.obj
 0003:0000e4e4       ??_C@_1DI@KHKMHMED@?$AAc?$AA?3?$AA?2?$AAf?$AAr?$AAe?$AAe?$AAs?$AAc?$AAh?$AA?2?$AAf?$AAo?$AAo?$AAt?$AAp?$AAr?$AAi?$AAn?$AAt?$AAl?$AAi?$AAb?$AA?4?$AAc?$AAp?$AAp?$AA?$AA@ 006fe4e4     FootprintLib.obj
 0003:0000e528       ??_C@_0BM@DFHFGHBO@c?3?2freesch?2footprintlib?4cpp?$AA@ 006fe528     FootprintLib.obj
 0003:0000e54c       ??_C@_0P@EPCEFBE@CFootprintView?$AA@ 006fe54c     FootprintView.obj
 0003:0000e560       ?classCFootprintView@CFootprintView@@2UCRuntimeClass@@B 006fe560     FootprintView.obj
 0003:0000ebe0       ??_C@_05MPFIAJAP@Arial?$AA@ 006febe0     FootprintView.obj
 0003:0000ebec       ??_7CFootprintView@@6B@    006febec     FootprintView.obj
 0003:0000edfc       ??_C@_08GDFANMDE@untitled?$AA@ 006fedfc     FootprintView.obj
 0003:0000ee08       ??_C@_1DK@IIJBMPPD@?$AAc?$AA?3?$AA?2?$AAf?$AAr?$AAe?$AAe?$AAs?$AAc?$AAh?$AA?2?$AAf?$AAo?$AAo?$AAt?$AAp?$AAr?$AAi?$AAn?$AAt?$AAv?$AAi?$AAe?$AAw?$AA?4?$AAc?$AAp?$AAp?$AA?$AA@ 006fee08     FootprintView.obj
 0003:0000ee50       __real@c14360f000000000    006fee50     FootprintView.obj
 0003:0000ee60       __real@40ff018000000000    006fee60     FootprintView.obj
 0003:0000ee6c       ??_C@_0N@EEJPGPPK@layer?5on?5top?$AA@ 006fee6c     FootprintView.obj
 0003:0000ee7c       ??_C@_0BA@EOEEIBKE@keys?5to?5display?$AA@ 006fee7c     FootprintView.obj
 0003:0000ee90       ??_C@_0O@KCCHDCJH@?$CK?5Use?5numeric?$AA@ 006fee90     FootprintView.obj
 0003:0000eea0       ??_C@_05KPNOIGGH@?$FL?$CFd?$CK?$FN?$AA@ 006feea0     FootprintView.obj
 0003:0000eea8       ??_C@_1GK@EFBHHBH@?$AAm?$AA_?$AAp?$AAD?$AAo?$AAc?$AAu?$AAm?$AAe?$AAn?$AAt?$AA?9?$AA?$DO?$AAI?$AAs?$AAK?$AAi?$AAn?$AAd?$AAO?$AAf?$AA?$CI?$AA?$CI?$AAC?$AAF?$AAr?$AAe?$AAe?$AAP?$AAc?$AAb?$AAD@ 006feea8     FootprintView.obj
 0003:0000ef28       ??_C@_0II@HDPDMHGF@Flip?5group?5with?5layers?$DP?5When?5you@ 006fef28     FootprintView.obj
 0003:0000efd0       ??_C@_0IF@PBBNOGKC@Attention?$CB?5The?5names?5of?5the?5pins@ 006fefd0     FootprintView.obj
 0003:0000f070       __real@406fc00000000000    006ff070     FootprintView.obj
 0003:0000f07c       ??_C@_0P@DMIIILEE@Shift?5Position?$AA@ 006ff07c     FootprintView.obj
 0003:0000f090       ??_C@_02LCPENACN@F1?$AA@   006ff090     FootprintView.obj
 0003:0000f094       ??_C@_0CA@BKNAFOIG@Moving?5corner?5?$CFd?5of?5polyline?5?$CFd?$AA@ 006ff094     FootprintView.obj
 0003:0000f0bc       ??_C@_0CF@OICIFFML@Adhesive?5spot?5?$CFd?3?5w?5?$CFs?5at?5?$DMcentr@ 006ff0bc     FootprintView.obj
 0003:0000f0e8       ??_C@_0CD@IDPBMMDB@Adhesive?5spot?5?$CFd?3?5w?5?$CFs?0?5x?5?$CFs?0?5y?5@ 006ff0e8     FootprintView.obj
 0003:0000f114       ??_C@_0BC@CONFPEOD@?$DMproject?5default?$DO?$AA@ 006ff114     FootprintView.obj
 0003:0000f12c       ??_C@_0CE@LCLJLCIH@Centroid?5?$CI?$CFs?$CJ?0?5x?5?$CFs?0?5y?5?$CFs?0?5angle@ 006ff12c     FootprintView.obj
 0003:0000f158       ??_C@_07MJAJDDLG@defined?$AA@ 006ff158     FootprintView.obj
 0003:0000f164       ??_C@_0BB@HGEMMMLH@default?5position?$AA@ 006ff164     FootprintView.obj
 0003:0000f178       ??_C@_0DB@FBADGGP@Polyline?5?$CFd?0?5side?5?$CFd?0?5Length?$DN?$CFs?0@ 006ff178     FootprintView.obj
 0003:0000f1b4       ??_C@_0DP@FBHANOFJ@Polyline?5?$CFd?0?5side?5?$CFd?0?5Length?$DN?$CFs?0@ 006ff1b4     FootprintView.obj
 0003:0000f200       ??_C@_0BH@MNLDOCIK@Polyline?5?$CFd?0?5corner?5?$CFd?$AA@ 006ff200     FootprintView.obj
