 FreeSia

 Timestamp is 5e7221ef (Wed Mar 18 18:28:15 2020)

 Preferred load address is 00400000

 Start         Length     Name                   Class
 0001:00000000 000f514aH .textbss                DATA
 0002:00000000 001ddaa6H .text                   CODE
 0002:001ddab0 0001720dH .text$x                 CODE
 0002:001f4cc0 00002154H .text$yc                CODE
 0002:001f6e20 000018e8H .text$yd                CODE
 0003:00000000 00000104H .CRT$XCA                DATA
 0003:00000104 00000104H .CRT$XCAA               DATA
 0003:00000208 0000010eH .CRT$XCC                DATA
 0003:00000318 0000018aH .CRT$XCL                DATA
 0003:000004a4 000001b0H .CRT$XCU                DATA
 0003:00000654 00000104H .CRT$XCZ                DATA
 0003:00000758 00000104H .CRT$XIA                DATA
 0003:0000085c 00000104H .CRT$XIAA               DATA
 0003:00000960 00000104H .CRT$XIC                DATA
 0003:00000a64 00000104H .CRT$XIY                DATA
 0003:00000b68 00000104H .CRT$XIZ                DATA
 0003:00000c70 0001f84fH .rdata                  DATA
 0003:000204c0 0000013fH .rdata$debug            DATA
 0003:00020600 00002ec0H .rdata$r                DATA
 0003:000234c0 00000104H .rtc$IAA                DATA
 0003:000235c4 00000310H .rtc$IMZ                DATA
 0003:000238d4 00000104H .rtc$IZZ                DATA
 0003:000239d8 00000104H .rtc$TAA                DATA
 0003:00023adc 00000310H .rtc$TMZ                DATA
 0003:00023dec 00000104H .rtc$TZZ                DATA
 0003:00023ef0 0000e017H .xdata$x                DATA
 0003:00031f08 00000104H ATL$__a                 DATA
 0003:0003200c 00000104H ATL$__z                 DATA
 0003:00032110 00000000H .edata                  DATA
 0004:00000000 00011c64H .data                   DATA
 0004:00011c68 001349a4H .bss                    DATA
 0005:00000000 000000b4H .idata$2                DATA
 0005:000000b4 00000014H .idata$3                DATA
 0005:000000c8 0000136cH .idata$4                DATA
 0005:00001434 0000136cH .idata$5                DATA
 0005:000027a0 000012feH .idata$6                DATA
 0006:00000000 00001960H .rsrc$01                DATA
 0006:00001960 000ae649H .rsrc$02                DATA

  Address         Publics by Value              Rva+Base       Lib:Object

 0000:00000000       ___safe_se_handler_table   00000000     <absolute>
 0000:00000000       ___safe_se_handler_count   00000000     <absolute>
 0000:00000000       __except_list              00000000     <absolute>
 0000:00009876       __fltused                  00009876     <absolute>
 0000:00009876       __ldused                   00009876     <absolute>
 0000:00000000       ___ImageBase               00400000     <linker-defined>
 0001:00000000       __enc$textbss$begin        00401000     <linker-defined>
 0001:000f514a       __enc$textbss$end          004f614a     <linker-defined>
 0002:0000afd0       ?AfxAssertFailedLine@@YGHPBDH@Z 00501fd0 f   afxasert.obj
 0002:0000b0c0       ??0Cuid@@QAE@XZ            005020c0 f   Cuid.obj
 0002:0000b1e0       ?GetNewUID@Cuid@@QAEHXZ    005021e0 f   Cuid.obj
 0002:0000b3c0       ?ReleaseUID@Cuid@@QAEXI@Z  005023c0 f   Cuid.obj
 0002:0000b4b0       ??0DRError@@QAE@XZ         005024b0 f   DesignRules.obj
 0002:0000b600       ??1DRError@@QAE@XZ         00502600 f   DesignRules.obj
 0002:0000b740       ??0DRErrorList@@QAE@XZ     00502740 f   DesignRules.obj
 0002:0000b7b0       ??1DRErrorList@@QAE@XZ     005027b0 f   DesignRules.obj
 0002:0000b860       ?SetLists@DRErrorList@@QAEXPAVCPartList@@PAVCNetList@@PAVCDisplayList@@PAVCTextList@@PAV?$CArray@VCPolyLine@@ABV1@@@@Z 00502860 f   DesignRules.obj
 0002:0000b8d0       ?Clear@DRErrorList@@QAEXXZ 005028d0 f   DesignRules.obj
 0002:0000b9a0       ??_GDRError@@QAEPAXI@Z     005029a0 f i DesignRules.obj
 0002:0000ba10       ?Remove@DRErrorList@@QAEXPAVDRError@@@Z 00502a10 f   DesignRules.obj
 0002:0000bae0       ?Add@DRErrorList@@QAEPAVDRError@@JHPAV?$CStringT@DV?$StrTraitMFC_DLL@DV?$ChTraitsCRT@D@ATL@@@@@ATL@@00Vid@@1HHHHHH@Z 00502ae0 f   DesignRules.obj
 0002:0000bfa0       ?GetPadElement@@YAPAVdl_element@@PAVpart_pin@@H@Z 00502fa0 f   DesignRules.obj
 0002:0000c080       ?HighLight@DRErrorList@@QAEXPAVDRError@@@Z 00503080 f   DesignRules.obj
 0002:0000c2b0       ?MakeSolidCircles@DRErrorList@@QAEXXZ 005032b0 f   DesignRules.obj
 0002:0000c430       ?MakeHollowCircles@DRErrorList@@QAEXXZ 00503430 f   DesignRules.obj
 0002:0000c630       ?GetSize@?$CArray@PAVdl_element@@ABQAV1@@@QBEHXZ 00503630 f i DesignRules.obj
 0002:0000c670       ??A?$CArray@PAVdl_element@@ABQAV1@@@QAEAAPAVdl_element@@H@Z 00503670 f i DesignRules.obj
 0002:0000c6d0       ?GetSize@?$CArray@VCPolyLine@@ABV1@@@QBEHXZ 005036d0 f i DesignRules.obj
 0002:0000c710       ?GetAt@?$CArray@VCPolyLine@@ABV1@@@QAEAAVCPolyLine@@H@Z 00503710 f i DesignRules.obj
 0002:0000c7c0       ?ElementAt@?$CArray@PAVdl_element@@ABQAV1@@@QAEAAPAVdl_element@@H@Z 005037c0 f i DesignRules.obj
 0002:0000c870       ??0id@@QAE@HHHHH@Z         00503870 f i DesignRules.obj
 0002:0000c8f0       ??0CDisplayList@@QAE@XZ    005038f0 f   DisplayList.obj
 0002:0000cc40       ??0dl_element@@QAE@XZ      00503c40 f i DisplayList.obj
 0002:0000ccb0       ??1dl_element@@QAE@XZ      00503cb0 f i DisplayList.obj
 0002:0000cd10       ??1CDisplayList@@QAE@XZ    00503d10 f   DisplayList.obj
 0002:0000cdd0       ?RemoveAll@CDisplayList@@QAEXXZ 00503dd0 f   DisplayList.obj
 0002:0000cf10       ?SetMapping@CDisplayList@@QAEXPAVCRect@@0HHNHH@Z 00503f10 f   DisplayList.obj
 0002:0000d280       ?AddSelector@CDisplayList@@QAEPAVdl_element@@Vid@@PAXHHPAUtagRECT@@HPAVCPoint@@HH@Z 00504280 f   DisplayList.obj
 0002:0000d350       ?AddSelector@CDisplayList@@QAEXPAVdl_element@@@Z 00504350 f   DisplayList.obj
 0002:0000d3b0       ?Add@CDisplayList@@QAEPAVdl_element@@Vid@@PAXHHHPAUtagRECT@@HPAVCPoint@@HH@Z 005043b0 f   DisplayList.obj
 0002:0000d840       ?HighLight@CDisplayList@@QAEXPAVdl_element@@@Z 00504840 f   DisplayList.obj
 0002:0000d8a0       ?HighlightAll@CDisplayList@@QAEHXZ 005048a0 f   DisplayList.obj
 0002:0000da50       ?GetHighlightedBounds@CDisplayList@@QAE?AUtagRECT@@PAH@Z 00504a50 f   DisplayList.obj
 0002:0000dd10       ?Cpy@CDisplayList@@QAEPAVdl_element@@PAV2@@Z 00504d10 f   DisplayList.obj
 0002:0000dec0       ?Move@CDisplayList@@QAEXPAVdl_element@@HH@Z 00504ec0 f   DisplayList.obj
 0002:0000dfa0       ?Get_Start@CDisplayList@@QAEPAVdl_element@@XZ 00504fa0 f   DisplayList.obj
 0002:0000dfe0       ?Get_End@CDisplayList@@QAEPAVdl_element@@XZ 00504fe0 f   DisplayList.obj
 0002:0000e020       ?Get_Rect@CDisplayList@@QAEPAUtagRECT@@PAVdl_element@@PAU2@@Z 00505020 f   DisplayList.obj
 0002:0000e0c0       ?Get_Points@CDisplayList@@QAEPAV?$CArray@VCPoint@@ABV1@@@PAVdl_element@@PAVCPoint@@PAHHH@Z 005050c0 f   DisplayList.obj
 0002:0000e210       ?Get_el_w@CDisplayList@@QAEHPAVdl_element@@@Z 00505210 f   DisplayList.obj
 0002:0000e260       ?Get_Selected@CDisplayList@@QAEHXZ 00505260 f   DisplayList.obj
 0002:0000e300       ?Set_RectGroup@CDisplayList@@QAEXPAVdl_element@@HHHH@Z 00505300 f   DisplayList.obj
 0002:0000e390       ?Get_RectGroup@CDisplayList@@QAEHPAVdl_element@@PAUtagRECT@@@Z 00505390 f   DisplayList.obj
 0002:0000e440       ?Get_Endpoints@CDisplayList@@QAEXPAVCPoint@@0@Z 00505440 f   DisplayList.obj
 0002:0000e4e0       ?Remove@CDisplayList@@QAE?AVid@@PAVdl_element@@@Z 005054e0 f   DisplayList.obj
 0002:0000e6b0       ??_Gdl_element@@QAEPAXI@Z  005056b0 f i DisplayList.obj
 0002:0000e720       ?Draw@CDisplayList@@QAEXPAVCDC@@H@Z 00505720 f   DisplayList.obj
 0002:00012df0       ??_H@YGXPAXIHP6EPAX0@Z@Z   00509df0 f i DisplayList.obj
 0002:00012e60       ?SetLayerRGB@CDisplayList@@QAEXHHHH@Z 00509e60 f   DisplayList.obj
 0002:00012ee0       ?SetLayerVisible@CDisplayList@@QAEXHH@Z 00509ee0 f   DisplayList.obj
 0002:00012f30       ?TestSelect@CDisplayList@@QAEPAXHHPAVid@@PAH0PAX0H@Z 00509f30 f   DisplayList.obj
 0002:000142b0       ??_Fid@@QAEXXZ             0050b2b0 f i DisplayList.obj
 0002:00014310       ?StartDraggingArray@CDisplayList@@QAEHPAVCDC@@HHH@Z 0050b310 f   DisplayList.obj
 0002:00014410       ?StartDraggingRectangle@CDisplayList@@QAEHPAVCDC@@HHHHHHH@Z 0050b410 f   DisplayList.obj
 0002:000145c0       ?StartDraggingRatLine@CDisplayList@@QAEHPAVCDC@@HHHHHHH@Z 0050b5c0 f   DisplayList.obj
 0002:000146d0       ?SetDragArcStyle@CDisplayList@@QAEXH@Z 0050b6d0 f   DisplayList.obj
 0002:00014760       ?StartDraggingArc@CDisplayList@@QAEHPAVCDC@@HHHHHHHH@Z 0050b760 f   DisplayList.obj
 0002:000148d0       ?StartDraggingLine@CDisplayList@@QAEHPAVCDC@@HHHHHHHHHHHH@Z 0050b8d0 f   DisplayList.obj
 0002:00014a70       ?StartDraggingLineVertex@CDisplayList@@QAEHPAVCDC@@HHHHHHHHHHHHHHHHH@Z 0050ba70 f   DisplayList.obj
 0002:00014cd0       ?StartDraggingLineSegment@CDisplayList@@QAEHPAVCDC@@HHHHHHHHHHHHHHHHHHHHHHH@Z 0050bcd0 f   DisplayList.obj
 0002:00014f70       ?Drag@CDisplayList@@QAEXPAVCDC@@HH@Z 0050bf70 f   DisplayList.obj
 0002:00017740       ?StopDragging@CDisplayList@@QAEHXZ 0050e740 f   DisplayList.obj
 0002:000177d0       ?ChangeRoutingLayer@CDisplayList@@QAEXPAVCDC@@HHH@Z 0050e7d0 f   DisplayList.obj
 0002:00017fa0       ?IncrementDragAngle@CDisplayList@@QAEXPAVCDC@@@Z 0050efa0 f   DisplayList.obj
 0002:00018540       ?FlipDragSide@CDisplayList@@QAEXPAVCDC@@@Z 0050f540 f   DisplayList.obj
 0002:00018b10       ?GetDragSide@CDisplayList@@QAEHXZ 0050fb10 f   DisplayList.obj
 0002:00018b50       ?GetDragAngle@CDisplayList@@QAEHXZ 0050fb50 f   DisplayList.obj
 0002:00018b90       ?MakeDragLineArray@CDisplayList@@QAEHH@Z 0050fb90 f   DisplayList.obj
 0002:00018c70       ?MakeDragRatlineArray@CDisplayList@@QAEHHH@Z 0050fc70 f   DisplayList.obj
 0002:00018de0       ?AddDragLine@CDisplayList@@QAEHVCPoint@@0@Z 0050fde0 f   DisplayList.obj
 0002:00018f10       ?AddDragRatline@CDisplayList@@QAEHVCPoint@@0@Z 0050ff10 f   DisplayList.obj
 0002:00019030       ?CancelHighLight@CDisplayList@@QAEHH@Z 00510030 f   DisplayList.obj
 0002:00019180       ?SetDCToWorldCoords@CDisplayList@@QAEXPAVCDC@@00HH@Z 00510180 f   DisplayList.obj
 0002:00019560       ?SetVisibleGrid@CDisplayList@@QAEXHN@Z 00510560 f   DisplayList.obj
 0002:000195c0       ?SetStatic@CDisplayList@@QAEXH@Z 005105c0 f   DisplayList.obj
 0002:000196a0       ?SetUpCrosshairs@CDisplayList@@QAEXHHH@Z 005106a0 f   DisplayList.obj
 0002:000199d0       ?WindowToPCB@CDisplayList@@QAE?AVCPoint@@V2@@Z 005109d0 f   DisplayList.obj
 0002:00019b10       ?ScreenToPCB@CDisplayList@@QAE?AVCPoint@@V2@@Z 00510b10 f   DisplayList.obj
 0002:00019c00       ?PCBToScreen@CDisplayList@@QAE?AVCPoint@@V2@@Z 00510c00 f   DisplayList.obj
 0002:00019d50       ?GetWindowRect@CDisplayList@@QAE?AUtagRECT@@XZ 00510d50 f   DisplayList.obj
 0002:00019e40       ??0?$CArray@VCPoint@@ABV1@@@QAE@XZ 00510e40 f i DisplayList.obj
 0002:00019ed0       ?GetSize@?$CArray@VCPoint@@ABV1@@@QBEHXZ 00510ed0 f i DisplayList.obj
 0002:00019f10       ??A?$CArray@VCPoint@@ABV1@@@QAEAAVCPoint@@H@Z 00510f10 f i DisplayList.obj
 0002:00019f70       ?ElementAt@?$CArray@VCPoint@@ABV1@@@QAEAAVCPoint@@H@Z 00510f70 f i DisplayList.obj
 0002:0001a020       ??8@YAHVid@@0@Z            00511020 f i DisplayList.obj
 0002:0001a0b0       ??1?$CArray@VCPoint@@ABV1@@@UAE@XZ 005110b0 f i DisplayList.obj
 0002:0001a1c0       ?Serialize@?$CArray@VCPoint@@ABV1@@@UAEXAAVCArchive@@@Z 005111c0 f i DisplayList.obj
 0002:0001a290       ?Dump@?$CArray@VCPoint@@ABV1@@@UBEXAAVCDumpContext@@@Z 00511290 f i DisplayList.obj
 0002:0001a370       ?AssertValid@?$CArray@VCPoint@@ABV1@@@UBEXXZ 00511370 f i DisplayList.obj
 0002:0001a4d0       ??_G?$CArray@VCPoint@@ABV1@@@UAEPAXI@Z 005114d0 f i DisplayList.obj
 0002:0001a4d0       ??_E?$CArray@VCPoint@@ABV1@@@UAEPAXI@Z 005114d0 f i DisplayList.obj
 0002:0001a540       ?SetSize@?$CArray@VCPoint@@ABV1@@@QAEXHH@Z 00511540 f i DisplayList.obj
 0002:0001ab60       ??2@YAPAXIPAX@Z            00511b60 f i DisplayList.obj
 0002:0001aba0       ?memcpy_s@Checked@ATL@@YAXPAXIPBXI@Z 00511ba0 f i DisplayList.obj
 0002:0001ac20       ?AfxCrtErrorCheck@@YAHH@Z  00511c20 f i DisplayList.obj
 0002:0001ad30       ??$SerializeElements@VCPoint@@@@YGXAAVCArchive@@PAVCPoint@@H@Z 00511d30 f i DisplayList.obj
 0002:0001af20       ??$DumpElements@VCPoint@@@@YGXAAVCDumpContext@@PBVCPoint@@H@Z 00511f20 f i DisplayList.obj
 0002:0001b010       ?_GetBaseClass@CDlgAddMaskCutout@@KGPAUCRuntimeClass@@XZ 00512010 f   DlgAddMaskCutout.obj
 0002:0001b060       ?GetThisClass@CDlgAddMaskCutout@@SGPAUCRuntimeClass@@XZ 00512060 f   DlgAddMaskCutout.obj
 0002:0001b0a0       ?GetRuntimeClass@CDlgAddMaskCutout@@UBEPAUCRuntimeClass@@XZ 005120a0 f   DlgAddMaskCutout.obj
 0002:0001b0e0       ??0CDlgAddMaskCutout@@QAE@PAVCWnd@@@Z 005120e0 f   DlgAddMaskCutout.obj
 0002:0001b1f0       ??_GCDlgAddMaskCutout@@UAEPAXI@Z 005121f0 f i DlgAddMaskCutout.obj
 0002:0001b1f0       ??_ECDlgAddMaskCutout@@UAEPAXI@Z 005121f0 f i DlgAddMaskCutout.obj
 0002:0001b260       ??1CDlgAddMaskCutout@@UAE@XZ 00512260 f   DlgAddMaskCutout.obj
 0002:0001b360       ?Initialize@CDlgAddMaskCutout@@QAEXHH@Z 00512360 f   DlgAddMaskCutout.obj
 0002:0001b3c0       ?DoDataExchange@CDlgAddMaskCutout@@MAEXPAVCDataExchange@@@Z 005123c0 f   DlgAddMaskCutout.obj
 0002:0001b740       ?GetMessageMap@CDlgAddMaskCutout@@MBEPBUAFX_MSGMAP@@XZ 00512740 f   DlgAddMaskCutout.obj
 0002:0001b790       ?GetThisMessageMap@CDlgAddMaskCutout@@KGPBUAFX_MSGMAP@@XZ 00512790 f   DlgAddMaskCutout.obj
 0002:0001b7d0       ?_GetBaseClass@CDlgAddMerge@@KGPAUCRuntimeClass@@XZ 005127d0 f   DlgAddMerge.obj
 0002:0001b820       ?GetThisClass@CDlgAddMerge@@SGPAUCRuntimeClass@@XZ 00512820 f   DlgAddMerge.obj
 0002:0001b860       ?GetRuntimeClass@CDlgAddMerge@@UBEPAUCRuntimeClass@@XZ 00512860 f   DlgAddMerge.obj
 0002:0001b8a0       ??0CDlgAddMerge@@QAE@PAVCWnd@@@Z 005128a0 f   DlgAddMerge.obj
 0002:0001ba00       ??_GCDlgAddMerge@@UAEPAXI@Z 00512a00 f i DlgAddMerge.obj
 0002:0001ba00       ??_ECDlgAddMerge@@UAEPAXI@Z 00512a00 f i DlgAddMerge.obj
 0002:0001ba70       ??1CDlgAddMerge@@UAE@XZ    00512a70 f   DlgAddMerge.obj
 0002:0001bb80       ?DoDataExchange@CDlgAddMerge@@MAEXPAVCDataExchange@@@Z 00512b80 f   DlgAddMerge.obj
 0002:0001c350       ?GetMessageMap@CDlgAddMerge@@MBEPBUAFX_MSGMAP@@XZ 00513350 f   DlgAddMerge.obj
 0002:0001c3a0       ?GetThisMessageMap@CDlgAddMerge@@KGPBUAFX_MSGMAP@@XZ 005133a0 f   DlgAddMerge.obj
 0002:0001c3e0       ??8ATL@@YA_NABV?$CStringT@DV?$StrTraitMFC_DLL@DV?$ChTraitsCRT@D@ATL@@@@@0@PBD@Z 005133e0 f i DlgAddMerge.obj
 0002:0001c450       ?GetIndex@Merge@@QAEHV?$CStringT@DV?$StrTraitMFC_DLL@DV?$ChTraitsCRT@D@ATL@@@@@ATL@@@Z 00513450 f i DlgAddMerge.obj
 0002:0001c5b0       ?GetMerge@Merge@@QAE?AV?$CStringT@DV?$StrTraitMFC_DLL@DV?$ChTraitsCRT@D@ATL@@@@@ATL@@H@Z 005135b0 f i DlgAddMerge.obj
 0002:0001c6a0       ?GetSize@Merge@@QAEHXZ     005136a0 f i DlgAddMerge.obj
 0002:0001c6e0       ??A?$CArray@V?$CStringT@DV?$StrTraitMFC_DLL@DV?$ChTraitsCRT@D@ATL@@@@@ATL@@ABV12@@@QAEAAV?$CStringT@DV?$StrTraitMFC_DLL@DV?$ChTraitsCRT@D@ATL@@@@@ATL@@H@Z 005136e0 f i DlgAddMerge.obj
 0002:0001c740       ?ElementAt@?$CArray@V?$CStringT@DV?$StrTraitMFC_DLL@DV?$ChTraitsCRT@D@ATL@@@@@ATL@@ABV12@@@QAEAAV?$CStringT@DV?$StrTraitMFC_DLL@DV?$ChTraitsCRT@D@ATL@@@@@ATL@@H@Z 00513740 f i DlgAddMerge.obj
 0002:0001c7f0       ?_GetBaseClass@CDlgAddNet@@KGPAUCRuntimeClass@@XZ 005137f0 f   DlgAddNet.obj
 0002:0001c840       ?GetThisClass@CDlgAddNet@@SGPAUCRuntimeClass@@XZ 00513840 f   DlgAddNet.obj
 0002:0001c880       ?GetRuntimeClass@CDlgAddNet@@UBEPAUCRuntimeClass@@XZ 00513880 f   DlgAddNet.obj
 0002:0001c8c0       ??0CDlgAddNet@@QAE@PAVCWnd@@@Z 005138c0 f   DlgAddNet.obj
 0002:0001c930       ??_ECDlgAddNet@@UAEPAXI@Z  00513930 f i DlgAddNet.obj
 0002:0001c930       ??_GCDlgAddNet@@UAEPAXI@Z  00513930 f i DlgAddNet.obj
 0002:0001c9a0       ??1CDlgAddNet@@UAE@XZ      005139a0 f   DlgAddNet.obj
 0002:0001ca00       ?DoDataExchange@CDlgAddNet@@MAEXPAVCDataExchange@@@Z 00513a00 f   DlgAddNet.obj
 0002:0001ca60       ?GetMessageMap@CDlgAddNet@@MBEPBUAFX_MSGMAP@@XZ 00513a60 f   DlgAddNet.obj
 0002:0001cab0       ?GetThisMessageMap@CDlgAddNet@@KGPBUAFX_MSGMAP@@XZ 00513ab0 f   DlgAddNet.obj
 0002:0001caf0       ?_GetBaseClass@CDlgAddPart@@KGPAUCRuntimeClass@@XZ 00513af0 f   DlgAddPart.obj
 0002:0001cb40       ?GetThisClass@CDlgAddPart@@SGPAUCRuntimeClass@@XZ 00513b40 f   DlgAddPart.obj
 0002:0001cb80       ?GetRuntimeClass@CDlgAddPart@@UBEPAUCRuntimeClass@@XZ 00513b80 f   DlgAddPart.obj
 0002:0001cbc0       ??0CDlgAddPart@@QAE@PAVCWnd@@@Z 00513bc0 f   DlgAddPart.obj
 0002:0001cef0       ??_GCDlgAddPart@@UAEPAXI@Z 00513ef0 f i DlgAddPart.obj
 0002:0001cef0       ??_ECDlgAddPart@@UAEPAXI@Z 00513ef0 f i DlgAddPart.obj
 0002:0001cf60       ??1CDlgAddPart@@UAE@XZ     00513f60 f   DlgAddPart.obj
 0002:0001d250       ?DoDataExchange@CDlgAddPart@@MAEXPAVCDataExchange@@@Z 00514250 f   DlgAddPart.obj
 0002:0001f6b0       ?GetNewName@CDlgDupFootprintName@@QAEPAV?$CStringT@DV?$StrTraitMFC_DLL@DV?$ChTraitsCRT@D@ATL@@@@@ATL@@XZ 005166b0 f i DlgAddPart.obj
 0002:0001f6f0       ?GetMessageMap@CDlgAddPart@@MBEPBUAFX_MSGMAP@@XZ 005166f0 f   DlgAddPart.obj
 0002:0001f740       ?GetThisMessageMap@CDlgAddPart@@KGPBUAFX_MSGMAP@@XZ 00516740 f   DlgAddPart.obj
 0002:0001f780       ?Initialize@CDlgAddPart@@QAEXPAV?$CArray@Upart_info@@ABU1@@@HHHHHHPAVCMapStringToPtr@@PAVCFootLibFolderMap@@HPAVCDlgLog@@PAV?$CStringT@DV?$StrTraitMFC_DLL@DV?$ChTraitsCRT@D@ATL@@@@@ATL@@@Z 00516780 f   DlgAddPart.obj
 0002:0001f920       ?GetDragFlag@CDlgAddPart@@QAEHXZ 00516920 f   DlgAddPart.obj
 0002:0001f960       ?OnInitDialog@CDlgAddPart@@EAEHXZ 00516960 f   DlgAddPart.obj
 0002:000208c0       ?InitPartLibTree@CDlgAddPart@@QAEXV?$CStringT@DV?$StrTraitMFC_DLL@DV?$ChTraitsCRT@D@ATL@@@@@ATL@@@Z 005178c0 f   DlgAddPart.obj
 0002:00021280       ?OnTvnSelchangedPartLibTree@CDlgAddPart@@AAEXPAUtagNMHDR@@PAJ@Z 00518280 f   DlgAddPart.obj
 0002:00021c80       ?OnBnClickedRadioDrag@CDlgAddPart@@AAEXXZ 00518c80 f   DlgAddPart.obj
 0002:00021d40       ?OnBnClickedRadioSet@CDlgAddPart@@AAEXXZ 00518d40 f   DlgAddPart.obj
 0002:00021e00       ?OnBnClickedRadioOffBoard@CDlgAddPart@@AAEXXZ 00518e00 f   DlgAddPart.obj
 0002:00021ec0       ?OnEditFootChange@CDlgAddPart@@AAEXXZ 00518ec0 f   DlgAddPart.obj
 0002:00022040       ?OnBnClickedOk@CDlgAddPart@@AAEXXZ 00519040 f   DlgAddPart.obj
 0002:00022200       ?OnBnClickedCancel@CDlgAddPart@@AAEXXZ 00519200 f   DlgAddPart.obj
 0002:000223d0       ?OnCbnSelchangeComboAddPartUnits@CDlgAddPart@@AAEXXZ 005193d0 f   DlgAddPart.obj
 0002:00022470       ?GetFields@CDlgAddPart@@QAEXXZ 00519470 f   DlgAddPart.obj
 0002:000226f0       ?SetFields@CDlgAddPart@@QAEXXZ 005196f0 f   DlgAddPart.obj
 0002:00022950       ?OnBnClickedButtonBrowse@CDlgAddPart@@AAEXXZ 00519950 f   DlgAddPart.obj
 0002:00022c80       ??1CPathDialog@@QAE@XZ     00519c80 f i DlgAddPart.obj
 0002:00022ce0       ??1CPathDialogSub@@UAE@XZ  00519ce0 f i DlgAddPart.obj
 0002:00022d30       ?OnStnClickedStatic2@CDlgAddPart@@QAEXXZ 00519d30 f   DlgAddPart.obj
 0002:00022d70       ??HATL@@YA?AV?$CStringT@DV?$StrTraitMFC_DLL@DV?$ChTraitsCRT@D@ATL@@@@@0@ABV10@0@Z 00519d70 f i DlgAddPart.obj
 0002:00022f30       ??8ATL@@YA_NABV?$CStringT@DV?$StrTraitMFC_DLL@DV?$ChTraitsCRT@D@ATL@@@@@0@0@Z 00519f30 f i DlgAddPart.obj
 0002:00022fb0       ??9ATL@@YA_NABV?$CStringT@DV?$StrTraitMFC_DLL@DV?$ChTraitsCRT@D@ATL@@@@@0@0@Z 00519fb0 f i DlgAddPart.obj
 0002:00023030       ?GetSize@?$CArray@Vpadstack@@ABV1@@@QBEHXZ 0051a030 f i DlgAddPart.obj
 0002:00023070       ??A?$CArray@Vpadstack@@ABV1@@@QAEAAVpadstack@@H@Z 0051a070 f i DlgAddPart.obj
 0002:000230d0       ?GetSize@?$CArray@Upart_info@@ABU1@@@QBEHXZ 0051a0d0 f i DlgAddPart.obj
 0002:00023110       ?SetSize@?$CArray@Upart_info@@ABU1@@@QAEXHH@Z 0051a110 f i DlgAddPart.obj
 0002:00023770       ?GetAt@?$CArray@Upart_info@@ABU1@@@QAEAAUpart_info@@H@Z 0051a770 f i DlgAddPart.obj
 0002:00023820       ??A?$CArray@Upart_info@@ABU1@@@QAEAAUpart_info@@H@Z 0051a820 f i DlgAddPart.obj
 0002:00023880       ??_Gpart_info@@QAEPAXI@Z   0051a880 f i DlgAddPart.obj
 0002:000238f0       ??0part_info@@QAE@XZ       0051a8f0 f i DlgAddPart.obj
 0002:00023970       ??1part_info@@QAE@XZ       0051a970 f i DlgAddPart.obj
 0002:000239f0       ?ElementAt@?$CArray@Vpadstack@@ABV1@@@QAEAAVpadstack@@H@Z 0051a9f0 f i DlgAddPart.obj
 0002:00023aa0       ?ElementAt@?$CArray@Upart_info@@ABU1@@@QAEAAUpart_info@@H@Z 0051aaa0 f i DlgAddPart.obj
 0002:00023b50       ?SetExpanded@CFootLibFolder@@QAEXHH@Z 0051ab50 f i DlgAddPart.obj
 0002:00023bc0       ??A?$CArray@VCFootLib@@ABV1@@@QAEAAVCFootLib@@H@Z 0051abc0 f i DlgAddPart.obj
 0002:00023c20       ?ElementAt@?$CArray@VCFootLib@@ABV1@@@QAEAAVCFootLib@@H@Z 0051ac20 f i DlgAddPart.obj
 0002:00023cd0       ?ConvertMaskCurSelToShape@@YAHH@Z 0051acd0 f   DlgAddPin.obj
 0002:00023d20       ?ConvertMaskShapeToCurSel@@YAHH@Z 0051ad20 f   DlgAddPin.obj
 0002:00023d70       ?GetNameValue@@YANPAV?$CStringT@DV?$StrTraitMFC_DLL@DV?$ChTraitsCRT@D@ATL@@@@@ATL@@@Z 0051ad70 f   DlgAddPin.obj
 0002:00023eb0       ?SortByName@@YAXPAV?$CArray@V?$CStringT@DV?$StrTraitMFC_DLL@DV?$ChTraitsCRT@D@ATL@@@@@ATL@@ABV12@@@@Z 0051aeb0 f   DlgAddPin.obj
 0002:000240e0       ?_GetBaseClass@CDlgAddPin@@KGPAUCRuntimeClass@@XZ 0051b0e0 f   DlgAddPin.obj
 0002:00024130       ?GetThisClass@CDlgAddPin@@SGPAUCRuntimeClass@@XZ 0051b130 f   DlgAddPin.obj
 0002:00024170       ?GetRuntimeClass@CDlgAddPin@@UBEPAUCRuntimeClass@@XZ 0051b170 f   DlgAddPin.obj
 0002:000241b0       ??0CDlgAddPin@@QAE@PAVCWnd@@@Z 0051b1b0 f   DlgAddPin.obj
 0002:000249d0       ??_ECDlgAddPin@@UAEPAXI@Z  0051b9d0 f i DlgAddPin.obj
 0002:000249d0       ??_GCDlgAddPin@@UAEPAXI@Z  0051b9d0 f i DlgAddPin.obj
 0002:00024a40       ??1CDlgAddPin@@UAE@XZ      0051ba40 f   DlgAddPin.obj
 0002:00024fd0       ?DoDataExchange@CDlgAddPin@@MAEXPAVCDataExchange@@@Z 0051bfd0 f   DlgAddPin.obj
 0002:00029010       ?GetMessageMap@CDlgAddPin@@MBEPBUAFX_MSGMAP@@XZ 00520010 f   DlgAddPin.obj
 0002:00029060       ?GetThisMessageMap@CDlgAddPin@@KGPBUAFX_MSGMAP@@XZ 00520060 f   DlgAddPin.obj
 0002:000290a0       ?InitDialog@CDlgAddPin@@QAEXPAVCShape@@HHH@Z 005200a0 f   DlgAddPin.obj
 0002:000291b0       ?OnBnClickedRadioAddPin@CDlgAddPin@@QAEXXZ 005201b0 f   DlgAddPin.obj
 0002:00029340       ?OnBnClickedRadioAddRow@CDlgAddPin@@QAEXXZ 00520340 f   DlgAddPin.obj
 0002:000294b0       ?OnBnClickedRadioDragPin@CDlgAddPin@@QAEXXZ 005204b0 f   DlgAddPin.obj
 0002:00029560       ?OnBnClickedRadioSetPinPos@CDlgAddPin@@QAEXXZ 00520560 f   DlgAddPin.obj
 0002:00029630       ?OnBnClickedCheckInnerSameAs@CDlgAddPin@@QAEXXZ 00520630 f   DlgAddPin.obj
 0002:00029690       ?OnBnClickedCheckBottomSameAs@CDlgAddPin@@QAEXXZ 00520690 f   DlgAddPin.obj
 0002:000296f0       ?OnCbnSelchangeComboPinUnits@CDlgAddPin@@QAEXXZ 005206f0 f   DlgAddPin.obj
 0002:00029790       ?SetFields@CDlgAddPin@@IAEXXZ 00520790 f   DlgAddPin.obj
 0002:0002af80       ?GetFields@CDlgAddPin@@IAEXXZ 00521f80 f   DlgAddPin.obj
 0002:0002c3d0       ?OnChange@CDlgAddPin@@QAEXXZ 005233d0 f   DlgAddPin.obj
 0002:0002c430       ?OnChangeTopPadParam@CDlgAddPin@@QAEXXZ 00523430 f   DlgAddPin.obj
 0002:0002c780       ?OnBnClickedCheckBottomSameAs2@CDlgAddPin@@QAEXXZ 00523780 f   DlgAddPin.obj
 0002:0002c7c0       ?InsertAt@?$CArray@Vpadstack@@ABV1@@@QAEXHABVpadstack@@H@Z 005237c0 f i DlgAddPin.obj
 0002:0002cb10       ??3@YAXPAX0@Z              00523b10 f i DlgAddPin.obj
 0002:0002cb40       ?RemoveAt@?$CArray@Vpadstack@@ABV1@@@QAEXHH@Z 00523b40 f i DlgAddPin.obj
 0002:0002cd20       ??4padstack@@QAEAAV0@ABV0@@Z 00523d20 f i DlgAddPin.obj
 0002:0002cfb0       ?memmove_s@Checked@ATL@@YAXPAXIPBXI@Z 00523fb0 f i DlgAddPin.obj
 0002:0002d030       ??0?$CArray@V?$CStringT@DV?$StrTraitMFC_DLL@DV?$ChTraitsCRT@D@ATL@@@@@ATL@@ABV12@@@QAE@XZ 00524030 f i DlgAddPin.obj
 0002:0002d0c0       ?GetSize@?$CArray@V?$CStringT@DV?$StrTraitMFC_DLL@DV?$ChTraitsCRT@D@ATL@@@@@ATL@@ABV12@@@QBEHXZ 005240c0 f i DlgAddPin.obj
 0002:0002d100       ?SetSize@?$CArray@V?$CStringT@DV?$StrTraitMFC_DLL@DV?$ChTraitsCRT@D@ATL@@@@@ATL@@ABV12@@@QAEXHH@Z 00524100 f i DlgAddPin.obj
 0002:0002d780       ??1?$CArray@V?$CStringT@DV?$StrTraitMFC_DLL@DV?$ChTraitsCRT@D@ATL@@@@@ATL@@ABV12@@@UAE@XZ 00524780 f i DlgAddPin.obj
 0002:0002d8b0       ?Serialize@?$CArray@V?$CStringT@DV?$StrTraitMFC_DLL@DV?$ChTraitsCRT@D@ATL@@@@@ATL@@ABV12@@@UAEXAAVCArchive@@@Z 005248b0 f i DlgAddPin.obj
 0002:0002d980       ?Dump@?$CArray@V?$CStringT@DV?$StrTraitMFC_DLL@DV?$ChTraitsCRT@D@ATL@@@@@ATL@@ABV12@@@UBEXAAVCDumpContext@@@Z 00524980 f i DlgAddPin.obj
 0002:0002da60       ?AssertValid@?$CArray@V?$CStringT@DV?$StrTraitMFC_DLL@DV?$ChTraitsCRT@D@ATL@@@@@ATL@@ABV12@@@UBEXXZ 00524a60 f i DlgAddPin.obj
 0002:0002dbc0       ??_E?$CArray@V?$CStringT@DV?$StrTraitMFC_DLL@DV?$ChTraitsCRT@D@ATL@@@@@ATL@@ABV12@@@UAEPAXI@Z 00524bc0 f i DlgAddPin.obj
 0002:0002dbc0       ??_G?$CArray@V?$CStringT@DV?$StrTraitMFC_DLL@DV?$ChTraitsCRT@D@ATL@@@@@ATL@@ABV12@@@UAEPAXI@Z 00524bc0 f i DlgAddPin.obj
 0002:0002dc30       ??_G?$CStringT@DV?$StrTraitMFC_DLL@DV?$ChTraitsCRT@D@ATL@@@@@ATL@@QAEPAXI@Z 00524c30 f i DlgAddPin.obj
 0002:0002dcb0       ??_Gpadstack@@QAEPAXI@Z    00524cb0 f i DlgAddPin.obj
 0002:0002dd20       ??1padstack@@QAE@XZ        00524d20 f i DlgAddPin.obj
 0002:0002dda0       ??$DumpElements@V?$CStringT@DV?$StrTraitMFC_DLL@DV?$ChTraitsCRT@D@ATL@@@@@ATL@@@@YGXAAVCDumpContext@@PBV?$CStringT@DV?$StrTraitMFC_DLL@DV?$ChTraitsCRT@D@ATL@@@@@ATL@@H@Z 00524da0 f i DlgAddPin.obj
 0002:0002de90       ?SetSize@?$CArray@Vpadstack@@ABV1@@@QAEXHH@Z 00524e90 f i DlgAddPin.obj
 0002:0002e5e0       ?_GetBaseClass@CDlgAddPoly@@KGPAUCRuntimeClass@@XZ 005255e0 f   DlgAddPoly.obj
 0002:0002e630       ?GetThisClass@CDlgAddPoly@@SGPAUCRuntimeClass@@XZ 00525630 f   DlgAddPoly.obj
 0002:0002e670       ?GetRuntimeClass@CDlgAddPoly@@UBEPAUCRuntimeClass@@XZ 00525670 f   DlgAddPoly.obj
 0002:0002e6b0       ??0CDlgAddPoly@@QAE@PAVCWnd@@@Z 005256b0 f   DlgAddPoly.obj
 0002:0002e7d0       ??_ECDlgAddPoly@@UAEPAXI@Z 005257d0 f i DlgAddPoly.obj
 0002:0002e7d0       ??_GCDlgAddPoly@@UAEPAXI@Z 005257d0 f i DlgAddPoly.obj
 0002:0002e840       ??1CDlgAddPoly@@UAE@XZ     00525840 f   DlgAddPoly.obj
 0002:0002e940       ?DoDataExchange@CDlgAddPoly@@MAEXPAVCDataExchange@@@Z 00525940 f   DlgAddPoly.obj
 0002:0002ebf0       ?Initialize@CDlgAddPoly@@QAEXHHHHH@Z 00525bf0 f   DlgAddPoly.obj
 0002:0002eca0       ?GetMessageMap@CDlgAddPoly@@MBEPBUAFX_MSGMAP@@XZ 00525ca0 f   DlgAddPoly.obj
 0002:0002ecf0       ?GetThisMessageMap@CDlgAddPoly@@KGPBUAFX_MSGMAP@@XZ 00525cf0 f   DlgAddPoly.obj
 0002:0002ed30       ?GetFields@CDlgAddPoly@@AAEXXZ 00525d30 f   DlgAddPoly.obj
 0002:0002eef0       ?SetFields@CDlgAddPoly@@AAEXXZ 00525ef0 f   DlgAddPoly.obj
 0002:0002f0b0       ?OnCbnSelchangeComboAddPolyUnits@CDlgAddPoly@@AAEXXZ 005260b0 f   DlgAddPoly.obj
 0002:0002f150       ?_GetBaseClass@CDlgAddText@@KGPAUCRuntimeClass@@XZ 00526150 f   DlgAddText.obj
 0002:0002f1a0       ?GetThisClass@CDlgAddText@@SGPAUCRuntimeClass@@XZ 005261a0 f   DlgAddText.obj
 0002:0002f1e0       ?GetRuntimeClass@CDlgAddText@@UBEPAUCRuntimeClass@@XZ 005261e0 f   DlgAddText.obj
 0002:0002f220       ??0CDlgAddText@@QAE@PAVCWnd@@@Z 00526220 f   DlgAddText.obj
 0002:0002f450       ??_ECDlgAddText@@UAEPAXI@Z 00526450 f i DlgAddText.obj
 0002:0002f450       ??_GCDlgAddText@@UAEPAXI@Z 00526450 f i DlgAddText.obj
 0002:0002f4c0       ??1CDlgAddText@@UAE@XZ     005264c0 f   DlgAddText.obj
 0002:0002f6b0       ?DoDataExchange@CDlgAddText@@MAEXPAVCDataExchange@@@Z 005266b0 f   DlgAddText.obj
 0002:0002fa30       ?GetMessageMap@CDlgAddText@@MBEPBUAFX_MSGMAP@@XZ 00526a30 f   DlgAddText.obj
 0002:0002fa80       ?GetThisMessageMap@CDlgAddText@@KGPBUAFX_MSGMAP@@XZ 00526a80 f   DlgAddText.obj
 0002:0002fac0       ?Initialize@CDlgAddText@@QAEXHHHPAV?$CStringT@DV?$StrTraitMFC_DLL@DV?$ChTraitsCRT@D@ATL@@@@@ATL@@HHHHHHHH@Z 00526ac0 f   DlgAddText.obj
 0002:0002fce0       ?OnInitDialog@CDlgAddText@@UAEHXZ 00526ce0 f   DlgAddText.obj
 0002:0002fef0       ?OnBnClickedSetWidth@CDlgAddText@@QAEXXZ 00526ef0 f   DlgAddText.obj
 0002:0002ff50       ?OnBnClickedDefWidth@CDlgAddText@@QAEXXZ 00526f50 f   DlgAddText.obj
 0002:0002ffb0       ?OnEnChangeEditHeight@CDlgAddText@@QAEXXZ 00526fb0 f   DlgAddText.obj
 0002:00030250       ?OnBnClickedOk@CDlgAddText@@QAEXXZ 00527250 f   DlgAddText.obj
 0002:00030350       ?OnBnClickedSetPosition@CDlgAddText@@QAEXXZ 00527350 f   DlgAddText.obj
 0002:000303b0       ?OnBnClickedDrag@CDlgAddText@@QAEXXZ 005273b0 f   DlgAddText.obj
 0002:00030410       ?OnCbnSelchangeComboAddTextUnits@CDlgAddText@@QAEXXZ 00527410 f   DlgAddText.obj
 0002:000304d0       ?GetFields@CDlgAddText@@QAEXXZ 005274d0 f   DlgAddText.obj
 0002:00030870       ?SetFields@CDlgAddText@@QAEXXZ 00527870 f   DlgAddText.obj
 0002:00030d60       ?OnLbnSelchangeListLayer@CDlgAddText@@QAEXXZ 00527d60 f   DlgAddText.obj
 0002:00030dc0       ?_GetBaseClass@CDlgAddWidth@@KGPAUCRuntimeClass@@XZ 00527dc0 f   DlgAddWidth.obj
 0002:00030e10       ?GetThisClass@CDlgAddWidth@@SGPAUCRuntimeClass@@XZ 00527e10 f   DlgAddWidth.obj
 0002:00030e50       ?GetRuntimeClass@CDlgAddWidth@@UBEPAUCRuntimeClass@@XZ 00527e50 f   DlgAddWidth.obj
 0002:00030e90       ??0CDlgAddWidth@@QAE@PAVCWnd@@@Z 00527e90 f   DlgAddWidth.obj
 0002:00030f00       ??_ECDlgAddWidth@@UAEPAXI@Z 00527f00 f i DlgAddWidth.obj
 0002:00030f00       ??_GCDlgAddWidth@@UAEPAXI@Z 00527f00 f i DlgAddWidth.obj
 0002:00030f70       ??1CDlgAddWidth@@UAE@XZ    00527f70 f   DlgAddWidth.obj
 0002:00030fd0       ?DoDataExchange@CDlgAddWidth@@MAEXPAVCDataExchange@@@Z 00527fd0 f   DlgAddWidth.obj
 0002:00031380       ?GetMessageMap@CDlgAddWidth@@MBEPBUAFX_MSGMAP@@XZ 00528380 f   DlgAddWidth.obj
 0002:000313d0       ?GetThisMessageMap@CDlgAddWidth@@KGPBUAFX_MSGMAP@@XZ 005283d0 f   DlgAddWidth.obj
 0002:00031410       ?_GetBaseClass@DlgAreaLayer@@KGPAUCRuntimeClass@@XZ 00528410 f   DlgAreaLayer.obj
 0002:00031460       ?GetThisClass@DlgAreaLayer@@SGPAUCRuntimeClass@@XZ 00528460 f   DlgAreaLayer.obj
 0002:000314a0       ?GetRuntimeClass@DlgAreaLayer@@UBEPAUCRuntimeClass@@XZ 005284a0 f   DlgAreaLayer.obj
 0002:000314e0       ??0DlgAreaLayer@@QAE@PAVCWnd@@@Z 005284e0 f   DlgAreaLayer.obj
 0002:000315b0       ??_EDlgAreaLayer@@UAEPAXI@Z 005285b0 f i DlgAreaLayer.obj
 0002:000315b0       ??_GDlgAreaLayer@@UAEPAXI@Z 005285b0 f i DlgAreaLayer.obj
 0002:00031620       ??1DlgAreaLayer@@UAE@XZ    00528620 f   DlgAreaLayer.obj
 0002:000316e0       ?DoDataExchange@DlgAreaLayer@@MAEXPAVCDataExchange@@@Z 005286e0 f   DlgAreaLayer.obj
 0002:00031800       ?GetMessageMap@DlgAreaLayer@@MBEPBUAFX_MSGMAP@@XZ 00528800 f   DlgAreaLayer.obj
 0002:00031850       ?GetThisMessageMap@DlgAreaLayer@@KGPBUAFX_MSGMAP@@XZ 00528850 f   DlgAreaLayer.obj
 0002:00031890       ?Initialize@DlgAreaLayer@@QAEXH@Z 00528890 f   DlgAreaLayer.obj
 0002:000318e0       ?_GetBaseClass@DlgAssignNet@@KGPAUCRuntimeClass@@XZ 005288e0 f   DlgAssignNet.obj
 0002:00031930       ?GetThisClass@DlgAssignNet@@SGPAUCRuntimeClass@@XZ 00528930 f   DlgAssignNet.obj
 0002:00031970       ?GetRuntimeClass@DlgAssignNet@@UBEPAUCRuntimeClass@@XZ 00528970 f   DlgAssignNet.obj
 0002:000319b0       ??0DlgAssignNet@@QAE@PAVCWnd@@@Z 005289b0 f   DlgAssignNet.obj
 0002:00031b30       ??_EDlgAssignNet@@UAEPAXI@Z 00528b30 f i DlgAssignNet.obj
 0002:00031b30       ??_GDlgAssignNet@@UAEPAXI@Z 00528b30 f i DlgAssignNet.obj
 0002:00031ba0       ??1DlgAssignNet@@UAE@XZ    00528ba0 f   DlgAssignNet.obj
 0002:00031ca0       ?DoDataExchange@DlgAssignNet@@MAEXPAVCDataExchange@@@Z 00528ca0 f   DlgAssignNet.obj
 0002:000324c0       ?GetMessageMap@DlgAssignNet@@MBEPBUAFX_MSGMAP@@XZ 005294c0 f   DlgAssignNet.obj
 0002:00032510       ?GetThisMessageMap@DlgAssignNet@@KGPBUAFX_MSGMAP@@XZ 00529510 f   DlgAssignNet.obj
 0002:00032550       ?OnBnClickedButtonNewNet@DlgAssignNet@@QAEXXZ 00529550 f   DlgAssignNet.obj
 0002:00032730       ?OnBnClickedCancel@DlgAssignNet@@QAEXXZ 00529730 f   DlgAssignNet.obj
 0002:000327b0       ??HATL@@YA?AV?$CStringT@DV?$StrTraitMFC_DLL@DV?$ChTraitsCRT@D@ATL@@@@@0@ABV10@PBD@Z 005297b0 f i DlgAssignNet.obj
 0002:00032960       ??HATL@@YA?AV?$CStringT@DV?$StrTraitMFC_DLL@DV?$ChTraitsCRT@D@ATL@@@@@0@PBDABV10@@Z 00529960 f i DlgAssignNet.obj
 0002:00032b10       ??A?$CArray@Vcpin@@ABV1@@@QAEAAVcpin@@H@Z 00529b10 f i DlgAssignNet.obj
 0002:00032b70       ?ElementAt@?$CArray@Vcpin@@ABV1@@@QAEAAVcpin@@H@Z 00529b70 f i DlgAssignNet.obj
 0002:00032c20       ?_GetBaseClass@CDlgCAD@@KGPAUCRuntimeClass@@XZ 00529c20 f   DlgCAD.obj
 0002:00032c70       ?GetThisClass@CDlgCAD@@SGPAUCRuntimeClass@@XZ 00529c70 f   DlgCAD.obj
 0002:00032cb0       ?GetRuntimeClass@CDlgCAD@@UBEPAUCRuntimeClass@@XZ 00529cb0 f   DlgCAD.obj
 0002:00032cf0       ??0CDlgCAD@@QAE@PAVCWnd@@@Z 00529cf0 f   DlgCAD.obj
 0002:00033360       ??_GCDlgCAD@@UAEPAXI@Z     0052a360 f i DlgCAD.obj
 0002:00033360       ??_ECDlgCAD@@UAEPAXI@Z     0052a360 f i DlgCAD.obj
 0002:000333d0       ??1CDlgCAD@@UAE@XZ         0052a3d0 f   DlgCAD.obj
 0002:000339d0       ?DoDataExchange@CDlgCAD@@MAEXPAVCDataExchange@@@Z 0052a9d0 f   DlgCAD.obj
 0002:00034b60       ?GetMessageMap@CDlgCAD@@MBEPBUAFX_MSGMAP@@XZ 0052bb60 f   DlgCAD.obj
 0002:00034bb0       ?GetThisMessageMap@CDlgCAD@@KGPBUAFX_MSGMAP@@XZ 0052bbb0 f   DlgCAD.obj
 0002:00034bf0       ?Initialize@CDlgCAD@@QAEXNPAV?$CStringT@DV?$StrTraitMFC_DLL@DV?$ChTraitsCRT@D@ATL@@@@@ATL@@000HHHHHHHHHHHHHHHHHHHHHPAV?$CArray@VCPolyLine@@ABV1@@@PAHPAVCPartList@@PAVCNetList@@PAVCTextList@@PAVCDisplayList@@PAVMerge@@PAVCDlgLog@@@Z 0052bbf0 f   DlgCAD.obj
 0002:00034f70       ?OnBnClickedGo@CDlgCAD@@QAEXXZ 0052bf70 f   DlgCAD.obj
 0002:00037cf0       ?GetFields@CDlgCAD@@QAEXXZ 0052ecf0 f   DlgCAD.obj
 0002:00038de0       ?SetFields@CDlgCAD@@QAEXXZ 0052fde0 f   DlgCAD.obj
 0002:00039300       ?OnCbnSelchangeComboCadUnits@CDlgCAD@@QAEXXZ 00530300 f   DlgCAD.obj
 0002:000393a0       ?OnBnClickedCheckCadPilot@CDlgCAD@@QAEXXZ 005303a0 f   DlgCAD.obj
 0002:00039430       ?OnBnClickedCancel@CDlgCAD@@QAEXXZ 00530430 f   DlgCAD.obj
 0002:000394a0       ?OnBnClickedButtonDef@CDlgCAD@@QAEXXZ 005304a0 f   DlgCAD.obj
 0002:00039c10       ?OnBnClickedButtonFolder@CDlgCAD@@QAEXXZ 00530c10 f   DlgCAD.obj
 0002:00039e90       ?OnBnClickedThermalPins@CDlgCAD@@QAEXXZ 00530e90 f   DlgCAD.obj
 0002:00039f30       ?OnBnClickedThermalVias@CDlgCAD@@QAEXXZ 00530f30 f   DlgCAD.obj
 0002:00039f80       ?OnBnClickedRenderAllGerbers@CDlgCAD@@QAEXXZ 00530f80 f   DlgCAD.obj
 0002:00039ff0       ?OnBnClickedButtonDone@CDlgCAD@@QAEXXZ 00530ff0 f   DlgCAD.obj
 0002:0003a060       ?SetPinAnnularRing@CPartList@@QAEXH@Z 00531060 f i DlgCAD.obj
 0002:0003a0b0       ?SetViaAnnularRing@CNetList@@QAEXH@Z 005310b0 f i DlgCAD.obj
 0002:0003a100       ?_GetBaseClass@CDlgCentroid@@KGPAUCRuntimeClass@@XZ 00531100 f   DlgCentroid.obj
 0002:0003a150       ?GetThisClass@CDlgCentroid@@SGPAUCRuntimeClass@@XZ 00531150 f   DlgCentroid.obj
 0002:0003a190       ?GetRuntimeClass@CDlgCentroid@@UBEPAUCRuntimeClass@@XZ 00531190 f   DlgCentroid.obj
 0002:0003a1d0       ??0CDlgCentroid@@QAE@PAVCWnd@@@Z 005311d0 f   DlgCentroid.obj
 0002:0003a310       ??_GCDlgCentroid@@UAEPAXI@Z 00531310 f i DlgCentroid.obj
 0002:0003a310       ??_ECDlgCentroid@@UAEPAXI@Z 00531310 f i DlgCentroid.obj
 0002:0003a380       ??1CDlgCentroid@@UAE@XZ    00531380 f   DlgCentroid.obj
 0002:0003a4b0       ?DoDataExchange@CDlgCentroid@@MAEXPAVCDataExchange@@@Z 005314b0 f   DlgCentroid.obj
 0002:0003a680       ?GetMessageMap@CDlgCentroid@@MBEPBUAFX_MSGMAP@@XZ 00531680 f   DlgCentroid.obj
 0002:0003a6d0       ?GetThisMessageMap@CDlgCentroid@@KGPBUAFX_MSGMAP@@XZ 005316d0 f   DlgCentroid.obj
 0002:0003a710       ?Initialize@CDlgCentroid@@QAEXW4CENTROID_TYPE@@HHHH@Z 00531710 f   DlgCentroid.obj
 0002:0003a7a0       ?SetFields@CDlgCentroid@@QAEXXZ 005317a0 f   DlgCentroid.obj
 0002:0003aa90       ?GetFields@CDlgCentroid@@QAEXXZ 00531a90 f   DlgCentroid.obj
 0002:0003ac70       ?OnBnClickedDefault@CDlgCentroid@@QAEXXZ 00531c70 f   DlgCentroid.obj
 0002:0003ace0       ?OnBnClickedSet@CDlgCentroid@@QAEXXZ 00531ce0 f   DlgCentroid.obj
 0002:0003ad50       ?OnCbnSelChangeCombo1@CDlgCentroid@@QAEXXZ 00531d50 f   DlgCentroid.obj
 0002:0003adf0       ?_GetBaseClass@CDlgChangeLayer@@KGPAUCRuntimeClass@@XZ 00531df0 f   DlgChangeLayer.obj
 0002:0003ae40       ?GetThisClass@CDlgChangeLayer@@SGPAUCRuntimeClass@@XZ 00531e40 f   DlgChangeLayer.obj
 0002:0003ae80       ?GetRuntimeClass@CDlgChangeLayer@@UBEPAUCRuntimeClass@@XZ 00531e80 f   DlgChangeLayer.obj
 0002:0003aec0       ??0CDlgChangeLayer@@QAE@PAVCWnd@@@Z 00531ec0 f   DlgChangeLayer.obj
 0002:0003afd0       ??_GCDlgChangeLayer@@UAEPAXI@Z 00531fd0 f i DlgChangeLayer.obj
 0002:0003afd0       ??_ECDlgChangeLayer@@UAEPAXI@Z 00531fd0 f i DlgChangeLayer.obj
 0002:0003b040       ??1CDlgChangeLayer@@UAE@XZ 00532040 f   DlgChangeLayer.obj
 0002:0003b140       ?DoDataExchange@CDlgChangeLayer@@MAEXPAVCDataExchange@@@Z 00532140 f   DlgChangeLayer.obj
 0002:0003b3b0       ?GetMessageMap@CDlgChangeLayer@@MBEPBUAFX_MSGMAP@@XZ 005323b0 f   DlgChangeLayer.obj
 0002:0003b400       ?GetThisMessageMap@CDlgChangeLayer@@KGPBUAFX_MSGMAP@@XZ 00532400 f   DlgChangeLayer.obj
 0002:0003b440       ?Initialize@CDlgChangeLayer@@QAEXHHH@Z 00532440 f   DlgChangeLayer.obj
 0002:0003b4a0       ?_GetBaseClass@CDlgChooseNetName@@KGPAUCRuntimeClass@@XZ 005324a0 f   DlgChooseNetName.obj
 0002:0003b4f0       ?GetThisClass@CDlgChooseNetName@@SGPAUCRuntimeClass@@XZ 005324f0 f   DlgChooseNetName.obj
 0002:0003b530       ?GetRuntimeClass@CDlgChooseNetName@@UBEPAUCRuntimeClass@@XZ 00532530 f   DlgChooseNetName.obj
 0002:0003b570       ??0CDlgChooseNetName@@QAE@PAVCWnd@@@Z 00532570 f   DlgChooseNetName.obj
 0002:0003b660       ??_GCDlgChooseNetName@@UAEPAXI@Z 00532660 f i DlgChooseNetName.obj
 0002:0003b660       ??_ECDlgChooseNetName@@UAEPAXI@Z 00532660 f i DlgChooseNetName.obj
 0002:0003b6d0       ??1CDlgChooseNetName@@UAE@XZ 005326d0 f   DlgChooseNetName.obj
 0002:0003b7a0       ?DoDataExchange@CDlgChooseNetName@@MAEXPAVCDataExchange@@@Z 005327a0 f   DlgChooseNetName.obj
 0002:0003b980       ?Initialize@CDlgChooseNetName@@QAEXPAV?$CArray@V?$CStringT@DV?$StrTraitMFC_DLL@DV?$ChTraitsCRT@D@ATL@@@@@ATL@@ABV12@@@@Z 00532980 f   DlgChooseNetName.obj
 0002:0003b9d0       ?GetMessageMap@CDlgChooseNetName@@MBEPBUAFX_MSGMAP@@XZ 005329d0 f   DlgChooseNetName.obj
 0002:0003ba20       ?GetThisMessageMap@CDlgChooseNetName@@KGPBUAFX_MSGMAP@@XZ 00532a20 f   DlgChooseNetName.obj
 0002:0003ba60       ?_GetBaseClass@DlgDRC@@KGPAUCRuntimeClass@@XZ 00532a60 f   DlgDRC.obj
 0002:0003bab0       ?GetThisClass@DlgDRC@@SGPAUCRuntimeClass@@XZ 00532ab0 f   DlgDRC.obj
 0002:0003baf0       ?GetRuntimeClass@DlgDRC@@UBEPAUCRuntimeClass@@XZ 00532af0 f   DlgDRC.obj
 0002:0003bb30       ??0DlgDRC@@QAE@PAVCWnd@@@Z 00532b30 f   DlgDRC.obj
 0002:0003bd30       ??_EDlgDRC@@UAEPAXI@Z      00532d30 f i DlgDRC.obj
 0002:0003bd30       ??_GDlgDRC@@UAEPAXI@Z      00532d30 f i DlgDRC.obj
 0002:0003bda0       ??1DlgDRC@@UAE@XZ          00532da0 f   DlgDRC.obj
 0002:0003bf80       ?DoDataExchange@DlgDRC@@MAEXPAVCDataExchange@@@Z 00532f80 f   DlgDRC.obj
 0002:0003c1d0       ?GetMessageMap@DlgDRC@@MBEPBUAFX_MSGMAP@@XZ 005331d0 f   DlgDRC.obj
 0002:0003c220       ?GetThisMessageMap@DlgDRC@@KGPBUAFX_MSGMAP@@XZ 00533220 f   DlgDRC.obj
 0002:0003c260       ?Initialize@DlgDRC@@QAEXHPAUDesignRules@@PAVCPartList@@PAVCNetList@@PAVCTextList@@PAVDRErrorList@@HPAV?$CArray@VCPolyLine@@ABV1@@@HHPAVCDlgLog@@V?$CStringT@DV?$StrTraitMFC_DLL@DV?$ChTraitsCRT@D@ATL@@@@@ATL@@@Z 00533260 f   DlgDRC.obj
 0002:0003c400       ?GetFields@DlgDRC@@QAEXXZ  00533400 f   DlgDRC.obj
 0002:0003cd40       ?SetFields@DlgDRC@@QAEXXZ  00533d40 f   DlgDRC.obj
 0002:0003d580       ?OnCbnChangeUnits@DlgDRC@@QAEXXZ 00534580 f   DlgDRC.obj
 0002:0003d6e0       ?CheckDesign@DlgDRC@@QAEXXZ 005346e0 f   DlgDRC.obj
 0002:0003db00       ?OnBnClickedCancel@DlgDRC@@QAEXXZ 00534b00 f   DlgDRC.obj
 0002:0003db70       ?OnBnClickedOk@DlgDRC@@QAEXXZ 00534b70 f   DlgDRC.obj
 0002:0003dc00       ?OnBnClickedCheck@DlgDRC@@QAEXXZ 00534c00 f   DlgDRC.obj
 0002:0003dc50       ?_GetBaseClass@CDlgDupFootprintName@@KGPAUCRuntimeClass@@XZ 00534c50 f   DlgDupFootprintName.obj
 0002:0003dca0       ?GetThisClass@CDlgDupFootprintName@@SGPAUCRuntimeClass@@XZ 00534ca0 f   DlgDupFootprintName.obj
 0002:0003dce0       ?GetRuntimeClass@CDlgDupFootprintName@@UBEPAUCRuntimeClass@@XZ 00534ce0 f   DlgDupFootprintName.obj
 0002:0003dd20       ??0CDlgDupFootprintName@@QAE@PAVCWnd@@@Z 00534d20 f   DlgDupFootprintName.obj
 0002:0003de50       ??_GCDlgDupFootprintName@@UAEPAXI@Z 00534e50 f i DlgDupFootprintName.obj
 0002:0003de50       ??_ECDlgDupFootprintName@@UAEPAXI@Z 00534e50 f i DlgDupFootprintName.obj
 0002:0003dec0       ??1CDlgDupFootprintName@@UAE@XZ 00534ec0 f   DlgDupFootprintName.obj
 0002:0003dfe0       ?DoDataExchange@CDlgDupFootprintName@@MAEXPAVCDataExchange@@@Z 00534fe0 f   DlgDupFootprintName.obj
 0002:0003e230       ?GetMessageMap@CDlgDupFootprintName@@MBEPBUAFX_MSGMAP@@XZ 00535230 f   DlgDupFootprintName.obj
 0002:0003e280       ?GetThisMessageMap@CDlgDupFootprintName@@KGPBUAFX_MSGMAP@@XZ 00535280 f   DlgDupFootprintName.obj
 0002:0003e2c0       ?Initialize@CDlgDupFootprintName@@QAEXPAV?$CStringT@DV?$StrTraitMFC_DLL@DV?$ChTraitsCRT@D@ATL@@@@@ATL@@PAVCMapStringToPtr@@@Z 005352c0 f   DlgDupFootprintName.obj
 0002:0003e320       ?OnBnClickedRadioReplaceAll@CDlgDupFootprintName@@QAEXXZ 00535320 f   DlgDupFootprintName.obj
 0002:0003e380       ?OnBnClickedRadioReplaceThis@CDlgDupFootprintName@@QAEXXZ 00535380 f   DlgDupFootprintName.obj
 0002:0003e3e0       ?OnBnClickedOk@CDlgDupFootprintName@@QAEXXZ 005353e0 f   DlgDupFootprintName.obj
 0002:0003e460       ?_GetBaseClass@DlgEditBoardCorner@@KGPAUCRuntimeClass@@XZ 00535460 f   DlgEditBoardCorner.obj
 0002:0003e4b0       ?GetThisClass@DlgEditBoardCorner@@SGPAUCRuntimeClass@@XZ 005354b0 f   DlgEditBoardCorner.obj
 0002:0003e4f0       ?GetRuntimeClass@DlgEditBoardCorner@@UBEPAUCRuntimeClass@@XZ 005354f0 f   DlgEditBoardCorner.obj
 0002:0003e530       ??0DlgEditBoardCorner@@QAE@PAVCWnd@@@Z 00535530 f   DlgEditBoardCorner.obj
 0002:0003e670       ??_EDlgEditBoardCorner@@UAEPAXI@Z 00535670 f i DlgEditBoardCorner.obj
 0002:0003e670       ??_GDlgEditBoardCorner@@UAEPAXI@Z 00535670 f i DlgEditBoardCorner.obj
 0002:0003e6e0       ??1DlgEditBoardCorner@@UAE@XZ 005356e0 f   DlgEditBoardCorner.obj
 0002:0003e7c0       ?DoDataExchange@DlgEditBoardCorner@@MAEXPAVCDataExchange@@@Z 005357c0 f   DlgEditBoardCorner.obj
 0002:0003e940       ?Init@DlgEditBoardCorner@@QAEXPAV?$CStringT@DV?$StrTraitMFC_DLL@DV?$ChTraitsCRT@D@ATL@@@@@ATL@@HHH@Z 00535940 f   DlgEditBoardCorner.obj
 0002:0003e9c0       ?GetMessageMap@DlgEditBoardCorner@@MBEPBUAFX_MSGMAP@@XZ 005359c0 f   DlgEditBoardCorner.obj
 0002:0003ea10       ?GetThisMessageMap@DlgEditBoardCorner@@KGPBUAFX_MSGMAP@@XZ 00535a10 f   DlgEditBoardCorner.obj
 0002:0003ea50       ?OnCbnSelchangeComboCornerUnits@DlgEditBoardCorner@@QAEXXZ 00535a50 f   DlgEditBoardCorner.obj
 0002:0003eaf0       ?GetFields@DlgEditBoardCorner@@AAEXXZ 00535af0 f   DlgEditBoardCorner.obj
 0002:0003ed10       ?SetFields@DlgEditBoardCorner@@AAEXXZ 00535d10 f   DlgEditBoardCorner.obj
 0002:0003ef70       ?_GetBaseClass@CDlgEditNet@@KGPAUCRuntimeClass@@XZ 00535f70 f   DlgEditNet.obj
 0002:0003efc0       ?GetThisClass@CDlgEditNet@@SGPAUCRuntimeClass@@XZ 00535fc0 f   DlgEditNet.obj
 0002:0003f000       ?GetRuntimeClass@CDlgEditNet@@UBEPAUCRuntimeClass@@XZ 00536000 f   DlgEditNet.obj
 0002:0003f040       ??0CDlgEditNet@@QAE@PAVCWnd@@@Z 00536040 f   DlgEditNet.obj
 0002:0003f270       ??_GCDlgEditNet@@UAEPAXI@Z 00536270 f i DlgEditNet.obj
 0002:0003f270       ??_ECDlgEditNet@@UAEPAXI@Z 00536270 f i DlgEditNet.obj
 0002:0003f2e0       ??1CDlgEditNet@@UAE@XZ     005362e0 f   DlgEditNet.obj
 0002:0003f4d0       ?DoDataExchange@CDlgEditNet@@MAEXPAVCDataExchange@@@Z 005364d0 f   DlgEditNet.obj
 0002:000403d0       ?Initialize@CDlgEditNet@@QAEXPAV?$CArray@Unet_info@@ABU1@@@HPAVCPartList@@HHHHPAV?$CArray@HABH@@22PAV?$CStringT@DV?$StrTraitMFC_DLL@DV?$ChTraitsCRT@D@ATL@@@@@ATL@@@Z 005373d0 f   DlgEditNet.obj
 0002:000405f0       ?GetMessageMap@CDlgEditNet@@MBEPBUAFX_MSGMAP@@XZ 005375f0 f   DlgEditNet.obj
 0002:00040640       ?GetThisMessageMap@CDlgEditNet@@KGPBUAFX_MSGMAP@@XZ 00537640 f   DlgEditNet.obj
 0002:00040680       ?OnBnClickedRadioDefWidth@CDlgEditNet@@IAEXXZ 00537680 f   DlgEditNet.obj
 0002:000407e0       ?OnBnClickedRadioSetWidth@CDlgEditNet@@IAEXXZ 005377e0 f   DlgEditNet.obj
 0002:00040850       ?OnBnClickedButtonDelete@CDlgEditNet@@IAEXXZ 00537850 f   DlgEditNet.obj
 0002:00040c60       ?OnBnClickedButtonAdd@CDlgEditNet@@IAEXXZ 00537c60 f   DlgEditNet.obj
 0002:000417e0       ?OnInitDialog@CDlgEditNet@@MAEHXZ 005387e0 f   DlgEditNet.obj
 0002:00041d80       ?OnCbnSelchangeComboWidth@CDlgEditNet@@IAEXXZ 00538d80 f   DlgEditNet.obj
 0002:00041ee0       ?OnCbnEditchangeComboWidth@CDlgEditNet@@IAEXXZ 00538ee0 f   DlgEditNet.obj
 0002:00042020       ?ChangeTraceWidth@CDlgEditNet@@IAEXV?$CStringT@DV?$StrTraitMFC_DLL@DV?$ChTraitsCRT@D@ATL@@@@@ATL@@@Z 00539020 f   DlgEditNet.obj
 0002:00042620       ?SetFields@CDlgEditNet@@QAEXXZ 00539620 f   DlgEditNet.obj
 0002:00042660       ?GetFields@CDlgEditNet@@QAEXXZ 00539660 f   DlgEditNet.obj
 0002:000426a0       ?OnEnUpdateEditAddPin@CDlgEditNet@@QAEXXZ 005396a0 f   DlgEditNet.obj
 0002:00042720       ?OnBnClickedOk@CDlgEditNet@@QAEXXZ 00539720 f   DlgEditNet.obj
 0002:00042890       ?RemoveAt@?$CArray@V?$CStringT@DV?$StrTraitMFC_DLL@DV?$ChTraitsCRT@D@ATL@@@@@ATL@@ABV12@@@QAEXHH@Z 00539890 f i DlgEditNet.obj
 0002:00042a60       ?GetSize@?$CArray@HABH@@QBEHXZ 00539a60 f i DlgEditNet.obj
 0002:00042aa0       ?GetSize@?$CArray@Unet_info@@ABU1@@@QBEHXZ 00539aa0 f i DlgEditNet.obj
 0002:00042ae0       ?SetSize@?$CArray@Unet_info@@ABU1@@@QAEXHH@Z 00539ae0 f i DlgEditNet.obj
 0002:000431e0       ??A?$CArray@Unet_info@@ABU1@@@QAEAAUnet_info@@H@Z 0053a1e0 f i DlgEditNet.obj
 0002:00043240       ??0?$CArray@HH@@QAE@XZ     0053a240 f i DlgEditNet.obj
 0002:000432d0       ?SetSize@?$CArray@HH@@QAEXHH@Z 0053a2d0 f i DlgEditNet.obj
 0002:00043860       ?GetData@?$CArray@HH@@QAEPAHXZ 0053a860 f i DlgEditNet.obj
 0002:000438a0       ??A?$CArray@HH@@QAEAAHH@Z  0053a8a0 f i DlgEditNet.obj
 0002:00043900       ??1?$CArray@HH@@UAE@XZ     0053a900 f i DlgEditNet.obj
 0002:00043a10       ?Serialize@?$CArray@HH@@UAEXAAVCArchive@@@Z 0053aa10 f i DlgEditNet.obj
 0002:00043ae0       ?Dump@?$CArray@HH@@UBEXAAVCDumpContext@@@Z 0053aae0 f i DlgEditNet.obj
 0002:00043bc0       ?AssertValid@?$CArray@HH@@UBEXXZ 0053abc0 f i DlgEditNet.obj
 0002:00043d20       ??_Gnet_info@@QAEPAXI@Z    0053ad20 f i DlgEditNet.obj
 0002:00043d90       ??0net_info@@QAE@XZ        0053ad90 f i DlgEditNet.obj
 0002:00043e60       ??_G?$CArray@HH@@UAEPAXI@Z 0053ae60 f i DlgEditNet.obj
 0002:00043e60       ??_E?$CArray@HH@@UAEPAXI@Z 0053ae60 f i DlgEditNet.obj
 0002:00043ed0       ??1net_info@@QAE@XZ        0053aed0 f i DlgEditNet.obj
 0002:00043fa0       ?ElementAt@?$CArray@Unet_info@@ABU1@@@QAEAAUnet_info@@H@Z 0053afa0 f i DlgEditNet.obj
 0002:00044050       ?ElementAt@?$CArray@HH@@QAEAAHH@Z 0053b050 f i DlgEditNet.obj
 0002:00044100       ??A?$CArray@HABH@@QAEAAHH@Z 0053b100 f i DlgEditNet.obj
 0002:00044160       ?ElementAt@?$CArray@HABH@@QAEAAHH@Z 0053b160 f i DlgEditNet.obj
 0002:00044210       ??$SerializeElements@H@@YGXAAVCArchive@@PAHH@Z 0053b210 f i DlgEditNet.obj
 0002:00044400       ??$DumpElements@H@@YGXAAVCDumpContext@@PBHH@Z 0053b400 f i DlgEditNet.obj
 0002:000444f0       ?_GetBaseClass@CDlgExportDsn@@KGPAUCRuntimeClass@@XZ 0053b4f0 f   DlgExportDsn.obj
 0002:00044540       ?GetThisClass@CDlgExportDsn@@SGPAUCRuntimeClass@@XZ 0053b540 f   DlgExportDsn.obj
 0002:00044580       ?GetRuntimeClass@CDlgExportDsn@@UBEPAUCRuntimeClass@@XZ 0053b580 f   DlgExportDsn.obj
 0002:000445c0       ??0CDlgExportDsn@@QAE@PAVCWnd@@@Z 0053b5c0 f   DlgExportDsn.obj
 0002:00044770       ??_GCDlgExportDsn@@UAEPAXI@Z 0053b770 f i DlgExportDsn.obj
 0002:00044770       ??_ECDlgExportDsn@@UAEPAXI@Z 0053b770 f i DlgExportDsn.obj
 0002:000447e0       ??1CDlgExportDsn@@UAE@XZ   0053b7e0 f   DlgExportDsn.obj
 0002:00044960       ?DoDataExchange@CDlgExportDsn@@MAEXPAVCDataExchange@@@Z 0053b960 f   DlgExportDsn.obj
 0002:00044f10       ?GetMessageMap@CDlgExportDsn@@MBEPBUAFX_MSGMAP@@XZ 0053bf10 f   DlgExportDsn.obj
 0002:00044f60       ?GetThisMessageMap@CDlgExportDsn@@KGPBUAFX_MSGMAP@@XZ 0053bf60 f   DlgExportDsn.obj
 0002:00044fa0       ?Initialize@CDlgExportDsn@@QAEXPAV?$CStringT@DV?$StrTraitMFC_DLL@DV?$ChTraitsCRT@D@ATL@@@@@ATL@@HHHH@Z 0053bfa0 f   DlgExportDsn.obj
 0002:00045050       ?OnBnClickedOk@CDlgExportDsn@@QAEXXZ 0053c050 f   DlgExportDsn.obj
 0002:000450c0       ?OnBnClickedCheckFromTo@CDlgExportDsn@@QAEXXZ 0053c0c0 f   DlgExportDsn.obj
 0002:000451b0       ?OnBnClickedRadioAll@CDlgExportDsn@@QAEXXZ 0053c1b0 f   DlgExportDsn.obj
 0002:000451f0       ?OnBnClickedRadioLocked@CDlgExportDsn@@QAEXXZ 0053c1f0 f   DlgExportDsn.obj
 0002:00045230       ?OnBnClickedRadioNetLocked@CDlgExportDsn@@QAEXXZ 0053c230 f   DlgExportDsn.obj
 0002:00045270       ?_GetBaseClass@CDlgFindPart@@KGPAUCRuntimeClass@@XZ 0053c270 f   DlgFindPart.obj
 0002:000452c0       ?GetThisClass@CDlgFindPart@@SGPAUCRuntimeClass@@XZ 0053c2c0 f   DlgFindPart.obj
 0002:00045300       ?GetRuntimeClass@CDlgFindPart@@UBEPAUCRuntimeClass@@XZ 0053c300 f   DlgFindPart.obj
 0002:00045340       ??0CDlgFindPart@@QAE@PAVCWnd@@@Z 0053c340 f   DlgFindPart.obj
 0002:00045430       ??_ECDlgFindPart@@UAEPAXI@Z 0053c430 f i DlgFindPart.obj
 0002:00045430       ??_GCDlgFindPart@@UAEPAXI@Z 0053c430 f i DlgFindPart.obj
 0002:000454a0       ??1CDlgFindPart@@UAE@XZ    0053c4a0 f   DlgFindPart.obj
 0002:00045570       ?DoDataExchange@CDlgFindPart@@MAEXPAVCDataExchange@@@Z 0053c570 f   DlgFindPart.obj
 0002:00045680       ?GetMessageMap@CDlgFindPart@@MBEPBUAFX_MSGMAP@@XZ 0053c680 f   DlgFindPart.obj
 0002:000456d0       ?GetThisMessageMap@CDlgFindPart@@KGPBUAFX_MSGMAP@@XZ 0053c6d0 f   DlgFindPart.obj
 0002:00045710       ?Initialize@CDlgFindPart@@QAEXPAVCPartList@@@Z 0053c710 f   DlgFindPart.obj
 0002:00045760       ?_GetBaseClass@CDlgFpRefText@@KGPAUCRuntimeClass@@XZ 0053c760 f   DlgFpRefText.obj
 0002:000457b0       ?GetThisClass@CDlgFpRefText@@SGPAUCRuntimeClass@@XZ 0053c7b0 f   DlgFpRefText.obj
 0002:000457f0       ?GetRuntimeClass@CDlgFpRefText@@UBEPAUCRuntimeClass@@XZ 0053c7f0 f   DlgFpRefText.obj
 0002:00045830       ??0CDlgFpRefText@@QAE@PAVCWnd@@@Z 0053c830 f   DlgFpRefText.obj
 0002:00045970       ??_ECDlgFpRefText@@UAEPAXI@Z 0053c970 f i DlgFpRefText.obj
 0002:00045970       ??_GCDlgFpRefText@@UAEPAXI@Z 0053c970 f i DlgFpRefText.obj
 0002:000459e0       ??1CDlgFpRefText@@UAE@XZ   0053c9e0 f   DlgFpRefText.obj
 0002:00045b10       ?Initialize@CDlgFpRefText@@QAEXHHH@Z 0053cb10 f   DlgFpRefText.obj
 0002:00045b80       ?DoDataExchange@CDlgFpRefText@@MAEXPAVCDataExchange@@@Z 0053cb80 f   DlgFpRefText.obj
 0002:00045d80       ?GetMessageMap@CDlgFpRefText@@MBEPBUAFX_MSGMAP@@XZ 0053cd80 f   DlgFpRefText.obj
 0002:00045dd0       ?GetThisMessageMap@CDlgFpRefText@@KGPBUAFX_MSGMAP@@XZ 0053cdd0 f   DlgFpRefText.obj
 0002:00045e10       ?OnBnClickedRadioSet@CDlgFpRefText@@AAEXXZ 0053ce10 f   DlgFpRefText.obj
 0002:00045e70       ?OnBnClickedRadioDef@CDlgFpRefText@@AAEXXZ 0053ce70 f   DlgFpRefText.obj
 0002:00045ed0       ?OnCbnSelchangeComboRefTextUnits@CDlgFpRefText@@AAEXXZ 0053ced0 f   DlgFpRefText.obj
 0002:00045f70       ?OnEnChangeEditCharHeight@CDlgFpRefText@@AAEXXZ 0053cf70 f   DlgFpRefText.obj
 0002:00046220       ?GetFields@CDlgFpRefText@@AAEXXZ 0053d220 f   DlgFpRefText.obj
 0002:000464c0       ?SetFields@CDlgFpRefText@@AAEXXZ 0053d4c0 f   DlgFpRefText.obj
 0002:00046830       ?_GetBaseClass@CDlgFpText@@KGPAUCRuntimeClass@@XZ 0053d830 f   DlgFpText.obj
 0002:00046880       ?GetThisClass@CDlgFpText@@SGPAUCRuntimeClass@@XZ 0053d880 f   DlgFpText.obj
 0002:000468c0       ?GetRuntimeClass@CDlgFpText@@UBEPAUCRuntimeClass@@XZ 0053d8c0 f   DlgFpText.obj
 0002:00046900       ??0CDlgFpText@@QAE@PAVCWnd@@@Z 0053d900 f   DlgFpText.obj
 0002:00046af0       ??_ECDlgFpText@@UAEPAXI@Z  0053daf0 f i DlgFpText.obj
 0002:00046af0       ??_GCDlgFpText@@UAEPAXI@Z  0053daf0 f i DlgFpText.obj
 0002:00046b60       ??1CDlgFpText@@UAE@XZ      0053db60 f   DlgFpText.obj
 0002:00046d20       ?DoDataExchange@CDlgFpText@@MAEXPAVCDataExchange@@@Z 0053dd20 f   DlgFpText.obj
 0002:000470b0       ?GetMessageMap@CDlgFpText@@MBEPBUAFX_MSGMAP@@XZ 0053e0b0 f   DlgFpText.obj
 0002:00047100       ?GetThisMessageMap@CDlgFpText@@KGPBUAFX_MSGMAP@@XZ 0053e100 f   DlgFpText.obj
 0002:00047140       ?Initialize@CDlgFpText@@QAEXHHPAV?$CStringT@DV?$StrTraitMFC_DLL@DV?$ChTraitsCRT@D@ATL@@@@@ATL@@HHHHHH@Z 0053e140 f   DlgFpText.obj
 0002:000472a0       ?OnInitDialog@CDlgFpText@@UAEHXZ 0053e2a0 f   DlgFpText.obj
 0002:00047770       ?OnBnClickedSetWidth@CDlgFpText@@QAEXXZ 0053e770 f   DlgFpText.obj
 0002:000477f0       ?OnBnClickedDefWidth@CDlgFpText@@QAEXXZ 0053e7f0 f   DlgFpText.obj
 0002:00047880       ?OnEnChangeEditHeight@CDlgFpText@@QAEXXZ 0053e880 f   DlgFpText.obj
 0002:00047b20       ?OnBnClickedOk@CDlgFpText@@QAEXXZ 0053eb20 f   DlgFpText.obj
 0002:00047b90       ?OnBnClickedSetPosition@CDlgFpText@@QAEXXZ 0053eb90 f   DlgFpText.obj
 0002:00047c30       ?OnBnClickedDrag@CDlgFpText@@QAEXXZ 0053ec30 f   DlgFpText.obj
 0002:00047cd0       ?OnCbnSelchangeComboAddTextUnits@CDlgFpText@@QAEXXZ 0053ecd0 f   DlgFpText.obj
 0002:00047d90       ?GetFields@CDlgFpText@@QAEXXZ 0053ed90 f   DlgFpText.obj
 0002:00048010       ?SetFields@CDlgFpText@@QAEXXZ 0053f010 f   DlgFpText.obj
 0002:00048260       ?_GetBaseClass@CDlgGlue@@KGPAUCRuntimeClass@@XZ 0053f260 f   DlgGlue.obj
 0002:000482b0       ?GetThisClass@CDlgGlue@@SGPAUCRuntimeClass@@XZ 0053f2b0 f   DlgGlue.obj
 0002:000482f0       ?GetRuntimeClass@CDlgGlue@@UBEPAUCRuntimeClass@@XZ 0053f2f0 f   DlgGlue.obj
 0002:00048330       ??0CDlgGlue@@QAE@PAVCWnd@@@Z 0053f330 f   DlgGlue.obj
 0002:000484b0       ??_ECDlgGlue@@UAEPAXI@Z    0053f4b0 f i DlgGlue.obj
 0002:000484b0       ??_GCDlgGlue@@UAEPAXI@Z    0053f4b0 f i DlgGlue.obj
 0002:00048520       ??1CDlgGlue@@UAE@XZ        0053f520 f   DlgGlue.obj
 0002:00048690       ?DoDataExchange@CDlgGlue@@MAEXPAVCDataExchange@@@Z 0053f690 f   DlgGlue.obj
 0002:00048880       ?GetMessageMap@CDlgGlue@@MBEPBUAFX_MSGMAP@@XZ 0053f880 f   DlgGlue.obj
 0002:000488d0       ?GetThisMessageMap@CDlgGlue@@KGPBUAFX_MSGMAP@@XZ 0053f8d0 f   DlgGlue.obj
 0002:00048910       ?Initialize@CDlgGlue@@QAEXW4GLUE_POS_TYPE@@HHHH@Z 0053f910 f   DlgGlue.obj
 0002:000489c0       ?SetFields@CDlgGlue@@QAEXXZ 0053f9c0 f   DlgGlue.obj
 0002:00048ce0       ?GetFields@CDlgGlue@@QAEXXZ 0053fce0 f   DlgGlue.obj
 0002:00048f60       ?OnBnClickedDefault@CDlgGlue@@QAEXXZ 0053ff60 f   DlgGlue.obj
 0002:00048fc0       ?OnBnClickedSet@CDlgGlue@@QAEXXZ 0053ffc0 f   DlgGlue.obj
 0002:00049020       ?OnCbnSelChangeCombo1@CDlgGlue@@QAEXXZ 00540020 f   DlgGlue.obj
 0002:000490c0       ?OnBnClickedDrag@CDlgGlue@@QAEXXZ 005400c0 f   DlgGlue.obj
 0002:00049120       ?OnBnClickedDefaultSize@CDlgGlue@@QAEXXZ 00540120 f   DlgGlue.obj
 0002:00049180       ?OnBnClickedRadioSetSize@CDlgGlue@@QAEXXZ 00540180 f   DlgGlue.obj
 0002:000491e0       ?ListCompare@@YGHJJJ@Z     005401e0 f   DlgGroupPaste.obj
 0002:00049560       ?_GetBaseClass@CDlgGroupPaste@@KGPAUCRuntimeClass@@XZ 00540560 f   DlgGroupPaste.obj
 0002:000495b0       ?GetThisClass@CDlgGroupPaste@@SGPAUCRuntimeClass@@XZ 005405b0 f   DlgGroupPaste.obj
 0002:000495f0       ?GetRuntimeClass@CDlgGroupPaste@@UBEPAUCRuntimeClass@@XZ 005405f0 f   DlgGroupPaste.obj
 0002:00049630       ??0CDlgGroupPaste@@QAE@PAVCWnd@@@Z 00540630 f   DlgGroupPaste.obj
 0002:00049890       ??_GCDlgGroupPaste@@UAEPAXI@Z 00540890 f i DlgGroupPaste.obj
 0002:00049890       ??_ECDlgGroupPaste@@UAEPAXI@Z 00540890 f i DlgGroupPaste.obj
 0002:00049900       ??1CDlgGroupPaste@@UAE@XZ  00540900 f   DlgGroupPaste.obj
 0002:00049b50       ?DoDataExchange@CDlgGroupPaste@@MAEXPAVCDataExchange@@@Z 00540b50 f   DlgGroupPaste.obj
 0002:0004a7f0       ?GetMessageMap@CDlgGroupPaste@@MBEPBUAFX_MSGMAP@@XZ 005417f0 f   DlgGroupPaste.obj
 0002:0004a840       ?GetThisMessageMap@CDlgGroupPaste@@KGPBUAFX_MSGMAP@@XZ 00541840 f   DlgGroupPaste.obj
 0002:0004a880       ?Initialize@CDlgGroupPaste@@QAEXPAVCNetList@@@Z 00541880 f   DlgGroupPaste.obj
 0002:0004a950       ?SetFields@CDlgGroupPaste@@QAEXXZ 00541950 f   DlgGroupPaste.obj
 0002:0004ad20       ?OnBnClickedRadioUseGroupRef@CDlgGroupPaste@@QAEXXZ 00541d20 f   DlgGroupPaste.obj
 0002:0004ad70       ?OnBnClickedRadioUseNextRef@CDlgGroupPaste@@QAEXXZ 00541d70 f   DlgGroupPaste.obj
 0002:0004adc0       ?OnBnClickedRadioAddRefOffset@CDlgGroupPaste@@QAEXXZ 00541dc0 f   DlgGroupPaste.obj
 0002:0004ae10       ?OnBnClickedRadioUseGroupNets@CDlgGroupPaste@@QAEXXZ 00541e10 f   DlgGroupPaste.obj
 0002:0004ae60       ?OnBnClickedRadioUseSelectedNets@CDlgGroupPaste@@QAEXXZ 00541e60 f   DlgGroupPaste.obj
 0002:0004aeb0       ?OnBnClickedRadioUseSuffix@CDlgGroupPaste@@QAEXXZ 00541eb0 f   DlgGroupPaste.obj
 0002:0004af00       ?OnBnClickedRadioMakeNewNames@CDlgGroupPaste@@QAEXXZ 00541f00 f   DlgGroupPaste.obj
 0002:0004af50       ?OnBnClickedRadioDrag@CDlgGroupPaste@@QAEXXZ 00541f50 f   DlgGroupPaste.obj
 0002:0004afa0       ?OnBnClickedRadioOffset@CDlgGroupPaste@@QAEXXZ 00541fa0 f   DlgGroupPaste.obj
 0002:0004aff0       ?OnCbnSelchangeComboGroupUnits@CDlgGroupPaste@@QAEXXZ 00541ff0 f   DlgGroupPaste.obj
 0002:0004b030       ?OnBnClickedRadioRetainAll@CDlgGroupPaste@@QAEXXZ 00542030 f   DlgGroupPaste.obj
 0002:0004b070       ?OnBnClickedRadioRetainTraces@CDlgGroupPaste@@QAEXXZ 00542070 f   DlgGroupPaste.obj
 0002:0004b0b0       ?OnLvnColumnClickListSelectGroupNets@CDlgGroupPaste@@QAEXPAUtagNMHDR@@PAJ@Z 005420b0 f   DlgGroupPaste.obj
 0002:0004b300       ??0?$CArray@Unet_info@@ABU1@@@QAE@XZ 00542300 f i DlgGroupPaste.obj
 0002:0004b390       ?Serialize@?$CArray@Unet_info@@ABU1@@@UAEXAAVCArchive@@@Z 00542390 f i DlgGroupPaste.obj
 0002:0004b460       ?Dump@?$CArray@Unet_info@@ABU1@@@UBEXAAVCDumpContext@@@Z 00542460 f i DlgGroupPaste.obj
 0002:0004b540       ?AssertValid@?$CArray@Unet_info@@ABU1@@@UBEXXZ 00542540 f i DlgGroupPaste.obj
 0002:0004b6a0       ??_G?$CArray@Unet_info@@ABU1@@@UAEPAXI@Z 005426a0 f i DlgGroupPaste.obj
 0002:0004b6a0       ??_E?$CArray@Unet_info@@ABU1@@@UAEPAXI@Z 005426a0 f i DlgGroupPaste.obj
 0002:0004b710       ??1?$CArray@Unet_info@@ABU1@@@UAE@XZ 00542710 f i DlgGroupPaste.obj
 0002:0004b840       ??$SerializeElements@Unet_info@@@@YGXAAVCArchive@@PAUnet_info@@H@Z 00542840 f i DlgGroupPaste.obj
 0002:0004ba30       ??$DumpElements@Unet_info@@@@YGXAAVCDumpContext@@PBUnet_info@@H@Z 00542a30 f i DlgGroupPaste.obj
 0002:0004bb20       ?_GetBaseClass@CDlgHole@@KGPAUCRuntimeClass@@XZ 00542b20 f   DlgHole.obj
 0002:0004bb70       ?GetThisClass@CDlgHole@@SGPAUCRuntimeClass@@XZ 00542b70 f   DlgHole.obj
 0002:0004bbb0       ?GetRuntimeClass@CDlgHole@@UBEPAUCRuntimeClass@@XZ 00542bb0 f   DlgHole.obj
 0002:0004bbf0       ??0CDlgHole@@QAE@PAVCWnd@@@Z 00542bf0 f   DlgHole.obj
 0002:0004bd50       ??_GCDlgHole@@UAEPAXI@Z    00542d50 f i DlgHole.obj
 0002:0004bd50       ??_ECDlgHole@@UAEPAXI@Z    00542d50 f i DlgHole.obj
 0002:0004bdc0       ??1CDlgHole@@UAE@XZ        00542dc0 f   DlgHole.obj
 0002:0004bf10       ?DoDataExchange@CDlgHole@@MAEXPAVCDataExchange@@@Z 00542f10 f   DlgHole.obj
 0002:0004c0b0       ?GetMessageMap@CDlgHole@@MBEPBUAFX_MSGMAP@@XZ 005430b0 f   DlgHole.obj
 0002:0004c100       ?GetThisMessageMap@CDlgHole@@KGPBUAFX_MSGMAP@@XZ 00543100 f   DlgHole.obj
 0002:0004c140       ?Initialize@CDlgHole@@QAEXHHHHH@Z 00543140 f   DlgHole.obj
 0002:0004c1e0       ?SetFields@CDlgHole@@QAEXXZ 005431e0 f   DlgHole.obj
 0002:0004c500       ?GetFields@CDlgHole@@QAEXXZ 00543500 f   DlgHole.obj
 0002:0004c700       ?OnCbnSelChangeCombo1@CDlgHole@@QAEXXZ 00543700 f   DlgHole.obj
 0002:0004c7a0       ?OnBnClickedSet@CDlgHole@@QAEXXZ 005437a0 f   DlgHole.obj
 0002:0004c800       ?OnBnClickedDrag@CDlgHole@@QAEXXZ 00543800 f   DlgHole.obj
 0002:0004c860       ?OnBnClickedPlated@CDlgHole@@QAEXXZ 00543860 f   DlgHole.obj
 0002:0004c8c0       ?OnBnClickedUnplated@CDlgHole@@QAEXXZ 005438c0 f   DlgHole.obj
 0002:0004c920       ?_GetBaseClass@CDlgImportFootprint@@KGPAUCRuntimeClass@@XZ 00543920 f   DlgImportFootprint.obj
 0002:0004c970       ?GetThisClass@CDlgImportFootprint@@SGPAUCRuntimeClass@@XZ 00543970 f   DlgImportFootprint.obj
 0002:0004c9b0       ?GetRuntimeClass@CDlgImportFootprint@@UBEPAUCRuntimeClass@@XZ 005439b0 f   DlgImportFootprint.obj
 0002:0004c9f0       ??0CDlgImportFootprint@@QAE@PAVCWnd@@@Z 005439f0 f   DlgImportFootprint.obj
 0002:0004cc60       ??_GCDlgImportFootprint@@UAEPAXI@Z 00543c60 f i DlgImportFootprint.obj
 0002:0004cc60       ??_ECDlgImportFootprint@@UAEPAXI@Z 00543c60 f i DlgImportFootprint.obj
 0002:0004ccd0       ??1CDlgImportFootprint@@UAE@XZ 00543cd0 f   DlgImportFootprint.obj
 0002:0004ce90       ?DoDataExchange@CDlgImportFootprint@@MAEXPAVCDataExchange@@@Z 00543e90 f   DlgImportFootprint.obj
 0002:0004cfb0       ?GetMessageMap@CDlgImportFootprint@@MBEPBUAFX_MSGMAP@@XZ 00543fb0 f   DlgImportFootprint.obj
 0002:0004d000       ?GetThisMessageMap@CDlgImportFootprint@@KGPBUAFX_MSGMAP@@XZ 00544000 f   DlgImportFootprint.obj
 0002:0004d040       ?InitInstance@CDlgImportFootprint@@QAEXPAVCMapStringToPtr@@PAVCFootLibFolderMap@@PAVCDlgLog@@@Z 00544040 f   DlgImportFootprint.obj
 0002:0004d0f0       ?OnInitDialog@CDlgImportFootprint@@EAEHXZ 005440f0 f   DlgImportFootprint.obj
 0002:0004d150       ?OnBnClickedButtonBrowseLibFolder@CDlgImportFootprint@@QAEXXZ 00544150 f   DlgImportFootprint.obj
 0002:0004d420       ?OnTvnSelchangedPartLibTree@CDlgImportFootprint@@AAEXPAUtagNMHDR@@PAJ@Z 00544420 f   DlgImportFootprint.obj
 0002:0004db60       ?InitPartLibTree@CDlgImportFootprint@@QAEXXZ 00544b60 f   DlgImportFootprint.obj
 0002:0004e190       ?OnBnClickedOk@CDlgImportFootprint@@QAEXXZ 00545190 f   DlgImportFootprint.obj
 0002:0004e3a0       ?OnBnClickedCancel@CDlgImportFootprint@@QAEXXZ 005453a0 f   DlgImportFootprint.obj
 0002:0004e560       ?GetExpanded@CFootLibFolder@@QAEHH@Z 00545560 f i DlgImportFootprint.obj
 0002:0004e5c0       ?_GetBaseClass@CDlgImportOptions@@KGPAUCRuntimeClass@@XZ 005455c0 f   DlgImportOptions.obj
 0002:0004e610       ?GetThisClass@CDlgImportOptions@@SGPAUCRuntimeClass@@XZ 00545610 f   DlgImportOptions.obj
 0002:0004e650       ?GetRuntimeClass@CDlgImportOptions@@UBEPAUCRuntimeClass@@XZ 00545650 f   DlgImportOptions.obj
 0002:0004e690       ??0CDlgImportOptions@@QAE@PAVCWnd@@@Z 00545690 f   DlgImportOptions.obj
 0002:0004e840       ??_ECDlgImportOptions@@UAEPAXI@Z 00545840 f i DlgImportOptions.obj
 0002:0004e840       ??_GCDlgImportOptions@@UAEPAXI@Z 00545840 f i DlgImportOptions.obj
 0002:0004e8b0       ??1CDlgImportOptions@@UAE@XZ 005458b0 f   DlgImportOptions.obj
 0002:0004ea50       ?DoDataExchange@CDlgImportOptions@@MAEXPAVCDataExchange@@@Z 00545a50 f   DlgImportOptions.obj
 0002:0004f0d0       ?GetMessageMap@CDlgImportOptions@@MBEPBUAFX_MSGMAP@@XZ 005460d0 f   DlgImportOptions.obj
 0002:0004f120       ?GetThisMessageMap@CDlgImportOptions@@KGPBUAFX_MSGMAP@@XZ 00546120 f   DlgImportOptions.obj
 0002:0004f160       ?Initialize@CDlgImportOptions@@QAEXH@Z 00546160 f   DlgImportOptions.obj
 0002:0004f1b0       ?OnBnClickedSaveAndImport@CDlgImportOptions@@QAEXXZ 005461b0 f   DlgImportOptions.obj
 0002:0004f240       ?OnBnClickedOk@CDlgImportOptions@@QAEXXZ 00546240 f   DlgImportOptions.obj
 0002:0004f2d0       ?_GetBaseClass@CDlgImportSes@@KGPAUCRuntimeClass@@XZ 005462d0 f   DlgImportSes.obj
 0002:0004f320       ?GetThisClass@CDlgImportSes@@SGPAUCRuntimeClass@@XZ 00546320 f   DlgImportSes.obj
 0002:0004f360       ?GetRuntimeClass@CDlgImportSes@@UBEPAUCRuntimeClass@@XZ 00546360 f   DlgImportSes.obj
 0002:0004f3a0       ??0CDlgImportSes@@QAE@PAVCWnd@@@Z 005463a0 f   DlgImportSes.obj
 0002:0004f4f0       ??_ECDlgImportSes@@UAEPAXI@Z 005464f0 f i DlgImportSes.obj
 0002:0004f4f0       ??_GCDlgImportSes@@UAEPAXI@Z 005464f0 f i DlgImportSes.obj
 0002:0004f560       ??1CDlgImportSes@@UAE@XZ   00546560 f   DlgImportSes.obj
 0002:0004f690       ?DoDataExchange@CDlgImportSes@@MAEXPAVCDataExchange@@@Z 00546690 f   DlgImportSes.obj
 0002:0004f990       ?GetMessageMap@CDlgImportSes@@MBEPBUAFX_MSGMAP@@XZ 00546990 f   DlgImportSes.obj
 0002:0004f9e0       ?GetThisMessageMap@CDlgImportSes@@KGPBUAFX_MSGMAP@@XZ 005469e0 f   DlgImportSes.obj
 0002:0004fa20       ?Initialize@CDlgImportSes@@QAEXPAV?$CStringT@DV?$StrTraitMFC_DLL@DV?$ChTraitsCRT@D@ATL@@@@@ATL@@0PAVCFreePcbDoc@@@Z 00546a20 f   DlgImportSes.obj
 0002:0004fad0       ?OnBnClickedButtonDef@CDlgImportSes@@QAEXXZ 00546ad0 f   DlgImportSes.obj
 0002:0004fb70       ?OnBnClickedButtonBrowse@CDlgImportSes@@QAEXXZ 00546b70 f   DlgImportSes.obj
 0002:0004fd10       ?_GetBaseClass@CDlgIndexing@@KGPAUCRuntimeClass@@XZ 00546d10 f   DlgIndexing.obj
 0002:0004fd60       ?GetThisClass@CDlgIndexing@@SGPAUCRuntimeClass@@XZ 00546d60 f   DlgIndexing.obj
 0002:0004fda0       ?GetRuntimeClass@CDlgIndexing@@UBEPAUCRuntimeClass@@XZ 00546da0 f   DlgIndexing.obj
 0002:0004fde0       ??0CDlgIndexing@@QAE@PAVCWnd@@@Z 00546de0 f   DlgIndexing.obj
 0002:0004fe50       ??_ECDlgIndexing@@UAEPAXI@Z 00546e50 f i DlgIndexing.obj
 0002:0004fe50       ??_GCDlgIndexing@@UAEPAXI@Z 00546e50 f i DlgIndexing.obj
 0002:0004fec0       ??1CDlgIndexing@@UAE@XZ    00546ec0 f   DlgIndexing.obj
 0002:0004ff20       ?DoDataExchange@CDlgIndexing@@MAEXPAVCDataExchange@@@Z 00546f20 f   DlgIndexing.obj
 0002:0004ff80       ?GetMessageMap@CDlgIndexing@@MBEPBUAFX_MSGMAP@@XZ 00546f80 f   DlgIndexing.obj
 0002:0004ffd0       ?GetThisMessageMap@CDlgIndexing@@KGPBUAFX_MSGMAP@@XZ 00546fd0 f   DlgIndexing.obj
 0002:00050010       ??0CivexDlg@@QAE@PAVCWnd@@@Z 00547010 f   DlgIvex.obj
 0002:00050170       ??_ECivexDlg@@UAEPAXI@Z    00547170 f i DlgIvex.obj
 0002:00050170       ??_GCivexDlg@@UAEPAXI@Z    00547170 f i DlgIvex.obj
 0002:000501e0       ??1CivexDlg@@UAE@XZ        005471e0 f i DlgIvex.obj
 0002:00050300       ?DoDataExchange@CivexDlg@@MAEXPAVCDataExchange@@@Z 00547300 f   DlgIvex.obj
 0002:000503b0       ?GetMessageMap@CivexDlg@@MBEPBUAFX_MSGMAP@@XZ 005473b0 f   DlgIvex.obj
 0002:00050400       ?GetThisMessageMap@CivexDlg@@KGPBUAFX_MSGMAP@@XZ 00547400 f   DlgIvex.obj
 0002:00050440       ?OnInitDialog@CivexDlg@@MAEHXZ 00547440 f   DlgIvex.obj
 0002:000504a0       ?OnSysCommand@CivexDlg@@IAEXIJ@Z 005474a0 f   DlgIvex.obj
 0002:00050500       ?OnPaint@CivexDlg@@IAEXXZ  00547500 f   DlgIvex.obj
 0002:00050700       ?OnQueryDragIcon@CivexDlg@@IAEPAUHICON__@@XZ 00547700 f   DlgIvex.obj
 0002:00050740       ?OnBnClickedButtonInfile@CivexDlg@@QAEXXZ 00547740 f   DlgIvex.obj
 0002:00050a70       ?OnBnClickedButtonOutfile@CivexDlg@@QAEXXZ 00547a70 f   DlgIvex.obj
 0002:00050ab0       ?OnEnChangeEditInfile@CivexDlg@@QAEXXZ 00547ab0 f   DlgIvex.obj
 0002:00050af0       ?OnEnChangeEditOutfile@CivexDlg@@QAEXXZ 00547af0 f   DlgIvex.obj
 0002:00050b30       ?OnBnClickedConvert@CivexDlg@@QAEXXZ 00547b30 f   DlgIvex.obj
 0002:00051130       ?_GetBaseClass@CDlgLayers@@KGPAUCRuntimeClass@@XZ 00548130 f   DlgLayers.obj
 0002:00051180       ?GetThisClass@CDlgLayers@@SGPAUCRuntimeClass@@XZ 00548180 f   DlgLayers.obj
 0002:000511c0       ?GetRuntimeClass@CDlgLayers@@UBEPAUCRuntimeClass@@XZ 005481c0 f   DlgLayers.obj
 0002:00051200       ??0CDlgLayers@@QAE@PAVCWnd@@@Z 00548200 f   DlgLayers.obj
 0002:000512d0       ??_GCDlgLayers@@UAEPAXI@Z  005482d0 f i DlgLayers.obj
 0002:000512d0       ??_ECDlgLayers@@UAEPAXI@Z  005482d0 f i DlgLayers.obj
 0002:00051340       ??1CDlgLayers@@UAE@XZ      00548340 f   DlgLayers.obj
 0002:00051400       ?DoDataExchange@CDlgLayers@@MAEXPAVCDataExchange@@@Z 00548400 f   DlgLayers.obj
 0002:000515d0       ?GetMessageMap@CDlgLayers@@MBEPBUAFX_MSGMAP@@XZ 005485d0 f   DlgLayers.obj
 0002:00051620       ?GetThisMessageMap@CDlgLayers@@KGPBUAFX_MSGMAP@@XZ 00548620 f   DlgLayers.obj
 0002:00051660       ?Initialize@CDlgLayers@@QAEXHQAHQAY02HH@Z 00548660 f   DlgLayers.obj
 0002:00051780       ?OnCtlColor@CDlgLayers@@QAEPAUHBRUSH__@@PAVCDC@@PAVCWnd@@I@Z 00548780 f   DlgLayers.obj
 0002:00051930       ?OnBnClickedButtonLayer1@CDlgLayers@@QAEXXZ 00548930 f   DlgLayers.obj
 0002:00051990       ?OnBnClickedButtonLayer2@CDlgLayers@@QAEXXZ 00548990 f   DlgLayers.obj
 0002:000519f0       ?OnBnClickedButtonLayer3@CDlgLayers@@QAEXXZ 005489f0 f   DlgLayers.obj
 0002:00051a50       ?OnBnClickedButtonLayer4@CDlgLayers@@QAEXXZ 00548a50 f   DlgLayers.obj
 0002:00051ab0       ?OnBnClickedButtonLayer5@CDlgLayers@@QAEXXZ 00548ab0 f   DlgLayers.obj
 0002:00051b10       ?OnBnClickedButtonLayer6@CDlgLayers@@QAEXXZ 00548b10 f   DlgLayers.obj
 0002:00051b70       ?OnBnClickedButtonLayer7@CDlgLayers@@QAEXXZ 00548b70 f   DlgLayers.obj
 0002:00051bd0       ?OnBnClickedButtonLayer8@CDlgLayers@@QAEXXZ 00548bd0 f   DlgLayers.obj
 0002:00051c30       ?OnBnClickedButtonLayer9@CDlgLayers@@QAEXXZ 00548c30 f   DlgLayers.obj
 0002:00051c90       ?OnBnClickedButtonLayer10@CDlgLayers@@QAEXXZ 00548c90 f   DlgLayers.obj
 0002:00051cf0       ?OnBnClickedButtonLayer11@CDlgLayers@@QAEXXZ 00548cf0 f   DlgLayers.obj
 0002:00051d50       ?OnBnClickedButtonLayer12@CDlgLayers@@QAEXXZ 00548d50 f   DlgLayers.obj
 0002:00051db0       ?OnBnClickedButtonLayer13@CDlgLayers@@QAEXXZ 00548db0 f   DlgLayers.obj
 0002:00051e10       ?OnBnClickedButtonLayer14@CDlgLayers@@QAEXXZ 00548e10 f   DlgLayers.obj
 0002:00051e70       ?OnBnClickedButtonLayer15@CDlgLayers@@QAEXXZ 00548e70 f   DlgLayers.obj
 0002:00051ed0       ?OnBnClickedButtonLayer16@CDlgLayers@@QAEXXZ 00548ed0 f   DlgLayers.obj
 0002:00051f30       ?OnBnClickedButtonLayer17@CDlgLayers@@QAEXXZ 00548f30 f   DlgLayers.obj
 0002:00051f90       ?OnBnClickedButtonLayer18@CDlgLayers@@QAEXXZ 00548f90 f   DlgLayers.obj
 0002:00051ff0       ?OnBnClickedButtonLayer19@CDlgLayers@@QAEXXZ 00548ff0 f   DlgLayers.obj
 0002:00052050       ?OnBnClickedButtonLayer20@CDlgLayers@@QAEXXZ 00549050 f   DlgLayers.obj
 0002:000520b0       ?OnBnClickedButtonLayer21@CDlgLayers@@QAEXXZ 005490b0 f   DlgLayers.obj
 0002:00052110       ?OnBnClickedButtonLayer22@CDlgLayers@@QAEXXZ 00549110 f   DlgLayers.obj
 0002:00052170       ?OnBnClickedButtonLayer23@CDlgLayers@@QAEXXZ 00549170 f   DlgLayers.obj
 0002:000521d0       ?OnBnClickedButtonLayer24@CDlgLayers@@QAEXXZ 005491d0 f   DlgLayers.obj
 0002:00052230       ?OnBnClickedButtonLayer25@CDlgLayers@@QAEXXZ 00549230 f   DlgLayers.obj
 0002:00052290       ?OnBnClickedButtonLayer26@CDlgLayers@@QAEXXZ 00549290 f   DlgLayers.obj
 0002:000522f0       ?OnBnClickedButtonLayer27@CDlgLayers@@QAEXXZ 005492f0 f   DlgLayers.obj
 0002:00052350       ?OnBnClickedButtonLayer28@CDlgLayers@@QAEXXZ 00549350 f   DlgLayers.obj
 0002:000523b0       ?OnBnClickedButtonLayer29@CDlgLayers@@QAEXXZ 005493b0 f   DlgLayers.obj
 0002:00052410       ?OnBnClickedButtonLayer30@CDlgLayers@@QAEXXZ 00549410 f   DlgLayers.obj
 0002:00052470       ?OnBnClickedButtonLayer31@CDlgLayers@@QAEXXZ 00549470 f   DlgLayers.obj
 0002:000524d0       ?EditColor@CDlgLayers@@QAEXH@Z 005494d0 f   DlgLayers.obj
 0002:000526c0       ??1CColorDialog@@UAE@XZ    005496c0 f i DlgLayers.obj
 0002:00052710       ??1CCommonDialog@@UAE@XZ   00549710 f i DlgLayers.obj
 0002:00052770       ??_ECCommonDialog@@UAEPAXI@Z 00549770 f i DlgLayers.obj
 0002:00052770       ??_GCCommonDialog@@UAEPAXI@Z 00549770 f i DlgLayers.obj
 0002:000527e0       _cpdf_getCurrentTextX      005497e0 f   DlgLibraryManager.obj
 0002:00052840       _cpdf_getCurrentTextY      00549840 f   DlgLibraryManager.obj
 0002:000528a0       ?_GetBaseClass@CDlgLibraryManager@@KGPAUCRuntimeClass@@XZ 005498a0 f   DlgLibraryManager.obj
 0002:000528f0       ?GetThisClass@CDlgLibraryManager@@SGPAUCRuntimeClass@@XZ 005498f0 f   DlgLibraryManager.obj
 0002:00052930       ?GetRuntimeClass@CDlgLibraryManager@@UBEPAUCRuntimeClass@@XZ 00549930 f   DlgLibraryManager.obj
 0002:00052970       ??0CDlgLibraryManager@@QAE@PAVCWnd@@@Z 00549970 f   DlgLibraryManager.obj
 0002:00052a80       ??_GCDlgLibraryManager@@UAEPAXI@Z 00549a80 f i DlgLibraryManager.obj
 0002:00052a80       ??_ECDlgLibraryManager@@UAEPAXI@Z 00549a80 f i DlgLibraryManager.obj
 0002:00052af0       ??1CDlgLibraryManager@@UAE@XZ 00549af0 f   DlgLibraryManager.obj
 0002:00052bf0       ?DoDataExchange@CDlgLibraryManager@@MAEXPAVCDataExchange@@@Z 00549bf0 f   DlgLibraryManager.obj
 0002:00052f80       ?GetMessageMap@CDlgLibraryManager@@MBEPBUAFX_MSGMAP@@XZ 00549f80 f   DlgLibraryManager.obj
 0002:00052fd0       ?GetThisMessageMap@CDlgLibraryManager@@KGPBUAFX_MSGMAP@@XZ 00549fd0 f   DlgLibraryManager.obj
 0002:00053010       ?OnBnClickedButtonMakePdf@CDlgLibraryManager@@QAEXXZ 0054a010 f   DlgLibraryManager.obj
 0002:0005beb0       ?abs@@YANN@Z               00552eb0 f i DlgLibraryManager.obj
 0002:0005bf10       ?Initialize@CDlgLibraryManager@@QAEXPAVCFootLibFolderMap@@PAVCDlgLog@@@Z 00552f10 f   DlgLibraryManager.obj
 0002:0005bf70       ?OnBnClickedButtonMgrBrowse@CDlgLibraryManager@@QAEXXZ 00552f70 f   DlgLibraryManager.obj
 0002:0005c2c0       ?RemoveAt@?$CArray@HABH@@QAEXHH@Z 005532c0 f i DlgLibraryManager.obj
 0002:0005c470       ??A?$CArray@PAVCText@@ABQAV1@@@QAEAAPAVCText@@H@Z 00553470 f i DlgLibraryManager.obj
 0002:0005c4d0       ??A?$CArray@VCPolyLine@@ABV1@@@QAEAAVCPolyLine@@H@Z 005534d0 f i DlgLibraryManager.obj
 0002:0005c530       ?ElementAt@?$CArray@PAVCText@@ABQAV1@@@QAEAAPAVCText@@H@Z 00553530 f i DlgLibraryManager.obj
 0002:0005c5e0       ?ElementAt@?$CArray@VCPolyLine@@ABV1@@@QAEAAVCPolyLine@@H@Z 005535e0 f i DlgLibraryManager.obj
 0002:0005c690       ??0?$CArray@HABH@@QAE@XZ   00553690 f i DlgLibraryManager.obj
 0002:0005c720       ?Add@?$CArray@HABH@@QAEHABH@Z 00553720 f i DlgLibraryManager.obj
 0002:0005c790       ??1?$CArray@HABH@@UAE@XZ   00553790 f i DlgLibraryManager.obj
 0002:0005c8a0       ?Serialize@?$CArray@HABH@@UAEXAAVCArchive@@@Z 005538a0 f i DlgLibraryManager.obj
 0002:0005c970       ?SetSize@?$CArray@HABH@@QAEXHH@Z 00553970 f i DlgLibraryManager.obj
 0002:0005cf00       ?Dump@?$CArray@HABH@@UBEXAAVCDumpContext@@@Z 00553f00 f i DlgLibraryManager.obj
 0002:0005cfe0       ?AssertValid@?$CArray@HABH@@UBEXXZ 00553fe0 f i DlgLibraryManager.obj
 0002:0005d140       ?GetSize@?$CArray@PAVCText@@ABQAV1@@@QBEHXZ 00554140 f i DlgLibraryManager.obj
 0002:0005d180       ??_G?$CArray@HABH@@UAEPAXI@Z 00554180 f i DlgLibraryManager.obj
 0002:0005d180       ??_E?$CArray@HABH@@UAEPAXI@Z 00554180 f i DlgLibraryManager.obj
 0002:0005d1f0       ?SetAtGrow@?$CArray@HABH@@QAEXHABH@Z 005541f0 f i DlgLibraryManager.obj
 0002:0005d2c0       ?_GetBaseClass@CDlgLog@@KGPAUCRuntimeClass@@XZ 005542c0 f   DlgLog.obj
 0002:0005d310       ?GetThisClass@CDlgLog@@SGPAUCRuntimeClass@@XZ 00554310 f   DlgLog.obj
 0002:0005d350       ?GetRuntimeClass@CDlgLog@@UBEPAUCRuntimeClass@@XZ 00554350 f   DlgLog.obj
 0002:0005d390       ??0CDlgLog@@QAE@PAVCWnd@@@Z 00554390 f   DlgLog.obj
 0002:0005d470       ??_GCDlgLog@@UAEPAXI@Z     00554470 f i DlgLog.obj
 0002:0005d470       ??_ECDlgLog@@UAEPAXI@Z     00554470 f i DlgLog.obj
 0002:0005d4e0       ??1CDlgLog@@UAE@XZ         005544e0 f   DlgLog.obj
 0002:0005d5a0       ?DoDataExchange@CDlgLog@@MAEXPAVCDataExchange@@@Z 005545a0 f   DlgLog.obj
 0002:0005d640       ?GetMessageMap@CDlgLog@@MBEPBUAFX_MSGMAP@@XZ 00554640 f   DlgLog.obj
 0002:0005d690       ?GetThisMessageMap@CDlgLog@@KGPBUAFX_MSGMAP@@XZ 00554690 f   DlgLog.obj
 0002:0005d6d0       ?Move@CDlgLog@@QAEXHH@Z    005546d0 f   DlgLog.obj
 0002:0005d7b0       ?Clear@CDlgLog@@QAEXXZ     005547b0 f   DlgLog.obj
 0002:0005d830       ?AddLine@CDlgLog@@QAEXPBD@Z 00554830 f   DlgLog.obj
 0002:0005d890       ?OnBnClickedOk@CDlgLog@@QAEXXZ 00554890 f   DlgLog.obj
 0002:0005d920       ?OnSetCursor@CDlgLog@@QAEHPAVCWnd@@II@Z 00554920 f   DlgLog.obj
 0002:0005d9b0       ?OnBnClickedHideMe@CDlgLog@@QAEXXZ 005549b0 f   DlgLog.obj
 0002:0005da10       ?_GetBaseClass@CDlgMoveOrigin@@KGPAUCRuntimeClass@@XZ 00554a10 f   DlgMoveOrigin.obj
 0002:0005da60       ?GetThisClass@CDlgMoveOrigin@@SGPAUCRuntimeClass@@XZ 00554a60 f   DlgMoveOrigin.obj
 0002:0005daa0       ?GetRuntimeClass@CDlgMoveOrigin@@UBEPAUCRuntimeClass@@XZ 00554aa0 f   DlgMoveOrigin.obj
 0002:0005dae0       ??0CDlgMoveOrigin@@QAE@PAVCWnd@@@Z 00554ae0 f   DlgMoveOrigin.obj
 0002:0005dc00       ??_ECDlgMoveOrigin@@UAEPAXI@Z 00554c00 f i DlgMoveOrigin.obj
 0002:0005dc00       ??_GCDlgMoveOrigin@@UAEPAXI@Z 00554c00 f i DlgMoveOrigin.obj
 0002:0005dc70       ??1CDlgMoveOrigin@@UAE@XZ  00554c70 f   DlgMoveOrigin.obj
 0002:0005dd80       ?DoDataExchange@CDlgMoveOrigin@@MAEXPAVCDataExchange@@@Z 00554d80 f   DlgMoveOrigin.obj
 0002:0005dee0       ?GetMessageMap@CDlgMoveOrigin@@MBEPBUAFX_MSGMAP@@XZ 00554ee0 f   DlgMoveOrigin.obj
 0002:0005df30       ?GetThisMessageMap@CDlgMoveOrigin@@KGPBUAFX_MSGMAP@@XZ 00554f30 f   DlgMoveOrigin.obj
 0002:0005df70       ?Initialize@CDlgMoveOrigin@@QAEXH@Z 00554f70 f   DlgMoveOrigin.obj
 0002:0005dfe0       ?GetFields@CDlgMoveOrigin@@QAEXXZ 00554fe0 f   DlgMoveOrigin.obj
 0002:0005e1d0       ?SetFields@CDlgMoveOrigin@@QAEXXZ 005551d0 f   DlgMoveOrigin.obj
 0002:0005e4b0       ?OnCbnSelchangeUnits@CDlgMoveOrigin@@QAEXXZ 005554b0 f   DlgMoveOrigin.obj
 0002:0005e510       ?OnBnClickedDrag@CDlgMoveOrigin@@QAEXXZ 00555510 f   DlgMoveOrigin.obj
 0002:0005e570       ?OnBnClickedSet@CDlgMoveOrigin@@QAEXXZ 00555570 f   DlgMoveOrigin.obj
 0002:0005e5d0       ?_GetBaseClass@CDlgMyMessageBox@@KGPAUCRuntimeClass@@XZ 005555d0 f   DlgMyMessageBox.obj
 0002:0005e620       ?GetThisClass@CDlgMyMessageBox@@SGPAUCRuntimeClass@@XZ 00555620 f   DlgMyMessageBox.obj
 0002:0005e660       ?GetRuntimeClass@CDlgMyMessageBox@@UBEPAUCRuntimeClass@@XZ 00555660 f   DlgMyMessageBox.obj
 0002:0005e6a0       ??0CDlgMyMessageBox@@QAE@PAVCWnd@@@Z 005556a0 f   DlgMyMessageBox.obj
 0002:0005e7a0       ??_ECDlgMyMessageBox@@UAEPAXI@Z 005557a0 f i DlgMyMessageBox.obj
 0002:0005e7a0       ??_GCDlgMyMessageBox@@UAEPAXI@Z 005557a0 f i DlgMyMessageBox.obj
 0002:0005e810       ??1CDlgMyMessageBox@@UAE@XZ 00555810 f   DlgMyMessageBox.obj
 0002:0005e900       ?DoDataExchange@CDlgMyMessageBox@@MAEXPAVCDataExchange@@@Z 00555900 f   DlgMyMessageBox.obj
 0002:0005ea30       ?GetMessageMap@CDlgMyMessageBox@@MBEPBUAFX_MSGMAP@@XZ 00555a30 f   DlgMyMessageBox.obj
 0002:0005ea80       ?GetThisMessageMap@CDlgMyMessageBox@@KGPBUAFX_MSGMAP@@XZ 00555a80 f   DlgMyMessageBox.obj
 0002:0005eac0       ?Initialize@CDlgMyMessageBox@@QAEXPBD@Z 00555ac0 f   DlgMyMessageBox.obj
 0002:0005eb30       ?_GetBaseClass@CDlgMyMessageBox2@@KGPAUCRuntimeClass@@XZ 00555b30 f   DlgMyMessageBox2.obj
 0002:0005eb80       ?GetThisClass@CDlgMyMessageBox2@@SGPAUCRuntimeClass@@XZ 00555b80 f   DlgMyMessageBox2.obj
 0002:0005ebc0       ?GetRuntimeClass@CDlgMyMessageBox2@@UBEPAUCRuntimeClass@@XZ 00555bc0 f   DlgMyMessageBox2.obj
 0002:0005ec00       ??0CDlgMyMessageBox2@@QAE@PAVCWnd@@@Z 00555c00 f   DlgMyMessageBox2.obj
 0002:0005ece0       ??_GCDlgMyMessageBox2@@UAEPAXI@Z 00555ce0 f i DlgMyMessageBox2.obj
 0002:0005ece0       ??_ECDlgMyMessageBox2@@UAEPAXI@Z 00555ce0 f i DlgMyMessageBox2.obj
 0002:0005ed50       ??1CDlgMyMessageBox2@@UAE@XZ 00555d50 f   DlgMyMessageBox2.obj
 0002:0005ee20       ?DoDataExchange@CDlgMyMessageBox2@@MAEXPAVCDataExchange@@@Z 00555e20 f   DlgMyMessageBox2.obj
 0002:0005ef40       ?GetMessageMap@CDlgMyMessageBox2@@MBEPBUAFX_MSGMAP@@XZ 00555f40 f   DlgMyMessageBox2.obj
 0002:0005ef90       ?GetThisMessageMap@CDlgMyMessageBox2@@KGPBUAFX_MSGMAP@@XZ 00555f90 f   DlgMyMessageBox2.obj
 0002:0005efd0       ?Initialize@CDlgMyMessageBox2@@QAEXPAV?$CStringT@DV?$StrTraitMFC_DLL@DV?$ChTraitsCRT@D@ATL@@@@@ATL@@@Z 00555fd0 f   DlgMyMessageBox2.obj
 0002:0005f020       ?CompareNetlistCombine@@YGHJJJ@Z 00556020 f   DlgNetCombine.obj
 0002:0005f3a0       ?_GetBaseClass@CDlgNetCombine@@KGPAUCRuntimeClass@@XZ 005563a0 f   DlgNetCombine.obj
 0002:0005f3f0       ?GetThisClass@CDlgNetCombine@@SGPAUCRuntimeClass@@XZ 005563f0 f   DlgNetCombine.obj
 0002:0005f430       ?GetRuntimeClass@CDlgNetCombine@@UBEPAUCRuntimeClass@@XZ 00556430 f   DlgNetCombine.obj
 0002:0005f470       ??0CDlgNetCombine@@QAE@PAVCWnd@@@Z 00556470 f   DlgNetCombine.obj
 0002:0005f5e0       ??_GCDlgNetCombine@@UAEPAXI@Z 005565e0 f i DlgNetCombine.obj
 0002:0005f5e0       ??_ECDlgNetCombine@@UAEPAXI@Z 005565e0 f i DlgNetCombine.obj
 0002:0005f650       ??1CDlgNetCombine@@UAE@XZ  00556650 f   DlgNetCombine.obj
 0002:0005f770       ?DoDataExchange@CDlgNetCombine@@MAEXPAVCDataExchange@@@Z 00556770 f   DlgNetCombine.obj
 0002:0005f7f0       ?GetMessageMap@CDlgNetCombine@@MBEPBUAFX_MSGMAP@@XZ 005567f0 f   DlgNetCombine.obj
 0002:0005f840       ?GetThisMessageMap@CDlgNetCombine@@KGPBUAFX_MSGMAP@@XZ 00556840 f   DlgNetCombine.obj
 0002:0005f880       ?Initialize@CDlgNetCombine@@QAEXPAVCNetList@@PAVCPartList@@@Z 00556880 f   DlgNetCombine.obj
 0002:0005f8e0       ?OnInitDialog@CDlgNetCombine@@EAEHXZ 005568e0 f   DlgNetCombine.obj
 0002:0005f9a0       ?DrawListCtrl@CDlgNetCombine@@AAEXXZ 005569a0 f   DlgNetCombine.obj
 0002:0005ff50       ?OnLvnColumnclickListNet@CDlgNetCombine@@AAEXPAUtagNMHDR@@PAJ@Z 00556f50 f   DlgNetCombine.obj
 0002:000601a0       ?OnBnClickedOk@CDlgNetCombine@@AAEXXZ 005571a0 f   DlgNetCombine.obj
 0002:00060450       ?OnBnClickedCancel@CDlgNetCombine@@AAEXXZ 00557450 f   DlgNetCombine.obj
 0002:000604c0       ?CompareNetlist@@YGHJJJ@Z  005574c0 f   DlgNetlist.obj
 0002:00060840       ?_GetBaseClass@CDlgNetlist@@KGPAUCRuntimeClass@@XZ 00557840 f   DlgNetlist.obj
 0002:00060890       ?GetThisClass@CDlgNetlist@@SGPAUCRuntimeClass@@XZ 00557890 f   DlgNetlist.obj
 0002:000608d0       ?GetRuntimeClass@CDlgNetlist@@UBEPAUCRuntimeClass@@XZ 005578d0 f   DlgNetlist.obj
 0002:00060910       ??0CDlgNetlist@@QAE@PAVCWnd@@@Z 00557910 f   DlgNetlist.obj
 0002:00060b00       ??_GCDlgNetlist@@UAEPAXI@Z 00557b00 f i DlgNetlist.obj
 0002:00060b00       ??_ECDlgNetlist@@UAEPAXI@Z 00557b00 f i DlgNetlist.obj
 0002:00060b70       ??1CDlgNetlist@@UAE@XZ     00557b70 f   DlgNetlist.obj
 0002:00060d10       ?DoDataExchange@CDlgNetlist@@MAEXPAVCDataExchange@@@Z 00557d10 f   DlgNetlist.obj
 0002:00061000       ?GetMessageMap@CDlgNetlist@@MBEPBUAFX_MSGMAP@@XZ 00558000 f   DlgNetlist.obj
 0002:00061050       ?GetThisMessageMap@CDlgNetlist@@KGPBUAFX_MSGMAP@@XZ 00558050 f   DlgNetlist.obj
 0002:00061090       ?Initialize@CDlgNetlist@@QAEXPAVCNetList@@PAVCPartList@@PAV?$CArray@HABH@@22HH@Z 00558090 f   DlgNetlist.obj
 0002:00061130       ?OnInitDialog@CDlgNetlist@@EAEHXZ 00558130 f   DlgNetlist.obj
 0002:00061240       ?DrawListCtrl@CDlgNetlist@@AAEXXZ 00558240 f   DlgNetlist.obj
 0002:000618d0       ?OnLvnColumnclickListNet@CDlgNetlist@@AAEXPAUtagNMHDR@@PAJ@Z 005588d0 f   DlgNetlist.obj
 0002:00061b20       ?OnBnClickedButtonVisible@CDlgNetlist@@AAEXXZ 00558b20 f   DlgNetlist.obj
 0002:00061ca0       ?OnBnClickedButtonEdit@CDlgNetlist@@AAEXXZ 00558ca0 f   DlgNetlist.obj
 0002:00061f60       ?OnBnClickedButtonAdd@CDlgNetlist@@AAEXXZ 00558f60 f   DlgNetlist.obj
 0002:000620f0       ?OnBnClickedOk@CDlgNetlist@@AAEXXZ 005590f0 f   DlgNetlist.obj
 0002:00062160       ?OnBnClickedCancel@CDlgNetlist@@AAEXXZ 00559160 f   DlgNetlist.obj
 0002:000621d0       ?OnBnClickedButtonSelectAll@CDlgNetlist@@AAEXXZ 005591d0 f   DlgNetlist.obj
 0002:00062270       ?OnBnClickedButtonDelete@CDlgNetlist@@AAEXXZ 00559270 f   DlgNetlist.obj
 0002:000623b0       ?OnBnClickedButtonNLWidth@CDlgNetlist@@AAEXXZ 005593b0 f   DlgNetlist.obj
 0002:00062aa0       ?OnBnClickedDeleteNetsWithNoPins@CDlgNetlist@@AAEXXZ 00559aa0 f   DlgNetlist.obj
 0002:00062b90       ?OnBnClickedDeleteNetsWith_1_Pins@CDlgNetlist@@AAEXXZ 00559b90 f   DlgNetlist.obj
 0002:00062c80       ?OnNMClickListNet@CDlgNetlist@@AAEXPAUtagNMHDR@@PAJ@Z 00559c80 f   DlgNetlist.obj
 0002:00062e20       ?ComparePartlist@@YGHJJJ@Z 00559e20 f   DlgPartlist.obj
 0002:00063140       ?_GetBaseClass@CDlgPartlist@@KGPAUCRuntimeClass@@XZ 0055a140 f   DlgPartlist.obj
 0002:00063190       ?GetThisClass@CDlgPartlist@@SGPAUCRuntimeClass@@XZ 0055a190 f   DlgPartlist.obj
 0002:000631d0       ?GetRuntimeClass@CDlgPartlist@@UBEPAUCRuntimeClass@@XZ 0055a1d0 f   DlgPartlist.obj
 0002:00063210       ??0CDlgPartlist@@QAE@PAVCWnd@@@Z 0055a210 f   DlgPartlist.obj
 0002:00063360       ??_GCDlgPartlist@@UAEPAXI@Z 0055a360 f i DlgPartlist.obj
 0002:00063360       ??_ECDlgPartlist@@UAEPAXI@Z 0055a360 f i DlgPartlist.obj
 0002:000633d0       ??1CDlgPartlist@@UAE@XZ    0055a3d0 f   DlgPartlist.obj
 0002:00063510       ?DoDataExchange@CDlgPartlist@@MAEXPAVCDataExchange@@@Z 0055a510 f   DlgPartlist.obj
 0002:00063730       ?GetMessageMap@CDlgPartlist@@MBEPBUAFX_MSGMAP@@XZ 0055a730 f   DlgPartlist.obj
 0002:00063780       ?GetThisMessageMap@CDlgPartlist@@KGPBUAFX_MSGMAP@@XZ 0055a780 f   DlgPartlist.obj
 0002:000637c0       ?OnInitDialog@CDlgPartlist@@UAEHXZ 0055a7c0 f   DlgPartlist.obj
 0002:00063880       ?DrawListCtrl@CDlgPartlist@@QAEXXZ 0055a880 f   DlgPartlist.obj
 0002:00063e90       ?Initialize@CDlgPartlist@@QAEXPAVCPartList@@PAVCMapStringToPtr@@PAVCFootLibFolderMap@@HPAVCDlgLog@@HPAV?$CStringT@DV?$StrTraitMFC_DLL@DV?$ChTraitsCRT@D@ATL@@@@@ATL@@@Z 0055ae90 f   DlgPartlist.obj
 0002:00063f50       ?OnBnClickedButtonEdit@CDlgPartlist@@QAEXXZ 0055af50 f   DlgPartlist.obj
 0002:00064700       ?OnBnClickedButtonAdd@CDlgPartlist@@QAEXXZ 0055b700 f   DlgPartlist.obj
 0002:00064930       ?OnBnClickedButtonDelete@CDlgPartlist@@QAEXXZ 0055b930 f   DlgPartlist.obj
 0002:00064ac0       ?OnLvnColumnClickList1@CDlgPartlist@@QAEXPAUtagNMHDR@@PAJ@Z 0055bac0 f   DlgPartlist.obj
 0002:00064cb0       ?OnBnClickedValueVisible@CDlgPartlist@@QAEXXZ 0055bcb0 f   DlgPartlist.obj
 0002:00064dc0       ?OnBnClickedValueInvisible@CDlgPartlist@@QAEXXZ 0055bdc0 f   DlgPartlist.obj
 0002:00064ec0       ?OnNMClickList1@CDlgPartlist@@QAEXPAUtagNMHDR@@PAJ@Z 0055bec0 f   DlgPartlist.obj
 0002:00064ff0       ?SaveSelections@CDlgPartlist@@QAEXXZ 0055bff0 f   DlgPartlist.obj
 0002:00065150       ?RestoreSelections@CDlgPartlist@@QAEXXZ 0055c150 f   DlgPartlist.obj
 0002:00065250       ??0?$CArray@Upart_info@@ABU1@@@QAE@XZ 0055c250 f i DlgPartlist.obj
 0002:000652e0       ?Serialize@?$CArray@Upart_info@@ABU1@@@UAEXAAVCArchive@@@Z 0055c2e0 f i DlgPartlist.obj
 0002:000653b0       ?Dump@?$CArray@Upart_info@@ABU1@@@UBEXAAVCDumpContext@@@Z 0055c3b0 f i DlgPartlist.obj
 0002:00065490       ?AssertValid@?$CArray@Upart_info@@ABU1@@@UBEXXZ 0055c490 f i DlgPartlist.obj
 0002:000655f0       ??_G?$CArray@Upart_info@@ABU1@@@UAEPAXI@Z 0055c5f0 f i DlgPartlist.obj
 0002:000655f0       ??_E?$CArray@Upart_info@@ABU1@@@UAEPAXI@Z 0055c5f0 f i DlgPartlist.obj
 0002:00065660       ??1?$CArray@Upart_info@@ABU1@@@UAE@XZ 0055c660 f i DlgPartlist.obj
 0002:00065790       ??$SerializeElements@Upart_info@@@@YGXAAVCArchive@@PAUpart_info@@H@Z 0055c790 f i DlgPartlist.obj
 0002:00065980       ??$DumpElements@Upart_info@@@@YGXAAVCDumpContext@@PBUpart_info@@H@Z 0055c980 f i DlgPartlist.obj
 0002:00065a70       ?WidthCompare@@YGHJJJ@Z    0055ca70 f   DlgProjectOptions.obj
 0002:00065ad0       ?_GetBaseClass@CDlgProjectOptions@@KGPAUCRuntimeClass@@XZ 0055cad0 f   DlgProjectOptions.obj
 0002:00065b20       ?GetThisClass@CDlgProjectOptions@@SGPAUCRuntimeClass@@XZ 0055cb20 f   DlgProjectOptions.obj
 0002:00065b60       ?GetRuntimeClass@CDlgProjectOptions@@UBEPAUCRuntimeClass@@XZ 0055cb60 f   DlgProjectOptions.obj
 0002:00065ba0       ??0CDlgProjectOptions@@QAE@PAVCWnd@@@Z 0055cba0 f   DlgProjectOptions.obj
 0002:00065e00       ??_GCDlgProjectOptions@@UAEPAXI@Z 0055ce00 f i DlgProjectOptions.obj
 0002:00065e00       ??_ECDlgProjectOptions@@UAEPAXI@Z 0055ce00 f i DlgProjectOptions.obj
 0002:00065e70       ??1CDlgProjectOptions@@UAE@XZ 0055ce70 f   DlgProjectOptions.obj
 0002:00066060       ?DoDataExchange@CDlgProjectOptions@@EAEXPAVCDataExchange@@@Z 0055d060 f   DlgProjectOptions.obj
 0002:00067590       ?GetMessageMap@CDlgProjectOptions@@MBEPBUAFX_MSGMAP@@XZ 0055e590 f   DlgProjectOptions.obj
 0002:000675e0       ?GetThisMessageMap@CDlgProjectOptions@@KGPBUAFX_MSGMAP@@XZ 0055e5e0 f   DlgProjectOptions.obj
 0002:00067620       ?Init@CDlgProjectOptions@@QAEXHPAV?$CStringT@DV?$StrTraitMFC_DLL@DV?$ChTraitsCRT@D@ATL@@@@@ATL@@000HHHHHHHHHPAV?$CArray@HABH@@11@Z 0055e620 f   DlgProjectOptions.obj
 0002:00067a50       ?OnInitDialog@CDlgProjectOptions@@EAEHXZ 0055ea50 f   DlgProjectOptions.obj
 0002:00068040       ?OnBnClickedButtonAdd@CDlgProjectOptions@@IAEXXZ 0055f040 f   DlgProjectOptions.obj
 0002:000684c0       ?OnBnClickedButtonEdit@CDlgProjectOptions@@IAEXXZ 0055f4c0 f   DlgProjectOptions.obj
 0002:00068a10       ?OnBnClickedButtonDelete@CDlgProjectOptions@@IAEXXZ 0055fa10 f   DlgProjectOptions.obj
 0002:00068af0       ?OnEnChangeEditName@CDlgProjectOptions@@IAEXXZ 0055faf0 f   DlgProjectOptions.obj
 0002:00068ca0       ?OnEnChangeEditFolder@CDlgProjectOptions@@IAEXXZ 0055fca0 f   DlgProjectOptions.obj
 0002:00068d00       ?OnEnSetfocusEditFolder@CDlgProjectOptions@@IAEXXZ 0055fd00 f   DlgProjectOptions.obj
 0002:00068d50       ?OnEnKillfocusEditFolder@CDlgProjectOptions@@IAEXXZ 0055fd50 f   DlgProjectOptions.obj
 0002:00068da0       ?OnBnClickedCheckAutosave@CDlgProjectOptions@@QAEXXZ 0055fda0 f   DlgProjectOptions.obj
 0002:00068e40       ?OnBnClickedButtonLib@CDlgProjectOptions@@QAEXXZ 0055fe40 f   DlgProjectOptions.obj
 0002:00069040       ?OnBnClickedButtonProjectFolder@CDlgProjectOptions@@QAEXXZ 00560040 f   DlgProjectOptions.obj
 0002:000692a0       ?OnBnClickedCheckAutoRatDisable@CDlgProjectOptions@@QAEXXZ 005602a0 f   DlgProjectOptions.obj
 0002:00069310       ?GetAt@?$CArray@HABH@@QAEAAHH@Z 00560310 f i DlgProjectOptions.obj
 0002:000693c0       ?SetAt@?$CArray@HABH@@QAEXHABH@Z 005603c0 f i DlgProjectOptions.obj
 0002:00069470       ?_GetBaseClass@CDlgReassignLayers@@KGPAUCRuntimeClass@@XZ 00560470 f   DlgReassignLayers.obj
 0002:000694c0       ?GetThisClass@CDlgReassignLayers@@SGPAUCRuntimeClass@@XZ 005604c0 f   DlgReassignLayers.obj
 0002:00069500       ?GetRuntimeClass@CDlgReassignLayers@@UBEPAUCRuntimeClass@@XZ 00560500 f   DlgReassignLayers.obj
 0002:00069540       ??0CDlgReassignLayers@@QAE@PAVCWnd@@@Z 00560540 f   DlgReassignLayers.obj
 0002:00069620       ??_ECDlgReassignLayers@@UAEPAXI@Z 00560620 f i DlgReassignLayers.obj
 0002:00069620       ??_GCDlgReassignLayers@@UAEPAXI@Z 00560620 f i DlgReassignLayers.obj
 0002:00069690       ??1CDlgReassignLayers@@UAE@XZ 00560690 f   DlgReassignLayers.obj
 0002:00069750       ?DoDataExchange@CDlgReassignLayers@@MAEXPAVCDataExchange@@@Z 00560750 f   DlgReassignLayers.obj
 0002:00069b60       ?Initialize@CDlgReassignLayers@@QAEXHH@Z 00560b60 f   DlgReassignLayers.obj
 0002:00069bc0       ?GetMessageMap@CDlgReassignLayers@@MBEPBUAFX_MSGMAP@@XZ 00560bc0 f   DlgReassignLayers.obj
 0002:00069c10       ?GetThisMessageMap@CDlgReassignLayers@@KGPBUAFX_MSGMAP@@XZ 00560c10 f   DlgReassignLayers.obj
 0002:00069c50       ?_GetBaseClass@CDlgRefText@@KGPAUCRuntimeClass@@XZ 00560c50 f   DlgRefText.obj
 0002:00069ca0       ?GetThisClass@CDlgRefText@@SGPAUCRuntimeClass@@XZ 00560ca0 f   DlgRefText.obj
 0002:00069ce0       ?GetRuntimeClass@CDlgRefText@@UBEPAUCRuntimeClass@@XZ 00560ce0 f   DlgRefText.obj
 0002:00069d20       ??0CDlgRefText@@QAE@PAVCWnd@@@Z 00560d20 f   DlgRefText.obj
 0002:00069eb0       ??_GCDlgRefText@@UAEPAXI@Z 00560eb0 f i DlgRefText.obj
 0002:00069eb0       ??_ECDlgRefText@@UAEPAXI@Z 00560eb0 f i DlgRefText.obj
 0002:00069f20       ??1CDlgRefText@@UAE@XZ     00560f20 f   DlgRefText.obj
 0002:0006a0a0       ?DoDataExchange@CDlgRefText@@MAEXPAVCDataExchange@@@Z 005610a0 f   DlgRefText.obj
 0002:0006a3f0       ?Initialize@CDlgRefText@@QAEXPAVCPartList@@PAVcpart@@PAVCMapStringToPtr@@@Z 005613f0 f   DlgRefText.obj
 0002:0006a500       ?GetMessageMap@CDlgRefText@@MBEPBUAFX_MSGMAP@@XZ 00561500 f   DlgRefText.obj
 0002:0006a550       ?GetThisMessageMap@CDlgRefText@@KGPBUAFX_MSGMAP@@XZ 00561550 f   DlgRefText.obj
 0002:0006a590       ?OnBnClickedRadioSet@CDlgRefText@@QAEXXZ 00561590 f   DlgRefText.obj
 0002:0006a5f0       ?OnBnClickedRadioDef@CDlgRefText@@QAEXXZ 005615f0 f   DlgRefText.obj
 0002:0006a650       ?OnEnChangeEditCharHeight@CDlgRefText@@QAEXXZ 00561650 f   DlgRefText.obj
 0002:0006a900       ?GetFields@CDlgRefText@@QAEXXZ 00561900 f   DlgRefText.obj
 0002:0006ac00       ?SetFields@CDlgRefText@@QAEXXZ 00561c00 f   DlgRefText.obj
 0002:0006af90       ?OnCbnSelchangeComboRefTextUnits@CDlgRefText@@QAEXXZ 00561f90 f   DlgRefText.obj
 0002:0006b030       ?_GetBaseClass@CDlgReport@@KGPAUCRuntimeClass@@XZ 00562030 f   DlgReport.obj
 0002:0006b080       ?GetThisClass@CDlgReport@@SGPAUCRuntimeClass@@XZ 00562080 f   DlgReport.obj
 0002:0006b0c0       ?GetRuntimeClass@CDlgReport@@UBEPAUCRuntimeClass@@XZ 005620c0 f   DlgReport.obj
 0002:0006b100       ??0CDlgReport@@QAE@PAVCWnd@@@Z 00562100 f   DlgReport.obj
 0002:0006b2b0       ??_ECDlgReport@@UAEPAXI@Z  005622b0 f i DlgReport.obj
 0002:0006b2b0       ??_GCDlgReport@@UAEPAXI@Z  005622b0 f i DlgReport.obj
 0002:0006b320       ??1CDlgReport@@UAE@XZ      00562320 f   DlgReport.obj
 0002:0006b4c0       ?DoDataExchange@CDlgReport@@MAEXPAVCDataExchange@@@Z 005624c0 f   DlgReport.obj
 0002:0006b800       ?Initialize@CDlgReport@@QAEXPAVCFreePcbDoc@@@Z 00562800 f   DlgReport.obj
 0002:0006b8f0       ?GetMessageMap@CDlgReport@@MBEPBUAFX_MSGMAP@@XZ 005628f0 f   DlgReport.obj
 0002:0006b940       ?GetThisMessageMap@CDlgReport@@KGPBUAFX_MSGMAP@@XZ 00562940 f   DlgReport.obj
 0002:0006b980       ?mycompare@@YAHPBX0@Z      00562980 f   DlgReport.obj
 0002:0006ba00       ?OnBnClickedOk@CDlgReport@@QAEXXZ 00562a00 f   DlgReport.obj
 0002:00072b60       ?OnBnClickedCancel@CDlgReport@@QAEXXZ 00569b60 f   DlgReport.obj
 0002:00072bd0       ?GetSize@?$CArray@Uglue@@ABU1@@@QBEHXZ 00569bd0 f i DlgReport.obj
 0002:00072c10       ??A?$CArray@Uglue@@ABU1@@@QAEAAUglue@@H@Z 00569c10 f i DlgReport.obj
 0002:00072c70       ?GetSize@?$CArray@Vcvertex@@ABV1@@@QBEHXZ 00569c70 f i DlgReport.obj
 0002:00072cb0       ??A?$CArray@Vcvertex@@ABV1@@@QAEAAVcvertex@@H@Z 00569cb0 f i DlgReport.obj
 0002:00072d10       ??A?$CArray@Vcconnect@@ABV1@@@QAEAAVcconnect@@H@Z 00569d10 f i DlgReport.obj
 0002:00072d70       ??0?$CMap@HHHH@@QAE@H@Z    00569d70 f i DlgReport.obj
 0002:00072e80       ?Lookup@?$CMap@HHHH@@QBEHHAAH@Z 00569e80 f i DlgReport.obj
 0002:00072f80       ?SetAt@?$CMap@HHHH@@QAEXHH@Z 00569f80 f i DlgReport.obj
 0002:00072fe0       ?GetStartPosition@?$CMap@HHHH@@QBEPAU__POSITION@@XZ 00569fe0 f i DlgReport.obj
 0002:00073030       ?GetNextAssoc@?$CMap@HHHH@@QBEXAAPAU__POSITION@@AAH1@Z 0056a030 f i DlgReport.obj
 0002:00073270       ??1?$CMap@HHHH@@UAE@XZ     0056a270 f i DlgReport.obj
 0002:00073340       ?Serialize@?$CMap@HHHH@@UAEXAAVCArchive@@@Z 0056a340 f i DlgReport.obj
 0002:00073560       ?Dump@?$CMap@HHHH@@UBEXAAVCDumpContext@@@Z 0056a560 f i DlgReport.obj
 0002:000736e0       ?AssertValid@?$CMap@HHHH@@UBEXXZ 0056a6e0 f i DlgReport.obj
 0002:00073790       ??0?$CArray@V?$CArray@V?$CStringT@DV?$StrTraitMFC_DLL@DV?$ChTraitsCRT@D@ATL@@@@@ATL@@ABV12@@@ABV1@@@QAE@XZ 0056a790 f i DlgReport.obj
 0002:00073820       ?SetSize@?$CArray@V?$CArray@V?$CStringT@DV?$StrTraitMFC_DLL@DV?$ChTraitsCRT@D@ATL@@@@@ATL@@ABV12@@@ABV1@@@QAEXHH@Z 0056a820 f i DlgReport.obj
 0002:00073f70       ??A?$CArray@V?$CArray@V?$CStringT@DV?$StrTraitMFC_DLL@DV?$ChTraitsCRT@D@ATL@@@@@ATL@@ABV12@@@ABV1@@@QAEAAV?$CArray@V?$CStringT@DV?$StrTraitMFC_DLL@DV?$ChTraitsCRT@D@ATL@@@@@ATL@@ABV12@@@H@Z 0056af70 f i DlgReport.obj
 0002:00073fd0       ??1?$CArray@V?$CArray@V?$CStringT@DV?$StrTraitMFC_DLL@DV?$ChTraitsCRT@D@ATL@@@@@ATL@@ABV12@@@ABV1@@@UAE@XZ 0056afd0 f i DlgReport.obj
 0002:00074120       ?Serialize@?$CArray@V?$CArray@V?$CStringT@DV?$StrTraitMFC_DLL@DV?$ChTraitsCRT@D@ATL@@@@@ATL@@ABV12@@@ABV1@@@UAEXAAVCArchive@@@Z 0056b120 f i DlgReport.obj
 0002:000741f0       ?Dump@?$CArray@V?$CArray@V?$CStringT@DV?$StrTraitMFC_DLL@DV?$ChTraitsCRT@D@ATL@@@@@ATL@@ABV12@@@ABV1@@@UBEXAAVCDumpContext@@@Z 0056b1f0 f i DlgReport.obj
 0002:000742d0       ?AssertValid@?$CArray@V?$CArray@V?$CStringT@DV?$StrTraitMFC_DLL@DV?$ChTraitsCRT@D@ATL@@@@@ATL@@ABV12@@@ABV1@@@UBEXXZ 0056b2d0 f i DlgReport.obj
 0002:00074430       ??_G?$CMap@HHHH@@UAEPAXI@Z 0056b430 f i DlgReport.obj
 0002:00074430       ??_E?$CMap@HHHH@@UAEPAXI@Z 0056b430 f i DlgReport.obj
 0002:000744a0       ??_G?$CArray@V?$CArray@V?$CStringT@DV?$StrTraitMFC_DLL@DV?$ChTraitsCRT@D@ATL@@@@@ATL@@ABV12@@@ABV1@@@UAEPAXI@Z 0056b4a0 f i DlgReport.obj
 0002:000744a0       ??_E?$CArray@V?$CArray@V?$CStringT@DV?$StrTraitMFC_DLL@DV?$ChTraitsCRT@D@ATL@@@@@ATL@@ABV12@@@ABV1@@@UAEPAXI@Z 0056b4a0 f i DlgReport.obj
 0002:00074510       ?ElementAt@?$CArray@Uglue@@ABU1@@@QAEAAUglue@@H@Z 0056b510 f i DlgReport.obj
 0002:000745c0       ?ElementAt@?$CArray@Vcvertex@@ABV1@@@QAEAAVcvertex@@H@Z 0056b5c0 f i DlgReport.obj
 0002:00074670       ?ElementAt@?$CArray@Vcconnect@@ABV1@@@QAEAAVcconnect@@H@Z 0056b670 f i DlgReport.obj
 0002:00074720       ??A?$CMap@HHHH@@QAEAAHH@Z  0056b720 f i DlgReport.obj
 0002:000748c0       ?RemoveAll@?$CMap@HHHH@@QAEXXZ 0056b8c0 f i DlgReport.obj
 0002:000749e0       ?GetAssocAt@?$CMap@HHHH@@IBEPAVCAssoc@1@HAAI0@Z 0056b9e0 f i DlgReport.obj
 0002:00074ac0       ?ElementAt@?$CArray@V?$CArray@V?$CStringT@DV?$StrTraitMFC_DLL@DV?$ChTraitsCRT@D@ATL@@@@@ATL@@ABV12@@@ABV1@@@QAEAAV?$CArray@V?$CStringT@DV?$StrTraitMFC_DLL@DV?$ChTraitsCRT@D@ATL@@@@@ATL@@ABV12@@@H@Z 0056bac0 f i DlgReport.obj
 0002:00074b70       ??$SerializeElements@V?$CArray@V?$CStringT@DV?$StrTraitMFC_DLL@DV?$ChTraitsCRT@D@ATL@@@@@ATL@@ABV12@@@@@YGXAAVCArchive@@PAV?$CArray@V?$CStringT@DV?$StrTraitMFC_DLL@DV?$ChTraitsCRT@D@ATL@@@@@ATL@@ABV12@@@H@Z 0056bb70 f i DlgReport.obj
 0002:00074d60       ??$DumpElements@V?$CArray@V?$CStringT@DV?$StrTraitMFC_DLL@DV?$ChTraitsCRT@D@ATL@@@@@ATL@@ABV12@@@@@YGXAAVCDumpContext@@PBV?$CArray@V?$CStringT@DV?$StrTraitMFC_DLL@DV?$ChTraitsCRT@D@ATL@@@@@ATL@@ABV12@@@H@Z 0056bd60 f i DlgReport.obj
 0002:00074e50       ?InitHashTable@?$CMap@HHHH@@QAEXIH@Z 0056be50 f i DlgReport.obj
 0002:00074fe0       ?NewAssoc@?$CMap@HHHH@@IAEPAVCAssoc@1@H@Z 0056bfe0 f i DlgReport.obj
 0002:00075230       ??$HashKey@H@@YGIH@Z       0056c230 f i DlgReport.obj
 0002:00075330       ??$CompareElements@HH@@YGHPBH0@Z 0056c330 f i DlgReport.obj
 0002:00075450       ??0CAssoc@?$CMap@HHHH@@QAE@H@Z 0056c450 f i DlgReport.obj
 0002:000754b0       ??0CPair@?$CMap@HHHH@@IAE@H@Z 0056c4b0 f i DlgReport.obj
 0002:00075500       ?data@CPlex@@QAEPAXXZ      0056c500 f i DlgReport.obj
 0002:00075540       ?GetNumParts@CPartList@@QAEHXZ 0056c540 f i DlgReport.obj
 0002:00075580       ?SetAtGrow@?$CArray@V?$CStringT@DV?$StrTraitMFC_DLL@DV?$ChTraitsCRT@D@ATL@@@@@ATL@@ABV12@@@QAEXHABV?$CStringT@DV?$StrTraitMFC_DLL@DV?$ChTraitsCRT@D@ATL@@@@@ATL@@@Z 0056c580 f i DlgReport.obj
 0002:00075660       ?_GetBaseClass@CDlgSaveFootprint@@KGPAUCRuntimeClass@@XZ 0056c660 f   DlgSaveFootprint.obj
 0002:000756b0       ?GetThisClass@CDlgSaveFootprint@@SGPAUCRuntimeClass@@XZ 0056c6b0 f   DlgSaveFootprint.obj
 0002:000756f0       ?GetRuntimeClass@CDlgSaveFootprint@@UBEPAUCRuntimeClass@@XZ 0056c6f0 f   DlgSaveFootprint.obj
 0002:00075730       ??0CDlgSaveFootprint@@QAE@PAVCWnd@@@Z 0056c730 f   DlgSaveFootprint.obj
 0002:00075970       ??_GCDlgSaveFootprint@@UAEPAXI@Z 0056c970 f i DlgSaveFootprint.obj
 0002:00075970       ??_ECDlgSaveFootprint@@UAEPAXI@Z 0056c970 f i DlgSaveFootprint.obj
 0002:000759e0       ??1CDlgSaveFootprint@@UAE@XZ 0056c9e0 f   DlgSaveFootprint.obj
 0002:00075c10       ?DoDataExchange@CDlgSaveFootprint@@MAEXPAVCDataExchange@@@Z 0056cc10 f   DlgSaveFootprint.obj
 0002:00076070       ?Initialize@CDlgSaveFootprint@@QAEXPAV?$CStringT@DV?$StrTraitMFC_DLL@DV?$ChTraitsCRT@D@ATL@@@@@ATL@@PAVCShape@@HPBDPAVCMapStringToPtr@@PAVCFootLibFolderMap@@PAVCDlgLog@@@Z 0056d070 f   DlgSaveFootprint.obj
 0002:00076220       ?GetMessageMap@CDlgSaveFootprint@@MBEPBUAFX_MSGMAP@@XZ 0056d220 f   DlgSaveFootprint.obj
 0002:00076270       ?GetThisMessageMap@CDlgSaveFootprint@@KGPBUAFX_MSGMAP@@XZ 0056d270 f   DlgSaveFootprint.obj
 0002:000762b0       ?OnCbnSelchangeComboLibs@CDlgSaveFootprint@@QAEXXZ 0056d2b0 f   DlgSaveFootprint.obj
 0002:00076310       ?OnBnClickedOk@CDlgSaveFootprint@@QAEXXZ 0056d310 f   DlgSaveFootprint.obj
 0002:00078870       ??0CFootLibFolder@@QAE@XZ  0056f870 f i DlgSaveFootprint.obj
 0002:00078940       ??_GCFootLibFolder@@QAEPAXI@Z 0056f940 f i DlgSaveFootprint.obj
 0002:000789b0       ?OnBnClickedButtonBrowse@CDlgSaveFootprint@@QAEXXZ 0056f9b0 f   DlgSaveFootprint.obj
 0002:00078df0       ?InitFileList@CDlgSaveFootprint@@QAEXXZ 0056fdf0 f   DlgSaveFootprint.obj
 0002:00079340       ??8ATL@@YA_NPBDABV?$CStringT@DV?$StrTraitMFC_DLL@DV?$ChTraitsCRT@D@ATL@@@@@0@@Z 00570340 f i DlgSaveFootprint.obj
 0002:000793b0       ??0?$CArray@VCFootLib@@ABV1@@@QAE@XZ 005703b0 f i DlgSaveFootprint.obj
 0002:00079440       ??$strcat@$0BAA@@@YAPADAAY0BAA@DPBD@Z 00570440 f i DlgSaveFootprint.obj
 0002:000794b0       ??1CFootLibFolder@@QAE@XZ  005704b0 f i DlgSaveFootprint.obj
 0002:00079580       ??1?$CArray@VCFootLib@@ABV1@@@UAE@XZ 00570580 f i DlgSaveFootprint.obj
 0002:000796b0       ?Serialize@?$CArray@VCFootLib@@ABV1@@@UAEXAAVCArchive@@@Z 005706b0 f i DlgSaveFootprint.obj
 0002:00079780       ?Dump@?$CArray@VCFootLib@@ABV1@@@UBEXAAVCDumpContext@@@Z 00570780 f i DlgSaveFootprint.obj
 0002:00079860       ?AssertValid@?$CArray@VCFootLib@@ABV1@@@UBEXXZ 00570860 f i DlgSaveFootprint.obj
 0002:000799c0       ??_E?$CArray@VCFootLib@@ABV1@@@UAEPAXI@Z 005709c0 f i DlgSaveFootprint.obj
 0002:000799c0       ??_G?$CArray@VCFootLib@@ABV1@@@UAEPAXI@Z 005709c0 f i DlgSaveFootprint.obj
 0002:00079a30       ??_GCFootLib@@QAEPAXI@Z    00570a30 f i DlgSaveFootprint.obj
 0002:00079aa0       ??1CFootLib@@QAE@XZ        00570aa0 f i DlgSaveFootprint.obj
 0002:00079b70       ??1?$CArray@VCFootLibEntry@@ABV1@@@UAE@XZ 00570b70 f i DlgSaveFootprint.obj
 0002:00079ca0       ?Serialize@?$CArray@VCFootLibEntry@@ABV1@@@UAEXAAVCArchive@@@Z 00570ca0 f i DlgSaveFootprint.obj
 0002:00079d70       ?Dump@?$CArray@VCFootLibEntry@@ABV1@@@UBEXAAVCDumpContext@@@Z 00570d70 f i DlgSaveFootprint.obj
 0002:00079e50       ?AssertValid@?$CArray@VCFootLibEntry@@ABV1@@@UBEXXZ 00570e50 f i DlgSaveFootprint.obj
 0002:00079fb0       ??_E?$CArray@VCFootLibEntry@@ABV1@@@UAEPAXI@Z 00570fb0 f i DlgSaveFootprint.obj
 0002:00079fb0       ??_G?$CArray@VCFootLibEntry@@ABV1@@@UAEPAXI@Z 00570fb0 f i DlgSaveFootprint.obj
 0002:0007a020       ??_GCFootLibEntry@@QAEPAXI@Z 00571020 f i DlgSaveFootprint.obj
 0002:0007a090       ??1CFootLibEntry@@QAE@XZ   00571090 f i DlgSaveFootprint.obj
 0002:0007a110       ?SetSize@?$CArray@VCFootLibEntry@@ABV1@@@QAEXHH@Z 00571110 f i DlgSaveFootprint.obj
 0002:0007a810       ??0CFootLibEntry@@QAE@XZ   00571810 f i DlgSaveFootprint.obj
 0002:0007a930       ??$SerializeElements@VCFootLibEntry@@@@YGXAAVCArchive@@PAVCFootLibEntry@@H@Z 00571930 f i DlgSaveFootprint.obj
 0002:0007ab20       ??$DumpElements@VCFootLibEntry@@@@YGXAAVCDumpContext@@PBVCFootLibEntry@@H@Z 00571b20 f i DlgSaveFootprint.obj
 0002:0007ac10       ?SetSize@?$CArray@VCFootLib@@ABV1@@@QAEXHH@Z 00571c10 f i DlgSaveFootprint.obj
 0002:0007b310       ??0CFootLib@@QAE@XZ        00572310 f i DlgSaveFootprint.obj
 0002:0007b400       ??0?$CArray@VCFootLibEntry@@ABV1@@@QAE@XZ 00572400 f i DlgSaveFootprint.obj
 0002:0007b490       ??$SerializeElements@VCFootLib@@@@YGXAAVCArchive@@PAVCFootLib@@H@Z 00572490 f i DlgSaveFootprint.obj
 0002:0007b680       ??$DumpElements@VCFootLib@@@@YGXAAVCDumpContext@@PBVCFootLib@@H@Z 00572680 f i DlgSaveFootprint.obj
 0002:0007b770       ?_GetBaseClass@CDlgSaveLib@@KGPAUCRuntimeClass@@XZ 00572770 f   DlgSaveLib.obj
 0002:0007b7c0       ?GetThisClass@CDlgSaveLib@@SGPAUCRuntimeClass@@XZ 005727c0 f   DlgSaveLib.obj
 0002:0007b800       ?GetRuntimeClass@CDlgSaveLib@@UBEPAUCRuntimeClass@@XZ 00572800 f   DlgSaveLib.obj
 0002:0007b840       ??0CDlgSaveLib@@QAE@PAVCWnd@@@Z 00572840 f   DlgSaveLib.obj
 0002:0007b920       ??_ECDlgSaveLib@@UAEPAXI@Z 00572920 f i DlgSaveLib.obj
 0002:0007b920       ??_GCDlgSaveLib@@UAEPAXI@Z 00572920 f i DlgSaveLib.obj
 0002:0007b990       ??1CDlgSaveLib@@UAE@XZ     00572990 f   DlgSaveLib.obj
 0002:0007ba60       ?DoDataExchange@CDlgSaveLib@@MAEXPAVCDataExchange@@@Z 00572a60 f   DlgSaveLib.obj
 0002:0007bbc0       ?GetMessageMap@CDlgSaveLib@@MBEPBUAFX_MSGMAP@@XZ 00572bc0 f   DlgSaveLib.obj
 0002:0007bc10       ?GetThisMessageMap@CDlgSaveLib@@KGPBUAFX_MSGMAP@@XZ 00572c10 f   DlgSaveLib.obj
 0002:0007bc50       ?Initialize@CDlgSaveLib@@QAEXPAV?$CArray@V?$CStringT@DV?$StrTraitMFC_DLL@DV?$ChTraitsCRT@D@ATL@@@@@ATL@@ABV12@@@@Z 00572c50 f   DlgSaveLib.obj
 0002:0007bde0       ?OnBnClickedDelete@CDlgSaveLib@@QAEXXZ 00572de0 f   DlgSaveLib.obj
 0002:0007be90       ?OnBnClickedButtonTop@CDlgSaveLib@@QAEXXZ 00572e90 f   DlgSaveLib.obj
 0002:0007c090       ?OnBnClickedButtonUp@CDlgSaveLib@@QAEXXZ 00573090 f   DlgSaveLib.obj
 0002:0007c2a0       ?OnBnClickedButtonDown@CDlgSaveLib@@QAEXXZ 005732a0 f   DlgSaveLib.obj
 0002:0007c4d0       ?OnBnClickedButtonBottom@CDlgSaveLib@@QAEXXZ 005734d0 f   DlgSaveLib.obj
 0002:0007c6e0       ?GetSelected@CDlgSaveLib@@QAEXXZ 005736e0 f   DlgSaveLib.obj
 0002:0007c7d0       ?ResetSelected@CDlgSaveLib@@QAEXXZ 005737d0 f   DlgSaveLib.obj
 0002:0007c8d0       ?_GetBaseClass@CDlgSetAreaHatch@@KGPAUCRuntimeClass@@XZ 005738d0 f   DlgSetAreaHatch.obj
 0002:0007c920       ?GetThisClass@CDlgSetAreaHatch@@SGPAUCRuntimeClass@@XZ 00573920 f   DlgSetAreaHatch.obj
 0002:0007c960       ?GetRuntimeClass@CDlgSetAreaHatch@@UBEPAUCRuntimeClass@@XZ 00573960 f   DlgSetAreaHatch.obj
 0002:0007c9a0       ??0CDlgSetAreaHatch@@QAE@PAVCWnd@@@Z 005739a0 f   DlgSetAreaHatch.obj
 0002:0007ca90       ??_ECDlgSetAreaHatch@@UAEPAXI@Z 00573a90 f i DlgSetAreaHatch.obj
 0002:0007ca90       ??_GCDlgSetAreaHatch@@UAEPAXI@Z 00573a90 f i DlgSetAreaHatch.obj
 0002:0007cb00       ??1CDlgSetAreaHatch@@UAE@XZ 00573b00 f   DlgSetAreaHatch.obj
 0002:0007cbe0       ?DoDataExchange@CDlgSetAreaHatch@@MAEXPAVCDataExchange@@@Z 00573be0 f   DlgSetAreaHatch.obj
 0002:0007cd80       ?GetMessageMap@CDlgSetAreaHatch@@MBEPBUAFX_MSGMAP@@XZ 00573d80 f   DlgSetAreaHatch.obj
 0002:0007cdd0       ?GetThisMessageMap@CDlgSetAreaHatch@@KGPBUAFX_MSGMAP@@XZ 00573dd0 f   DlgSetAreaHatch.obj
 0002:0007ce10       ?Init@CDlgSetAreaHatch@@QAEXH@Z 00573e10 f   DlgSetAreaHatch.obj
 0002:0007ce60       ?_GetBaseClass@DlgSetSegmentWidth@@KGPAUCRuntimeClass@@XZ 00573e60 f   DlgSetSegmentWidth.obj
 0002:0007ceb0       ?GetThisClass@DlgSetSegmentWidth@@SGPAUCRuntimeClass@@XZ 00573eb0 f   DlgSetSegmentWidth.obj
 0002:0007cef0       ?GetRuntimeClass@DlgSetSegmentWidth@@UBEPAUCRuntimeClass@@XZ 00573ef0 f   DlgSetSegmentWidth.obj
 0002:0007cf30       ??0DlgSetSegmentWidth@@QAE@PAVCWnd@@@Z 00573f30 f   DlgSetSegmentWidth.obj
 0002:0007d210       ??_GDlgSetSegmentWidth@@UAEPAXI@Z 00574210 f i DlgSetSegmentWidth.obj
 0002:0007d210       ??_EDlgSetSegmentWidth@@UAEPAXI@Z 00574210 f i DlgSetSegmentWidth.obj
 0002:0007d280       ??1DlgSetSegmentWidth@@UAE@XZ 00574280 f   DlgSetSegmentWidth.obj
 0002:0007d4a0       ?DoDataExchange@DlgSetSegmentWidth@@MAEXPAVCDataExchange@@@Z 005744a0 f   DlgSetSegmentWidth.obj
 0002:0007d8b0       ?GetMessageMap@DlgSetSegmentWidth@@MBEPBUAFX_MSGMAP@@XZ 005748b0 f   DlgSetSegmentWidth.obj
 0002:0007d900       ?GetThisMessageMap@DlgSetSegmentWidth@@KGPBUAFX_MSGMAP@@XZ 00574900 f   DlgSetSegmentWidth.obj
 0002:0007d940       ?OnBnClickedDefNet@DlgSetSegmentWidth@@QAEXXZ 00574940 f   DlgSetSegmentWidth.obj
 0002:0007d980       ?OnBnClickedApplyNet@DlgSetSegmentWidth@@QAEXXZ 00574980 f   DlgSetSegmentWidth.obj
 0002:0007da10       ?OnBnClickedApplyCon@DlgSetSegmentWidth@@QAEXXZ 00574a10 f   DlgSetSegmentWidth.obj
 0002:0007daa0       ?OnBnClickedApplySeg@DlgSetSegmentWidth@@QAEXXZ 00574aa0 f   DlgSetSegmentWidth.obj
 0002:0007db30       ?OnInitDialog@DlgSetSegmentWidth@@UAEHXZ 00574b30 f   DlgSetSegmentWidth.obj
 0002:0007e000       ?OnBnClickedRadioDefVia@DlgSetSegmentWidth@@QAEXXZ 00575000 f   DlgSetSegmentWidth.obj
 0002:0007e2e0       ?OnBnClickedRadioSetVia@DlgSetSegmentWidth@@QAEXXZ 005752e0 f   DlgSetSegmentWidth.obj
 0002:0007e380       ?OnCbnSelchangeComboWidth@DlgSetSegmentWidth@@QAEXXZ 00575380 f   DlgSetSegmentWidth.obj
 0002:0007e5d0       ?OnCbnEditchangeComboWidth@DlgSetSegmentWidth@@QAEXXZ 005755d0 f   DlgSetSegmentWidth.obj
 0002:0007e8d0       ?OnBnClickedRadioModTv@DlgSetSegmentWidth@@QAEXXZ 005758d0 f   DlgSetSegmentWidth.obj
 0002:0007e920       ?OnBnClickedRadioModT@DlgSetSegmentWidth@@QAEXXZ 00575920 f   DlgSetSegmentWidth.obj
 0002:0007e970       ?OnBnClickedRadioModV@DlgSetSegmentWidth@@QAEXXZ 00575970 f   DlgSetSegmentWidth.obj
 0002:0007e9c0       ?OnBnClickedRadioModify@DlgSetSegmentWidth@@QAEXXZ 005759c0 f   DlgSetSegmentWidth.obj
 0002:0007ec10       ?_GetBaseClass@CDlgSetTraceWidths@@KGPAUCRuntimeClass@@XZ 00575c10 f   DlgSetTraceWidths.obj
 0002:0007ec60       ?GetThisClass@CDlgSetTraceWidths@@SGPAUCRuntimeClass@@XZ 00575c60 f   DlgSetTraceWidths.obj
 0002:0007eca0       ?GetRuntimeClass@CDlgSetTraceWidths@@UBEPAUCRuntimeClass@@XZ 00575ca0 f   DlgSetTraceWidths.obj
 0002:0007ece0       ??0CDlgSetTraceWidths@@QAE@PAVCWnd@@@Z 00575ce0 f   DlgSetTraceWidths.obj
 0002:0007ef70       ??_ECDlgSetTraceWidths@@UAEPAXI@Z 00575f70 f i DlgSetTraceWidths.obj
 0002:0007ef70       ??_GCDlgSetTraceWidths@@UAEPAXI@Z 00575f70 f i DlgSetTraceWidths.obj
 0002:0007efe0       ??1CDlgSetTraceWidths@@UAE@XZ 00575fe0 f   DlgSetTraceWidths.obj
 0002:0007f180       ?DoDataExchange@CDlgSetTraceWidths@@MAEXPAVCDataExchange@@@Z 00576180 f   DlgSetTraceWidths.obj
 0002:0007f950       ?GetMessageMap@CDlgSetTraceWidths@@MBEPBUAFX_MSGMAP@@XZ 00576950 f   DlgSetTraceWidths.obj
 0002:0007f9a0       ?GetThisMessageMap@CDlgSetTraceWidths@@KGPBUAFX_MSGMAP@@XZ 005769a0 f   DlgSetTraceWidths.obj
 0002:0007f9e0       ?OnBnClickedRadioDef@CDlgSetTraceWidths@@AAEXXZ 005769e0 f   DlgSetTraceWidths.obj
 0002:0007fa40       ?OnBnClickedRadioSet@CDlgSetTraceWidths@@AAEXXZ 00576a40 f   DlgSetTraceWidths.obj
 0002:0007fa90       ?OnCbnSelchangeComboWidth@CDlgSetTraceWidths@@QAEXXZ 00576a90 f   DlgSetTraceWidths.obj
 0002:000800e0       ?OnCbnEditchangeComboWidth@CDlgSetTraceWidths@@QAEXXZ 005770e0 f   DlgSetTraceWidths.obj
 0002:00080710       ?OnBnClickedSetTrace@CDlgSetTraceWidths@@QAEXXZ 00577710 f   DlgSetTraceWidths.obj
 0002:00080760       ?OnBnClickedSetVias@CDlgSetTraceWidths@@QAEXXZ 00577760 f   DlgSetTraceWidths.obj
 0002:000807b0       ?SetFields@CDlgSetTraceWidths@@QAEXXZ 005777b0 f   DlgSetTraceWidths.obj
 0002:00080b40       ?OnBnClickedRadioRevertTraces@CDlgSetTraceWidths@@QAEXXZ 00577b40 f   DlgSetTraceWidths.obj
 0002:00080b90       ?OnBnClickedRadioRevertVias@CDlgSetTraceWidths@@QAEXXZ 00577b90 f   DlgSetTraceWidths.obj
 0002:00080be0       ?OnBnClickedRadioSetTraceWidth@CDlgSetTraceWidths@@QAEXXZ 00577be0 f   DlgSetTraceWidths.obj
 0002:00080c30       ?OnBnClickedRadioSetSize@CDlgSetTraceWidths@@QAEXXZ 00577c30 f   DlgSetTraceWidths.obj
 0002:00080c70       ?_GetBaseClass@CDlgShortcuts@@KGPAUCRuntimeClass@@XZ 00577c70 f   DlgShortcuts.obj
 0002:00080cc0       ?GetThisClass@CDlgShortcuts@@SGPAUCRuntimeClass@@XZ 00577cc0 f   DlgShortcuts.obj
 0002:00080d00       ?GetRuntimeClass@CDlgShortcuts@@UBEPAUCRuntimeClass@@XZ 00577d00 f   DlgShortcuts.obj
 0002:00080d40       ??0CDlgShortcuts@@QAE@PAVCWnd@@@Z 00577d40 f   DlgShortcuts.obj
 0002:00080db0       ??_ECDlgShortcuts@@UAEPAXI@Z 00577db0 f i DlgShortcuts.obj
 0002:00080db0       ??_GCDlgShortcuts@@UAEPAXI@Z 00577db0 f i DlgShortcuts.obj
 0002:00080e20       ??1CDlgShortcuts@@UAE@XZ   00577e20 f   DlgShortcuts.obj
 0002:00080e80       ?DoDataExchange@CDlgShortcuts@@MAEXPAVCDataExchange@@@Z 00577e80 f   DlgShortcuts.obj
 0002:00080ee0       ?GetMessageMap@CDlgShortcuts@@MBEPBUAFX_MSGMAP@@XZ 00577ee0 f   DlgShortcuts.obj
 0002:00080f30       ?GetThisMessageMap@CDlgShortcuts@@KGPBUAFX_MSGMAP@@XZ 00577f30 f   DlgShortcuts.obj
 0002:00080f70       ?_GetBaseClass@CDlgSideStyle@@KGPAUCRuntimeClass@@XZ 00577f70 f   DlgSideStyle.obj
 0002:00080fc0       ?GetThisClass@CDlgSideStyle@@SGPAUCRuntimeClass@@XZ 00577fc0 f   DlgSideStyle.obj
 0002:00081000       ?GetRuntimeClass@CDlgSideStyle@@UBEPAUCRuntimeClass@@XZ 00578000 f   DlgSideStyle.obj
 0002:00081040       ??0CDlgSideStyle@@QAE@PAVCWnd@@@Z 00578040 f   DlgSideStyle.obj
 0002:000810b0       ??_ECDlgSideStyle@@UAEPAXI@Z 005780b0 f i DlgSideStyle.obj
 0002:000810b0       ??_GCDlgSideStyle@@UAEPAXI@Z 005780b0 f i DlgSideStyle.obj
 0002:00081120       ??1CDlgSideStyle@@UAE@XZ   00578120 f   DlgSideStyle.obj
 0002:00081180       ?DoDataExchange@CDlgSideStyle@@MAEXPAVCDataExchange@@@Z 00578180 f   DlgSideStyle.obj
 0002:00081200       ?GetMessageMap@CDlgSideStyle@@MBEPBUAFX_MSGMAP@@XZ 00578200 f   DlgSideStyle.obj
 0002:00081250       ?GetThisMessageMap@CDlgSideStyle@@KGPBUAFX_MSGMAP@@XZ 00578250 f   DlgSideStyle.obj
 0002:00081290       ?Initialize@CDlgSideStyle@@QAEXH@Z 00578290 f   DlgSideStyle.obj
 0002:000812e0       ?_GetBaseClass@CDlgSlot@@KGPAUCRuntimeClass@@XZ 005782e0 f   DlgSlot.obj
 0002:00081330       ?GetThisClass@CDlgSlot@@SGPAUCRuntimeClass@@XZ 00578330 f   DlgSlot.obj
 0002:00081370       ?GetRuntimeClass@CDlgSlot@@UBEPAUCRuntimeClass@@XZ 00578370 f   DlgSlot.obj
 0002:000813b0       ??0CDlgSlot@@QAE@PAVCWnd@@@Z 005783b0 f   DlgSlot.obj
 0002:00081540       ??_GCDlgSlot@@UAEPAXI@Z    00578540 f i DlgSlot.obj
 0002:00081540       ??_ECDlgSlot@@UAEPAXI@Z    00578540 f i DlgSlot.obj
 0002:000815b0       ??1CDlgSlot@@UAE@XZ        005785b0 f   DlgSlot.obj
 0002:00081730       ?DoDataExchange@CDlgSlot@@MAEXPAVCDataExchange@@@Z 00578730 f   DlgSlot.obj
 0002:00081970       ?GetMessageMap@CDlgSlot@@MBEPBUAFX_MSGMAP@@XZ 00578970 f   DlgSlot.obj
 0002:000819c0       ?GetThisMessageMap@CDlgSlot@@KGPBUAFX_MSGMAP@@XZ 005789c0 f   DlgSlot.obj
 0002:00081a00       ?Initialize@CDlgSlot@@QAEXHHHHHHHH@Z 00578a00 f   DlgSlot.obj
 0002:00081ab0       ?SetFields@CDlgSlot@@QAEXXZ 00578ab0 f   DlgSlot.obj
 0002:00081e50       ?GetFields@CDlgSlot@@QAEXXZ 00578e50 f   DlgSlot.obj
 0002:000820b0       ?OnCbnSelChangeCombo1@CDlgSlot@@QAEXXZ 005790b0 f   DlgSlot.obj
 0002:00082150       ?OnBnClickedSet@CDlgSlot@@QAEXXZ 00579150 f   DlgSlot.obj
 0002:000821b0       ?OnBnClickedDrag@CDlgSlot@@QAEXXZ 005791b0 f   DlgSlot.obj
 0002:00082210       ?OnBnClickedPlated@CDlgSlot@@QAEXXZ 00579210 f   DlgSlot.obj
 0002:00082270       ?OnBnClickedUnplated@CDlgSlot@@QAEXXZ 00579270 f   DlgSlot.obj
 0002:000822d0       ?_GetBaseClass@CDlgValueText@@KGPAUCRuntimeClass@@XZ 005792d0 f   DlgValueText.obj
 0002:00082320       ?GetThisClass@CDlgValueText@@SGPAUCRuntimeClass@@XZ 00579320 f   DlgValueText.obj
 0002:00082360       ?GetRuntimeClass@CDlgValueText@@UBEPAUCRuntimeClass@@XZ 00579360 f   DlgValueText.obj
 0002:000823a0       ??0CDlgValueText@@QAE@PAVCWnd@@@Z 005793a0 f   DlgValueText.obj
 0002:00082530       ??_ECDlgValueText@@UAEPAXI@Z 00579530 f i DlgValueText.obj
 0002:00082530       ??_GCDlgValueText@@UAEPAXI@Z 00579530 f i DlgValueText.obj
 0002:000825a0       ??1CDlgValueText@@UAE@XZ   005795a0 f   DlgValueText.obj
 0002:00082720       ?DoDataExchange@CDlgValueText@@MAEXPAVCDataExchange@@@Z 00579720 f   DlgValueText.obj
 0002:00082ab0       ?Initialize@CDlgValueText@@QAEXPAVCPartList@@PAVcpart@@@Z 00579ab0 f   DlgValueText.obj
 0002:00082ba0       ?GetMessageMap@CDlgValueText@@MBEPBUAFX_MSGMAP@@XZ 00579ba0 f   DlgValueText.obj
 0002:00082bf0       ?GetThisMessageMap@CDlgValueText@@KGPBUAFX_MSGMAP@@XZ 00579bf0 f   DlgValueText.obj
 0002:00082c30       ?OnBnClickedRadioSet@CDlgValueText@@QAEXXZ 00579c30 f   DlgValueText.obj
 0002:00082c90       ?OnBnClickedRadioDef@CDlgValueText@@QAEXXZ 00579c90 f   DlgValueText.obj
 0002:00082cf0       ?OnEnChangeEditCharHeight@CDlgValueText@@QAEXXZ 00579cf0 f   DlgValueText.obj
 0002:00082fa0       ?GetFields@CDlgValueText@@QAEXXZ 00579fa0 f   DlgValueText.obj
 0002:00083280       ?SetFields@CDlgValueText@@QAEXXZ 0057a280 f   DlgValueText.obj
 0002:000835f0       ?OnCbnSelchangeComboRefTextUnits@CDlgValueText@@QAEXXZ 0057a5f0 f   DlgValueText.obj
 0002:00083690       ?_GetBaseClass@CDlgVia@@KGPAUCRuntimeClass@@XZ 0057a690 f   DlgVia.obj
 0002:000836e0       ?GetThisClass@CDlgVia@@SGPAUCRuntimeClass@@XZ 0057a6e0 f   DlgVia.obj
 0002:00083720       ?GetRuntimeClass@CDlgVia@@UBEPAUCRuntimeClass@@XZ 0057a720 f   DlgVia.obj
 0002:00083760       ??0CDlgVia@@QAE@PAVCWnd@@@Z 0057a760 f   DlgVia.obj
 0002:00083840       ??_ECDlgVia@@UAEPAXI@Z     0057a840 f i DlgVia.obj
 0002:00083840       ??_GCDlgVia@@UAEPAXI@Z     0057a840 f i DlgVia.obj
 0002:000838b0       ??1CDlgVia@@UAE@XZ         0057a8b0 f   DlgVia.obj
 0002:00083980       ?DoDataExchange@CDlgVia@@MAEXPAVCDataExchange@@@Z 0057a980 f   DlgVia.obj
 0002:00084100       ?Initialize@CDlgVia@@QAEXHHPAV?$CArray@HABH@@0HHH@Z 0057b100 f   DlgVia.obj
 0002:000841a0       ?GetMessageMap@CDlgVia@@MBEPBUAFX_MSGMAP@@XZ 0057b1a0 f   DlgVia.obj
 0002:000841f0       ?GetThisMessageMap@CDlgVia@@KGPBUAFX_MSGMAP@@XZ 0057b1f0 f   DlgVia.obj
 0002:00084230       ?OnChange@CDlgVia@@QAEXXZ  0057b230 f   DlgVia.obj
 0002:00084530       ?_GetBaseClass@CDlgWizQuad@@KGPAUCRuntimeClass@@XZ 0057b530 f   DlgWizQuad.obj
 0002:00084580       ?GetThisClass@CDlgWizQuad@@SGPAUCRuntimeClass@@XZ 0057b580 f   DlgWizQuad.obj
 0002:000845c0       ?GetRuntimeClass@CDlgWizQuad@@UBEPAUCRuntimeClass@@XZ 0057b5c0 f   DlgWizQuad.obj
 0002:00084600       ??0CDlgWizQuad@@QAE@PAVCWnd@@@Z 0057b600 f   DlgWizQuad.obj
 0002:000849a0       ??_GCDlgWizQuad@@UAEPAXI@Z 0057b9a0 f i DlgWizQuad.obj
 0002:000849a0       ??_ECDlgWizQuad@@UAEPAXI@Z 0057b9a0 f i DlgWizQuad.obj
 0002:00084a10       ??1CDlgWizQuad@@UAE@XZ     0057ba10 f   DlgWizQuad.obj
 0002:00084da0       ?DoDataExchange@CDlgWizQuad@@MAEXPAVCDataExchange@@@Z 0057bda0 f   DlgWizQuad.obj
 0002:00085680       ?Initialize@CDlgWizQuad@@QAEXPAVCMapStringToPtr@@PAVCFootLibFolderMap@@HPAVCDlgLog@@@Z 0057c680 f   DlgWizQuad.obj
 0002:00085700       ?GetMessageMap@CDlgWizQuad@@MBEPBUAFX_MSGMAP@@XZ 0057c700 f   DlgWizQuad.obj
 0002:00085750       ?GetThisMessageMap@CDlgWizQuad@@KGPBUAFX_MSGMAP@@XZ 0057c750 f   DlgWizQuad.obj
 0002:00085790       ?OnBnClickedRadioC1@CDlgWizQuad@@AAEXXZ 0057c790 f   DlgWizQuad.obj
 0002:00085810       ?OnBnClickedRadioG1@CDlgWizQuad@@AAEXXZ 0057c810 f   DlgWizQuad.obj
 0002:00085890       ?OnBnClickedRadioZ1@CDlgWizQuad@@AAEXXZ 0057c890 f   DlgWizQuad.obj
 0002:00085910       ?OnBnClickedRadioC2@CDlgWizQuad@@AAEXXZ 0057c910 f   DlgWizQuad.obj
 0002:00085990       ?OnBnClickedRadioG2@CDlgWizQuad@@AAEXXZ 0057c990 f   DlgWizQuad.obj
 0002:00085a10       ?OnBnClickedRadioZ2@CDlgWizQuad@@AAEXXZ 0057ca10 f   DlgWizQuad.obj
 0002:00085a90       ?OnCbnSelchangeComboWizShape@CDlgWizQuad@@AAEXXZ 0057ca90 f   DlgWizQuad.obj
 0002:00085f70       ?OnEnChangeEditWizNpins@CDlgWizQuad@@AAEXXZ 0057cf70 f   DlgWizQuad.obj
 0002:00086310       ?OnEnChangeEditWizHpins@CDlgWizQuad@@AAEXXZ 0057d310 f   DlgWizQuad.obj
 0002:00086590       ?OnEnChangeEditWizX@CDlgWizQuad@@AAEXXZ 0057d590 f   DlgWizQuad.obj
 0002:00086760       ?OnEnChangeEditWizY@CDlgWizQuad@@AAEXXZ 0057d760 f   DlgWizQuad.obj
 0002:000868c0       ?OnEnChangeEditWizR@CDlgWizQuad@@AAEXXZ 0057d8c0 f   DlgWizQuad.obj
 0002:00086a20       ?OnEnChangeEditE@CDlgWizQuad@@AAEXXZ 0057da20 f   DlgWizQuad.obj
 0002:00086b70       ?OnEnChangeEditC1@CDlgWizQuad@@AAEXXZ 0057db70 f   DlgWizQuad.obj
 0002:00086cf0       ?OnEnChangeEditG1@CDlgWizQuad@@AAEXXZ 0057dcf0 f   DlgWizQuad.obj
 0002:00086e70       ?OnEnChangeEditZ1@CDlgWizQuad@@AAEXXZ 0057de70 f   DlgWizQuad.obj
 0002:00086ff0       ?OnEnChangeEditC2@CDlgWizQuad@@AAEXXZ 0057dff0 f   DlgWizQuad.obj
 0002:00087170       ?OnEnChangeEditG2@CDlgWizQuad@@AAEXXZ 0057e170 f   DlgWizQuad.obj
 0002:000872f0       ?OnEnChangeEditZ2@CDlgWizQuad@@AAEXXZ 0057e2f0 f   DlgWizQuad.obj
 0002:00087470       ?ReviseDependentVariables@CDlgWizQuad@@AAEXXZ 0057e470 f   DlgWizQuad.obj
 0002:00087bd0       ?OnCbnSelchangeComboWizType@CDlgWizQuad@@AAEXXZ 0057ebd0 f   DlgWizQuad.obj
 0002:000889b0       ?OnCbnSelchangeComboWizUnits@CDlgWizQuad@@AAEXXZ 0057f9b0 f   DlgWizQuad.obj
 0002:00088e80       ?FormatDimensionString@CDlgWizQuad@@AAEXPAV?$CStringT@DV?$StrTraitMFC_DLL@DV?$ChTraitsCRT@D@ATL@@@@@ATL@@HH@Z 0057fe80 f   DlgWizQuad.obj
 0002:00088f80       ?OnBnClickedButtonSave@CDlgWizQuad@@AAEXXZ 0057ff80 f   DlgWizQuad.obj
 0002:00089120       ?OnCbnSelchangeComboPin1@CDlgWizQuad@@AAEXXZ 00580120 f   DlgWizQuad.obj
 0002:00089190       ?OnEnChangeEditWizHd@CDlgWizQuad@@AAEXXZ 00580190 f   DlgWizQuad.obj
 0002:000892e0       ?OnBnClickedWizButtonExit@CDlgWizQuad@@AAEXXZ 005802e0 f   DlgWizQuad.obj
 0002:00089350       ?OnBnClickedButton2@CDlgWizQuad@@AAEXXZ 00580350 f   DlgWizQuad.obj
 0002:00089500       ?MakeFootprint@CDlgWizQuad@@QAEHXZ 00580500 f   DlgWizQuad.obj
 0002:0008cdc0       ?ParseStringFields@@YAHPAV?$CStringT@DV?$StrTraitMFC_DLL@DV?$ChTraitsCRT@D@ATL@@@@@ATL@@PAV?$CArray@V?$CStringT@DV?$StrTraitMFC_DLL@DV?$ChTraitsCRT@D@ATL@@@@@ATL@@ABV12@@@@Z 00583dc0 f   file_io.obj
 0002:0008d120       ?ParseKeyString@@YAHPAV?$CStringT@DV?$StrTraitMFC_DLL@DV?$ChTraitsCRT@D@ATL@@@@@ATL@@0PAV?$CArray@V?$CStringT@DV?$StrTraitMFC_DLL@DV?$ChTraitsCRT@D@ATL@@@@@ATL@@ABV12@@@@Z 00584120 f   file_io.obj
 0002:0008d880       ?my_atoi@@YAHPAV?$CStringT@DV?$StrTraitMFC_DLL@DV?$ChTraitsCRT@D@ATL@@@@@ATL@@@Z 00584880 f   file_io.obj
 0002:0008df90       ?my_atof@@YANPAV?$CStringT@DV?$StrTraitMFC_DLL@DV?$ChTraitsCRT@D@ATL@@@@@ATL@@@Z 00584f90 f   file_io.obj
 0002:0008e760       ?IndexLib@CFootLibFolder@@QAEXPAV?$CStringT@DV?$StrTraitMFC_DLL@DV?$ChTraitsCRT@D@ATL@@@@@ATL@@PAVCDlgLog@@@Z 00585760 f   FootprintLib.obj
 0002:0008f640       ?IndexAllLibs@CFootLibFolder@@QAEXPAV?$CStringT@DV?$StrTraitMFC_DLL@DV?$ChTraitsCRT@D@ATL@@@@@ATL@@PAVCDlgLog@@@Z 00586640 f   FootprintLib.obj
 0002:0008f9a0       ?Clear@CFootLibFolder@@QAEXXZ 005869a0 f   FootprintLib.obj
 0002:0008fa20       ?GetNumLibs@CFootLibFolder@@QAEHXZ 00586a20 f   FootprintLib.obj
 0002:0008fa80       ?GetFullPath@CFootLibFolder@@QAEPAV?$CStringT@DV?$StrTraitMFC_DLL@DV?$ChTraitsCRT@D@ATL@@@@@ATL@@XZ 00586a80 f   FootprintLib.obj
 0002:0008fac0       ?GetFootprintInfo@CFootLibFolder@@QAEHPAV?$CStringT@DV?$StrTraitMFC_DLL@DV?$ChTraitsCRT@D@ATL@@@@@ATL@@0PAH1011@Z 00586ac0 f   FootprintLib.obj
 0002:00090000       ?SearchFileName@CFootLibFolder@@QAEHPAV?$CStringT@DV?$StrTraitMFC_DLL@DV?$ChTraitsCRT@D@ATL@@@@@ATL@@@Z 00587000 f   FootprintLib.obj
 0002:000900b0       ?GetLibraryFullPath@CFootLibFolder@@QAEPAV?$CStringT@DV?$StrTraitMFC_DLL@DV?$ChTraitsCRT@D@ATL@@@@@ATL@@H@Z 005870b0 f   FootprintLib.obj
 0002:00090110       ?GetLibraryFileName@CFootLibFolder@@QAEPAV?$CStringT@DV?$StrTraitMFC_DLL@DV?$ChTraitsCRT@D@ATL@@@@@ATL@@H@Z 00587110 f   FootprintLib.obj
 0002:00090170       ?GetNumFootprints@CFootLibFolder@@QAEHH@Z 00587170 f   FootprintLib.obj
 0002:000901e0       ?GetFootprintName@CFootLibFolder@@QAEPAV?$CStringT@DV?$StrTraitMFC_DLL@DV?$ChTraitsCRT@D@ATL@@@@@ATL@@HH@Z 005871e0 f   FootprintLib.obj
 0002:00090250       ?GetFootprintPackage@CFootLibFolder@@QAEPAV?$CStringT@DV?$StrTraitMFC_DLL@DV?$ChTraitsCRT@D@ATL@@@@@ATL@@HH@Z 00587250 f   FootprintLib.obj
 0002:000902c0       ?GetFootprintOffset@CFootLibFolder@@QAEHHH@Z 005872c0 f   FootprintLib.obj
 0002:00090330       ??0CFootLibFolderMap@@QAE@XZ 00587330 f   FootprintLib.obj
 0002:000903c0       ??1CFootLibFolderMap@@QAE@XZ 005873c0 f   FootprintLib.obj
 0002:000905c0       ?AddFolder@CFootLibFolderMap@@QAEXPAV?$CStringT@DV?$StrTraitMFC_DLL@DV?$ChTraitsCRT@D@ATL@@@@@ATL@@PAVCFootLibFolder@@@Z 005875c0 f   FootprintLib.obj
 0002:00090730       ?GetFolder@CFootLibFolderMap@@QAEPAVCFootLibFolder@@PAV?$CStringT@DV?$StrTraitMFC_DLL@DV?$ChTraitsCRT@D@ATL@@@@@ATL@@PAVCDlgLog@@@Z 00587730 f   FootprintLib.obj
 0002:00090a50       ?FolderIndexed@CFootLibFolderMap@@QAEHPAV?$CStringT@DV?$StrTraitMFC_DLL@DV?$ChTraitsCRT@D@ATL@@@@@ATL@@@Z 00587a50 f   FootprintLib.obj
 0002:00090c10       ?SetDefaultFolder@CFootLibFolderMap@@QAEXPAV?$CStringT@DV?$StrTraitMFC_DLL@DV?$ChTraitsCRT@D@ATL@@@@@ATL@@@Z 00587c10 f   FootprintLib.obj
 0002:00090c80       ?SetLastFolder@CFootLibFolderMap@@QAEXPAV?$CStringT@DV?$StrTraitMFC_DLL@DV?$ChTraitsCRT@D@ATL@@@@@ATL@@@Z 00587c80 f   FootprintLib.obj
 0002:00090cf0       ?GetDefaultFolder@CFootLibFolderMap@@QAEPAV?$CStringT@DV?$StrTraitMFC_DLL@DV?$ChTraitsCRT@D@ATL@@@@@ATL@@XZ 00587cf0 f   FootprintLib.obj
 0002:00090d30       ?GetLastFolder@CFootLibFolderMap@@QAEPAV?$CStringT@DV?$StrTraitMFC_DLL@DV?$ChTraitsCRT@D@ATL@@@@@ATL@@XZ 00587d30 f   FootprintLib.obj
 0002:00090db0       ?GetSize@?$CArray@VCFootLibEntry@@ABV1@@@QBEHXZ 00587db0 f i FootprintLib.obj
 0002:00090df0       ??A?$CArray@VCFootLibEntry@@ABV1@@@QAEAAVCFootLibEntry@@H@Z 00587df0 f i FootprintLib.obj
 0002:00090e50       ?GetSize@?$CArray@VCFootLib@@ABV1@@@QBEHXZ 00587e50 f i FootprintLib.obj
 0002:00090e90       ?RemoveAll@?$CArray@VCFootLib@@ABV1@@@QAEXXZ 00587e90 f i FootprintLib.obj
 0002:00090ef0       ?ElementAt@?$CArray@VCFootLibEntry@@ABV1@@@QAEAAVCFootLibEntry@@H@Z 00587ef0 f i FootprintLib.obj
 0002:00090fa0       ?CreateObject@CFootprintView@@SGPAVCObject@@XZ 00587fa0 f   FootprintView.obj
 0002:00091090       ?_GetBaseClass@CFootprintView@@KGPAUCRuntimeClass@@XZ 00588090 f   FootprintView.obj
 0002:000910e0       ?GetThisClass@CFootprintView@@SGPAUCRuntimeClass@@XZ 005880e0 f   FootprintView.obj
 0002:00091120       ?GetRuntimeClass@CFootprintView@@UBEPAUCRuntimeClass@@XZ 00588120 f   FootprintView.obj
 0002:00091160       ?GetMessageMap@CFootprintView@@MBEPBUAFX_MSGMAP@@XZ 00588160 f   FootprintView.obj
 0002:000911b0       ?GetThisMessageMap@CFootprintView@@KGPBUAFX_MSGMAP@@XZ 005881b0 f   FootprintView.obj
 0002:000911f0       ??0CFootprintView@@QAE@XZ  005881f0 f   FootprintView.obj
 0002:00091760       ??_ECFootprintView@@UAEPAXI@Z 00588760 f i FootprintView.obj
 0002:00091760       ??_GCFootprintView@@UAEPAXI@Z 00588760 f i FootprintView.obj
 0002:000917d0       ?InitInstance@CFootprintView@@QAEXPAVCShape@@@Z 005887d0 f   FootprintView.obj
 0002:00091c00       ?InitializeView@CFootprintView@@QAEXXZ 00588c00 f   FootprintView.obj
 0002:00091d40       ??1CFootprintView@@UAE@XZ  00588d40 f   FootprintView.obj
 0002:00091e80       ?PreCreateWindow@CFootprintView@@UAEHAAUtagCREATESTRUCTA@@@Z 00588e80 f   FootprintView.obj
 0002:00091ee0       ?OnDraw@CFootprintView@@UAEXPAVCDC@@@Z 00588ee0 f   FootprintView.obj
 0002:00092840       ?OnPreparePrinting@CFootprintView@@MAEHPAUCPrintInfo@@@Z 00589840 f   FootprintView.obj
 0002:000928a0       ?OnBeginPrinting@CFootprintView@@MAEXPAVCDC@@PAUCPrintInfo@@@Z 005898a0 f   FootprintView.obj
 0002:000928e0       ?OnEndPrinting@CFootprintView@@MAEXPAVCDC@@PAUCPrintInfo@@@Z 005898e0 f   FootprintView.obj
 0002:00092920       ?AssertValid@CFootprintView@@UBEXXZ 00589920 f   FootprintView.obj
 0002:00092970       ?Dump@CFootprintView@@UBEXAAVCDumpContext@@@Z 00589970 f   FootprintView.obj
 0002:000929d0       ?GetDocument@CFootprintView@@QAEPAVCFreePcbDoc@@XZ 005899d0 f   FootprintView.obj
 0002:00092a70       ?OnSize@CFootprintView@@IAEXIHH@Z 00589a70 f   FootprintView.obj
 0002:00092e40       ?MoveToLayer@CFootprintView@@QAEXH@Z 00589e40 f   FootprintView.obj
 0002:00092f80       ?SelectSimilar@CFootprintView@@QAEXH@Z 00589f80 f   FootprintView.obj
 0002:000931a0       ?MoveGroup@CFootprintView@@QAEXHH@Z 0058a1a0 f   FootprintView.obj
 0002:000935a0       ?RotateGroup@CFootprintView@@QAEXH@Z 0058a5a0 f   FootprintView.obj
 0002:00093d70       ?MirrorGroup@CFootprintView@@QAEXXZ 0058ad70 f   FootprintView.obj
 0002:00094700       ?DuplicateGroup@CFootprintView@@QAEXXZ 0058b700 f   FootprintView.obj
 0002:00094eb0       ?GroupDelete@CFootprintView@@QAEXXZ 0058beb0 f   FootprintView.obj
 0002:00095380       ?HighlightGroup@CFootprintView@@QAEXXZ 0058c380 f   FootprintView.obj
 0002:00095620       ?SelectItemsInRect@CFootprintView@@QAEXVCRect@@@Z 0058c620 f   FootprintView.obj
 0002:00095f80       ?OnLButtonUp@CFootprintView@@IAEXIVCPoint@@@Z 0058cf80 f   FootprintView.obj
 0002:00097610       ?OnLButtonDown@CFootprintView@@IAEXIVCPoint@@@Z 0058e610 f   FootprintView.obj
 0002:00097b00       ?OnLButtonDblClk@CFootprintView@@IAEXIVCPoint@@@Z 0058eb00 f   FootprintView.obj
 0002:00097b60       ?OnRButtonDown@CFootprintView@@IAEXIVCPoint@@@Z 0058eb60 f   FootprintView.obj
 0002:000981c0       ?OnSysKeyDown@CFootprintView@@IAEXIII@Z 0058f1c0 f   FootprintView.obj
 0002:00098250       ?OnSysKeyUp@CFootprintView@@IAEXIII@Z 0058f250 f   FootprintView.obj
 0002:000982c0       ?OnKeyDown@CFootprintView@@IAEXIII@Z 0058f2c0 f   FootprintView.obj
 0002:00098340       ?HandleKeyPress@CFootprintView@@QAEXIII@Z 0058f340 f   FootprintView.obj
 0002:0009a6c0       ?GetX@DlgEditBoardCorner@@QAEHXZ 005916c0 f i FootprintView.obj
 0002:0009a700       ?GetY@DlgEditBoardCorner@@QAEHXZ 00591700 f i FootprintView.obj
 0002:0009a740       ?OnMouseMove@CFootprintView@@IAEXIVCPoint@@@Z 00591740 f   FootprintView.obj
 0002:0009ab00       ?abs@@YAJJ@Z               00591b00 f i FootprintView.obj
 0002:0009ab50       ?SetDCToWorldCoords@CFootprintView@@QAEHPAVCDC@@@Z 00591b50 f   FootprintView.obj
 0002:0009abf0       ?WindowToPCB@CFootprintView@@QAE?AVCPoint@@V2@@Z 00591bf0 f   FootprintView.obj
 0002:0009ad10       ?ScreenToPCB@CFootprintView@@QAE?AVCPoint@@V2@@Z 00591d10 f   FootprintView.obj
 0002:0009ae30       ?PCBToScreen@CFootprintView@@QAE?AVCPoint@@V2@@Z 00591e30 f   FootprintView.obj
 0002:0009af70       ?SetCursorMode@CFootprintView@@QAEXH@Z 00591f70 f   FootprintView.obj
 0002:0009aff0       ?SetFKText@CFootprintView@@QAEXH@Z 00591ff0 f   FootprintView.obj
 0002:0009b900       ?DrawBottomPane@CFootprintView@@QAEXXZ 00592900 f   FootprintView.obj
 0002:0009bc80       ?ShowSelectStatus@CFootprintView@@QAEHXZ 00592c80 f   FootprintView.obj
 0002:0009ca90       ?ShowCursor@CFootprintView@@QAEHXZ 00593a90 f   FootprintView.obj
 0002:0009cd30       ?OnMouseWheel@CFootprintView@@IAEHIFVCPoint@@@Z 00593d30 f   FootprintView.obj
 0002:0009d730       ?CancelSelection@CFootprintView@@QAEXXZ 00594730 f   FootprintView.obj
 0002:0009d9a0       ?OnContextMenu@CFootprintView@@QAEXPAVCWnd@@VCPoint@@@Z 005949a0 f   FootprintView.obj
 0002:0009e1a0       ?OnPadDelete@CFootprintView@@QAEXH@Z 005951a0 f   FootprintView.obj
 0002:0009e270       ?OnPadEdit@CFootprintView@@QAEXH@Z 00595270 f   FootprintView.obj
 0002:0009e5a0       ?OnPadMove@CFootprintView@@QAEXHH@Z 005955a0 f   FootprintView.obj
 0002:0009e750       ?OnGroupMove@CFootprintView@@QAEXXZ 00595750 f   FootprintView.obj
 0002:0009f040       ?OnPolylineDelete@CFootprintView@@QAEXXZ 00596040 f   FootprintView.obj
 0002:0009f0a0       ?PolylineDelete@CFootprintView@@QAEXXZ 005960a0 f   FootprintView.obj
 0002:0009f170       ?OnPolylineCornerMove@CFootprintView@@QAEXXZ 00596170 f   FootprintView.obj
 0002:0009f2a0       ?OnPolylineCornerEdit@CFootprintView@@QAEXXZ 005962a0 f   FootprintView.obj
 0002:0009f570       ?OnPolylineCornerDelete@CFootprintView@@QAEXXZ 00596570 f   FootprintView.obj
 0002:0009f660       ?OnPolylineSideAddCorner@CFootprintView@@QAEXXZ 00596660 f   FootprintView.obj
 0002:0009f790       ?CurNone@CFootprintView@@QAEHXZ 00596790 f   FootprintView.obj
 0002:0009f7e0       ?CurSelected@CFootprintView@@QAEHXZ 005967e0 f   FootprintView.obj
 0002:0009f860       ?CurDragging@CFootprintView@@QAEHXZ 00596860 f   FootprintView.obj
 0002:0009f8b0       ?CurDraggingPlacement@CFootprintView@@QAEHXZ 005968b0 f   FootprintView.obj
 0002:0009f970       ?SnapCursorPoint@CFootprintView@@QAEXVCPoint@@@Z 00596970 f   FootprintView.obj
 0002:000a03d0       ?OnChangeVisibleGrid@CFootprintView@@QAEJIJ@Z 005973d0 f   FootprintView.obj
 0002:000a0480       ?OnChangePlacementGrid@CFootprintView@@QAEJIJ@Z 00597480 f   FootprintView.obj
 0002:000a0510       ?OnChangeSnapAngle@CFootprintView@@QAEJIJ@Z 00597510 f   FootprintView.obj
 0002:000a0600       ?OnChangeUnits@CFootprintView@@QAEJIJ@Z 00597600 f   FootprintView.obj
 0002:000a06e0       ?OnEraseBkgnd@CFootprintView@@QAEHPAVCDC@@@Z 005976e0 f   FootprintView.obj
 0002:000a0730       ?OnPolylineSideConvertToStraightLine@CFootprintView@@QAEXXZ 00597730 f   FootprintView.obj
 0002:000a0850       ?OnPolylineSideConvertToArcCw@CFootprintView@@QAEXXZ 00597850 f   FootprintView.obj
 0002:000a0970       ?OnPolylineSideConvertToArcCcw@CFootprintView@@QAEXXZ 00597970 f   FootprintView.obj
 0002:000a0a90       ?OnAddPin@CFootprintView@@QAEXXZ 00597a90 f   FootprintView.obj
 0002:000a0f30       ?OnFootprintFileSaveAs@CFootprintView@@QAEXXZ 00597f30 f   FootprintView.obj
 0002:000a1200       ?OnAddPolyline@CFootprintView@@QAEXXZ 00598200 f   FootprintView.obj
 0002:000a1260       ?AddPolyline@CFootprintView@@QAEXPAVid@@@Z 00598260 f   FootprintView.obj
 0002:000a12a0       ?OnFootprintFileClose@CFootprintView@@QAEXXZ 005982a0 f   FootprintView.obj
 0002:000a1ab0       ?OnFootprintFileNew@CFootprintView@@QAEXXZ 00598ab0 f   FootprintView.obj
 0002:000a1bd0       ?FootprintModified@CFootprintView@@QAEXHHH@Z 00598bd0 f   FootprintView.obj
 0002:000a1f40       ?FootprintNameChanged@CFootprintView@@QAEXPAV?$CStringT@DV?$StrTraitMFC_DLL@DV?$ChTraitsCRT@D@ATL@@@@@ATL@@@Z 00598f40 f   FootprintView.obj
 0002:000a1fb0       ?OnViewEntireFootprint@CFootprintView@@QAEXXZ 00598fb0 f   FootprintView.obj
 0002:000a22f0       ?ClearUndo@CFootprintView@@QAEXXZ 005992f0 f   FootprintView.obj
 0002:000a23f0       ??_GCShape@@QAEPAXI@Z      005993f0 f i FootprintView.obj
 0002:000a2460       ?ClearRedo@CFootprintView@@QAEXXZ 00599460 f   FootprintView.obj
 0002:000a2560       ?PushUndo@CFootprintView@@QAEXXZ 00599560 f   FootprintView.obj
 0002:000a2760       ?PushRedo@CFootprintView@@QAEXXZ 00599760 f   FootprintView.obj
 0002:000a2960       ?Undo@CFootprintView@@QAEXXZ 00599960 f   FootprintView.obj
 0002:000a29c0       ?UndoNoRedo@CFootprintView@@QAEXXZ 005999c0 f   FootprintView.obj
 0002:000a2b50       ?Redo@CFootprintView@@QAEXXZ 00599b50 f   FootprintView.obj
 0002:000a2cf0       ?OnEditUndo@CFootprintView@@QAEXXZ 00599cf0 f   FootprintView.obj
 0002:000a2d40       ?OnEditRedo@CFootprintView@@QAEXXZ 00599d40 f   FootprintView.obj
 0002:000a2d90       ?OnFpMove@CFootprintView@@QAEXXZ 00599d90 f   FootprintView.obj
 0002:000a2df0       ?OnFpEditproperties@CFootprintView@@QAEXXZ 00599df0 f   FootprintView.obj
 0002:000a2e50       ?OnFpDelete@CFootprintView@@QAEXXZ 00599e50 f   FootprintView.obj
 0002:000a2eb0       ?OnFpToolsFootprintwizard@CFootprintView@@QAEXXZ 00599eb0 f   FootprintView.obj
 0002:000a3140       ?SetWindowTitle@CFootprintView@@QAEXPAV?$CStringT@DV?$StrTraitMFC_DLL@DV?$ChTraitsCRT@D@ATL@@@@@ATL@@@Z 0059a140 f   FootprintView.obj
 0002:000a3280       ?OnToolsFootprintLibraryManager@CFootprintView@@QAEXXZ 0059a280 f   FootprintView.obj
 0002:000a33a0       ?OnAddText@CFootprintView@@QAEXXZ 0059a3a0 f   FootprintView.obj
 0002:000a37c0       ?OnFpTextEdit@CFootprintView@@QAEXXZ 0059a7c0 f   FootprintView.obj
 0002:000a3bb0       ?OnFpTextMove@CFootprintView@@QAEXXZ 0059abb0 f   FootprintView.obj
 0002:000a3d30       ?OnFpTextDelete@CFootprintView@@QAEXXZ 0059ad30 f   FootprintView.obj
 0002:000a3dd0       ?ShowActiveLayer@CFootprintView@@QAEHXZ 0059add0 f   FootprintView.obj
 0002:000a41b0       ?OnToolsMoveOriginFP@CFootprintView@@QAEXXZ 0059b1b0 f   FootprintView.obj
 0002:000a43e0       ?MoveOrigin@CFootprintView@@QAEXHH@Z 0059b3e0 f   FootprintView.obj
 0002:000a46b0       ?EnableUndo@CFootprintView@@QAEXH@Z 0059b6b0 f   FootprintView.obj
 0002:000a4780       ?EnableRedo@CFootprintView@@QAEXH@Z 0059b780 f   FootprintView.obj
 0002:000a4850       ?OnCentroidEdit@CFootprintView@@QAEXXZ 0059b850 f   FootprintView.obj
 0002:000a4ad0       ?OnCentroidMove@CFootprintView@@QAEXXZ 0059bad0 f   FootprintView.obj
 0002:000a4c30       ?OnAddSlot@CFootprintView@@QAEXXZ 0059bc30 f   FootprintView.obj
 0002:000a4d50       ?OnAddHole@CFootprintView@@QAEXXZ 0059bd50 f   FootprintView.obj
 0002:000a4e60       ?OnAddAdhesive@CFootprintView@@QAEXXZ 0059be60 f   FootprintView.obj
 0002:000a4ea0       ?OnAdhesiveEdit@CFootprintView@@QAEXXZ 0059bea0 f   FootprintView.obj
 0002:000a4ee0       ?OnAdhesiveMove@CFootprintView@@QAEXXZ 0059bee0 f   FootprintView.obj
 0002:000a4f50       ?OnAdhesiveDrag@CFootprintView@@QAEXXZ 0059bf50 f   FootprintView.obj
 0002:000a50e0       ?OnAdhesiveDelete@CFootprintView@@QAEXXZ 0059c0e0 f   FootprintView.obj
 0002:000a51b0       ?OnCentroidRotateAxis@CFootprintView@@QAEXXZ 0059c1b0 f   FootprintView.obj
 0002:000a5290       ??9ATL@@YA_NABV?$CStringT@DV?$StrTraitMFC_DLL@DV?$ChTraitsCRT@D@ATL@@@@@0@PBD@Z 0059c290 f i FootprintView.obj
 0002:000a5300       ?RemoveAt@?$CArray@VCPolyLine@@ABV1@@@QAEXHH@Z 0059c300 f i FootprintView.obj
 0002:000a54e0       ?RemoveAt@?$CArray@Uglue@@ABU1@@@QAEXHH@Z 0059c4e0 f i FootprintView.obj
 0002:000a5690       ??0?$CArray@PAVCShape@@ABQAV1@@@QAE@XZ 0059c690 f i FootprintView.obj
 0002:000a5720       ?GetSize@?$CArray@PAVCShape@@ABQAV1@@@QBEHXZ 0059c720 f i FootprintView.obj
 0002:000a5760       ?RemoveAll@?$CArray@PAVCShape@@ABQAV1@@@QAEXXZ 0059c760 f i FootprintView.obj
 0002:000a57c0       ?Add@?$CArray@PAVCShape@@ABQAV1@@@QAEHABQAVCShape@@@Z 0059c7c0 f i FootprintView.obj
 0002:000a5830       ??A?$CArray@PAVCShape@@ABQAV1@@@QAEAAPAVCShape@@H@Z 0059c830 f i FootprintView.obj
 0002:000a5890       ?RemoveAt@?$CArray@PAVCShape@@ABQAV1@@@QAEXHH@Z 0059c890 f i FootprintView.obj
 0002:000a5a40       ??$strcpy@$0CA@@@YAPADAAY0CA@DPBD@Z 0059ca40 f i FootprintView.obj
 0002:000a5ab0       ?ElementAt@?$CArray@PAVCShape@@ABQAV1@@@QAEAAPAVCShape@@H@Z 0059cab0 f i FootprintView.obj
 0002:000a5b60       ?SetAtGrow@?$CArray@PAVCShape@@ABQAV1@@@QAEXHABQAVCShape@@@Z 0059cb60 f i FootprintView.obj
 0002:000a5c30       ?Clear@id@@QAEXXZ          0059cc30 f i FootprintView.obj
 0002:000a5cb0       ?SetTopLayer@CDisplayList@@QAEXH@Z 0059ccb0 f i FootprintView.obj
 0002:000a5d00       ?SetLayerDrawOrder@CDisplayList@@QAEXHH@Z 0059cd00 f i FootprintView.obj
 0002:000a5d60       ?GetHatch@CPolyLine@@QAEHXZ 0059cd60 f i FootprintView.obj
 0002:000a5da0       ?GetDisplayList@CPolyLine@@QAEPAVCDisplayList@@XZ 0059cda0 f i FootprintView.obj
 0002:000a5de0       ?SetHatch@CPolyLine@@QAEXH@Z 0059cde0 f i FootprintView.obj
 0002:000a5e50       ?GetNumTexts@CTextList@@QAEHXZ 0059ce50 f i FootprintView.obj
 0002:000a5eb0       ?InvalidateLeftPane@CFootprintView@@QAEXXZ 0059ceb0 f i FootprintView.obj
 0002:000a5f00       ??1?$CArray@PAVCShape@@ABQAV1@@@UAE@XZ 0059cf00 f i FootprintView.obj
 0002:000a6010       ?Serialize@?$CArray@PAVCShape@@ABQAV1@@@UAEXAAVCArchive@@@Z 0059d010 f i FootprintView.obj
 0002:000a60e0       ?Dump@?$CArray@PAVCShape@@ABQAV1@@@UBEXAAVCDumpContext@@@Z 0059d0e0 f i FootprintView.obj
 0002:000a61c0       ?AssertValid@?$CArray@PAVCShape@@ABQAV1@@@UBEXXZ 0059d1c0 f i FootprintView.obj
 0002:000a6320       ??_GCPolyLine@@QAEPAXI@Z   0059d320 f i FootprintView.obj
 0002:000a6390       ??_E?$CArray@PAVCShape@@ABQAV1@@@UAEPAXI@Z 0059d390 f i FootprintView.obj
 0002:000a6390       ??_G?$CArray@PAVCShape@@ABQAV1@@@UAEPAXI@Z 0059d390 f i FootprintView.obj
 0002:000a6400       ?SetSize@?$CArray@VCPolyLine@@ABV1@@@QAEXHH@Z 0059d400 f i FootprintView.obj
 0002:000a6b50       ?SetSize@?$CArray@Uglue@@ABU1@@@QAEXHH@Z 0059db50 f i FootprintView.obj
 0002:000a70f0       ?SetSize@?$CArray@PAVCShape@@ABQAV1@@@QAEXHH@Z 0059e0f0 f i FootprintView.obj
 0002:000a7680       ??$SerializeElements@PAVCShape@@@@YGXAAVCArchive@@PAPAVCShape@@H@Z 0059e680 f i FootprintView.obj
 0002:000a7870       ??$DumpElements@PAVCShape@@@@YGXAAVCDumpContext@@PBQAVCShape@@H@Z 0059e870 f i FootprintView.obj
 0002:000a7960       ?CreateObject@CFreePcbDoc@@SGPAVCObject@@XZ 0059e960 f   FreePcbDoc.obj
 0002:000a7a50       ?_GetBaseClass@CFreePcbDoc@@KGPAUCRuntimeClass@@XZ 0059ea50 f   FreePcbDoc.obj
 0002:000a7aa0       ?GetThisClass@CFreePcbDoc@@SGPAUCRuntimeClass@@XZ 0059eaa0 f   FreePcbDoc.obj
 0002:000a7ae0       ?GetRuntimeClass@CFreePcbDoc@@UBEPAUCRuntimeClass@@XZ 0059eae0 f   FreePcbDoc.obj
 0002:000a7b20       ?GetMessageMap@CFreePcbDoc@@MBEPBUAFX_MSGMAP@@XZ 0059eb20 f   FreePcbDoc.obj
 0002:000a7b70       ?GetThisMessageMap@CFreePcbDoc@@KGPBUAFX_MSGMAP@@XZ 0059eb70 f   FreePcbDoc.obj
 0002:000a7bb0       ??0CFreePcbDoc@@IAE@XZ     0059ebb0 f   FreePcbDoc.obj
 0002:000a8d20       ??_ECFreePcbDoc@@UAEPAXI@Z 0059fd20 f i FreePcbDoc.obj
 0002:000a8d20       ??_GCFreePcbDoc@@UAEPAXI@Z 0059fd20 f i FreePcbDoc.obj
 0002:000a8d90       ??1CFreePcbDoc@@UAE@XZ     0059fd90 f   FreePcbDoc.obj
 0002:000a97c0       ??_GCTextList@@QAEPAXI@Z   005a07c0 f i FreePcbDoc.obj
 0002:000a9830       ??_GDRErrorList@@QAEPAXI@Z 005a0830 f i FreePcbDoc.obj
 0002:000a98a0       ??_GCUndoList@@QAEPAXI@Z   005a08a0 f i FreePcbDoc.obj
 0002:000a9910       ??_GCNetList@@QAEPAXI@Z    005a0910 f i FreePcbDoc.obj
 0002:000a9980       ??_GCPartList@@QAEPAXI@Z   005a0980 f i FreePcbDoc.obj
 0002:000a99f0       ??_GCDisplayList@@QAEPAXI@Z 005a09f0 f i FreePcbDoc.obj
 0002:000a9a60       ??_GSMFontUtil@@QAEPAXI@Z  005a0a60 f i FreePcbDoc.obj
 0002:000a9ad0       ?SendInitialUpdate@CFreePcbDoc@@QAEXXZ 005a0ad0 f   FreePcbDoc.obj
 0002:000a9b20       ?OnNewDocument@CFreePcbDoc@@UAEHXZ 005a0b20 f   FreePcbDoc.obj
 0002:000a9bf0       ?Serialize@CFreePcbDoc@@UAEXAAVCArchive@@@Z 005a0bf0 f   FreePcbDoc.obj
 0002:000a9c30       ?AssertValid@CFreePcbDoc@@UBEXXZ 005a0c30 f   FreePcbDoc.obj
 0002:000a9c80       ?Dump@CFreePcbDoc@@UBEXAAVCDumpContext@@@Z 005a0c80 f   FreePcbDoc.obj
 0002:000a9ce0       ?OnSaveDocument@CFreePcbDoc@@UAEHPBD@Z 005a0ce0 f   FreePcbDoc.obj
 0002:000a9d40       ?OnFileNew@CFreePcbDoc@@QAEXXZ 005a0d40 f   FreePcbDoc.obj
 0002:000aad30       ?GetName@CDlgProjectOptions@@QAE?AV?$CStringT@DV?$StrTraitMFC_DLL@DV?$ChTraitsCRT@D@ATL@@@@@ATL@@XZ 005a1d30 f i FreePcbDoc.obj
 0002:000aadc0       ?GetPathToFolder@CDlgProjectOptions@@QAE?AV?$CStringT@DV?$StrTraitMFC_DLL@DV?$ChTraitsCRT@D@ATL@@@@@ATL@@XZ 005a1dc0 f i FreePcbDoc.obj
 0002:000aae50       ?GetLibFolder@CDlgProjectOptions@@QAE?AV?$CStringT@DV?$StrTraitMFC_DLL@DV?$ChTraitsCRT@D@ATL@@@@@ATL@@XZ 005a1e50 f i FreePcbDoc.obj
 0002:000aaee0       ?GetNumALayers@CDlgProjectOptions@@QAEHXZ 005a1ee0 f i FreePcbDoc.obj
 0002:000aaf20       ?GetTraceWidth@CDlgProjectOptions@@QAEHXZ 005a1f20 f i FreePcbDoc.obj
 0002:000aaf60       ?GetViaWidth@CDlgProjectOptions@@QAEHXZ 005a1f60 f i FreePcbDoc.obj
 0002:000aafa0       ?GetViaHoleWidth@CDlgProjectOptions@@QAEHXZ 005a1fa0 f i FreePcbDoc.obj
 0002:000aafe0       ?GetAutoRatlineDisable@CDlgProjectOptions@@QAEHXZ 005a1fe0 f i FreePcbDoc.obj
 0002:000ab020       ?GetAutoRatlineMinPins@CDlgProjectOptions@@QAEHXZ 005a2020 f i FreePcbDoc.obj
 0002:000ab060       ?RunFileDialog@CFreePcbDoc@@QAE?AV?$CStringT@DV?$StrTraitMFC_DLL@DV?$ChTraitsCRT@D@ATL@@@@@ATL@@HV23@@Z 005a2060 f   FreePcbDoc.obj
 0002:000abc00       ?OnFileOpen@CFreePcbDoc@@QAEXXZ 005a2c00 f   FreePcbDoc.obj
 0002:000abda0       ?OnFileAutoOpen@CFreePcbDoc@@QAEXPBD@Z 005a2da0 f   FreePcbDoc.obj
 0002:000abe00       ?FileOpen@CFreePcbDoc@@QAEHPBD@Z 005a2e00 f   FreePcbDoc.obj
 0002:000ad290       ?OnFileClose@CFreePcbDoc@@QAEXXZ 005a4290 f   FreePcbDoc.obj
 0002:000ad2e0       ?FileClose@CFreePcbDoc@@QAEHXZ 005a42e0 f   FreePcbDoc.obj
 0002:000ad8b0       ?OnFileSave@CFreePcbDoc@@QAEXXZ 005a48b0 f   FreePcbDoc.obj
 0002:000ad9f0       ?AutoSave@CFreePcbDoc@@QAEHXZ 005a49f0 f   FreePcbDoc.obj
 0002:000ae280       ?FileSave@CFreePcbDoc@@QAEHPAV?$CStringT@DV?$StrTraitMFC_DLL@DV?$ChTraitsCRT@D@ATL@@@@@ATL@@000H@Z 005a5280 f   FreePcbDoc.obj
 0002:000aed10       ?ReadMerges@CFreePcbDoc@@QAEXPAVCStdioFile@@PAVMerge@@@Z 005a5d10 f   FreePcbDoc.obj
 0002:000af190       ?WriteMerges@CFreePcbDoc@@QAEXPAVCStdioFile@@PAVMerge@@@Z 005a6190 f   FreePcbDoc.obj
 0002:000af610       ?OnFileSaveAs@CFreePcbDoc@@QAEXXZ 005a6610 f   FreePcbDoc.obj
 0002:000afb80       ?OnProjectNetlist@CFreePcbDoc@@QAEXXZ 005a6b80 f   FreePcbDoc.obj
 0002:000afdd0       ?WriteOutlinesPoly@CFreePcbDoc@@QAEXPAVCStdioFile@@PAV?$CArray@VCPolyLine@@ABV1@@@@Z 005a6dd0 f   FreePcbDoc.obj
 0002:000b0920       ?ReadGraphics@CFreePcbDoc@@QAEXPAVCStdioFile@@PAV?$CArray@VCPolyLine@@ABV1@@@@Z 005a7920 f   FreePcbDoc.obj
 0002:000b1cf0       ?ReadOptions@CFreePcbDoc@@QAEHPAVCStdioFile@@H@Z 005a8cf0 f   FreePcbDoc.obj
 0002:000b7430       ?WriteOptions@CFreePcbDoc@@QAEXPAVCStdioFile@@H@Z 005ae430 f   FreePcbDoc.obj
 0002:000baaf0       ?InitializeNewProject@CFreePcbDoc@@QAEXXZ 005b1af0 f   FreePcbDoc.obj
 0002:000bca30       ?ProjectModified@CFreePcbDoc@@QAEXHH@Z 005b3a30 f   FreePcbDoc.obj
 0002:000bce50       ?SaveOptions@CFreePcbDoc@@QAEXXZ 005b3e50 f   FreePcbDoc.obj
 0002:000bd1e0       ?OnViewLayers@CFreePcbDoc@@QAEXXZ 005b41e0 f   FreePcbDoc.obj
 0002:000bd470       ?OnProjectPartlist@CFreePcbDoc@@QAEXXZ 005b4470 f   FreePcbDoc.obj
 0002:000bd6d0       ?FileExport@CFreePcbDoc@@QAEXV?$CStringT@DV?$StrTraitMFC_DLL@DV?$ChTraitsCRT@D@ATL@@@@@ATL@@@Z 005b46d0 f   FreePcbDoc.obj
 0002:000bd930       ?OnFileExport@CFreePcbDoc@@QAEXXZ 005b4930 f   FreePcbDoc.obj
 0002:000bdab0       ?GetSessionLayer@@YAHPAV?$CStringT@DV?$StrTraitMFC_DLL@DV?$ChTraitsCRT@D@ATL@@@@@ATL@@@Z 005b4ab0 f   FreePcbDoc.obj
 0002:000bdc90       ?ExportPADSPCBNetlist@CFreePcbDoc@@QAEHPAVCStdioFile@@IPAV?$CArray@Upart_info@@ABU1@@@PAV?$CArray@Unet_info@@ABU1@@@@Z 005b4c90 f   FreePcbDoc.obj
 0002:000be290       ?OnAppExit@CFreePcbDoc@@QAEXXZ 005b5290 f   FreePcbDoc.obj
 0002:000be300       ?OnFileConvert@CFreePcbDoc@@QAEXXZ 005b5300 f   FreePcbDoc.obj
 0002:000be3f0       ?CreateMoveOriginUndoRecord@CFreePcbDoc@@QAEPAUundo_move_origin@@HH@Z 005b53f0 f   FreePcbDoc.obj
 0002:000be490       ?MoveOriginUndoCallback@CFreePcbDoc@@SAXHPAXH@Z 005b5490 f   FreePcbDoc.obj
 0002:000be560       ?CreateOutlinePolyUndoRecord@CFreePcbDoc@@QAEPAUundo_outline_poly@@PAVCPolyLine@@H@Z 005b5560 f   FreePcbDoc.obj
 0002:000be730       ?OutlinePolyUndoCallback@CFreePcbDoc@@SAXHPAXH@Z 005b5730 f   FreePcbDoc.obj
 0002:000beba0       ?OnFileGenerateCadFiles@CFreePcbDoc@@QAEXXZ 005b5ba0 f   FreePcbDoc.obj
 0002:000bf260       ?OnToolsFootprintwizard@CFreePcbDoc@@QAEXXZ 005b6260 f   FreePcbDoc.obj
 0002:000bf3a0       ?MakeLibraryMaps@CFreePcbDoc@@QAEXPAV?$CStringT@DV?$StrTraitMFC_DLL@DV?$ChTraitsCRT@D@ATL@@@@@ATL@@@Z 005b63a0 f   FreePcbDoc.obj
 0002:000bf420       ?OnProjectOptions@CFreePcbDoc@@QAEXXZ 005b6420 f   FreePcbDoc.obj
 0002:000bfdc0       ?GetAutoInterval@CDlgProjectOptions@@QAEHXZ 005b6dc0 f i FreePcbDoc.obj
 0002:000bfe00       ?GetGlueWidth@CDlgProjectOptions@@QAEHXZ 005b6e00 f i FreePcbDoc.obj
 0002:000bfe40       ?OnTimer@CFreePcbDoc@@QAEXXZ 005b6e40 f   FreePcbDoc.obj
 0002:000bff10       ?OnToolsCheckPartsAndNets@CFreePcbDoc@@QAEXXZ 005b6f10 f   FreePcbDoc.obj
 0002:000c00e0       ?OnToolsDrc@CFreePcbDoc@@QAEXXZ 005b70e0 f   FreePcbDoc.obj
 0002:000c03d0       ?OnToolsClearDrc@CFreePcbDoc@@QAEXXZ 005b73d0 f   FreePcbDoc.obj
 0002:000c0480       ?OnToolsShowDRCErrorlist@CFreePcbDoc@@QAEXXZ 005b7480 f   FreePcbDoc.obj
 0002:000c04c0       ?OnToolsCheckConnectivity@CFreePcbDoc@@QAEXXZ 005b74c0 f   FreePcbDoc.obj
 0002:000c06a0       ?OnViewLog@CFreePcbDoc@@QAEXXZ 005b76a0 f   FreePcbDoc.obj
 0002:000c0720       ?OnToolsCheckTraces@CFreePcbDoc@@QAEXXZ 005b7720 f   FreePcbDoc.obj
 0002:000c0900       ?OnEditSelectAll@CFreePcbDoc@@QAEXXZ 005b7900 f   FreePcbDoc.obj
 0002:000c0b90       ?OnEditPasteFromFile@CFreePcbDoc@@QAEXXZ 005b7b90 f   FreePcbDoc.obj
 0002:000c0d20       ?PasteFromFile@CFreePcbDoc@@QAEXV?$CStringT@DV?$StrTraitMFC_DLL@DV?$ChTraitsCRT@D@ATL@@@@@ATL@@H@Z 005b7d20 f   FreePcbDoc.obj
 0002:000c1af0       ?OnFileGerbV@CFreePcbDoc@@QAEXV?$CStringT@DV?$StrTraitMFC_DLL@DV?$ChTraitsCRT@D@ATL@@@@@ATL@@0@Z 005b8af0 f   FreePcbDoc.obj
 0002:000c22c0       ?OnEditUndo@CFreePcbDoc@@QAEXXZ 005b92c0 f   FreePcbDoc.obj
 0002:000c23c0       ?OnEditRedo@CFreePcbDoc@@QAEXXZ 005b93c0 f   FreePcbDoc.obj
 0002:000c24d0       ?ResetUndoState@CFreePcbDoc@@QAEXXZ 005b94d0 f   FreePcbDoc.obj
 0002:000c2550       ?OnRepeatDrc@CFreePcbDoc@@QAEXXZ 005b9550 f   FreePcbDoc.obj
 0002:000c2640       ?OnFileGenerateReportFile@CFreePcbDoc@@QAEXXZ 005b9640 f   FreePcbDoc.obj
 0002:000c2780       ?OPRefreshID@CFreePcbDoc@@QAEXXZ 005b9780 f   FreePcbDoc.obj
 0002:000c28a0       ?CombineBoardOutlines@CFreePcbDoc@@QAEHHH@Z 005b98a0 f   FreePcbDoc.obj
 0002:000c3350       ?ClipOP@CFreePcbDoc@@QAEXH@Z 005ba350 f   FreePcbDoc.obj
 0002:000c3790       ?OnProjectCombineBoard@CFreePcbDoc@@QAEXXZ 005ba790 f   FreePcbDoc.obj
 0002:000c3830       ?ProjectCombineBoard@CFreePcbDoc@@QAEXH@Z 005ba830 f   FreePcbDoc.obj
 0002:000c3eb0       ?RemoveOrphanMerges@CFreePcbDoc@@QAEXXZ 005baeb0 f   FreePcbDoc.obj
 0002:000c49d0       ?DRC@CFreePcbDoc@@QAEXXZ   005bb9d0 f   FreePcbDoc.obj
 0002:000c4a10       ?GetGerberPathes@CFreePcbDoc@@QAEHV?$CStringT@DV?$StrTraitMFC_DLL@DV?$ChTraitsCRT@D@ATL@@@@@ATL@@@Z 005bba10 f   FreePcbDoc.obj
 0002:000c60f0       ?FindNodeLine@CFreePcbDoc@@QAEHHH@Z 005bd0f0 f   FreePcbDoc.obj
 0002:000c6690       ??0?$CArray@VCPolyLine@@ABV1@@@QAE@XZ 005bd690 f i FreePcbDoc.obj
 0002:000c6720       ?RemoveAll@?$CArray@VCPolyLine@@ABV1@@@QAEXXZ 005bd720 f i FreePcbDoc.obj
 0002:000c6780       ??A?$CArray@Vcarea@@V1@@@QAEAAVcarea@@H@Z 005bd780 f i FreePcbDoc.obj
 0002:000c67e0       ??0?$CArray@NABN@@QAE@XZ   005bd7e0 f i FreePcbDoc.obj
 0002:000c6870       ?GetSize@?$CArray@NABN@@QBEHXZ 005bd870 f i FreePcbDoc.obj
 0002:000c68b0       ?RemoveAll@?$CArray@NABN@@QAEXXZ 005bd8b0 f i FreePcbDoc.obj
 0002:000c6910       ?Add@?$CArray@NABN@@QAEHABN@Z 005bd910 f i FreePcbDoc.obj
 0002:000c6980       ??A?$CArray@NABN@@QAEAANH@Z 005bd980 f i FreePcbDoc.obj
 0002:000c69e0       ??0?$CArray@VCArc@@ABV1@@@QAE@XZ 005bd9e0 f i FreePcbDoc.obj
 0002:000c6a70       ??1?$CArray@VCArc@@ABV1@@@UAE@XZ 005bda70 f i FreePcbDoc.obj
 0002:000c6b80       ?Serialize@?$CArray@VCArc@@ABV1@@@UAEXAAVCArchive@@@Z 005bdb80 f i FreePcbDoc.obj
 0002:000c6c50       ?Dump@?$CArray@VCArc@@ABV1@@@UBEXAAVCDumpContext@@@Z 005bdc50 f i FreePcbDoc.obj
 0002:000c6d30       ?AssertValid@?$CArray@VCArc@@ABV1@@@UBEXXZ 005bdd30 f i FreePcbDoc.obj
 0002:000c6e90       ??0?$CArray@PAVCPolyLine@@ABQAV1@@@QAE@XZ 005bde90 f i FreePcbDoc.obj
 0002:000c6f20       ??A?$CArray@PAVCPolyLine@@ABQAV1@@@QAEAAPAVCPolyLine@@H@Z 005bdf20 f i FreePcbDoc.obj
 0002:000c6f80       ?Serialize@?$CArray@PAVCPolyLine@@ABQAV1@@@UAEXAAVCArchive@@@Z 005bdf80 f i FreePcbDoc.obj
 0002:000c7050       ?Dump@?$CArray@PAVCPolyLine@@ABQAV1@@@UBEXAAVCDumpContext@@@Z 005be050 f i FreePcbDoc.obj
 0002:000c7130       ?AssertValid@?$CArray@PAVCPolyLine@@ABQAV1@@@UBEXXZ 005be130 f i FreePcbDoc.obj
 0002:000c7290       ??_G?$CArray@VCArc@@ABV1@@@UAEPAXI@Z 005be290 f i FreePcbDoc.obj
 0002:000c7290       ??_E?$CArray@VCArc@@ABV1@@@UAEPAXI@Z 005be290 f i FreePcbDoc.obj
 0002:000c7300       ??_E?$CArray@PAVCPolyLine@@ABQAV1@@@UAEPAXI@Z 005be300 f i FreePcbDoc.obj
 0002:000c7300       ??_G?$CArray@PAVCPolyLine@@ABQAV1@@@UAEPAXI@Z 005be300 f i FreePcbDoc.obj
 0002:000c7370       ??1?$CArray@PAVCPolyLine@@ABQAV1@@@UAE@XZ 005be370 f i FreePcbDoc.obj
 0002:000c7480       ?ElementAt@?$CArray@Vcarea@@V1@@@QAEAAVcarea@@H@Z 005be480 f i FreePcbDoc.obj
 0002:000c7530       ?ElementAt@?$CArray@NABN@@QAEAANH@Z 005be530 f i FreePcbDoc.obj
 0002:000c75e0       ?SetAtGrow@?$CArray@NABN@@QAEXHABN@Z 005be5e0 f i FreePcbDoc.obj
 0002:000c76b0       ?SetSize@?$CArray@VCArc@@ABV1@@@QAEXHH@Z 005be6b0 f i FreePcbDoc.obj
 0002:000c7c50       ??$SerializeElements@VCArc@@@@YGXAAVCArchive@@PAVCArc@@H@Z 005bec50 f i FreePcbDoc.obj
 0002:000c7e40       ??$DumpElements@VCArc@@@@YGXAAVCDumpContext@@PBVCArc@@H@Z 005bee40 f i FreePcbDoc.obj
 0002:000c7f30       ?SetSize@?$CArray@PAVCPolyLine@@ABQAV1@@@QAEXHH@Z 005bef30 f i FreePcbDoc.obj
 0002:000c84c0       ?ElementAt@?$CArray@PAVCPolyLine@@ABQAV1@@@QAEAAPAVCPolyLine@@H@Z 005bf4c0 f i FreePcbDoc.obj
 0002:000c8570       ??$SerializeElements@PAVCPolyLine@@@@YGXAAVCArchive@@PAPAVCPolyLine@@H@Z 005bf570 f i FreePcbDoc.obj
 0002:000c8760       ??$DumpElements@PAVCPolyLine@@@@YGXAAVCDumpContext@@PBQAVCPolyLine@@H@Z 005bf760 f i FreePcbDoc.obj
 0002:000c8850       ?GetAdapter@CDocument@@UAEPAUIDocument@ATL@@XZ 005bf850 f i FreePcbDoc.obj
 0002:000c8a20       ??0CDocumentAdapter@CDocument@@QAE@PAV1@@Z 005bfa20 f i FreePcbDoc.obj
 0002:000c8a90       ??0IDocument@ATL@@IAE@XZ   005bfa90 f i FreePcbDoc.obj
 0002:000c8ae0       ?AddRef@IDocument@ATL@@UAEJXZ 005bfae0 f i FreePcbDoc.obj
 0002:000c8b40       ?Release@IDocument@ATL@@UAEJXZ 005bfb40 f i FreePcbDoc.obj
 0002:000c8c40       ??_GIDocument@ATL@@UAEPAXI@Z 005bfc40 f i FreePcbDoc.obj
 0002:000c8c40       ??_EIDocument@ATL@@UAEPAXI@Z 005bfc40 f i FreePcbDoc.obj
 0002:000c8cb0       ??1IDocument@ATL@@UAE@XZ   005bfcb0 f i FreePcbDoc.obj
 0002:000c8cf0       ?LoadFromStream@CDocumentAdapter@CDocument@@UAEJPAUIStream@@K@Z 005bfcf0 f i FreePcbDoc.obj
 0002:000c8e20       ??0CTraceFileAndLineInfo@ATL@@QAE@PBDH@Z 005bfe20 f i FreePcbDoc.obj
 0002:000c8e70       ??RCTraceFileAndLineInfo@ATL@@QBAXPBDZZ 005bfe70 f i FreePcbDoc.obj
 0002:000c8f00       ?TraceV@CTrace@ATL@@QBAXPBDHKI0PAD@Z 005bff00 f i FreePcbDoc.obj
 0002:000c8f70       ??BCTraceCategory@ATL@@QBEKXZ 005bff70 f i FreePcbDoc.obj
 0002:000c8fb0       ?InitializeSearchContent@CDocumentAdapter@CDocument@@UAEXXZ 005bffb0 f i FreePcbDoc.obj
 0002:000c9080       ?ClearChunkList@CDocumentAdapter@CDocument@@UAEXXZ 005c0080 f i FreePcbDoc.obj
 0002:000c9150       ?SetChunkValue@CDocumentAdapter@CDocument@@UAEHPAUIFilterChunkValue@ATL@@@Z 005c0150 f i FreePcbDoc.obj
 0002:000c9220       ?BeginReadChunks@CDocumentAdapter@CDocument@@UAEXXZ 005c0220 f i FreePcbDoc.obj
 0002:000c92f0       ?ReadNextChunkValue@CDocumentAdapter@CDocument@@UAEHPAPAUIFilterChunkValue@ATL@@@Z 005c02f0 f i FreePcbDoc.obj
 0002:000c93c0       ?RemoveChunk@CDocumentAdapter@CDocument@@UAEXABU_GUID@@K@Z 005c03c0 f i FreePcbDoc.obj
 0002:000c94a0       ?FindChunk@CDocumentAdapter@CDocument@@UAEPAU__POSITION@@ABU_GUID@@K@Z 005c04a0 f i FreePcbDoc.obj
 0002:000c9580       ?GetContainer@CDocumentAdapter@CDocument@@UBEPAXXZ 005c0580 f i FreePcbDoc.obj
 0002:000c95c0       ?GetThumbnail@CDocumentAdapter@CDocument@@UAEHIPAPAUHBITMAP__@@PAW4WTS_ALPHATYPE@@@Z 005c05c0 f i FreePcbDoc.obj
 0002:000c96a0       ?OnBeforeRichPreviewFontChanged@CDocument@@UAEXXZ 005c06a0 f i FreePcbDoc.obj
 0002:000c96e0       ?OnRichPreviewFontChanged@CDocument@@UAEXXZ 005c06e0 f i FreePcbDoc.obj
 0002:000c9720       ?OnRichPreviewTextColorChanged@CDocument@@UAEXXZ 005c0720 f i FreePcbDoc.obj
 0002:000c9760       ?OnRichPreviewBackColorChanged@CDocument@@UAEXXZ 005c0760 f i FreePcbDoc.obj
 0002:000c97a0       ?OnRichPreviewSiteChanged@CDocument@@UAEXXZ 005c07a0 f i FreePcbDoc.obj
 0002:000c97e0       ?InitializeSearchContent@CDocument@@UAEXXZ 005c07e0 f i FreePcbDoc.obj
 0002:000c9860       ??_ECDocumentAdapter@CDocument@@UAEPAXI@Z 005c0860 f i FreePcbDoc.obj
 0002:000c9860       ??_GCDocumentAdapter@CDocument@@UAEPAXI@Z 005c0860 f i FreePcbDoc.obj
 0002:000c98d0       ??1CDocumentAdapter@CDocument@@UAE@XZ 005c08d0 f i FreePcbDoc.obj
 0002:000c99f0       ?GetGridStyle@CDisplayList@@QAEHXZ 005c09f0 f i FreePcbDoc.obj
 0002:000c9a30       ?SetGridStyle@CDisplayList@@QAEXH@Z 005c0a30 f i FreePcbDoc.obj
 0002:000c9a80       ?GetTopLayer@CDisplayList@@QAEHXZ 005c0a80 f i FreePcbDoc.obj
 0002:000c9ac0       ??0Merge@@QAE@XZ           005c0ac0 f i FreePcbDoc.obj
 0002:000c9bc0       ??1Merge@@UAE@XZ           005c0bc0 f i FreePcbDoc.obj
 0002:000c9c90       ?AddNew@Merge@@QAEHV?$CStringT@DV?$StrTraitMFC_DLL@DV?$ChTraitsCRT@D@ATL@@@@@ATL@@H@Z 005c0c90 f i FreePcbDoc.obj
 0002:000c9ec0       ?GetClearance@Merge@@QAEHH@Z 005c0ec0 f i FreePcbDoc.obj
 0002:000c9f40       ?Clear@Merge@@QAEXXZ       005c0f40 f i FreePcbDoc.obj
 0002:000c9fc0       ?CopyFrom@Merge@@QAEXPAV1@@Z 005c0fc0 f i FreePcbDoc.obj
 0002:000ca1b0       ?mark0@Merge@@QAEXXZ       005c11b0 f i FreePcbDoc.obj
 0002:000ca240       ?GetMark@Merge@@QAEHH@Z    005c1240 f i FreePcbDoc.obj
 0002:000ca2c0       ??_GMerge@@UAEPAXI@Z       005c12c0 f i FreePcbDoc.obj
 0002:000ca2c0       ??_EMerge@@UAEPAXI@Z       005c12c0 f i FreePcbDoc.obj
 0002:000ca330       ?GetUtility@CPolyLine@@QAEHXZ 005c1330 f i FreePcbDoc.obj
 0002:000ca370       ?SetUtility@CPolyLine@@QAEXH@Z 005c1370 f i FreePcbDoc.obj
 0002:000ca3c0       ?GetGpcPoly@CPolyLine@@QAEPAUgpc_polygon@@XZ 005c13c0 f i FreePcbDoc.obj
 0002:000ca400       ?Set_default_mask_clearance@CPartList@@QAEXH@Z 005c1400 f i FreePcbDoc.obj
 0002:000ca450       ?Set_default_paste_clearance@CPartList@@QAEXH@Z 005c1450 f i FreePcbDoc.obj
 0002:000ca4a0       ?UseNetList@CPartList@@QAEXPAVCNetList@@@Z 005c14a0 f i FreePcbDoc.obj
 0002:000ca4f0       ?SetShapeCacheMap@CPartList@@QAEXPAVCMapStringToPtr@@@Z 005c14f0 f i FreePcbDoc.obj
 0002:000ca540       ?SetNumCopperLayers@CPartList@@QAEXH@Z 005c1540 f i FreePcbDoc.obj
 0002:000ca590       ?SetNumCopperLayers@CNetList@@QAEXH@Z 005c1590 f i FreePcbDoc.obj
 0002:000ca5e0       ?SetSMTconnect@CNetList@@QAEXH@Z 005c15e0 f i FreePcbDoc.obj
 0002:000ca630       ?OnFileCam1@CFreePcbDoc@@QAEXXZ 005c1630 f i FreePcbDoc.obj
 0002:000ca740       ?OnFileCam2@CFreePcbDoc@@QAEXXZ 005c1740 f i FreePcbDoc.obj
 0002:000ca850       ?OnFileCam3@CFreePcbDoc@@QAEXXZ 005c1850 f i FreePcbDoc.obj
 0002:000ca960       ?OnFileCam4@CFreePcbDoc@@QAEXXZ 005c1960 f i FreePcbDoc.obj
 0002:000caa70       ?OnFileCam5@CFreePcbDoc@@QAEXXZ 005c1a70 f i FreePcbDoc.obj
 0002:000cab80       ?OnFileCam6@CFreePcbDoc@@QAEXXZ 005c1b80 f i FreePcbDoc.obj
 0002:000cac90       ?OnFileCam7@CFreePcbDoc@@QAEXXZ 005c1c90 f i FreePcbDoc.obj
 0002:000cada0       ?OnFileCam8@CFreePcbDoc@@QAEXXZ 005c1da0 f i FreePcbDoc.obj
 0002:000caeb0       ?OnFileCam9@CFreePcbDoc@@QAEXXZ 005c1eb0 f i FreePcbDoc.obj
 0002:000cafc0       ?OnFileCam10@CFreePcbDoc@@QAEXXZ 005c1fc0 f i FreePcbDoc.obj
 0002:000cb0d0       ?OnFileCam11@CFreePcbDoc@@QAEXXZ 005c20d0 f i FreePcbDoc.obj
 0002:000cb1e0       ?OnFileCam12@CFreePcbDoc@@QAEXXZ 005c21e0 f i FreePcbDoc.obj
 0002:000cb2f0       ?OnFileCam13@CFreePcbDoc@@QAEXXZ 005c22f0 f i FreePcbDoc.obj
 0002:000cb400       ?OnFileCam14@CFreePcbDoc@@QAEXXZ 005c2400 f i FreePcbDoc.obj
 0002:000cb510       ?OnFileCam15@CFreePcbDoc@@QAEXXZ 005c2510 f i FreePcbDoc.obj
 0002:000cb620       ?OnFileCam16@CFreePcbDoc@@QAEXXZ 005c2620 f i FreePcbDoc.obj
 0002:000cb730       ?OnFileCam17@CFreePcbDoc@@QAEXXZ 005c2730 f i FreePcbDoc.obj
 0002:000cb840       ?OnFileCam18@CFreePcbDoc@@QAEXXZ 005c2840 f i FreePcbDoc.obj
 0002:000cb950       ?OnFileCam19@CFreePcbDoc@@QAEXXZ 005c2950 f i FreePcbDoc.obj
 0002:000cba60       ?OnFileCam20@CFreePcbDoc@@QAEXXZ 005c2a60 f i FreePcbDoc.obj
 0002:000cbb70       ?OnFileCam21@CFreePcbDoc@@QAEXXZ 005c2b70 f i FreePcbDoc.obj
 0002:000cbc80       ?InvalidateLeftPane@CFreePcbView@@QAEXXZ 005c2c80 f i FreePcbDoc.obj
 0002:000cbcd0       ?RemoveAll@?$CArray@V?$CStringT@DV?$StrTraitMFC_DLL@DV?$ChTraitsCRT@D@ATL@@@@@ATL@@ABV12@@@QAEXXZ 005c2cd0 f i FreePcbDoc.obj
 0002:000cbd30       ?Add@?$CArray@V?$CStringT@DV?$StrTraitMFC_DLL@DV?$ChTraitsCRT@D@ATL@@@@@ATL@@ABV12@@@QAEHABV?$CStringT@DV?$StrTraitMFC_DLL@DV?$ChTraitsCRT@D@ATL@@@@@ATL@@@Z 005c2d30 f i FreePcbDoc.obj
 0002:000cbda0       ?RemoveAll@?$CArray@HABH@@QAEXXZ 005c2da0 f i FreePcbDoc.obj
 0002:000cbe00       ??1?$CArray@VCPolyLine@@ABV1@@@UAE@XZ 005c2e00 f i FreePcbDoc.obj
 0002:000cbf30       ?Serialize@?$CArray@VCPolyLine@@ABV1@@@UAEXAAVCArchive@@@Z 005c2f30 f i FreePcbDoc.obj
 0002:000cc000       ?Dump@?$CArray@VCPolyLine@@ABV1@@@UBEXAAVCDumpContext@@@Z 005c3000 f i FreePcbDoc.obj
 0002:000cc0e0       ?AssertValid@?$CArray@VCPolyLine@@ABV1@@@UBEXXZ 005c30e0 f i FreePcbDoc.obj
 0002:000cc240       ??1?$CArray@NABN@@UAE@XZ   005c3240 f i FreePcbDoc.obj
 0002:000cc350       ?Serialize@?$CArray@NABN@@UAEXAAVCArchive@@@Z 005c3350 f i FreePcbDoc.obj
 0002:000cc420       ?Dump@?$CArray@NABN@@UBEXAAVCDumpContext@@@Z 005c3420 f i FreePcbDoc.obj
 0002:000cc500       ?AssertValid@?$CArray@NABN@@UBEXXZ 005c3500 f i FreePcbDoc.obj
 0002:000cc660       ??_G?$CArray@VCPolyLine@@ABV1@@@UAEPAXI@Z 005c3660 f i FreePcbDoc.obj
 0002:000cc660       ??_E?$CArray@VCPolyLine@@ABV1@@@UAEPAXI@Z 005c3660 f i FreePcbDoc.obj
 0002:000cc6d0       ??_E?$CArray@NABN@@UAEPAXI@Z 005c36d0 f i FreePcbDoc.obj
 0002:000cc6d0       ??_G?$CArray@NABN@@UAEPAXI@Z 005c36d0 f i FreePcbDoc.obj
 0002:000cc740       ??$SerializeElements@VCPolyLine@@@@YGXAAVCArchive@@PAVCPolyLine@@H@Z 005c3740 f i FreePcbDoc.obj
 0002:000cc940       ??$DumpElements@VCPolyLine@@@@YGXAAVCDumpContext@@PBVCPolyLine@@H@Z 005c3940 f i FreePcbDoc.obj
 0002:000cca30       ?SetSize@?$CArray@NABN@@QAEXHH@Z 005c3a30 f i FreePcbDoc.obj
 0002:000ccfc0       ??$SerializeElements@N@@YGXAAVCArchive@@PANH@Z 005c3fc0 f i FreePcbDoc.obj
 0002:000cd1b0       ??$DumpElements@N@@YGXAAVCDumpContext@@PBNH@Z 005c41b0 f i FreePcbDoc.obj
 0002:000cd2a0       ?CreateObject@CFreePcbView@@SGPAVCObject@@XZ 005c42a0 f   FreePcbView.obj
 0002:000cd390       ?_GetBaseClass@CFreePcbView@@KGPAUCRuntimeClass@@XZ 005c4390 f   FreePcbView.obj
 0002:000cd3e0       ?GetThisClass@CFreePcbView@@SGPAUCRuntimeClass@@XZ 005c43e0 f   FreePcbView.obj
 0002:000cd420       ?GetRuntimeClass@CFreePcbView@@UBEPAUCRuntimeClass@@XZ 005c4420 f   FreePcbView.obj
 0002:000cd460       ?GetMessageMap@CFreePcbView@@MBEPBUAFX_MSGMAP@@XZ 005c4460 f   FreePcbView.obj
 0002:000cd4b0       ?GetThisMessageMap@CFreePcbView@@KGPBUAFX_MSGMAP@@XZ 005c44b0 f   FreePcbView.obj
 0002:000cd4f0       ??0CFreePcbView@@QAE@XZ    005c44f0 f   FreePcbView.obj
 0002:000cd880       ??_ECFreePcbView@@UAEPAXI@Z 005c4880 f i FreePcbView.obj
 0002:000cd880       ??_GCFreePcbView@@UAEPAXI@Z 005c4880 f i FreePcbView.obj
 0002:000cd8f0       ?InitInstance@CFreePcbView@@QAEXXZ 005c48f0 f   FreePcbView.obj
 0002:000cdbc0       ?InitializeView@CFreePcbView@@QAEXXZ 005c4bc0 f   FreePcbView.obj
 0002:000cded0       ??1CFreePcbView@@UAE@XZ    005c4ed0 f   FreePcbView.obj
 0002:000ce020       ?PreCreateWindow@CFreePcbView@@UAEHAAUtagCREATESTRUCTA@@@Z 005c5020 f   FreePcbView.obj
 0002:000ce080       ?OnDraw@CFreePcbView@@UAEXPAVCDC@@@Z 005c5080 f   FreePcbView.obj
 0002:000ce970       ?OnPreparePrinting@CFreePcbView@@MAEHPAUCPrintInfo@@@Z 005c5970 f   FreePcbView.obj
 0002:000ce9d0       ?OnBeginPrinting@CFreePcbView@@MAEXPAVCDC@@PAUCPrintInfo@@@Z 005c59d0 f   FreePcbView.obj
 0002:000cea10       ?OnEndPrinting@CFreePcbView@@MAEXPAVCDC@@PAUCPrintInfo@@@Z 005c5a10 f   FreePcbView.obj
 0002:000cea50       ?AssertValid@CFreePcbView@@UBEXXZ 005c5a50 f   FreePcbView.obj
 0002:000ceaa0       ?Dump@CFreePcbView@@UBEXAAVCDumpContext@@@Z 005c5aa0 f   FreePcbView.obj
 0002:000ceb00       ?GetDocument@CFreePcbView@@QAEPAVCFreePcbDoc@@XZ 005c5b00 f   FreePcbView.obj
 0002:000ceba0       ?OnSize@CFreePcbView@@IAEXIHH@Z 005c5ba0 f   FreePcbView.obj
 0002:000cf1f0       ?OnLButtonUp@CFreePcbView@@QAEXIVCPoint@@@Z 005c61f0 f   FreePcbView.obj
 0002:000d1820       ?OnLButtonDblClk@CFreePcbView@@IAEXIVCPoint@@@Z 005c8820 f   FreePcbView.obj
 0002:000d1880       ?OnRButtonDown@CFreePcbView@@IAEXIVCPoint@@@Z 005c8880 f   FreePcbView.obj
 0002:000d1ed0       ?OnSysKeyDown@CFreePcbView@@IAEXIII@Z 005c8ed0 f   FreePcbView.obj
 0002:000d1f60       ?OnSysKeyUp@CFreePcbView@@IAEXIII@Z 005c8f60 f   FreePcbView.obj
 0002:000d1fd0       ?OnKeyUp@CFreePcbView@@QAEXIII@Z 005c8fd0 f   FreePcbView.obj
 0002:000d2080       ?OnKeyDown@CFreePcbView@@IAEXIII@Z 005c9080 f   FreePcbView.obj
 0002:000d2160       ?HandleKeyPress@CFreePcbView@@QAEXIII@Z 005c9160 f   FreePcbView.obj
 0002:000d51f0       ?OnMouseMove@CFreePcbView@@IAEXIVCPoint@@@Z 005cc1f0 f   FreePcbView.obj
 0002:000d5660       ?SetDCToWorldCoords@CFreePcbView@@QAEHPAVCDC@@@Z 005cc660 f   FreePcbView.obj
 0002:000d5700       ?SetCursorMode@CFreePcbView@@QAEXH@Z 005cc700 f   FreePcbView.obj
 0002:000d57e0       ?SetFKText@CFreePcbView@@QAEXH@Z 005cc7e0 f   FreePcbView.obj
 0002:000d6330       ?DrawBottomPane@CFreePcbView@@QAEXXZ 005cd330 f   FreePcbView.obj
 0002:000d66f0       ?ShowRelativeDistance@CFreePcbView@@QAEXHH@Z 005cd6f0 f   FreePcbView.obj
 0002:000d6900       ?ShowRelativeDistance@CFreePcbView@@QAEXHHHH@Z 005cd900 f   FreePcbView.obj
 0002:000d6b50       ?ShowSelectStatus@CFreePcbView@@QAEHXZ 005cdb50 f   FreePcbView.obj
 0002:000d7c60       ?ShowCursor@CFreePcbView@@QAEHXZ 005cec60 f   FreePcbView.obj
 0002:000d7f10       ?ShowActiveLayer@CFreePcbView@@QAEHHH@Z 005cef10 f   FreePcbView.obj
 0002:000d8100       ?OnMouseWheel@CFreePcbView@@IAEHIFVCPoint@@@Z 005cf100 f   FreePcbView.obj
 0002:000d89a0       ?SelectPart@CFreePcbView@@QAEHPAVcpart@@H@Z 005cf9a0 f   FreePcbView.obj
 0002:000d89e0       ?CancelSelection@CFreePcbView@@QAEXH@Z 005cf9e0 f   FreePcbView.obj
 0002:000d8ef0       ?ProjectRunInfoBox@CFreePcbView@@QAEXXZ 005cfef0 f   FreePcbView.obj
 0002:000d9250       ?OnProjectRunInfoBox@CFreePcbView@@QAEXXZ 005d0250 f   FreePcbView.obj
 0002:000d92c0       ?OnSetOriginToSelectedItem@CFreePcbView@@QAEXXZ 005d02c0 f   FreePcbView.obj
 0002:000d9320       ?SetOriginToSelectedItem@CFreePcbView@@QAEXXZ 005d0320 f   FreePcbView.obj
 0002:000d9580       ?OnContextMenu@CFreePcbView@@QAEXPAVCWnd@@VCPoint@@@Z 005d0580 f   FreePcbView.obj
 0002:000d9c80       ?OnTextAdd@CFreePcbView@@QAEXXZ 005d0c80 f   FreePcbView.obj
 0002:000da200       ?OnTextDelete@CFreePcbView@@QAEXXZ 005d1200 f   FreePcbView.obj
 0002:000da2c0       ?OnTextMove@CFreePcbView@@QAEXXZ 005d12c0 f   FreePcbView.obj
 0002:000da460       ?OnPartRemoveMerge@CFreePcbView@@QAEXXZ 005d1460 f   FreePcbView.obj
 0002:000da5a0       ?OnTextEdit@CFreePcbView@@QAEXXZ 005d15a0 f   FreePcbView.obj
 0002:000dad10       ?OnOPCornerMove@CFreePcbView@@QAEXXZ 005d1d10 f   FreePcbView.obj
 0002:000daec0       ?OnOPCornerEdit@CFreePcbView@@QAEXXZ 005d1ec0 f   FreePcbView.obj
 0002:000db480       ?OnOPCornerDelete@CFreePcbView@@QAEXXZ 005d2480 f   FreePcbView.obj
 0002:000db620       ?OnOPSideAddCorner@CFreePcbView@@QAEXXZ 005d2620 f   FreePcbView.obj
 0002:000db750       ?OnOPDeleteOutline@CFreePcbView@@QAEXXZ 005d2750 f   FreePcbView.obj
 0002:000db840       ?CurNone@CFreePcbView@@QAEHXZ 005d2840 f   FreePcbView.obj
 0002:000db890       ?CurSelected@CFreePcbView@@QAEHXZ 005d2890 f   FreePcbView.obj
 0002:000db910       ?CurDragging@CFreePcbView@@QAEHXZ 005d2910 f   FreePcbView.obj
 0002:000db990       ?CurDraggingPlacement@CFreePcbView@@QAEHXZ 005d2990 f   FreePcbView.obj
 0002:000dba70       ?SnapCursorPoint@CFreePcbView@@QAEXVCPoint@@I@Z 005d2a70 f   FreePcbView.obj
 0002:000dd870       ?OnChangeVisibleGrid@CFreePcbView@@QAEJIJ@Z 005d4870 f   FreePcbView.obj
 0002:000dd940       ?OnChangePlacementGrid@CFreePcbView@@QAEJIJ@Z 005d4940 f   FreePcbView.obj
 0002:000dd9e0       ?OnChangeRoutingGrid@CFreePcbView@@QAEJIJ@Z 005d49e0 f   FreePcbView.obj
 0002:000ddad0       ?OnChangeSnapAngle@CFreePcbView@@QAEJIJ@Z 005d4ad0 f   FreePcbView.obj
 0002:000ddc00       ?OnChangeUnits@CFreePcbView@@QAEJIJ@Z 005d4c00 f   FreePcbView.obj
 0002:000ddcf0       ?OnEraseBkgnd@CFreePcbView@@QAEHPAVCDC@@@Z 005d4cf0 f   FreePcbView.obj
 0002:000ddd40       ?OnOPSideConvertToStraightLine@CFreePcbView@@QAEXXZ 005d4d40 f   FreePcbView.obj
 0002:000dde50       ?OnOPSideConvertToArcCw@CFreePcbView@@QAEXXZ 005d4e50 f   FreePcbView.obj
 0002:000ddf60       ?OnOPSideConvertToArcCcw@CFreePcbView@@QAEXXZ 005d4f60 f   FreePcbView.obj
 0002:000de070       ?SaveUndoInfoForGroup@CFreePcbView@@QAEHHPAVCUndoList@@HH@Z 005d5070 f   FreePcbView.obj
 0002:000df0f0       ??0undo_group_descriptor@@QAE@XZ 005d60f0 f i FreePcbView.obj
 0002:000df1a0       ?SaveUndoInfoForMoveOrigin@CFreePcbView@@QAEXHHPAVCUndoList@@@Z 005d61a0 f   FreePcbView.obj
 0002:000df270       ?SaveUndoInfoForOutlinePoly@CFreePcbView@@QAEXHHPAVCUndoList@@@Z 005d6270 f   FreePcbView.obj
 0002:000df470       ?SaveUndoInfoForText@CFreePcbView@@QAEXPAVCText@@HHPAVCUndoList@@@Z 005d6470 f   FreePcbView.obj
 0002:000df550       ?SaveUndoInfoForText@CFreePcbView@@QAEXPAUundo_text@@HHPAVCUndoList@@@Z 005d6550 f   FreePcbView.obj
 0002:000df680       ??0undo_text@@QAE@XZ       005d6680 f i FreePcbView.obj
 0002:000df6f0       ??4undo_text@@QAEAAU0@ABU0@@Z 005d66f0 f i FreePcbView.obj
 0002:000df840       ?ViewAllElements@CFreePcbView@@QAE?AUtagRECT@@XZ 005d6840 f   FreePcbView.obj
 0002:000dfd20       ?OnViewAllElements@CFreePcbView@@QAEXXZ 005d6d20 f   FreePcbView.obj
 0002:000dfda0       ?OnViewFindpart@CFreePcbView@@QAEXXZ 005d6da0 f   FreePcbView.obj
 0002:000e01f0       ?OnDrc@CFreePcbView@@QAEXXZ 005d71f0 f   FreePcbView.obj
 0002:000e0250       ?OnClearDRC@CFreePcbView@@QAEXXZ 005d7250 f   FreePcbView.obj
 0002:000e02b0       ?AddOutlinePoly@CFreePcbView@@QAEXHH@Z 005d72b0 f   FreePcbView.obj
 0002:000e0960       ?OnAddOutlinePoly@CFreePcbView@@QAEXXZ 005d7960 f   FreePcbView.obj
 0002:000e09c0       ?OPSetWidth@CFreePcbView@@QAEHXZ 005d79c0 f   FreePcbView.obj
 0002:000e0e00       ?GetWidth@CDlgAddPoly@@QAEHXZ 005d7e00 f i FreePcbView.obj
 0002:000e0e40       ?GetClosedFlag@CDlgAddPoly@@QAEHXZ 005d7e40 f i FreePcbView.obj
 0002:000e0e80       ?OnOPSetWidth@CFreePcbView@@QAEXXZ 005d7e80 f   FreePcbView.obj
 0002:000e0ee0       ?OPHatchStyle@CFreePcbView@@QAEXXZ 005d7ee0 f   FreePcbView.obj
 0002:000e11a0       ?OnOPHatchStyle@CFreePcbView@@QAEXXZ 005d81a0 f   FreePcbView.obj
 0002:000e1200       ?OnToolsMoveOrigin@CFreePcbView@@QAEXXZ 005d8200 f   FreePcbView.obj
 0002:000e1450       ?MoveOrigin@CFreePcbView@@QAEXHH@Z 005d8450 f   FreePcbView.obj
 0002:000e1560       ?OnLButtonDown@CFreePcbView@@IAEXIVCPoint@@@Z 005d8560 f   FreePcbView.obj
 0002:000e1600       ?SelectItemsInRect@CFreePcbView@@QAEXVCRect@@I@Z 005d8600 f   FreePcbView.obj
 0002:000e2570       ?StartDraggingGroup@CFreePcbView@@QAEXHHH@Z 005d9570 f   FreePcbView.obj
 0002:000e36d0       ?CancelDraggingGroup@CFreePcbView@@QAEXXZ 005da6d0 f   FreePcbView.obj
 0002:000e3ac0       ?TurnGroup@CFreePcbView@@QAEXXZ 005daac0 f   FreePcbView.obj
 0002:000e4290       ?OnGroupMove@CFreePcbView@@QAEXXZ 005db290 f   FreePcbView.obj
 0002:000e4310       ?MoveGroup@CFreePcbView@@QAEXHHH@Z 005db310 f   FreePcbView.obj
 0002:000e4d90       ?OnInsidePolyline@CFreePcbView@@QAEXXZ 005dbd90 f   FreePcbView.obj
 0002:000e50e0       ?HighlightGroup@CFreePcbView@@QAEXH@Z 005dc0e0 f   FreePcbView.obj
 0002:000e5540       ?SetSelMaskArray@CFreePcbView@@QAEXH@Z 005dc540 f   FreePcbView.obj
 0002:000e55e0       ?OnGroupCopy@CFreePcbView@@QAEXXZ 005dc5e0 f   FreePcbView.obj
 0002:000e5b60       ?OnGroupCut@CFreePcbView@@QAEXXZ 005dcb60 f   FreePcbView.obj
 0002:000e5bc0       ?OnGroupDelete@CFreePcbView@@QAEXXZ 005dcbc0 f   FreePcbView.obj
 0002:000e5c20       ?DeleteGroup@CFreePcbView@@QAEXH@Z 005dcc20 f   FreePcbView.obj
 0002:000e5d00       ?OnGroupPaste@CFreePcbView@@QAEXHH@Z 005dcd00 f   FreePcbView.obj
 0002:000e67a0       ?OnGroupStaticHighlight@CFreePcbView@@QAEXXZ 005dd7a0 f   FreePcbView.obj
 0002:000e6820       ?OnGroupCancelHighlight@CFreePcbView@@QAEXXZ 005dd820 f   FreePcbView.obj
 0002:000e6880       ?GroupCancelHighlight@CFreePcbView@@QAEXXZ 005dd880 f   FreePcbView.obj
 0002:000e68f0       ?OnApproximationArc@CFreePcbView@@QAEXXZ 005dd8f0 f   FreePcbView.obj
 0002:000e6990       ?OnGroupAlignParts@CFreePcbView@@QAEXXZ 005dd990 f   FreePcbView.obj
 0002:000e6df0       ?OnGroupSaveToFile@CFreePcbView@@QAEXXZ 005dddf0 f   FreePcbView.obj
 0002:000e73a0       ?OnEditCopy@CFreePcbView@@QAEXXZ 005de3a0 f   FreePcbView.obj
 0002:000e7410       ?OnEditPaste@CFreePcbView@@QAEXXZ 005de410 f   FreePcbView.obj
 0002:000e74b0       ?OnEditCut@CFreePcbView@@QAEXXZ 005de4b0 f   FreePcbView.obj
 0002:000e7520       ?RotateGroup@CFreePcbView@@QAEXHH@Z 005de520 f   FreePcbView.obj
 0002:000e7f50       ?FindGroupCenter@CFreePcbView@@QAEXXZ 005def50 f   FreePcbView.obj
 0002:000e84d0       ?CreateUndoDescriptor@CFreePcbView@@QAEPAXPAVCUndoList@@HPAV?$CStringT@DV?$StrTraitMFC_DLL@DV?$ChTraitsCRT@D@ATL@@@@@ATL@@1HH1PAX@Z 005df4d0 f   FreePcbView.obj
 0002:000e8640       ??0undo_descriptor@@QAE@XZ 005df640 f i FreePcbView.obj
 0002:000e86e0       ?UndoCallback@CFreePcbView@@SAXHPAXH@Z 005df6e0 f   FreePcbView.obj
 0002:000e8a20       _!=                        005dfa20 f i FreePcbView.obj
 0002:000e8a80       _==                        005dfa80 f i FreePcbView.obj
 0002:000e8ae0       _IsEqualGUID               005dfae0 f i FreePcbView.obj
 0002:000e8b40       ??_Gundo_descriptor@@QAEPAXI@Z 005dfb40 f i FreePcbView.obj
 0002:000e8bb0       ??1undo_descriptor@@QAE@XZ 005dfbb0 f i FreePcbView.obj
 0002:000e8c50       ?UndoGroupCallback@CFreePcbView@@SAXHPAXH@Z 005dfc50 f   FreePcbView.obj
 0002:000e9230       ??_Gundo_group_descriptor@@QAEPAXI@Z 005e0230 f i FreePcbView.obj
 0002:000e92a0       ??1undo_group_descriptor@@QAE@XZ 005e02a0 f i FreePcbView.obj
 0002:000e9350       ?OnGroupRotate@CFreePcbView@@QAEXXZ 005e0350 f   FreePcbView.obj
 0002:000e93b0       ?RotateGroup@CFreePcbView@@QAEXH@Z 005e03b0 f   FreePcbView.obj
 0002:000e9490       ?SetMainMenu@CFreePcbView@@QAEXH@Z 005e0490 f   FreePcbView.obj
 0002:000e95d0       ?AlignSides@CFreePcbView@@QAEXHHH@Z 005e05d0 f   FreePcbView.obj
 0002:000e9910       ?TestSelElements@CFreePcbView@@QAEHH@Z 005e0910 f   FreePcbView.obj
 0002:000e9950       ?OnSetClearance@CFreePcbView@@QAEXXZ 005e0950 f   FreePcbView.obj
 0002:000eb140       ?abs@@YAMM@Z               005e2140 f i FreePcbView.obj
 0002:000eb1a0       _fabsf                     005e21a0 f i FreePcbView.obj
 0002:000eb210       ?FindNEXTSegmentOfGroup@CFreePcbView@@QAEPAVcnet@@MPAVid@@PAV2@01@Z 005e2210 f   FreePcbView.obj
 0002:000eb4c0       ?find_side_for_set_clearance@CFreePcbView@@QAEHPAVCPolyLine@@PAVid@@HMH@Z 005e24c0 f   FreePcbView.obj
 0002:000eb7f0       ?ApproximArc@CFreePcbView@@QAEXXZ 005e27f0 f   FreePcbView.obj
 0002:000eb9a0       ?ArcApp@CFreePcbView@@QAEHPAVCPolyLine@@HPAVcnet@@H@Z 005e29a0 f   FreePcbView.obj
 0002:000ec1e0       ?GetSelCount@CFreePcbView@@QAEHXZ 005e31e0 f   FreePcbView.obj
 0002:000ec3f0       ?DeleteWithRecalculationPoint@CFreePcbView@@QAEHPAVCPolyLine@@PAVcconnect@@H@Z 005e33f0 f   FreePcbView.obj
 0002:000ed2b0       ?TracesRadiusUpDown@CFreePcbView@@QAEXH@Z 005e42b0 f   FreePcbView.obj
 0002:000ed2f0       ?SelectContour@CFreePcbView@@QAEXXZ 005e42f0 f   FreePcbView.obj
 0002:000ed700       ?MergeGroup@CFreePcbView@@QAEXH@Z 005e4700 f   FreePcbView.obj
 0002:000edd20       ?MergeGroup@CFreePcbView@@QAEXXZ 005e4d20 f   FreePcbView.obj
 0002:000ee5f0       ?ExplodeGroup@CFreePcbView@@QAEXXZ 005e55f0 f   FreePcbView.obj
 0002:000ee6b0       ?NewSelectM@CFreePcbView@@QAE?AV?$CStringT@DV?$StrTraitMFC_DLL@DV?$ChTraitsCRT@D@ATL@@@@@ATL@@H@Z 005e56b0 f   FreePcbView.obj
 0002:000eee20       ?OnInfoBoxMess@CFreePcbView@@QAEXHHPAV?$CArray@V?$CStringT@DV?$StrTraitMFC_DLL@DV?$ChTraitsCRT@D@ATL@@@@@ATL@@ABV12@@@@Z 005e5e20 f   FreePcbView.obj
 0002:000eee60       ?OnInfoBoxSendMess@CFreePcbView@@QAEPAVCWnd@@V?$CStringT@DV?$StrTraitMFC_DLL@DV?$ChTraitsCRT@D@ATL@@@@@ATL@@@Z 005e5e60 f   FreePcbView.obj
 0002:000ef0f0       ?GetSelectedItem@CFreePcbView@@QAEHXZ 005e60f0 f   FreePcbView.obj
 0002:000ef4e0       ?UnSelect@CFreePcbView@@QAEHPAXPAVid@@HH@Z 005e64e0 f   FreePcbView.obj
 0002:000ef7e0       ?NewSelect@CFreePcbView@@QAEHPAXPAVid@@HH@Z 005e67e0 f   FreePcbView.obj
 0002:000f00f0       ?MarkAllOutlinePoly@CFreePcbView@@QAEXHH@Z 005e70f0 f   FreePcbView.obj
 0002:000f0200       ?ShowPinState@CFreePcbView@@QAEXPAVcpart@@H@Z 005e7200 f   FreePcbView.obj
 0002:000f0790       ??A?$CArray@Vpart_pin@@ABV1@@@QAEAAVpart_pin@@H@Z 005e7790 f i FreePcbView.obj
 0002:000f07f0       ??A?$CArray@Vcseg@@ABV1@@@QAEAAVcseg@@H@Z 005e77f0 f i FreePcbView.obj
 0002:000f0850       ?RemoveAt@?$CArray@Vcseg@@ABV1@@@QAEXHH@Z 005e7850 f i FreePcbView.obj
 0002:000f0a20       ?RemoveAt@?$CArray@Vcvertex@@ABV1@@@QAEXHH@Z 005e7a20 f i FreePcbView.obj
 0002:000f0bf0       ??0?$CArray@Vid@@ABV1@@@QAE@XZ 005e7bf0 f i FreePcbView.obj
 0002:000f0c80       ?GetSize@?$CArray@Vid@@ABV1@@@QBEHXZ 005e7c80 f i FreePcbView.obj
 0002:000f0cc0       ??A?$CArray@Vid@@ABV1@@@QAEAAVid@@H@Z 005e7cc0 f i FreePcbView.obj
 0002:000f0d20       ?ElementAt@?$CArray@Vpart_pin@@ABV1@@@QAEAAVpart_pin@@H@Z 005e7d20 f i FreePcbView.obj
 0002:000f0dd0       ?ElementAt@?$CArray@Vcseg@@ABV1@@@QAEAAVcseg@@H@Z 005e7dd0 f i FreePcbView.obj
 0002:000f0e80       ?ElementAt@?$CArray@Vid@@ABV1@@@QAEAAVid@@H@Z 005e7e80 f i FreePcbView.obj
 0002:000f0f30       ?Set@id@@QAEXHHHHH@Z       005e7f30 f i FreePcbView.obj
 0002:000f0fa0       ?SetInflectionMode@CDisplayList@@QAEXH@Z 005e7fa0 f i FreePcbView.obj
 0002:000f0ff0       ?mark1@Merge@@QAEXHH@Z     005e7ff0 f i FreePcbView.obj
 0002:000f1070       ?MergeSelected@Merge@@QAEHXZ 005e8070 f i FreePcbView.obj
 0002:000f1100       ?GetUtility@CPolyLine@@QAEHH@Z 005e8100 f i FreePcbView.obj
 0002:000f1170       ?SetUtility@CPolyLine@@QAEXHH@Z 005e8170 f i FreePcbView.obj
 0002:000f11e0       ??A?$CArray@VCPolyPt@@ABV1@@@QAEAAVCPolyPt@@H@Z 005e81e0 f i FreePcbView.obj
 0002:000f1240       ??1?$CArray@Vid@@ABV1@@@UAE@XZ 005e8240 f i FreePcbView.obj
 0002:000f1350       ?Serialize@?$CArray@Vid@@ABV1@@@UAEXAAVCArchive@@@Z 005e8350 f i FreePcbView.obj
 0002:000f1420       ?Dump@?$CArray@Vid@@ABV1@@@UBEXAAVCDumpContext@@@Z 005e8420 f i FreePcbView.obj
 0002:000f1500       ?AssertValid@?$CArray@Vid@@ABV1@@@UBEXXZ 005e8500 f i FreePcbView.obj
 0002:000f1660       ??_Gcseg@@QAEPAXI@Z        005e8660 f i FreePcbView.obj
 0002:000f16d0       ??1cseg@@QAE@XZ            005e86d0 f i FreePcbView.obj
 0002:000f1760       ??_Gcvertex@@QAEPAXI@Z     005e8760 f i FreePcbView.obj
 0002:000f17d0       ??1cvertex@@QAE@XZ         005e87d0 f i FreePcbView.obj
 0002:000f1880       ??_E?$CArray@Vid@@ABV1@@@UAEPAXI@Z 005e8880 f i FreePcbView.obj
 0002:000f1880       ??_G?$CArray@Vid@@ABV1@@@UAEPAXI@Z 005e8880 f i FreePcbView.obj
 0002:000f18f0       ?ElementAt@?$CArray@VCPolyPt@@ABV1@@@QAEAAVCPolyPt@@H@Z 005e88f0 f i FreePcbView.obj
 0002:000f19a0       ?SetSize@?$CArray@Vid@@ABV1@@@QAEXHH@Z 005e89a0 f i FreePcbView.obj
 0002:000f2090       ??$SerializeElements@Vid@@@@YGXAAVCArchive@@PAVid@@H@Z 005e9090 f i FreePcbView.obj
 0002:000f2280       ??$DumpElements@Vid@@@@YGXAAVCDumpContext@@PBVid@@H@Z 005e9280 f i FreePcbView.obj
 0002:000f2370       ??1Cuid@@QAE@XZ            005e9370 f i FreePcbView.obj
 0002:000f23b0       ?GetMessageMap@CFreePcbApp@@MBEPBUAFX_MSGMAP@@XZ 005e93b0 f   FreeSch.obj
 0002:000f2400       ?GetThisMessageMap@CFreePcbApp@@KGPBUAFX_MSGMAP@@XZ 005e9400 f   FreeSch.obj
 0002:000f2440       ??0CFreePcbApp@@QAE@XZ     005e9440 f   FreeSch.obj
 0002:000f2540       ??_GCFreePcbApp@@UAEPAXI@Z 005e9540 f i FreeSch.obj
 0002:000f2540       ??_ECFreePcbApp@@UAEPAXI@Z 005e9540 f i FreeSch.obj
 0002:000f25b0       ??1CFreePcbApp@@UAE@XZ     005e95b0 f i FreeSch.obj
 0002:000f26a0       ?InitInstance@CFreePcbApp@@UAEHXZ 005e96a0 f   FreeSch.obj
 0002:000f2b80       ??0CAboutDlg@@QAE@XZ       005e9b80 f   FreeSch.obj
 0002:000f2c40       ??_GCAboutDlg@@UAEPAXI@Z   005e9c40 f i FreeSch.obj
 0002:000f2c40       ??_ECAboutDlg@@UAEPAXI@Z   005e9c40 f i FreeSch.obj
 0002:000f2cb0       ??1CAboutDlg@@UAE@XZ       005e9cb0 f i FreeSch.obj
 0002:000f2d60       ?DoDataExchange@CAboutDlg@@MAEXPAVCDataExchange@@@Z 005e9d60 f   FreeSch.obj
 0002:000f2e00       ?GetMessageMap@CAboutDlg@@MBEPBUAFX_MSGMAP@@XZ 005e9e00 f   FreeSch.obj
 0002:000f2e50       ?GetThisMessageMap@CAboutDlg@@KGPBUAFX_MSGMAP@@XZ 005e9e50 f   FreeSch.obj
 0002:000f2e90       ?OnAppAbout@CFreePcbApp@@QAEXXZ 005e9e90 f   FreeSch.obj
 0002:000f2f90       ?OnViewFootprint@CFreePcbApp@@QAEXXZ 005e9f90 f   FreeSch.obj
 0002:000f3000       ?OnViewPcbEditor@CFreePcbApp@@QAEXXZ 005ea000 f   FreeSch.obj
 0002:000f3070       ?SwitchToView@CFreePcbApp@@QAEHPAUCRuntimeClass@@@Z 005ea070 f   FreeSch.obj
 0002:000f35a0       ?ExitInstance@CFreePcbApp@@UAEHXZ 005ea5a0 f   FreeSch.obj
 0002:000f35f0       ?OnHelpGotoWebsite@CFreePcbApp@@QAEXXZ 005ea5f0 f   FreeSch.obj
 0002:000f3740       ?OnFileMruFile1@CFreePcbApp@@QAEXXZ 005ea740 f   FreeSch.obj
 0002:000f38b0       ?OnFileMruFile2@CFreePcbApp@@QAEXXZ 005ea8b0 f   FreeSch.obj
 0002:000f3a20       ?OnFileMruFile3@CFreePcbApp@@QAEXXZ 005eaa20 f   FreeSch.obj
 0002:000f3b90       ?OnFileMruFile4@CFreePcbApp@@QAEXXZ 005eab90 f   FreeSch.obj
 0002:000f3d00       ?OnFileMruFile5@CFreePcbApp@@QAEXXZ 005ead00 f   FreeSch.obj
 0002:000f3e70       ?OnFileMruFile6@CFreePcbApp@@QAEXXZ 005eae70 f   FreeSch.obj
 0002:000f3fe0       ?OnFileMruFile7@CFreePcbApp@@QAEXXZ 005eafe0 f   FreeSch.obj
 0002:000f4150       ?OnOpenRecentFile@CFreePcbApp@@QAEHI@Z 005eb150 f   FreeSch.obj
 0002:000f41b0       ?GetMRUFile@CFreePcbApp@@QAE?AV?$CStringT@DV?$StrTraitMFC_DLL@DV?$ChTraitsCRT@D@ATL@@@@@ATL@@XZ 005eb1b0 f   FreeSch.obj
 0002:000f4390       ?AddMRUFile@CFreePcbApp@@QAEXPAV?$CStringT@DV?$StrTraitMFC_DLL@DV?$ChTraitsCRT@D@ATL@@@@@ATL@@@Z 005eb390 f   FreeSch.obj
 0002:000f4440       ?OnHelpKeyboardshortcuts@CFreePcbApp@@QAEXXZ 005eb440 f   FreeSch.obj
 0002:000f45d0       ?OnToolsOpenOnlineAutorouter@CFreePcbApp@@QAEXXZ 005eb5d0 f   FreeSch.obj
 0002:000f4720       ?OnHelpFreeRoutingWebsite@CFreePcbApp@@QAEXXZ 005eb720 f   FreeSch.obj
 0002:000f4870       ?OnHelpUserGuidePdf@CFreePcbApp@@QAEXXZ 005eb870 f   FreeSch.obj
 0002:000f49c0       ?OnHelpUserGuideSupplementPdf@CFreePcbApp@@QAEXXZ 005eb9c0 f   FreeSch.obj
 0002:000f4b10       ?OnHelpFpcRoute@CFreePcbApp@@QAEXXZ 005ebb10 f   FreeSch.obj
 0002:000f4c60       ?DoMessageBox@CFreePcbApp@@UAEHPBDII@Z 005ebc60 f   FreeSch.obj
 0002:000f4d00       ?SupportsRestartManager@CWinApp@@UBEHXZ 005ebd00 f i FreeSch.obj
 0002:000f4d50       ?SupportsApplicationRecovery@CWinApp@@UBEHXZ 005ebd50 f i FreeSch.obj
 0002:000f4da0       ?SupportsAutosaveAtRestart@CWinApp@@UBEHXZ 005ebda0 f i FreeSch.obj
 0002:000f4df0       ?SupportsAutosaveAtInterval@CWinApp@@UBEHXZ 005ebdf0 f i FreeSch.obj
 0002:000f4e40       ?ReopenPreviousFilesAtRestart@CWinApp@@UBEHXZ 005ebe40 f i FreeSch.obj
 0002:000f4e90       ?RestoreAutosavedFilesAtRestart@CWinApp@@UBEHXZ 005ebe90 f i FreeSch.obj
 0002:000f4ee0       ?GetApplicationRestartFlags@CWinApp@@UAEKXZ 005ebee0 f i FreeSch.obj
 0002:000f4f20       ?GetApplicationRecoveryParameter@CWinApp@@UAEPAXXZ 005ebf20 f i FreeSch.obj
 0002:000f4f60       ?GetApplicationRecoveryPingInterval@CWinApp@@UAEKXZ 005ebf60 f i FreeSch.obj
 0002:000f4fa0       ?GetSize@CRecentFileList@@QBEHXZ 005ebfa0 f i FreeSch.obj
 0002:000f4fe0       ??ACRecentFileList@@QAEAAV?$CStringT@DV?$StrTraitMFC_DLL@DV?$ChTraitsCRT@D@ATL@@@@@ATL@@H@Z 005ebfe0 f i FreeSch.obj
 0002:000f50b0       ??0CAperture@@QAE@XZ       005ec0b0 f   Gerber.obj
 0002:000f5110       ??0CAperture@@QAE@HHHHH@Z  005ec110 f   Gerber.obj
 0002:000f5190       ??1CAperture@@QAE@XZ       005ec190 f   Gerber.obj
 0002:000f51d0       ?Equals@CAperture@@QAEHPAV1@@Z 005ec1d0 f   Gerber.obj
 0002:000f54b0       ?FindInArray@CAperture@@QAEHPAV?$CArray@VCAperture@@V1@@@H@Z 005ec4b0 f   Gerber.obj
 0002:000f55f0       ?WriteMoveTo@@YAXPAVCStdioFile@@HHH@Z 005ec5f0 f   Gerber.obj
 0002:000f57e0       ?WritePolygonSide@@YAXPAVCStdioFile@@HHHHHHH@Z 005ec7e0 f   Gerber.obj
 0002:000f5f10       ?ChangeAperture@@YAXPAVCAperture@@0PAV?$CArray@VCAperture@@V1@@@HPAVCStdioFile@@@Z 005ecf10 f   Gerber.obj
 0002:000f6100       ?WriteTiltPolygon@@YAXHHHHHHHHHPAVCStdioFile@@@Z 005ed100 f   Gerber.obj
 0002:000f7e10       ?DrawClearanceInForeignAreas@@YAXPAVcnet@@HHHHHHHHHHPAVCStdioFile@@HHHPAV?$CArray@PAVcnet@@ABQAV1@@@PAV?$CArray@PAVcarea@@ABQAV1@@@PAVCDlgLog@@@Z 005eee10 f   Gerber.obj
 0002:000f9cd0       ?abs@@YA_J_J@Z             005f0cd0 f i Gerber.obj
 0002:000f9d30       ?WriteGerberFile@@YAHPAVCStdioFile@@HHPAVCDlgLog@@HHHHHHHHHHHHHPAV?$CArray@VCPolyLine@@ABV1@@@PAVCPartList@@PAVCNetList@@PAVCTextList@@PAVCDisplayList@@PAVMerge@@@Z 005f0d30 f   Gerber.obj
 0002:00105200       ?AddToArray@@YAHHPAV?$CArray@HH@@@Z 005fc200 f   Gerber.obj
 0002:001052b0       ?WriteDrillFile@@YAHPAVCStdioFile@@PAVCPartList@@PAVCNetList@@PAV?$CArray@VCPolyLine@@ABV1@@@HHHH@Z 005fc2b0 f   Gerber.obj
 0002:001060f0       ??0?$CArray@PAVcnet@@ABQAV1@@@QAE@XZ 005fd0f0 f i Gerber.obj
 0002:00106180       ?Add@?$CArray@PAVcnet@@ABQAV1@@@QAEHABQAVcnet@@@Z 005fd180 f i Gerber.obj
 0002:001061f0       ??A?$CArray@PAVcnet@@ABQAV1@@@QAEAAPAVcnet@@H@Z 005fd1f0 f i Gerber.obj
 0002:00106250       ??0?$CArray@VCAperture@@V1@@@QAE@XZ 005fd250 f i Gerber.obj
 0002:001062e0       ?GetSize@?$CArray@VCAperture@@V1@@@QBEHXZ 005fd2e0 f i Gerber.obj
 0002:00106320       ?GetAt@?$CArray@VCAperture@@V1@@@QAEAAVCAperture@@H@Z 005fd320 f i Gerber.obj
 0002:001063d0       ?Add@?$CArray@VCAperture@@V1@@@QAEHVCAperture@@@Z 005fd3d0 f i Gerber.obj
 0002:001064c0       ??A?$CArray@VCAperture@@V1@@@QAEAAVCAperture@@H@Z 005fd4c0 f i Gerber.obj
 0002:00106520       ??1?$CArray@VCAperture@@V1@@@UAE@XZ 005fd520 f i Gerber.obj
 0002:00106650       ?Serialize@?$CArray@VCAperture@@V1@@@UAEXAAVCArchive@@@Z 005fd650 f i Gerber.obj
 0002:00106720       ?Dump@?$CArray@VCAperture@@V1@@@UBEXAAVCDumpContext@@@Z 005fd720 f i Gerber.obj
 0002:00106800       ?AssertValid@?$CArray@VCAperture@@V1@@@UBEXXZ 005fd800 f i Gerber.obj
 0002:00106960       ??0?$CArray@PAVcarea@@ABQAV1@@@QAE@XZ 005fd960 f i Gerber.obj
 0002:001069f0       ?GetSize@?$CArray@PAVcarea@@ABQAV1@@@QBEHXZ 005fd9f0 f i Gerber.obj
 0002:00106a30       ?Add@?$CArray@PAVcarea@@ABQAV1@@@QAEHABQAVcarea@@@Z 005fda30 f i Gerber.obj
 0002:00106aa0       ??A?$CArray@PAVcarea@@ABQAV1@@@QAEAAPAVcarea@@H@Z 005fdaa0 f i Gerber.obj
 0002:00106b00       ??1?$CArray@PAVcarea@@ABQAV1@@@UAE@XZ 005fdb00 f i Gerber.obj
 0002:00106c10       ?Serialize@?$CArray@PAVcarea@@ABQAV1@@@UAEXAAVCArchive@@@Z 005fdc10 f i Gerber.obj
 0002:00106ce0       ?Dump@?$CArray@PAVcarea@@ABQAV1@@@UBEXAAVCDumpContext@@@Z 005fdce0 f i Gerber.obj
 0002:00106dc0       ?AssertValid@?$CArray@PAVcarea@@ABQAV1@@@UBEXXZ 005fddc0 f i Gerber.obj
 0002:00106f20       ?GetSize@?$CArray@HH@@QBEHXZ 005fdf20 f i Gerber.obj
 0002:00106f60       ?GetAt@?$CArray@HH@@QAEAAHH@Z 005fdf60 f i Gerber.obj
 0002:00107010       ?Add@?$CArray@HH@@QAEHH@Z  005fe010 f i Gerber.obj
 0002:00107080       ??_E?$CArray@VCAperture@@V1@@@UAEPAXI@Z 005fe080 f i Gerber.obj
 0002:00107080       ??_G?$CArray@VCAperture@@V1@@@UAEPAXI@Z 005fe080 f i Gerber.obj
 0002:001070f0       ??_GCAperture@@QAEPAXI@Z   005fe0f0 f i Gerber.obj
 0002:00107160       ??_E?$CArray@PAVcarea@@ABQAV1@@@UAEPAXI@Z 005fe160 f i Gerber.obj
 0002:00107160       ??_G?$CArray@PAVcarea@@ABQAV1@@@UAEPAXI@Z 005fe160 f i Gerber.obj
 0002:001071d0       ?ElementAt@?$CArray@PAVcnet@@ABQAV1@@@QAEAAPAVcnet@@H@Z 005fe1d0 f i Gerber.obj
 0002:00107280       ?SetAtGrow@?$CArray@PAVcnet@@ABQAV1@@@QAEXHABQAVcnet@@@Z 005fe280 f i Gerber.obj
 0002:00107350       ?SetSize@?$CArray@VCAperture@@V1@@@QAEXHH@Z 005fe350 f i Gerber.obj
 0002:00107a50       ?ElementAt@?$CArray@VCAperture@@V1@@@QAEAAVCAperture@@H@Z 005fea50 f i Gerber.obj
 0002:00107b00       ?SetAtGrow@?$CArray@VCAperture@@V1@@@QAEXHVCAperture@@@Z 005feb00 f i Gerber.obj
 0002:00107c40       ??$SerializeElements@VCAperture@@@@YGXAAVCArchive@@PAVCAperture@@H@Z 005fec40 f i Gerber.obj
 0002:00107e30       ??$DumpElements@VCAperture@@@@YGXAAVCDumpContext@@PBVCAperture@@H@Z 005fee30 f i Gerber.obj
 0002:00107f20       ?SetSize@?$CArray@PAVcarea@@ABQAV1@@@QAEXHH@Z 005fef20 f i Gerber.obj
 0002:001084b0       ?ElementAt@?$CArray@PAVcarea@@ABQAV1@@@QAEAAPAVcarea@@H@Z 005ff4b0 f i Gerber.obj
 0002:00108560       ?SetAtGrow@?$CArray@PAVcarea@@ABQAV1@@@QAEXHABQAVcarea@@@Z 005ff560 f i Gerber.obj
 0002:00108630       ??$SerializeElements@PAVcarea@@@@YGXAAVCArchive@@PAPAVcarea@@H@Z 005ff630 f i Gerber.obj
 0002:00108820       ??$DumpElements@PAVcarea@@@@YGXAAVCDumpContext@@PBQAVcarea@@H@Z 005ff820 f i Gerber.obj
 0002:00108910       ?SetAtGrow@?$CArray@HH@@QAEXHH@Z 005ff910 f i Gerber.obj
 0002:001089e0       ?GetNumCopperLayers@CNetList@@QAEHXZ 005ff9e0 f i Gerber.obj
 0002:00108a20       ??1?$CArray@PAVcnet@@ABQAV1@@@UAE@XZ 005ffa20 f i Gerber.obj
 0002:00108b30       ?Serialize@?$CArray@PAVcnet@@ABQAV1@@@UAEXAAVCArchive@@@Z 005ffb30 f i Gerber.obj
 0002:00108c00       ?Dump@?$CArray@PAVcnet@@ABQAV1@@@UBEXAAVCDumpContext@@@Z 005ffc00 f i Gerber.obj
 0002:00108ce0       ?AssertValid@?$CArray@PAVcnet@@ABQAV1@@@UBEXXZ 005ffce0 f i Gerber.obj
 0002:00108e40       ??_E?$CArray@PAVcnet@@ABQAV1@@@UAEPAXI@Z 005ffe40 f i Gerber.obj
 0002:00108e40       ??_G?$CArray@PAVcnet@@ABQAV1@@@UAEPAXI@Z 005ffe40 f i Gerber.obj
 0002:00108eb0       ?SetSize@?$CArray@PAVcnet@@ABQAV1@@@QAEXHH@Z 005ffeb0 f i Gerber.obj
 0002:00109440       ??$SerializeElements@PAVcnet@@@@YGXAAVCArchive@@PAPAVcnet@@H@Z 00600440 f i Gerber.obj
 0002:00109630       ??$DumpElements@PAVcnet@@@@YGXAAVCDumpContext@@PBQAVcnet@@H@Z 00600630 f i Gerber.obj
 0002:00109720       ?gpc_free_polygon@@YAXPAUgpc_polygon@@@Z 00600720 f   gpc_232.obj
 0002:00109850       ?gpc_read_polygon@@YAXPAU_iobuf@@HPAUgpc_polygon@@@Z 00600850 f   gpc_232.obj
 0002:00109c10       ?gpc_write_polygon@@YAXPAU_iobuf@@HPAUgpc_polygon@@@Z 00600c10 f   gpc_232.obj
 0002:00109db0       ?gpc_add_contour@@YAXPAUgpc_polygon@@PAUgpc_vertex_list@@H@Z 00600db0 f   gpc_232.obj
 0002:0010a1f0       ?gpc_polygon_clip@@YAXW4gpc_op@@PAUgpc_polygon@@11@Z 006011f0 f   gpc_232.obj
 0002:0010fa70       ?gpc_free_tristrip@@YAXPAUgpc_tristrip@@@Z 00606a70 f   gpc_232.obj
 0002:0010fb70       ?gpc_polygon_to_tristrip@@YAXPAUgpc_polygon@@PAUgpc_tristrip@@@Z 00606b70 f   gpc_232.obj
 0002:0010fc20       ?gpc_tristrip_clip@@YAXW4gpc_op@@PAUgpc_polygon@@1PAUgpc_tristrip@@@Z 00606c20 f   gpc_232.obj
 0002:00113cb0       ?ConvertIvex@@YAHPAVCStdioFile@@0PAVCEdit@@@Z 0060acb0 f   ivex_mod_file.obj
 0002:00118020       ??0mod_padstack@@QAE@XZ    0060f020 f i ivex_mod_file.obj
 0002:001180e0       ??0?$CArray@Upad_stack_entry@@ABU1@@@QAE@XZ 0060f0e0 f i ivex_mod_file.obj
 0002:00118170       ?GetSize@?$CArray@Upad_stack_entry@@ABU1@@@QBEHXZ 0060f170 f i ivex_mod_file.obj
 0002:001181b0       ?SetSize@?$CArray@Upad_stack_entry@@ABU1@@@QAEXHH@Z 0060f1b0 f i ivex_mod_file.obj
 0002:00118810       ??A?$CArray@Upad_stack_entry@@ABU1@@@QAEAAUpad_stack_entry@@H@Z 0060f810 f i ivex_mod_file.obj
 0002:00118870       ?Serialize@?$CArray@Upad_stack_entry@@ABU1@@@UAEXAAVCArchive@@@Z 0060f870 f i ivex_mod_file.obj
 0002:00118940       ?Dump@?$CArray@Upad_stack_entry@@ABU1@@@UBEXAAVCDumpContext@@@Z 0060f940 f i ivex_mod_file.obj
 0002:00118a20       ?AssertValid@?$CArray@Upad_stack_entry@@ABU1@@@UBEXXZ 0060fa20 f i ivex_mod_file.obj
 0002:00118b80       ??0?$CArray@Umtg_hole@@ABU1@@@QAE@XZ 0060fb80 f i ivex_mod_file.obj
 0002:00118c10       ?GetSize@?$CArray@Umtg_hole@@ABU1@@@QBEHXZ 0060fc10 f i ivex_mod_file.obj
 0002:00118c50       ?SetSize@?$CArray@Umtg_hole@@ABU1@@@QAEXHH@Z 0060fc50 f i ivex_mod_file.obj
 0002:001191f0       ?RemoveAll@?$CArray@Umtg_hole@@ABU1@@@QAEXXZ 006101f0 f i ivex_mod_file.obj
 0002:00119250       ??A?$CArray@Umtg_hole@@ABU1@@@QAEAAUmtg_hole@@H@Z 00610250 f i ivex_mod_file.obj
 0002:001192b0       ??1?$CArray@Umtg_hole@@ABU1@@@UAE@XZ 006102b0 f i ivex_mod_file.obj
 0002:001193c0       ?Serialize@?$CArray@Umtg_hole@@ABU1@@@UAEXAAVCArchive@@@Z 006103c0 f i ivex_mod_file.obj
 0002:00119490       ?Dump@?$CArray@Umtg_hole@@ABU1@@@UBEXAAVCDumpContext@@@Z 00610490 f i ivex_mod_file.obj
 0002:00119570       ?AssertValid@?$CArray@Umtg_hole@@ABU1@@@UBEXXZ 00610570 f i ivex_mod_file.obj
 0002:001196d0       ??_G?$CArray@Upad_stack_entry@@ABU1@@@UAEPAXI@Z 006106d0 f i ivex_mod_file.obj
 0002:001196d0       ??_E?$CArray@Upad_stack_entry@@ABU1@@@UAEPAXI@Z 006106d0 f i ivex_mod_file.obj
 0002:00119740       ??1?$CArray@Upad_stack_entry@@ABU1@@@UAE@XZ 00610740 f i ivex_mod_file.obj
 0002:00119870       ??_Gpad_stack_entry@@QAEPAXI@Z 00610870 f i ivex_mod_file.obj
 0002:001198e0       ??0pad_stack_entry@@QAE@XZ 006108e0 f i ivex_mod_file.obj
 0002:00119940       ??_G?$CArray@Umtg_hole@@ABU1@@@UAEPAXI@Z 00610940 f i ivex_mod_file.obj
 0002:00119940       ??_E?$CArray@Umtg_hole@@ABU1@@@UAEPAXI@Z 00610940 f i ivex_mod_file.obj
 0002:001199b0       ??1pad_stack_entry@@QAE@XZ 006109b0 f i ivex_mod_file.obj
 0002:00119a10       ?ElementAt@?$CArray@Upad_stack_entry@@ABU1@@@QAEAAUpad_stack_entry@@H@Z 00610a10 f i ivex_mod_file.obj
 0002:00119ac0       ??$SerializeElements@Upad_stack_entry@@@@YGXAAVCArchive@@PAUpad_stack_entry@@H@Z 00610ac0 f i ivex_mod_file.obj
 0002:00119cb0       ??$DumpElements@Upad_stack_entry@@@@YGXAAVCDumpContext@@PBUpad_stack_entry@@H@Z 00610cb0 f i ivex_mod_file.obj
 0002:00119da0       ?ElementAt@?$CArray@Umtg_hole@@ABU1@@@QAEAAUmtg_hole@@H@Z 00610da0 f i ivex_mod_file.obj
 0002:00119e50       ??$SerializeElements@Umtg_hole@@@@YGXAAVCArchive@@PAUmtg_hole@@H@Z 00610e50 f i ivex_mod_file.obj
 0002:0011a040       ??$DumpElements@Umtg_hole@@@@YGXAAVCDumpContext@@PBUmtg_hole@@H@Z 00611040 f i ivex_mod_file.obj
 0002:0011a130       ?CreateObject@CMainFrame@@SGPAVCObject@@XZ 00611130 f   MainFrm.obj
 0002:0011a220       ?_GetBaseClass@CMainFrame@@KGPAUCRuntimeClass@@XZ 00611220 f   MainFrm.obj
 0002:0011a270       ?GetThisClass@CMainFrame@@SGPAUCRuntimeClass@@XZ 00611270 f   MainFrm.obj
 0002:0011a2b0       ?GetRuntimeClass@CMainFrame@@UBEPAUCRuntimeClass@@XZ 006112b0 f   MainFrm.obj
 0002:0011a2f0       ?GetMessageMap@CMainFrame@@MBEPBUAFX_MSGMAP@@XZ 006112f0 f   MainFrm.obj
 0002:0011a340       ?GetThisMessageMap@CMainFrame@@KGPBUAFX_MSGMAP@@XZ 00611340 f   MainFrm.obj
 0002:0011a380       ??0CMainFrame@@IAE@XZ      00611380 f   MainFrm.obj
 0002:0011a4a0       ??_ECMainFrame@@UAEPAXI@Z  006114a0 f i MainFrm.obj
 0002:0011a4a0       ??_GCMainFrame@@UAEPAXI@Z  006114a0 f i MainFrm.obj
 0002:0011a510       ??1CMainFrame@@UAE@XZ      00611510 f   MainFrm.obj
 0002:0011a5e0       ?OnCreate@CMainFrame@@IAEHPAUtagCREATESTRUCTA@@@Z 006115e0 f   MainFrm.obj
 0002:0011b000       ?PreCreateWindow@CMainFrame@@UAEHAAUtagCREATESTRUCTA@@@Z 00612000 f   MainFrm.obj
 0002:0011b100       ?DrawStatus@CMainFrame@@QAEHHPAV?$CStringT@DV?$StrTraitMFC_DLL@DV?$ChTraitsCRT@D@ATL@@@@@ATL@@@Z 00612100 f   MainFrm.obj
 0002:0011b180       ?AssertValid@CMainFrame@@UBEXXZ 00612180 f   MainFrm.obj
 0002:0011b1d0       ?Dump@CMainFrame@@UBEXAAVCDumpContext@@@Z 006121d0 f   MainFrm.obj
 0002:0011b230       ?OnChangeVisibleGrid@CMainFrame@@QAEJIJ@Z 00612230 f   MainFrm.obj
 0002:0011b310       ?OnChangePlacementGrid@CMainFrame@@QAEJIJ@Z 00612310 f   MainFrm.obj
 0002:0011b3f0       ?OnChangeRoutingGrid@CMainFrame@@QAEJIJ@Z 006123f0 f   MainFrm.obj
 0002:0011b490       ?OnChangeSnapAngle@CMainFrame@@QAEJIJ@Z 00612490 f   MainFrm.obj
 0002:0011b570       ?OnChangeUnits@CMainFrame@@QAEJIJ@Z 00612570 f   MainFrm.obj
 0002:0011b650       ?Wm__DropFiles@CMainFrame@@QAEJIJ@Z 00612650 f   MainFrm.obj
 0002:0011b8b0       ?OnCopyData@CMainFrame@@QAEHPAVCWnd@@PAUtagCOPYDATASTRUCT@@@Z 006128b0 f   MainFrm.obj
 0002:0011bf60       ?OnSysCommand@CMainFrame@@QAEXIJ@Z 00612f60 f   MainFrm.obj
 0002:0011c050       ?OnEditUndo@CMainFrame@@QAEXXZ 00613050 f   MainFrm.obj
 0002:0011c130       ?OnTimer@CMainFrame@@QAEXI@Z 00613130 f   MainFrm.obj
 0002:0011c200       ?OnSetCursor@CMainFrame@@QAEHPAVCWnd@@II@Z 00613200 f   MainFrm.obj
 0002:0011c3d0       ?OnMove@CMainFrame@@QAEXHH@Z 006133d0 f   MainFrm.obj
 0002:0011c550       ?OnSize@CMainFrame@@QAEXIHH@Z 00613550 f   MainFrm.obj
 0002:0011c670       ?SetHideCursor@CMainFrame@@QAEXHPAVCRect@@@Z 00613670 f   MainFrm.obj
 0002:0011c740       ?DestroyWindow@CMainFrame@@UAEHXZ 00613740 f   MainFrm.obj
 0002:0011c890       ?_GetBaseClass@CMyToolBar@@KGPAUCRuntimeClass@@XZ 00613890 f   MyToolBar.obj
 0002:0011c8e0       ?GetThisClass@CMyToolBar@@SGPAUCRuntimeClass@@XZ 006138e0 f   MyToolBar.obj
 0002:0011c920       ?GetRuntimeClass@CMyToolBar@@UBEPAUCRuntimeClass@@XZ 00613920 f   MyToolBar.obj
 0002:0011c960       ??0CMyToolBar@@QAE@XZ      00613960 f   MyToolBar.obj
 0002:0011cb10       ??_GCMyToolBar@@UAEPAXI@Z  00613b10 f i MyToolBar.obj
 0002:0011cb10       ??_ECMyToolBar@@UAEPAXI@Z  00613b10 f i MyToolBar.obj
 0002:0011cb80       ??1CMyToolBar@@UAE@XZ      00613b80 f   MyToolBar.obj
 0002:0011cd20       ?GetMessageMap@CMyToolBar@@MBEPBUAFX_MSGMAP@@XZ 00613d20 f   MyToolBar.obj
 0002:0011cd70       ?GetThisMessageMap@CMyToolBar@@KGPBUAFX_MSGMAP@@XZ 00613d70 f   MyToolBar.obj
 0002:0011cdb0       ?OnCreate@CMyToolBar@@QAEHPAUtagCREATESTRUCTA@@@Z 00613db0 f   MyToolBar.obj
 0002:0011d640       ?SetLists@CMyToolBar@@QAEXPAV?$CArray@NABN@@00NNNHH@Z 00614640 f   MyToolBar.obj
 0002:0011ea40       ?OnEditVisibleGrid@CMyToolBar@@QAEXXZ 00615a40 f   MyToolBar.obj
 0002:0011eb80       ?OnEditPlacementGrid@CMyToolBar@@QAEXXZ 00615b80 f   MyToolBar.obj
 0002:0011ecc0       ?OnSelectVisibleGrid@CMyToolBar@@QAEXXZ 00615cc0 f   MyToolBar.obj
 0002:0011ee10       ?OnSelectPlacementGrid@CMyToolBar@@QAEXXZ 00615e10 f   MyToolBar.obj
 0002:0011ef60       ?OnSelectRoutingGrid@CMyToolBar@@QAEXXZ 00615f60 f   MyToolBar.obj
 0002:0011f080       ?OnSelectSnapAngle@CMyToolBar@@QAEXXZ 00616080 f   MyToolBar.obj
 0002:0011f1a0       ?OnSelectUnits@CMyToolBar@@QAEXXZ 006161a0 f   MyToolBar.obj
 0002:0011f2c0       ?SetUnits@CMyToolBar@@QAEXH@Z 006162c0 f   MyToolBar.obj
 0002:0011f400       ??0carea@@QAE@XZ           00616400 f   NetList.obj
 0002:0011f540       ?Initialize@carea@@QAEXPAVCDisplayList@@@Z 00616540 f   NetList.obj
 0002:0011f660       ??1carea@@QAE@XZ           00616660 f   NetList.obj
 0002:0011f850       ??0carea@@QAE@ABV0@@Z      00616850 f   NetList.obj
 0002:0011f9e0       ??4carea@@QAEAAV0@AAV0@@Z  006169e0 f   NetList.obj
 0002:0011fa20       ??0CNetList@@QAE@PAVCDisplayList@@PAVCPartList@@@Z 00616a20 f   NetList.obj
 0002:0011fb00       ?SetPartList@CNetList@@QAEXPAVCPartList@@@Z 00616b00 f   NetList.obj
 0002:0011fb50       ??1CNetList@@QAE@XZ        00616b50 f   NetList.obj
 0002:0011fc10       ?AddNet@CNetList@@QAEPAVcnet@@V?$CStringT@DV?$StrTraitMFC_DLL@DV?$ChTraitsCRT@D@ATL@@@@@ATL@@HHH@Z 00616c10 f   NetList.obj
 0002:0011fea0       ?RemoveNet@CNetList@@QAEXPAVcnet@@@Z 00616ea0 f   NetList.obj
 0002:00120150       ??_Gcnet@@QAEPAXI@Z        00617150 f i NetList.obj
 0002:001201c0       ??1cnet@@QAE@XZ            006171c0 f i NetList.obj
 0002:001202a0       ?RemoveAllNets@CNetList@@QAEXXZ 006172a0 f   NetList.obj
 0002:00120410       ?GetFirstNet@CNetList@@QAEPAVcnet@@XZ 00617410 f   NetList.obj
 0002:001206d0       ?GetNextNet@CNetList@@QAEPAVcnet@@XZ 006176d0 f   NetList.obj
 0002:001208e0       ?CancelNextNet@CNetList@@QAEXXZ 006178e0 f   NetList.obj
 0002:00120930       ?GetNumNets@CNetList@@QAEHXZ 00617930 f   NetList.obj
 0002:001209c0       ?SplitNet@CNetList@@QAEPAVcnet@@PAV2@HH@Z 006179c0 f   NetList.obj
 0002:00122960       ?MarkAllNets@CNetList@@QAEXH@Z 00619960 f   NetList.obj
 0002:00122bb0       ?MoveOrigin@CNetList@@QAEXHH@Z 00619bb0 f   NetList.obj
 0002:00122e60       ?UndrawConnection@CNetList@@QAEXPAVcnet@@H@Z 00619e60 f   NetList.obj
 0002:00122fa0       ?DrawConnection@CNetList@@QAEXPAVcnet@@H@Z 00619fa0 f   NetList.obj
 0002:00123060       ?DrawConnections@CNetList@@QAEXPAVcnet@@@Z 0061a060 f   NetList.obj
 0002:001230f0       ?DrawAreas@CNetList@@QAEXPAVcnet@@@Z 0061a0f0 f   NetList.obj
 0002:00123190       ?AddCutoutsForArea@CNetList@@QAEHPAVcnet@@HHHHPAVMerge@@H@Z 0061a190 f   NetList.obj
 0002:001247d0       ?AddNetPin@CNetList@@QAEXPAVcnet@@PAV?$CStringT@DV?$StrTraitMFC_DLL@DV?$ChTraitsCRT@D@ATL@@@@@ATL@@1H@Z 0061b7d0 f   NetList.obj
 0002:001249e0       ?RemoveNetPin@CNetList@@QAEXPAVcnet@@PAV?$CStringT@DV?$StrTraitMFC_DLL@DV?$ChTraitsCRT@D@ATL@@@@@ATL@@1H@Z 0061b9e0 f   NetList.obj
 0002:00124b50       ?RemoveNetPin@CNetList@@QAEXPAVcnet@@HHH@Z 0061bb50 f   NetList.obj
 0002:00124dd0       ?DisconnectNetPin@CNetList@@QAEXPAVcpart@@PAV?$CStringT@DV?$StrTraitMFC_DLL@DV?$ChTraitsCRT@D@ATL@@@@@ATL@@H@Z 0061bdd0 f   NetList.obj
 0002:00125060       ?DisconnectNetPin@CNetList@@QAEXPAVcnet@@PAV?$CStringT@DV?$StrTraitMFC_DLL@DV?$ChTraitsCRT@D@ATL@@@@@ATL@@1H@Z 0061c060 f   NetList.obj
 0002:001252f0       ?GetPinIndexBy_XY_ForPart@CNetList@@QAEHPAVcpart@@HH@Z 0061c2f0 f   NetList.obj
 0002:001254d0       ?GetPinIndexByNameForPart@CNetList@@QAEHPAVcpart@@V?$CStringT@DV?$StrTraitMFC_DLL@DV?$ChTraitsCRT@D@ATL@@@@@ATL@@HH@Z 0061c4d0 f   NetList.obj
 0002:001257a0       ?GetNetPinIndex@CNetList@@QAEHPAVcnet@@PAV?$CStringT@DV?$StrTraitMFC_DLL@DV?$ChTraitsCRT@D@ATL@@@@@ATL@@1@Z 0061c7a0 f   NetList.obj
 0002:00125880       ?FindPin@CNetList@@QAEPAVcnet@@PAV?$CStringT@DV?$StrTraitMFC_DLL@DV?$ChTraitsCRT@D@ATL@@@@@ATL@@0@Z 0061c880 f   NetList.obj
 0002:00125a40       ?AddNetConnect@CNetList@@QAEHPAVcnet@@HHHHHH@Z 0061ca40 f   NetList.obj
 0002:00126530       ?RepairBranch@CNetList@@QAEXPAVcnet@@HH@Z 0061d530 f   NetList.obj
 0002:001267b0       ?RepairAllBranches@CNetList@@QAEXH@Z 0061d7b0 f   NetList.obj
 0002:00126950       ?ReverseNetConnect@CNetList@@QAEHPAVcnet@@HH@Z 0061d950 f   NetList.obj
 0002:00127320       ?MirrorNetConnect@CNetList@@QAEHPAVcnet@@HHH@Z 0061e320 f   NetList.obj
 0002:001275c0       ?AddNetStub@CNetList@@QAEHPAVcnet@@HHH@Z 0061e5c0 f   NetList.obj
 0002:00127be0       ?TestHitOnConnectionEndPad@CNetList@@QAEHHHPAVcnet@@HHH@Z 0061ebe0 f   NetList.obj
 0002:00127e20       ?TestHitOnAnyPadInNet@CNetList@@QAEHHHHPAVcnet@@PAH@Z 0061ee20 f   NetList.obj
 0002:00128000       ?CleanUpConnections@CNetList@@QAEXPAVcnet@@PAV?$CStringT@DV?$StrTraitMFC_DLL@DV?$ChTraitsCRT@D@ATL@@@@@ATL@@@Z 0061f000 f   NetList.obj
 0002:00128a30       ?CleanUpAllConnections@CNetList@@QAEXPAV?$CStringT@DV?$StrTraitMFC_DLL@DV?$ChTraitsCRT@D@ATL@@@@@ATL@@@Z 0061fa30 f   NetList.obj
 0002:00129110       ?RemoveNetConnect@CNetList@@QAEHPAVcnet@@HH@Z 00620110 f   NetList.obj
 0002:001292e0       ?UnrouteNetConnect@CNetList@@QAEHPAVcnet@@H@Z 006202e0 f   NetList.obj
 0002:001293e0       ?ChangeConnectionPin@CNetList@@QAEHPAVcnet@@HH0PAVcpart@@PAV?$CStringT@DV?$StrTraitMFC_DLL@DV?$ChTraitsCRT@D@ATL@@@@@ATL@@HH@Z 006203e0 f   NetList.obj
 0002:0012a000       ?MergeUnroutedSegments@CNetList@@QAEXPAVcnet@@HH@Z 00621000 f   NetList.obj
 0002:0012a1b0       ?RemoveSegment@CNetList@@QAEHPAVcnet@@HH@Z 006211b0 f   NetList.obj
 0002:0012b340       ?RenumberConnections@CNetList@@QAEXPAVcnet@@@Z 00622340 f   NetList.obj
 0002:0012b3d0       ?RenumberConnection@CNetList@@QAEXPAVcnet@@H@Z 006223d0 f   NetList.obj
 0002:0012b590       ?RenumberAreas@CNetList@@QAEXPAVcnet@@@Z 00622590 f   NetList.obj
 0002:0012b8c0       ?ChangeSegmentLayer@CNetList@@QAEHPAVcnet@@HHHHH@Z 006228c0 f   NetList.obj
 0002:0012bbe0       ?RouteSegment@CNetList@@QAEHPAVcnet@@HHHHHHHH@Z 00622be0 f   NetList.obj
 0002:0012bde0       ?RouteTrace@CNetList@@QAEXPAVcnet@@HHHHH@Z 00622de0 f   NetList.obj
 0002:0012be90       ?DrawSegment@CNetList@@QAEHPAVcnet@@HH@Z 00622e90 f   NetList.obj
 0002:0012bed0       ?AppendSegment@CNetList@@QAEHPAVcnet@@HHHHHHHH@Z 00622ed0 f   NetList.obj
 0002:0012c1e0       ?InsertSegment@CNetList@@QAEHPAVcnet@@HHHHHHHHHH@Z 006231e0 f   NetList.obj
 0002:0012c890       ?SetSegmentWidth@CNetList@@QAEHPAVcnet@@HHHHH@Z 00623890 f   NetList.obj
 0002:0012ca20       ?SetConnectionWidth@CNetList@@QAEHPAVcnet@@HHHH@Z 00623a20 f   NetList.obj
 0002:0012cad0       ?SetNetWidth@CNetList@@QAEHPAVcnet@@HHH@Z 00623ad0 f   NetList.obj
 0002:0012cba0       ?PartAdded@CNetList@@QAEXPAVcpart@@@Z 00623ba0 f   NetList.obj
 0002:0012cea0       ?SwapConnects@CNetList@@QAEXPAVcnet@@0Vid@@1@Z 00623ea0 f   NetList.obj
 0002:0012dfa0       ?SwapPins@CNetList@@QAEXPAVcpart@@PAV?$CStringT@DV?$StrTraitMFC_DLL@DV?$ChTraitsCRT@D@ATL@@@@@ATL@@01@Z 00624fa0 f   NetList.obj
 0002:0012f770       ?PartMoved@CNetList@@QAEHPAVcpart@@HH@Z 00626770 f   NetList.obj
 0002:001300e0       ?PartFootprintChanged@CNetList@@QAEHPAVcpart@@PAV?$CStringT@DV?$StrTraitMFC_DLL@DV?$ChTraitsCRT@D@ATL@@@@@ATL@@@Z 006270e0 f   NetList.obj
 0002:001319f0       ?PartDeleted@CNetList@@QAEHPAVcpart@@H@Z 006289f0 f   NetList.obj
 0002:00131ca0       ?PartRefChanged@CNetList@@QAEHPAV?$CStringT@DV?$StrTraitMFC_DLL@DV?$ChTraitsCRT@D@ATL@@@@@ATL@@0@Z 00628ca0 f   NetList.obj
 0002:00131f70       ?PartCheckConnect@CNetList@@QAEHPAVcpart@@@Z 00628f70 f   NetList.obj
 0002:00132160       ?PartDisconnected@CNetList@@QAEHPAVcpart@@H@Z 00629160 f   NetList.obj
 0002:001321c0       ?AddPinsToGrid@@YAXPADHHH@Z 006291c0 f   NetList.obj
 0002:001322f0       ?OptimizeConnections@CNetList@@QAEXHHH@Z 006292f0 f   NetList.obj
 0002:00132480       ?OptimizeConnections@CNetList@@QAEXPAVcpart@@HHH@Z 00629480 f   NetList.obj
 0002:001325e0       ?OptimizeConnections@CNetList@@QAEHPAVcnet@@HHHH@Z 006295e0 f   NetList.obj
 0002:00134a70       ?RehookPartsToNet@CNetList@@QAEHPAVcnet@@@Z 0062ba70 f   NetList.obj
 0002:00134ce0       ?SetViaVisible@CNetList@@QAEXPAVcnet@@HHH@Z 0062bce0 f   NetList.obj
 0002:00134d90       ?HighlightDrcCircles@@YAXH@Z 0062bd90 f   NetList.obj
 0002:00134dc0       ?StartDraggingEndVertex@CNetList@@QAEXPAVCDC@@PAVcnet@@HHH@Z 0062bdc0 f   NetList.obj
 0002:00135070       ?CancelDraggingEndVertex@CNetList@@QAEXPAVcnet@@HH@Z 0062c070 f   NetList.obj
 0002:00135240       ?MoveEndVertex@CNetList@@QAEXPAVcnet@@HHHH@Z 0062c240 f   NetList.obj
 0002:001353a0       ?MoveVertex@CNetList@@QAEXPAVcnet@@HHHH@Z 0062c3a0 f   NetList.obj
 0002:001355c0       ?StartDraggingVertex@CNetList@@QAEHPAVCDC@@PAVcnet@@HHHHH@Z 0062c5c0 f   NetList.obj
 0002:00135c30       ?StartMovingSegment@CNetList@@QAEHPAVCDC@@PAVcnet@@HHHHHH@Z 0062cc30 f   NetList.obj
 0002:001361b0       ?StartDraggingSegment@CNetList@@QAEHPAVCDC@@PAVcnet@@HHHHHHHHHHHH@Z 0062d1b0 f   NetList.obj
 0002:00136310       ?StartDraggingSegmentNewVertex@CNetList@@QAEHPAVCDC@@PAVcnet@@HHHHHHH@Z 0062d310 f   NetList.obj
 0002:00136470       ?StartDraggingStub@CNetList@@QAEXPAVCDC@@PAVcnet@@HHHHHHHHHHH@Z 0062d470 f   NetList.obj
 0002:00136670       ?CancelDraggingStub@CNetList@@QAEXPAVcnet@@HH@Z 0062d670 f   NetList.obj
 0002:001367e0       ?StartDraggingAreaCorner@CNetList@@QAEHPAVCDC@@PAVcnet@@HHHHH@Z 0062d7e0 f   NetList.obj
 0002:00136860       ?StartDraggingInsertedAreaCorner@CNetList@@QAEHPAVCDC@@PAVcnet@@HHHHH@Z 0062d860 f   NetList.obj
 0002:001368e0       ?CancelDraggingInsertedAreaCorner@CNetList@@QAEHPAVcnet@@HH@Z 0062d8e0 f   NetList.obj
 0002:00136950       ?CancelDraggingAreaCorner@CNetList@@QAEHPAVcnet@@HH@Z 0062d950 f   NetList.obj
 0002:001369c0       ?CancelDraggingSegment@CNetList@@QAEHPAVcnet@@HH@Z 0062d9c0 f   NetList.obj
 0002:00136a50       ?CancelDraggingVertex@CNetList@@QAEHPAVcnet@@HH@Z 0062da50 f   NetList.obj
 0002:00136ce0       ?CancelMovingSegment@CNetList@@QAEHPAVcnet@@HH@Z 0062dce0 f   NetList.obj
 0002:00136f90       ?CancelDraggingSegmentNewVertex@CNetList@@QAEHPAVcnet@@HH@Z 0062df90 f   NetList.obj
 0002:00137020       ?GetViaConnectionStatus@CNetList@@QAEHPAVcnet@@HHH@Z 0062e020 f   NetList.obj
 0002:001373e0       ?GetViaPadInfo@CNetList@@QAEXPAVcnet@@HHHPAH11@Z 0062e3e0 f   NetList.obj
 0002:00137680       ?TestForHitOnVertex@CNetList@@QAEHPAVcnet@@HHHPAPAV2@PAH2@Z 0062e680 f   NetList.obj
 0002:00137930       ?AddArea@CNetList@@QAEHPAVcnet@@HHHHH@Z 0062e930 f   NetList.obj
 0002:00137980       ?InsertArea@CNetList@@QAEXPAVcnet@@HHHHHHH@Z 0062e980 f   NetList.obj
 0002:001379c0       ?AppendAreaCorner@CNetList@@QAEHPAVcnet@@HHHHH@Z 0062e9c0 f   NetList.obj
 0002:00137a40       ?InsertAreaCorner@CNetList@@QAEHPAVcnet@@HHHHHH@Z 0062ea40 f   NetList.obj
 0002:00137b90       ?MoveAreaCorner@CNetList@@QAEXPAVcnet@@HHHHH@Z 0062eb90 f   NetList.obj
 0002:00137c50       ?HighlightAreaCorner@CNetList@@QAEXPAVcnet@@HHH@Z 0062ec50 f   NetList.obj
 0002:00137cc0       ?GetAreaCorner@CNetList@@QAE?AVCPoint@@PAVcnet@@HH@Z 0062ecc0 f   NetList.obj
 0002:00137db0       ?CompleteArea@CNetList@@QAEHPAVcnet@@HH@Z 0062edb0 f   NetList.obj
 0002:00137e80       ?SetAreaConnections@CNetList@@QAEXXZ 0062ee80 f   NetList.obj
 0002:00137fe0       ?SetAreaConnections@CNetList@@QAEXPAVcnet@@@Z 0062efe0 f   NetList.obj
 0002:00138070       ?SetAreaConnections@CNetList@@QAEXPAVcpart@@@Z 0062f070 f   NetList.obj
 0002:00138180       ?SetAreaConnections@CNetList@@QAEXPAVcnet@@HH@Z 0062f180 f   NetList.obj
 0002:001381c0       ?TestPointInArea@CNetList@@QAEHPAVcnet@@HHHPAH@Z 0062f1c0 f   NetList.obj
 0002:00138300       ?RemoveArea@CNetList@@QAEHPAVcnet@@H@Z 0062f300 f   NetList.obj
 0002:001383a0       ?GetNetPtrByName@CNetList@@QAEPAVcnet@@PAV?$CStringT@DV?$StrTraitMFC_DLL@DV?$ChTraitsCRT@D@ATL@@@@@ATL@@@Z 0062f3a0 f   NetList.obj
 0002:00138460       ?SelectAreaSide@CNetList@@QAEXPAVcnet@@HH@Z 0062f460 f   NetList.obj
 0002:001384e0       ?SelectAreaCorner@CNetList@@QAEXPAVcnet@@HH@Z 0062f4e0 f   NetList.obj
 0002:00138560       ?SetAreaSideStyle@CNetList@@QAEXPAVcnet@@HHH@Z 0062f560 f   NetList.obj
 0002:00138610       ?HighlightNetVertices@CNetList@@QAEXPAVcnet@@HH@Z 0062f610 f   NetList.obj
 0002:001388c0       ?HighlightNetConnections@CNetList@@QAEXPAVcnet@@HHHH@Z 0062f8c0 f   NetList.obj
 0002:00138990       ?HighlightConnection@CNetList@@QAEXPAVcnet@@HH@Z 0062f990 f   NetList.obj
 0002:00138a40       ?HighlightConnection@CNetList@@QAEXPAVcnet@@HHHHHH@Z 0062fa40 f   NetList.obj
 0002:00138c40       ?HighlightSegment@CNetList@@QAEXPAVcnet@@HHHHH@Z 0062fc40 f   NetList.obj
 0002:00138f40       ?HighlightVertex@CNetList@@QAEXPAVcnet@@HHHH@Z 0062ff40 f   NetList.obj
 0002:00139690       ?HighlightAreaSides@CNetList@@QAEXPAVcnet@@HHH@Z 00630690 f   NetList.obj
 0002:00139740       ?HighlightNet@CNetList@@QAEXPAVcnet@@H@Z 00630740 f   NetList.obj
 0002:00139850       ?ForceVia@CNetList@@QAEHPAVcnet@@HHHHH@Z 00630850 f   NetList.obj
 0002:00139910       ?UnforceVia@CNetList@@QAEHPAVcnet@@HHH@Z 00630910 f   NetList.obj
 0002:00139a40       ?ReconcileVia@CNetList@@QAEHPAVcnet@@HHHHH@Z 00630a40 f   NetList.obj
 0002:00139f30       ?UndrawVia@CNetList@@QAEXPAVcnet@@HH@Z 00630f30 f   NetList.obj
 0002:0013a000       ?DrawVia@CNetList@@QAEHPAVcnet@@HH@Z 00631000 f   NetList.obj
 0002:0013a040       ?SetNetVisibility@CNetList@@QAEXPAVcnet@@H@Z 00631040 f   NetList.obj
 0002:0013a300       ?GetNetVisibility@CNetList@@QAEHPAVcnet@@@Z 00631300 f   NetList.obj
 0002:0013a340       ?ExportNetListInfo@CNetList@@QAEXPAV?$CArray@Unet_info@@ABU1@@@@Z 00631340 f   NetList.obj
 0002:0013a780       ?ImportNetListInfo@CNetList@@QAEXPAV?$CArray@Unet_info@@ABU1@@@HPAVCDlgLog@@HHH@Z 00631780 f   NetList.obj
 0002:0013bcb0       ?Copy@CNetList@@QAEXPAV1@@Z 00632cb0 f   NetList.obj
 0002:0013c480       ?ReassignCopperLayers@CNetList@@QAEXHPAH@Z 00633480 f   NetList.obj
 0002:0013c920       ?RestoreConnectionsAndAreas@CNetList@@QAEXPAV1@HPAVCDlgLog@@@Z 00633920 f   NetList.obj
 0002:0013c960       ?CreateConnectUndoRecord@CNetList@@QAEPAUundo_con@@PAVcnet@@HH@Z 00633960 f   NetList.obj
 0002:0013cd20       ?ConnectUndoCallback@CNetList@@SAXHPAXH@Z 00633d20 f   NetList.obj
 0002:0013d2e0       ?CreateNetUndoRecord@CNetList@@QAEPAUundo_net@@PAVcnet@@@Z 006342e0 f   NetList.obj
 0002:0013d470       ?NetUndoCallback@CNetList@@SAXHPAXH@Z 00634470 f   NetList.obj
 0002:0013d7d0       ?CreateAreaUndoRecord@CNetList@@QAEPAUundo_area@@PAVcnet@@HH@Z 006347d0 f   NetList.obj
 0002:0013dd30       ?AreaUndoCallback@CNetList@@SAXHPAXH@Z 00634d30 f   NetList.obj
 0002:0013e120       ?CheckNetlist@CNetList@@QAEHPAV?$CStringT@DV?$StrTraitMFC_DLL@DV?$ChTraitsCRT@D@ATL@@@@@ATL@@@Z 00635120 f   NetList.obj
 0002:0013f5e0       ?CheckConnectivity@CNetList@@QAEHPAV?$CStringT@DV?$StrTraitMFC_DLL@DV?$ChTraitsCRT@D@ATL@@@@@ATL@@@Z 006365e0 f   NetList.obj
 0002:0013ff90       ?TestAreaPolygon@CNetList@@QAEHPAVcnet@@H@Z 00636f90 f   NetList.obj
 0002:001408d0       ?TestAreaPolygon@CNetList@@QAEHPAVcnet@@HHH@Z 006378d0 f   NetList.obj
 0002:001411b0       ?ClipAreaPolygon@CNetList@@QAEHPAVcnet@@HHHHHPAH@Z 006381b0 f   NetList.obj
 0002:001411f0       ?AreaPolygonModified@CNetList@@QAEHPAVcnet@@HHHH@Z 006381f0 f   NetList.obj
 0002:001412f0       ?CombineAllAreasInNet@CNetList@@QAEHPAVcnet@@HH@Z 006382f0 f   NetList.obj
 0002:00141810       ?TestAreaIntersections@CNetList@@QAEHPAVcnet@@HH@Z 00638810 f   NetList.obj
 0002:00142370       ?TestAreaIntersections@CNetList@@QAEHPAVcnet@@H@Z 00639370 f   NetList.obj
 0002:00142a90       ?TestAreaIntersection@CNetList@@QAEHPAVcnet@@HH@Z 00639a90 f   NetList.obj
 0002:00142b10       ?CombineAreas@CNetList@@QAEHPAVcnet@@HH@Z 00639b10 f   NetList.obj
 0002:00143500       ?SetWidths@CNetList@@QAEXHHH@Z 0063a500 f   NetList.obj
 0002:00143560       ?GetWidths@CNetList@@QAEXPAVcnet@@PAH11@Z 0063a560 f   NetList.obj
 0002:00143620       ?GetSelCount@CNetList@@QAEHPAVcnet@@@Z 0063a620 f   NetList.obj
 0002:001437f0       ?GetNetBoundaries@CNetList@@QAEHPAUtagRECT@@H@Z 0063a7f0 f   NetList.obj
 0002:001440c0       ?ClearTeeIDs@CNetList@@QAEXXZ 0063b0c0 f   NetList.obj
 0002:00144120       ?FindTeeID@CNetList@@QAEHH@Z 0063b120 f   NetList.obj
 0002:001441c0       ?GetNewTeeID@CNetList@@QAEHXZ 0063b1c0 f   NetList.obj
 0002:00144310       ?RemoveTeeID@CNetList@@QAEXH@Z 0063b310 f   NetList.obj
 0002:00144390       ?AddTeeID@CNetList@@QAEXH@Z 0063b390 f   NetList.obj
 0002:00144410       ?FindTeeVertexInNet@CNetList@@QAEHPAVcnet@@HPAH1@Z 0063b410 f   NetList.obj
 0002:00144610       ?FindTeeVertex@CNetList@@QAEHHPAPAVcnet@@PAH1@Z 0063b610 f   NetList.obj
 0002:001446e0       ?DisconnectBranch@CNetList@@QAEHPAVcnet@@H@Z 0063b6e0 f   NetList.obj
 0002:00144870       ?RemoveTee@CNetList@@QAEHPAVcnet@@HH@Z 0063b870 f   NetList.obj
 0002:001449c0       ?TeeViaNeeded@CNetList@@QAEHPAVcnet@@H@Z 0063b9c0 f   NetList.obj
 0002:00144b50       ?RemoveOrphanBranches@CNetList@@QAEHPAVcnet@@HHHH@Z 0063bb50 f   NetList.obj
 0002:001450c0       ?RouteToPin@@YAHHPAVcnode@@PAV?$CArray@Vcnode@@ABV1@@@PAV?$CArray@Vcpath@@ABV1@@@PAVCDlgLog@@@Z 0063c0c0 f   NetList.obj
 0002:001454e0       ?ImportNetRouting@CNetList@@QAEXPAV?$CStringT@DV?$StrTraitMFC_DLL@DV?$ChTraitsCRT@D@ATL@@@@@ATL@@PAV?$CArray@Vcnode@@ABV1@@@PAV?$CArray@Vcpath@@ABV1@@@HPAVCDlgLog@@H@Z 0063c4e0 f   NetList.obj
 0002:00147170       ?AddHighlightLines@CNetList@@QAEXHHH@Z 0063e170 f   NetList.obj
 0002:001475a0       ??0?$CArray@PAVdl_element@@ABQAV1@@@QAE@XZ 0063e5a0 f i NetList.obj
 0002:00147630       ?RemoveAt@?$CArray@PAVdl_element@@ABQAV1@@@QAEXHH@Z 0063e630 f i NetList.obj
 0002:001477e0       ?GetSize@?$CArray@Vpart_pin@@ABV1@@@QBEHXZ 0063e7e0 f i NetList.obj
 0002:00147820       ?GetSize@?$CArray@PAVcnet@@ABQAV1@@@QBEHXZ 0063e820 f i NetList.obj
 0002:00147860       ?GetSize@?$CArray@Vcseg@@ABV1@@@QBEHXZ 0063e860 f i NetList.obj
 0002:001478a0       ?GetSize@?$CArray@Vcconnect@@ABV1@@@QBEHXZ 0063e8a0 f i NetList.obj
 0002:001478e0       ?RemoveAll@?$CArray@Vcconnect@@ABV1@@@QAEXXZ 0063e8e0 f i NetList.obj
 0002:00147940       ?RemoveAt@?$CArray@Vcconnect@@ABV1@@@QAEXHH@Z 0063e940 f i NetList.obj
 0002:00147b10       ?GetSize@?$CArray@Vcpin@@ABV1@@@QBEHXZ 0063eb10 f i NetList.obj
 0002:00147b50       ?RemoveAll@?$CArray@Vcpin@@ABV1@@@QAEXXZ 0063eb50 f i NetList.obj
 0002:00147bb0       ?RemoveAt@?$CArray@Vcpin@@ABV1@@@QAEXHH@Z 0063ebb0 f i NetList.obj
 0002:00147d80       ?GetSize@?$CArray@Vcarea@@V1@@@QBEHXZ 0063ed80 f i NetList.obj
 0002:00147dc0       ?RemoveAll@?$CArray@Vcarea@@V1@@@QAEXXZ 0063edc0 f i NetList.obj
 0002:00147e20       ?RemoveAt@?$CArray@Vcarea@@V1@@@QAEXHH@Z 0063ee20 f i NetList.obj
 0002:00147ff0       ??$strcpy@$0CI@@@YAPADAAY0CI@DPBD@Z 0063eff0 f i NetList.obj
 0002:00148060       ??0?$CArray@UtagRECT@@ABU1@@@QAE@XZ 0063f060 f i NetList.obj
 0002:001480f0       ?SetSize@?$CArray@UtagRECT@@ABU1@@@QAEXHH@Z 0063f0f0 f i NetList.obj
 0002:00148690       ??A?$CArray@UtagRECT@@ABU1@@@QAEAAUtagRECT@@H@Z 0063f690 f i NetList.obj
 0002:001486f0       ??1?$CArray@UtagRECT@@ABU1@@@UAE@XZ 0063f6f0 f i NetList.obj
 0002:00148800       ?Serialize@?$CArray@UtagRECT@@ABU1@@@UAEXAAVCArchive@@@Z 0063f800 f i NetList.obj
 0002:001488d0       ?Dump@?$CArray@UtagRECT@@ABU1@@@UBEXAAVCDumpContext@@@Z 0063f8d0 f i NetList.obj
 0002:001489b0       ?AssertValid@?$CArray@UtagRECT@@ABU1@@@UBEXXZ 0063f9b0 f i NetList.obj
 0002:00148b10       ?GetSize@?$CArray@Vcpath@@ABV1@@@QBEHXZ 0063fb10 f i NetList.obj
 0002:00148b50       ??A?$CArray@Vcpath@@ABV1@@@QAEAAVcpath@@H@Z 0063fb50 f i NetList.obj
 0002:00148bb0       ?GetSize@?$CArray@Vcnode@@ABV1@@@QBEHXZ 0063fbb0 f i NetList.obj
 0002:00148bf0       ?SetSize@?$CArray@Vcnode@@ABV1@@@QAEXHH@Z 0063fbf0 f i NetList.obj
 0002:001492f0       ??A?$CArray@Vcnode@@ABV1@@@QAEAAVcnode@@H@Z 006402f0 f i NetList.obj
 0002:00149350       ??_E?$CArray@UtagRECT@@ABU1@@@UAEPAXI@Z 00640350 f i NetList.obj
 0002:00149350       ??_G?$CArray@UtagRECT@@ABU1@@@UAEPAXI@Z 00640350 f i NetList.obj
 0002:001493c0       ??_Gcnode@@QAEPAXI@Z       006403c0 f i NetList.obj
 0002:00149430       ??0cnode@@QAE@XZ           00640430 f i NetList.obj
 0002:001494e0       ??1cnode@@QAE@XZ           006404e0 f i NetList.obj
 0002:00149590       ?ElementAt@?$CArray@UtagRECT@@ABU1@@@QAEAAUtagRECT@@H@Z 00640590 f i NetList.obj
 0002:00149640       ??$SerializeElements@UtagRECT@@@@YGXAAVCArchive@@PAUtagRECT@@H@Z 00640640 f i NetList.obj
 0002:00149830       ??$DumpElements@UtagRECT@@@@YGXAAVCDumpContext@@PBUtagRECT@@H@Z 00640830 f i NetList.obj
 0002:00149920       ?ElementAt@?$CArray@Vcpath@@ABV1@@@QAEAAVcpath@@H@Z 00640920 f i NetList.obj
 0002:001499d0       ?ElementAt@?$CArray@Vcnode@@ABV1@@@QAEAAVcnode@@H@Z 006409d0 f i NetList.obj
 0002:00149a80       ?Dragging_third_segment@CDisplayList@@QAEHXZ 00640a80 f i NetList.obj
 0002:00149ad0       ?GetInode@cpath@@QAEHH@Z   00640ad0 f i NetList.obj
 0002:00149b70       ?Initialize@cseg@@QAEXPAVCDisplayList@@PAVCNetList@@@Z 00640b70 f i NetList.obj
 0002:00149bc0       ??4cvertex@@QAEAAV0@AAV0@@Z 00640bc0 f i NetList.obj
 0002:00149d10       ?Initialize@cvertex@@QAEXPAVCDisplayList@@PAVCNetList@@@Z 00640d10 f i NetList.obj
 0002:00149d60       ?Initialize@cconnect@@QAEXPAVCNetList@@@Z 00640d60 f i NetList.obj
 0002:00149db0       ??0cnet@@QAE@PAVCDisplayList@@@Z 00640db0 f i NetList.obj
 0002:00149eb0       ??1?$CArray@PAVdl_element@@ABQAV1@@@UAE@XZ 00640eb0 f i NetList.obj
 0002:00149fc0       ?Serialize@?$CArray@PAVdl_element@@ABQAV1@@@UAEXAAVCArchive@@@Z 00640fc0 f i NetList.obj
 0002:0014a090       ?Dump@?$CArray@PAVdl_element@@ABQAV1@@@UBEXAAVCDumpContext@@@Z 00641090 f i NetList.obj
 0002:0014a170       ?AssertValid@?$CArray@PAVdl_element@@ABQAV1@@@UBEXXZ 00641170 f i NetList.obj
 0002:0014a2d0       ?GetSize@?$CArray@Vcpath_pt@@ABV1@@@QBEHXZ 006412d0 f i NetList.obj
 0002:0014a310       ??A?$CArray@Vcpath_pt@@ABV1@@@QAEAAVcpath_pt@@H@Z 00641310 f i NetList.obj
 0002:0014a370       ?SetSize@?$CArray@Vcseg@@ABV1@@@QAEXHH@Z 00641370 f i NetList.obj
 0002:0014aa70       ??0cseg@@QAE@XZ            00641a70 f i NetList.obj
 0002:0014ab30       ?SetSize@?$CArray@Vcvertex@@ABV1@@@QAEXHH@Z 00641b30 f i NetList.obj
 0002:0014b230       ??0cvertex@@QAE@XZ         00642230 f i NetList.obj
 0002:0014b360       ??0?$CArray@Vcconnect@@ABV1@@@QAE@XZ 00642360 f i NetList.obj
 0002:0014b3f0       ??1?$CArray@Vcconnect@@ABV1@@@UAE@XZ 006423f0 f i NetList.obj
 0002:0014b520       ?Serialize@?$CArray@Vcconnect@@ABV1@@@UAEXAAVCArchive@@@Z 00642520 f i NetList.obj
 0002:0014b5f0       ?Dump@?$CArray@Vcconnect@@ABV1@@@UBEXAAVCDumpContext@@@Z 006425f0 f i NetList.obj
 0002:0014b6d0       ?AssertValid@?$CArray@Vcconnect@@ABV1@@@UBEXXZ 006426d0 f i NetList.obj
 0002:0014b830       ??0?$CArray@Vcpin@@ABV1@@@QAE@XZ 00642830 f i NetList.obj
 0002:0014b8c0       ??1?$CArray@Vcpin@@ABV1@@@UAE@XZ 006428c0 f i NetList.obj
 0002:0014b9f0       ?Serialize@?$CArray@Vcpin@@ABV1@@@UAEXAAVCArchive@@@Z 006429f0 f i NetList.obj
 0002:0014bac0       ?Dump@?$CArray@Vcpin@@ABV1@@@UBEXAAVCDumpContext@@@Z 00642ac0 f i NetList.obj
 0002:0014bba0       ?AssertValid@?$CArray@Vcpin@@ABV1@@@UBEXXZ 00642ba0 f i NetList.obj
 0002:0014bd00       ??0?$CArray@Vcarea@@V1@@@QAE@XZ 00642d00 f i NetList.obj
 0002:0014bd90       ??1?$CArray@Vcarea@@V1@@@UAE@XZ 00642d90 f i NetList.obj
 0002:0014bec0       ?Serialize@?$CArray@Vcarea@@V1@@@UAEXAAVCArchive@@@Z 00642ec0 f i NetList.obj
 0002:0014bf90       ?Dump@?$CArray@Vcarea@@V1@@@UBEXAAVCDumpContext@@@Z 00642f90 f i NetList.obj
 0002:0014c070       ?AssertValid@?$CArray@Vcarea@@V1@@@UBEXXZ 00643070 f i NetList.obj
 0002:0014c1d0       ??_E?$CArray@PAVdl_element@@ABQAV1@@@UAEPAXI@Z 006431d0 f i NetList.obj
 0002:0014c1d0       ??_G?$CArray@PAVdl_element@@ABQAV1@@@UAEPAXI@Z 006431d0 f i NetList.obj
 0002:0014c240       ??_G?$CArray@Vcconnect@@ABV1@@@UAEPAXI@Z 00643240 f i NetList.obj
 0002:0014c240       ??_E?$CArray@Vcconnect@@ABV1@@@UAEPAXI@Z 00643240 f i NetList.obj
 0002:0014c2b0       ??_Gcconnect@@QAEPAXI@Z    006432b0 f i NetList.obj
 0002:0014c320       ??1cconnect@@QAE@XZ        00643320 f i NetList.obj
 0002:0014c3e0       ??1?$CArray@Vcseg@@ABV1@@@UAE@XZ 006433e0 f i NetList.obj
 0002:0014c510       ?Serialize@?$CArray@Vcseg@@ABV1@@@UAEXAAVCArchive@@@Z 00643510 f i NetList.obj
 0002:0014c5e0       ?Dump@?$CArray@Vcseg@@ABV1@@@UBEXAAVCDumpContext@@@Z 006435e0 f i NetList.obj
 0002:0014c6c0       ?AssertValid@?$CArray@Vcseg@@ABV1@@@UBEXXZ 006436c0 f i NetList.obj
 0002:0014c820       ??1?$CArray@Vcvertex@@ABV1@@@UAE@XZ 00643820 f i NetList.obj
 0002:0014c950       ?Serialize@?$CArray@Vcvertex@@ABV1@@@UAEXAAVCArchive@@@Z 00643950 f i NetList.obj
 0002:0014ca20       ?Dump@?$CArray@Vcvertex@@ABV1@@@UBEXAAVCDumpContext@@@Z 00643a20 f i NetList.obj
 0002:0014cb00       ?AssertValid@?$CArray@Vcvertex@@ABV1@@@UBEXXZ 00643b00 f i NetList.obj
 0002:0014cc60       ??_G?$CArray@Vcseg@@ABV1@@@UAEPAXI@Z 00643c60 f i NetList.obj
 0002:0014cc60       ??_E?$CArray@Vcseg@@ABV1@@@UAEPAXI@Z 00643c60 f i NetList.obj
 0002:0014ccd0       ??_G?$CArray@Vcvertex@@ABV1@@@UAEPAXI@Z 00643cd0 f i NetList.obj
 0002:0014ccd0       ??_E?$CArray@Vcvertex@@ABV1@@@UAEPAXI@Z 00643cd0 f i NetList.obj
 0002:0014cd40       ??_E?$CArray@Vcpin@@ABV1@@@UAEPAXI@Z 00643d40 f i NetList.obj
 0002:0014cd40       ??_G?$CArray@Vcpin@@ABV1@@@UAEPAXI@Z 00643d40 f i NetList.obj
 0002:0014cdb0       ??_Gcpin@@QAEPAXI@Z        00643db0 f i NetList.obj
 0002:0014ce20       ??_G?$CArray@Vcarea@@V1@@@UAEPAXI@Z 00643e20 f i NetList.obj
 0002:0014ce20       ??_E?$CArray@Vcarea@@V1@@@UAEPAXI@Z 00643e20 f i NetList.obj
 0002:0014ce90       ??_Gcarea@@QAEPAXI@Z       00643e90 f i NetList.obj
 0002:0014cf00       ??1cpin@@QAE@XZ            00643f00 f i NetList.obj
 0002:0014cf80       ?SetSize@?$CArray@PAVdl_element@@ABQAV1@@@QAEXHH@Z 00643f80 f i NetList.obj
 0002:0014d510       ??$SerializeElements@PAVdl_element@@@@YGXAAVCArchive@@PAPAVdl_element@@H@Z 00644510 f i NetList.obj
 0002:0014d700       ??$DumpElements@PAVdl_element@@@@YGXAAVCDumpContext@@PBQAVdl_element@@H@Z 00644700 f i NetList.obj
 0002:0014d7f0       ?ElementAt@?$CArray@Vcpath_pt@@ABV1@@@QAEAAVcpath_pt@@H@Z 006447f0 f i NetList.obj
 0002:0014d8a0       ??$SerializeElements@Vcseg@@@@YGXAAVCArchive@@PAVcseg@@H@Z 006448a0 f i NetList.obj
 0002:0014da90       ??$DumpElements@Vcseg@@@@YGXAAVCDumpContext@@PBVcseg@@H@Z 00644a90 f i NetList.obj
 0002:0014db80       ??$SerializeElements@Vcvertex@@@@YGXAAVCArchive@@PAVcvertex@@H@Z 00644b80 f i NetList.obj
 0002:0014dd70       ??$DumpElements@Vcvertex@@@@YGXAAVCDumpContext@@PBVcvertex@@H@Z 00644d70 f i NetList.obj
 0002:0014de60       ?SetSize@?$CArray@Vcconnect@@ABV1@@@QAEXHH@Z 00644e60 f i NetList.obj
 0002:0014e560       ??0cconnect@@QAE@XZ        00645560 f i NetList.obj
 0002:0014e690       ??0?$CArray@Vcseg@@ABV1@@@QAE@XZ 00645690 f i NetList.obj
 0002:0014e720       ??0?$CArray@Vcvertex@@ABV1@@@QAE@XZ 00645720 f i NetList.obj
 0002:0014e7b0       ??$SerializeElements@Vcconnect@@@@YGXAAVCArchive@@PAVcconnect@@H@Z 006457b0 f i NetList.obj
 0002:0014e9a0       ??$DumpElements@Vcconnect@@@@YGXAAVCDumpContext@@PBVcconnect@@H@Z 006459a0 f i NetList.obj
 0002:0014ea90       ?SetSize@?$CArray@Vcpin@@ABV1@@@QAEXHH@Z 00645a90 f i NetList.obj
 0002:0014f190       ??0cpin@@QAE@XZ            00646190 f i NetList.obj
 0002:0014f220       ??$SerializeElements@Vcpin@@@@YGXAAVCArchive@@PAVcpin@@H@Z 00646220 f i NetList.obj
 0002:0014f410       ??$DumpElements@Vcpin@@@@YGXAAVCDumpContext@@PBVcpin@@H@Z 00646410 f i NetList.obj
 0002:0014f500       ?SetSize@?$CArray@Vcarea@@V1@@@QAEXHH@Z 00646500 f i NetList.obj
 0002:0014fc10       ??$SerializeElements@Vcarea@@@@YGXAAVCArchive@@PAVcarea@@H@Z 00646c10 f i NetList.obj
 0002:0014fe00       ??$DumpElements@Vcarea@@@@YGXAAVCDumpContext@@PBVcarea@@H@Z 00646e00 f i NetList.obj
 0002:0014fef0       ??0CIterator_cnet@@QAE@PBVCNetList@@@Z 00646ef0 f   Net_iter.obj
 0002:0014ffc0       ?GetFirst@CIterator_cnet@@QAEPAVcnet@@XZ 00646fc0 f   Net_iter.obj
 0002:00150050       ?GetNext@CIterator_cnet@@QAEPAVcnet@@XZ 00647050 f   Net_iter.obj
 0002:001501f0       ?OnRemove@CIterator_cnet@@SAXPBVcnet@@@Z 006471f0 f   Net_iter.obj
 0002:00150220       ??0CIterator_cconnect@@QAE@PAVcnet@@@Z 00647220 f   Net_iter.obj
 0002:001502e0       ?GetFirst@CIterator_cconnect@@QAEPAVcconnect@@XZ 006472e0 f   Net_iter.obj
 0002:00150360       ?GetNext@CIterator_cconnect@@QAEPAVcconnect@@XZ 00647360 f   Net_iter.obj
 0002:00150410       ?OnRemove@CIterator_cconnect@@QAEXH@Z 00647410 f   Net_iter.obj
 0002:001504a0       ?OnRemove@CIterator_cconnect@@QAEXPAVcconnect@@@Z 006474a0 f   Net_iter.obj
 0002:00150590       ??0CIterator_cseg@@QAE@PAVcconnect@@@Z 00647590 f   Net_iter.obj
 0002:00150650       ?GetFirst@CIterator_cseg@@QAEPAVcseg@@XZ 00647650 f   Net_iter.obj
 0002:001506d0       ?GetNext@CIterator_cseg@@QAEPAVcseg@@XZ 006476d0 f   Net_iter.obj
 0002:00150780       ?OnRemove@CIterator_cseg@@QAEXH@Z 00647780 f   Net_iter.obj
 0002:00150810       ?OnRemove@CIterator_cseg@@QAEXPAVcseg@@@Z 00647810 f   Net_iter.obj
 0002:00150900       ??0CIterator_cvertex@@QAE@PAVcconnect@@@Z 00647900 f   Net_iter.obj
 0002:001509c0       ?GetFirst@CIterator_cvertex@@QAEPAVcvertex@@XZ 006479c0 f   Net_iter.obj
 0002:00150a40       ?GetNext@CIterator_cvertex@@QAEPAVcvertex@@XZ 00647a40 f   Net_iter.obj
 0002:00150af0       ?OnRemove@CIterator_cvertex@@QAEXH@Z 00647af0 f   Net_iter.obj
 0002:00150b80       ?OnRemove@CIterator_cvertex@@QAEXPAVcvertex@@@Z 00647b80 f   Net_iter.obj
 0002:00150c70       ??0CDLinkList@@QAE@XZ      00647c70 f i Net_iter.obj
 0002:00150cd0       ??1CDLinkList@@QAE@XZ      00647cd0 f i Net_iter.obj
 0002:00150d20       ?_DLinkList_remove@CDLinkList@@AAEXXZ 00647d20 f i Net_iter.obj
 0002:00150d80       ?DLinkList_init@CDLinkList@@QAEXXZ 00647d80 f i Net_iter.obj
 0002:00150dd0       ?insert_after@CDLinkList@@QAEXPAV1@@Z 00647dd0 f i Net_iter.obj
 0002:00150e70       ?isLinked@CDLinkList@@QBEHXZ 00647e70 f i Net_iter.obj
 0002:00150ec0       ??0part_pin@@QAE@XZ        00647ec0 f   PartList.obj
 0002:00150f70       ??1part_pin@@QAE@XZ        00647f70 f   PartList.obj
 0002:00151020       ??0cpart@@QAE@XZ           00648020 f   PartList.obj
 0002:00151180       ??1cpart@@QAE@XZ           00648180 f   PartList.obj
 0002:00151290       ??0CPartList@@QAE@PAVCDisplayList@@PAVSMFontUtil@@@Z 00648290 f   PartList.obj
 0002:00151460       ??1CPartList@@QAE@XZ       00648460 f   PartList.obj
 0002:00151540       ?Add@CPartList@@QAEPAVcpart@@XZ 00648540 f   PartList.obj
 0002:001516f0       ?Add@CPartList@@QAEPAVcpart@@PAVCShape@@PAV?$CStringT@DV?$StrTraitMFC_DLL@DV?$ChTraitsCRT@D@ATL@@@@@ATL@@HHHHHH@Z 006486f0 f   PartList.obj
 0002:001517c0       ?SetPartData@CPartList@@QAEHPAVcpart@@PAVCShape@@PAV?$CStringT@DV?$StrTraitMFC_DLL@DV?$ChTraitsCRT@D@ATL@@@@@ATL@@HHHHHHH@Z 006487c0 f   PartList.obj
 0002:00151b40       ?HighlightPart@CPartList@@QAEHPAVcpart@@H@Z 00648b40 f   PartList.obj
 0002:00151cc0       ?SetLinesVis@CPartList@@QAEXPAVcpart@@H@Z 00648cc0 f   PartList.obj
 0002:00151dd0       ?SelectRefText@CPartList@@QAEHPAVcpart@@@Z 00648dd0 f   PartList.obj
 0002:00151e40       ?SelectValueText@CPartList@@QAEHPAVcpart@@@Z 00648e40 f   PartList.obj
 0002:00151ec0       ?HighlightAllPadsOnNet@CPartList@@QAEXPAVcnet@@HHHHPAVcpart@@@Z 00648ec0 f   PartList.obj
 0002:00152200       ?SelectPads@CPartList@@QAEHPAVcpart@@HHH@Z 00649200 f   PartList.obj
 0002:001522c0       ?SelectPad@CPartList@@QAEPAVdl_element@@PAVcpart@@HHHH@Z 006492c0 f   PartList.obj
 0002:00152e70       ?TestHitOnPad@CPartList@@QAEHPAVcpart@@PAV?$CStringT@DV?$StrTraitMFC_DLL@DV?$ChTraitsCRT@D@ATL@@@@@ATL@@HHH@Z 00649e70 f   PartList.obj
 0002:00153250       ?Move@CPartList@@QAEHPAVcpart@@HHHHH@Z 0064a250 f   PartList.obj
 0002:001533e0       ?MoveRefText@CPartList@@QAEHPAVcpart@@HHHHH@Z 0064a3e0 f   PartList.obj
 0002:00153580       ?ResizeRefText@CPartList@@QAEXPAVcpart@@HHHH@Z 0064a580 f   PartList.obj
 0002:00153630       ?MoveValueText@CPartList@@QAEHPAVcpart@@HHHHH@Z 0064a630 f   PartList.obj
 0002:001537d0       ?ResizeValueText@CPartList@@QAEXPAVcpart@@HHHH@Z 0064a7d0 f   PartList.obj
 0002:00153880       ?SetValue@CPartList@@QAEXPAVcpart@@PAV?$CStringT@DV?$StrTraitMFC_DLL@DV?$ChTraitsCRT@D@ATL@@@@@ATL@@HHHHHH@Z 0064a880 f   PartList.obj
 0002:00153970       ?SetValue@CPartList@@QAEXPAVcpart@@PAV?$CStringT@DV?$StrTraitMFC_DLL@DV?$ChTraitsCRT@D@ATL@@@@@ATL@@@Z 0064a970 f   PartList.obj
 0002:00153a20       ?GetSide@CPartList@@QAEHPAVcpart@@@Z 0064aa20 f   PartList.obj
 0002:00153a60       ?GetAngle@CPartList@@QAEHPAVcpart@@@Z 0064aa60 f   PartList.obj
 0002:00153aa0       ?GetRefAngle@CPartList@@QAEHPAVcpart@@@Z 0064aaa0 f   PartList.obj
 0002:00153ae0       ?GetValueAngle@CPartList@@QAEHPAVcpart@@@Z 0064aae0 f   PartList.obj
 0002:00153b20       ?GetRefPoint@CPartList@@QAE?AVCPoint@@PAVcpart@@@Z 0064ab20 f   PartList.obj
 0002:00153c50       ?GetValuePoint@CPartList@@QAE?AVCPoint@@PAVcpart@@@Z 0064ac50 f   PartList.obj
 0002:00153d90       ?GetPinPoint@CPartList@@QAE?AVCPoint@@PAVcpart@@HHH@Z 0064ad90 f   PartList.obj
 0002:00153f60       ?GetCentroidPoint@CPartList@@QAE?AVCPoint@@PAVcpart@@@Z 0064af60 f   PartList.obj
 0002:001540e0       ?GetGluePoint@CPartList@@QAE?AVCPoint@@PAVcpart@@H@Z 0064b0e0 f   PartList.obj
 0002:001542e0       ?GetPinLayer@CPartList@@QAEHPAVcpart@@H@Z 0064b2e0 f   PartList.obj
 0002:00154420       ?GetPinNet@CPartList@@QAEPAVcnet@@PAVcpart@@PAV?$CStringT@DV?$StrTraitMFC_DLL@DV?$ChTraitsCRT@D@ATL@@@@@ATL@@@Z 0064b420 f   PartList.obj
 0002:001544c0       ?GetPinNet@CPartList@@QAEPAVcnet@@PAVcpart@@H@Z 0064b4c0 f   PartList.obj
 0002:00154530       ?GetPartBoundingRect@CPartList@@QAEHPAVcpart@@PAUtagRECT@@@Z 0064b530 f   PartList.obj
 0002:001545d0       ?GetPinsBoundingRect@CPartList@@QAEHPAVcpart@@PAUtagRECT@@@Z 0064b5d0 f   PartList.obj
 0002:00154760       ?GetPartThruPadsRect@CPartList@@QAEHPAVcpart@@PAUtagRECT@@@Z 0064b760 f   PartList.obj
 0002:00154910       ?GetRefBoundingRect@CPartList@@QAEHPAVcpart@@PAUtagRECT@@@Z 0064b910 f   PartList.obj
 0002:001549b0       ?GetValueBoundingRect@CPartList@@QAEHPAVcpart@@PAUtagRECT@@@Z 0064b9b0 f   PartList.obj
 0002:00154a60       ?GetPadBounds@CPartList@@QAEHPAVcpart@@HPAUtagRECT@@@Z 0064ba60 f   PartList.obj
 0002:00154b50       ?GetPartBoundaries@CPartList@@QAEHPAUtagRECT@@@Z 0064bb50 f   PartList.obj
 0002:00154ca0       ?GetPart@CPartList@@QAEPAVcpart@@PBD@Z 0064bca0 f   PartList.obj
 0002:00154d40       ?GetFirstPart@CPartList@@QAEPAVcpart@@XZ 0064bd40 f   PartList.obj
 0002:00154da0       ?GetEndPart@CPartList@@QAEPAVcpart@@XZ 0064bda0 f   PartList.obj
 0002:00154e00       ?GetNextPart@CPartList@@QAEPAVcpart@@PAV2@@Z 0064be00 f   PartList.obj
 0002:00154e70       ?GetPrevPart@CPartList@@QAEPAVcpart@@PAV2@@Z 0064be70 f   PartList.obj
 0002:00154ee0       ?GetSelCount@CPartList@@QAEHXZ 0064bee0 f   PartList.obj
 0002:00154f70       ?GetSelParts@CPartList@@QAEHPAV?$CStringT@DV?$StrTraitMFC_DLL@DV?$ChTraitsCRT@D@ATL@@@@@ATL@@@Z 0064bf70 f   PartList.obj
 0002:001550e0       ?GetNumFootprintInstances@CPartList@@QAEHPAVCShape@@@Z 0064c0e0 f   PartList.obj
 0002:00155170       ?Remove@CPartList@@QAEHPAVcpart@@@Z 0064c170 f   PartList.obj
 0002:00155260       ??_Gcpart@@QAEPAXI@Z       0064c260 f i PartList.obj
 0002:001552d0       ?RemoveAllParts@CPartList@@QAEXXZ 0064c2d0 f   PartList.obj
 0002:00155340       ?MarkAllParts@CPartList@@QAEXH@Z 0064c340 f   PartList.obj
 0002:001553c0       ?GenerateStrokesForPartString@@YAHPAV?$CStringT@DV?$StrTraitMFC_DLL@DV?$ChTraitsCRT@D@ATL@@@@@ATL@@HHHHHHHHHHPAV?$CArray@VCPoint@@ABV1@@@PAUtagRECT@@PAVCPoint@@PAVCDisplayList@@PAVSMFontUtil@@@Z 0064c3c0 f   PartList.obj
 0002:00155e40       ?DrawPart@CPartList@@QAEHPAVcpart@@@Z 0064ce40 f   PartList.obj
 0002:00155e80       ?UndrawPart@CPartList@@QAEHPAVcpart@@@Z 0064ce80 f   PartList.obj
 0002:001561d0       ?PartFootprintChanged@CPartList@@QAEXPAVcpart@@PAVCShape@@PAV?$CStringT@DV?$StrTraitMFC_DLL@DV?$ChTraitsCRT@D@ATL@@@@@ATL@@@Z 0064d1d0 f   PartList.obj
 0002:00156510       ?FootprintChanged@CPartList@@QAEXPAVCShape@@@Z 0064d510 f   PartList.obj
 0002:00156680       ?RefTextSizeChanged@CPartList@@QAEXPAVCShape@@@Z 0064d680 f   PartList.obj
 0002:00156740       ?MakePartVisible@CPartList@@QAEXPAVcpart@@H@Z 0064d740 f   PartList.obj
 0002:00156a50       ?StartDraggingPart@CPartList@@QAEHPAVCDC@@PAVcpart@@HHHH@Z 0064da50 f   PartList.obj
 0002:001579b0       ?StartDraggingRefText@CPartList@@QAEHPAVCDC@@PAVcpart@@@Z 0064e9b0 f   PartList.obj
 0002:00157d50       ?StartDraggingValue@CPartList@@QAEHPAVCDC@@PAVcpart@@@Z 0064ed50 f   PartList.obj
 0002:00158130       ?CancelDraggingPart@CPartList@@QAEHPAVcpart@@@Z 0064f130 f   PartList.obj
 0002:00158360       ?CancelDraggingRefText@CPartList@@QAEHPAVcpart@@@Z 0064f360 f   PartList.obj
 0002:001583e0       ?CancelDraggingValue@CPartList@@QAEHPAVcpart@@@Z 0064f3e0 f   PartList.obj
 0002:00158460       ?StopDragging@CPartList@@QAEHXZ 0064f460 f   PartList.obj
 0002:001584c0       ?AddFromString@CPartList@@QAEPAVcpart@@PAV?$CStringT@DV?$StrTraitMFC_DLL@DV?$ChTraitsCRT@D@ATL@@@@@ATL@@@Z 0064f4c0 f   PartList.obj
 0002:00159690       ?SetPartString@CPartList@@QAEHPAVcpart@@PAV?$CStringT@DV?$StrTraitMFC_DLL@DV?$ChTraitsCRT@D@ATL@@@@@ATL@@@Z 00650690 f   PartList.obj
 0002:00159ba0       ?CreatePartUndoRecord@CPartList@@QAEPAUundo_part@@PAVcpart@@PAV?$CStringT@DV?$StrTraitMFC_DLL@DV?$ChTraitsCRT@D@ATL@@@@@ATL@@@Z 00650ba0 f   PartList.obj
 0002:00159ff0       ??$strcpy@PAD@@YAPADAAPADPBD@Z 00650ff0 f i PartList.obj
 0002:0015a050       ___insecure_strcpy         00651050 f i PartList.obj
 0002:0015a0b0       ?ExportPartListInfo@CPartList@@QAEHPAV?$CArray@Upart_info@@ABU1@@@PAVcpart@@@Z 006510b0 f   PartList.obj
 0002:0015a3b0       ?ImportPartListInfo@CPartList@@QAEXPAV?$CArray@Upart_info@@ABU1@@@HPAVCDlgLog@@@Z 006513b0 f   PartList.obj
 0002:0015baf0       ?PartUndoCallback@CPartList@@SAXHPAXH@Z 00652af0 f   PartList.obj
 0002:0015c450       ?GetPinConnectionStatus@CPartList@@QAEHPAVcpart@@HH@Z 00653450 f   PartList.obj
 0002:0015cbc0       ?GetPadDrawInfo@CPartList@@QAEHPAVcpart@@HHHHHHPAH1111111PAPAVcnet@@111@Z 00653bc0 f   PartList.obj
 0002:0015d4e0       ?CheckPartlist@CPartList@@QAEHPAV?$CStringT@DV?$StrTraitMFC_DLL@DV?$ChTraitsCRT@D@ATL@@@@@ATL@@@Z 006544e0 f   PartList.obj
 0002:0015db60       ?MoveOrigin@CPartList@@QAEXHH@Z 00654b60 f   PartList.obj
 0002:0015dce0       ?CheckForProblemFootprints@CPartList@@QAEHXZ 00654ce0 f   PartList.obj
 0002:0015df80       ?FindNetPointForPart@CPartList@@QAEXPAVcpart@@PAVCPoint@@PAH012H@Z 00654f80 f   PartList.obj
 0002:0015e660       ?OptimizeRatlinesOnPin@CPartList@@QAEXPAVcnet@@H@Z 00655660 f   PartList.obj
 0002:0015f040       ?RemoveAll@?$CArray@PAVdl_element@@ABQAV1@@@QAEXXZ 00656040 f i PartList.obj
 0002:0015f0a0       ??0?$CArray@Vpart_pin@@ABV1@@@QAE@XZ 006560a0 f i PartList.obj
 0002:0015f130       ??$strcpy@$0DM@@@YAPADAAY0DM@DPBD@Z 00656130 f i PartList.obj
 0002:0015f1a0       ??1?$CArray@Vpart_pin@@ABV1@@@UAE@XZ 006561a0 f i PartList.obj
 0002:0015f2d0       ?Serialize@?$CArray@Vpart_pin@@ABV1@@@UAEXAAVCArchive@@@Z 006562d0 f i PartList.obj
 0002:0015f3a0       ?Dump@?$CArray@Vpart_pin@@ABV1@@@UBEXAAVCDumpContext@@@Z 006563a0 f i PartList.obj
 0002:0015f480       ?AssertValid@?$CArray@Vpart_pin@@ABV1@@@UBEXXZ 00656480 f i PartList.obj
 0002:0015f5e0       ??_G?$CArray@Vpart_pin@@ABV1@@@UAEPAXI@Z 006565e0 f i PartList.obj
 0002:0015f5e0       ??_E?$CArray@Vpart_pin@@ABV1@@@UAEPAXI@Z 006565e0 f i PartList.obj
 0002:0015f650       ??_Gpart_pin@@QAEPAXI@Z    00656650 f i PartList.obj
 0002:0015f6c0       ?SetSize@?$CArray@Vpart_pin@@ABV1@@@QAEXHH@Z 006566c0 f i PartList.obj
 0002:0015fdc0       ??$SerializeElements@Vpart_pin@@@@YGXAAVCArchive@@PAVpart_pin@@H@Z 00656dc0 f i PartList.obj
 0002:0015ffb0       ??$DumpElements@Vpart_pin@@@@YGXAAVCDumpContext@@PBVpart_pin@@H@Z 00656fb0 f i PartList.obj
 0002:001600a0       ?GetMessageMap@CPathDialogSub@@MBEPBUAFX_MSGMAP@@XZ 006570a0 f   PathDialog.obj
 0002:001600f0       ?GetThisMessageMap@CPathDialogSub@@KGPBUAFX_MSGMAP@@XZ 006570f0 f   PathDialog.obj
 0002:00160130       ?OnOK@CPathDialogSub@@IAEXXZ 00657130 f   PathDialog.obj
 0002:00160250       ?OnChangeEditPath@CPathDialogSub@@IAEXXZ 00657250 f   PathDialog.obj
 0002:00160320       ??0CPathDialog@@QAE@PBD00PAVCWnd@@@Z 00657320 f   PathDialog.obj
 0002:001604e0       ??0CPathDialogSub@@QAE@XZ  006574e0 f i PathDialog.obj
 0002:00160540       ??_ECPathDialogSub@@UAEPAXI@Z 00657540 f i PathDialog.obj
 0002:00160540       ??_GCPathDialogSub@@UAEPAXI@Z 00657540 f i PathDialog.obj
 0002:001605b0       ?GetPathName@CPathDialog@@QAE?AV?$CStringT@DV?$StrTraitMFC_DLL@DV?$ChTraitsCRT@D@ATL@@@@@ATL@@XZ 006575b0 f   PathDialog.obj
 0002:00160640       ?BrowseCallbackProc@CPathDialog@@CGHPAUHWND__@@IJJ@Z 00657640 f   PathDialog.obj
 0002:00160ab0       ?DoModal@CPathDialog@@UAEHXZ 00657ab0 f   PathDialog.obj
 0002:00160cc0       ?IsFileNameValid@CPathDialog@@SAHPBD@Z 00657cc0 f   PathDialog.obj
 0002:00160eb0       ?MakeSurePathExists@CPathDialog@@SAHPBD@Z 00657eb0 f   PathDialog.obj
 0002:001612f0       ?Touch@CPathDialog@@SAHPBDH@Z 006582f0 f   PathDialog.obj
 0002:00161610       ?ConcatPath@CPathDialog@@SAHPADPBD@Z 00658610 f   PathDialog.obj
 0002:001616e0       ??$strcat@PAD@@YAPADAAPADPBD@Z 006586e0 f i PathDialog.obj
 0002:00161740       ___insecure_strcat         00658740 f i PathDialog.obj
 0002:001617a0       ??$strcpy@$0BAE@@@YAPADAAY0BAE@DPBD@Z 006587a0 f i PathDialog.obj
 0002:00161810       ??0polygon@@QAE@PAVvertex@@@Z 00658810 f   php_polygon.obj
 0002:00161870       ??1polygon@@QAE@XZ         00658870 f   php_polygon.obj
 0002:00161940       ??_Gvertex@@QAEPAXI@Z      00658940 f i php_polygon.obj
 0002:001619b0       ?getFirst@polygon@@QAEPAVvertex@@XZ 006589b0 f   php_polygon.obj
 0002:001619f0       ?NextPoly@polygon@@QAEPAV1@XZ 006589f0 f   php_polygon.obj
 0002:00161a50       ?NextPoly@vertex@@QAEPAVpolygon@@XZ 00658a50 f i php_polygon.obj
 0002:00161a90       ?add@polygon@@QAEXPAVvertex@@@Z 00658a90 f   php_polygon.obj
 0002:00161be0       ?setNext@vertex@@QAEXPAV1@@Z 00658be0 f i php_polygon.obj
 0002:00161c30       ?setPrev@vertex@@QAEXPAV1@@Z 00658c30 f i php_polygon.obj
 0002:00161c80       ?Prev@vertex@@QAEPAV1@XZ   00658c80 f i php_polygon.obj
 0002:00161cc0       ?Nseg@vertex@@QAEPAVsegment@@XZ 00658cc0 f i php_polygon.obj
 0002:00161d00       ?setPseg@vertex@@QAEXPAVsegment@@@Z 00658d00 f i php_polygon.obj
 0002:00161d50       ?addv@polygon@@QAEXNNNNH@Z 00658d50 f   php_polygon.obj
 0002:00161eb0       ?del@polygon@@QAEPAVvertex@@PAV2@@Z 00658eb0 f   php_polygon.obj
 0002:00161ff0       ?Next@vertex@@QAEPAV1@XZ   00658ff0 f i php_polygon.obj
 0002:00162030       ?res@polygon@@QAEXXZ       00659030 f   php_polygon.obj
 0002:001620e0       ?id@vertex@@QAEHXZ         006590e0 f i php_polygon.obj
 0002:00162120       ?isIntersect@vertex@@QAEHXZ 00659120 f i php_polygon.obj
 0002:00162160       ?copy_poly@polygon@@QAEPAV1@XZ 00659160 f   php_polygon.obj
 0002:00162310       ?X@vertex@@QAENXZ          00659310 f i php_polygon.obj
 0002:00162350       ?Y@vertex@@QAENXZ          00659350 f i php_polygon.obj
 0002:00162390       ?insertSort@polygon@@QAEXPAVvertex@@00@Z 00659390 f   php_polygon.obj
 0002:001624d0       ?Alpha@vertex@@QAENXZ      006594d0 f i php_polygon.obj
 0002:00162510       ?nxt@polygon@@QAEPAVvertex@@PAV2@@Z 00659510 f   php_polygon.obj
 0002:00162590       ?unckd_remain@polygon@@QAEHXZ 00659590 f   php_polygon.obj
 0002:00162640       ?isChecked@vertex@@QAEHXZ  00659640 f i php_polygon.obj
 0002:00162680       ?first_unckd_intersect@polygon@@QAEPAVvertex@@XZ 00659680 f   php_polygon.obj
 0002:00162730       ?dist@polygon@@QAENNNNN@Z  00659730 f   php_polygon.obj
 0002:001627b0       ?angle@polygon@@QAENNNNN@Z 006597b0 f   php_polygon.obj
 0002:001628b0       ?aAlpha@polygon@@QAENNNNNNNNNN@Z 006598b0 f   php_polygon.obj
 0002:00162a40       ?perturb@polygon@@QAEXPAVvertex@@000NN@Z 00659a40 f   php_polygon.obj
 0002:00162e40       ?setX@vertex@@QAEXN@Z      00659e40 f i php_polygon.obj
 0002:00162e90       ?setY@vertex@@QAEXN@Z      00659e90 f i php_polygon.obj
 0002:00162ee0       ?ints@polygon@@QAEHPAVvertex@@000PAHQAN222@Z 00659ee0 f   php_polygon.obj
 0002:00164ac0       ?pow@@YANNH@Z              0065bac0 f i php_polygon.obj
 0002:00164b20       ?isInside@polygon@@QAEHPAVvertex@@@Z 0065bb20 f   php_polygon.obj
 0002:00165360       ?boolean@polygon@@QAEPAV1@PAV1@H@Z 0065c360 f   php_polygon.obj
 0002:001662e0       ?setNextPoly@vertex@@QAEXPAVpolygon@@@Z 0065d2e0 f i php_polygon.obj
 0002:00166330       ?setNeighbor@vertex@@QAEXPAV1@@Z 0065d330 f i php_polygon.obj
 0002:00166380       ?Neighbor@vertex@@QAEPAV1@XZ 0065d380 f i php_polygon.obj
 0002:001663c0       ?setEntry@vertex@@QAEXH@Z  0065d3c0 f i php_polygon.obj
 0002:00166410       ?isEntry@vertex@@QAEHXZ    0065d410 f i php_polygon.obj
 0002:00166450       ??$_Pow_int@N@@YANNH@Z     0065d450 f i php_polygon.obj
 0002:00166500       ??0segment@@QAE@NNH@Z      0065d500 f   php_polygon_vertex.obj
 0002:00166560       ??0vertex@@QAE@NNNNNPAV0@0PAVpolygon@@H0NHH@Z 0065d560 f   php_polygon_vertex.obj
 0002:00166720       ??1vertex@@QAE@XZ          0065d720 f   php_polygon_vertex.obj
 0002:001667a0       ?Xc@vertex@@QAENH@Z        0065d7a0 f   php_polygon_vertex.obj
 0002:00166860       ?Xc@segment@@QAENXZ        0065d860 f i php_polygon_vertex.obj
 0002:001668a0       ?Yc@vertex@@QAENH@Z        0065d8a0 f   php_polygon_vertex.obj
 0002:00166960       ?Yc@segment@@QAENXZ        0065d960 f i php_polygon_vertex.obj
 0002:001669a0       ?d@vertex@@QAENH@Z         0065d9a0 f   php_polygon_vertex.obj
 0002:00166ab0       ?d@segment@@QAEHXZ         0065dab0 f i php_polygon_vertex.obj
 0002:00166af0       ?setChecked@vertex@@QAEXH@Z 0065daf0 f   php_polygon_vertex.obj
 0002:00166b70       ??0CPolyLine@@QAE@PAVCDisplayList@@@Z 0065db70 f   PolyLine.obj
 0002:00166eb0       ??0CPolyLine@@QAE@XZ       0065deb0 f   PolyLine.obj
 0002:001671f0       ??1CPolyLine@@QAE@XZ       0065e1f0 f   PolyLine.obj
 0002:001673c0       ??_Gpolygon@@QAEPAXI@Z     0065e3c0 f i PolyLine.obj
 0002:00167430       ?NormalizeWithGpc@CPolyLine@@QAEHPAV?$CArray@PAVCPolyLine@@ABQAV1@@@H@Z 0065e430 f   PolyLine.obj
 0002:00167d60       ?MakePhpPoly@CPolyLine@@QAEHXZ 0065ed60 f   PolyLine.obj
 0002:00167f10       ?FreePhpPoly@CPolyLine@@QAEXXZ 0065ef10 f   PolyLine.obj
 0002:00168020       ?ClipPhpPolygon@CPolyLine@@QAEXHPAV1@@Z 0065f020 f   PolyLine.obj
 0002:00168290       ?MakeGpcPoly@CPolyLine@@QAEHHPAV?$CArray@VCArc@@ABV1@@@@Z 0065f290 f   PolyLine.obj
 0002:00169000       ?FreeGpcPoly@CPolyLine@@QAEHXZ 00660000 f   PolyLine.obj
 0002:001690c0       ?RestoreArcs@CPolyLine@@QAEHPAV?$CArray@VCArc@@ABV1@@@PAV?$CArray@PAVCPolyLine@@ABQAV1@@@@Z 006600c0 f   PolyLine.obj
 0002:001698c0       ?Start@CPolyLine@@QAEXHHHHHHPAVid@@PAXH@Z 006608c0 f   PolyLine.obj
 0002:00169de0       ?AppendCorner@CPolyLine@@QAEXHHHH@Z 00660de0 f   PolyLine.obj
 0002:0016a440       ?Close@CPolyLine@@QAEXHHH@Z 00661440 f   PolyLine.obj
 0002:0016a600       ?UnClose@CPolyLine@@QAEXXZ 00661600 f   PolyLine.obj
 0002:0016a6b0       ?RecalcRectC@CPolyLine@@QAEXH@Z 006616b0 f   PolyLine.obj
 0002:0016aa70       ?MoveCorner@CPolyLine@@QAEXHHHH@Z 00661a70 f   PolyLine.obj
 0002:0016ab40       ?DeleteCorner@CPolyLine@@QAEXHHHH@Z 00661b40 f   PolyLine.obj
 0002:0016af10       ?RemoveContour@CPolyLine@@QAEXHH@Z 00661f10 f   PolyLine.obj
 0002:0016b2d0       ?InsertCorner@CPolyLine@@QAEXHHHH@Z 006622d0 f   PolyLine.obj
 0002:0016b7b0       ?Undraw@CPolyLine@@QAEXXZ  006627b0 f   PolyLine.obj
 0002:0016b980       ?Draw@CPolyLine@@QAEXPAVCDisplayList@@@Z 00662980 f   PolyLine.obj
 0002:0016c270       ?SetSideVisible@CPolyLine@@QAEXHH@Z 00663270 f   PolyLine.obj
 0002:0016c300       ?StartDraggingToInsertCorner@CPolyLine@@QAEXPAVCDC@@HHHH@Z 00663300 f   PolyLine.obj
 0002:0016c520       ?CancelDraggingToInsertCorner@CPolyLine@@QAEXH@Z 00663520 f   PolyLine.obj
 0002:0016c650       ?StartDraggingToMoveCorner@CPolyLine@@QAEXPAVCDC@@HHHH@Z 00663650 f   PolyLine.obj
 0002:0016cd10       ?CancelDraggingToMoveCorner@CPolyLine@@QAEXH@Z 00663d10 f   PolyLine.obj
 0002:0016ce60       ?HighlightSide@CPolyLine@@QAEXHHH@Z 00663e60 f   PolyLine.obj
 0002:0016d020       ?HighlightCorner@CPolyLine@@QAEPAVdl_element@@HH@Z 00664020 f   PolyLine.obj
 0002:0016d100       ?GetX@CPolyLine@@QAEHH@Z   00664100 f   PolyLine.obj
 0002:0016d160       ?GetY@CPolyLine@@QAEHH@Z   00664160 f   PolyLine.obj
 0002:0016d1d0       ?GetHatchLoc@CPolyLine@@QAE?AUtagRECT@@H@Z 006641d0 f   PolyLine.obj
 0002:0016d330       ?GetHatchSize@CPolyLine@@QAEHXZ 00664330 f   PolyLine.obj
 0002:0016d370       ?GetMerge@CPolyLine@@QAEHH@Z 00664370 f   PolyLine.obj
 0002:0016d3d0       ?GetLength@CPolyLine@@QAEHXZ 006643d0 f   PolyLine.obj
 0002:0016d590       ?GetSel@CPolyLine@@QAEHH@Z 00664590 f   PolyLine.obj
 0002:0016d640       ?GetSideSel@CPolyLine@@QAEHH@Z 00664640 f   PolyLine.obj
 0002:0016d710       ?SetMerge@CPolyLine@@QAEXHH@Z 00664710 f   PolyLine.obj
 0002:0016d770       ?SetSel@CPolyLine@@QAEXHH@Z 00664770 f   PolyLine.obj
 0002:0016d7d0       ?SetSideSel@CPolyLine@@QAEXHH@Z 006647d0 f   PolyLine.obj
 0002:0016d830       ?GetNumContour@CPolyLine@@QAEHH@Z 00664830 f   PolyLine.obj
 0002:0016d8a0       ?GetVisible@CPolyLine@@QAEHXZ 006648a0 f   PolyLine.obj
 0002:0016d8e0       ?MakeVisible@CPolyLine@@QAEXH@Z 006648e0 f   PolyLine.obj
 0002:0016da60       ?GetBounds@CPolyLine@@QAE?AUtagRECT@@XZ 00664a60 f   PolyLine.obj
 0002:0016db60       ?GetCornerBounds@CPolyLine@@QAE?AUtagRECT@@H@Z 00664b60 f   PolyLine.obj
 0002:0016dbf0       ?GetNumCorners@CPolyLine@@QAEHXZ 00664bf0 f   PolyLine.obj
 0002:0016dc30       ?GetNumArcs@CPolyLine@@QAEHXZ 00664c30 f   PolyLine.obj
 0002:0016dcd0       ?GetNumSides@CPolyLine@@QAEHXZ 00664cd0 f   PolyLine.obj
 0002:0016dd80       ?GetLayer@CPolyLine@@QAEHXZ 00664d80 f   PolyLine.obj
 0002:0016ddc0       ?GetW@CPolyLine@@QAEHXZ    00664dc0 f   PolyLine.obj
 0002:0016de00       ?GetSelBoxSize@CPolyLine@@QAEHXZ 00664e00 f   PolyLine.obj
 0002:0016de40       ?GetNumContours@CPolyLine@@QAEHXZ 00664e40 f   PolyLine.obj
 0002:0016ded0       ?GetContour@CPolyLine@@QAEHH@Z 00664ed0 f   PolyLine.obj
 0002:0016df40       ?GetContourStart@CPolyLine@@QAEHH@Z 00664f40 f   PolyLine.obj
 0002:0016dfa0       ?GetContourEnd@CPolyLine@@QAEHH@Z 00664fa0 f   PolyLine.obj
 0002:0016e040       ?GetIndexCornerBack@CPolyLine@@QAEHH@Z 00665040 f   PolyLine.obj
 0002:0016e150       ?GetIndexCornerNext@CPolyLine@@QAEHH@Z 00665150 f   PolyLine.obj
 0002:0016e220       ?GetContourSize@CPolyLine@@QAEHH@Z 00665220 f   PolyLine.obj
 0002:0016e290       ?SetSideStyle@CPolyLine@@QAEXHHH@Z 00665290 f   PolyLine.obj
 0002:0016e4b0       ?GetSideStyle@CPolyLine@@QAEHH@Z 006654b0 f   PolyLine.obj
 0002:0016e530       ?SetId@CPolyLine@@QAEXPAVid@@@Z 00665530 f   PolyLine.obj
 0002:0016e7d0       ?GetId@CPolyLine@@QAE?AVid@@XZ 006657d0 f   PolyLine.obj
 0002:0016e840       ?GetClosed@CPolyLine@@QAEHXZ 00665840 f   PolyLine.obj
 0002:0016e900       ?TransparentHatch@CPolyLine@@QAEXH@Z 00665900 f   PolyLine.obj
 0002:0016e9e0       ?Hatch@CPolyLine@@QAEXXZ   006659e0 f   PolyLine.obj
 0002:00170030       ?TestPointInside@CPolyLine@@QAEHHHH@Z 00667030 f   PolyLine.obj
 0002:001708a0       ?TestPointInsideContour@CPolyLine@@QAEHHH@Z 006678a0 f   PolyLine.obj
 0002:00170900       ?TestPolygonIntersection@CPolyLine@@QAEHHH@Z 00667900 f   PolyLine.obj
 0002:00171180       ?TestPolygonIntersection@CPolyLine@@QAEHPAV1@@Z 00668180 f   PolyLine.obj
 0002:00171930       ?SetSelBoxSize@CPolyLine@@QAEXH@Z 00668930 f   PolyLine.obj
 0002:001719b0       ?SetDisplayList@CPolyLine@@QAEXPAVCDisplayList@@@Z 006689b0 f   PolyLine.obj
 0002:00171a30       ?Copy@CPolyLine@@QAEXPAV1@@Z 00668a30 f   PolyLine.obj
 0002:00171e40       ?MoveOrigin@CPolyLine@@QAEXHH@Z 00668e40 f   PolyLine.obj
 0002:00171f50       ?SetX@CPolyLine@@QAEXHH@Z  00668f50 f   PolyLine.obj
 0002:00172120       ?SetY@CPolyLine@@QAEXHH@Z  00669120 f   PolyLine.obj
 0002:001722f0       ?SetEndContour@CPolyLine@@QAEXHH@Z 006692f0 f   PolyLine.obj
 0002:00172380       ?SetLayer@CPolyLine@@QAEXH@Z 00669380 f   PolyLine.obj
 0002:001723d0       ?SetW@CPolyLine@@QAEXH@Z   006693d0 f   PolyLine.obj
 0002:00172420       ?SetVisible@CPolyLine@@QAEXH@Z 00669420 f   PolyLine.obj
 0002:00172470       ?MakePolylineForPad@CPolyLine@@QAEPAV1@HHHHHHH@Z 00669470 f   PolyLine.obj
 0002:00172660       ?AppendArc@CPolyLine@@QAEXHHHHHHH@Z 00669660 f   PolyLine.obj
 0002:00172870       ?ClipGpcPolygon@CPolyLine@@QAEXW4gpc_op@@PAV1@@Z 00669870 f   PolyLine.obj
 0002:00172960       ?ApproximateAllArcSides@CPolyLine@@QAEXXZ 00669960 f   PolyLine.obj
 0002:00172c50       ?InsertAt@?$CArray@HABH@@QAEXHABHH@Z 00669c50 f i PolyLine.obj
 0002:00172eb0       ?SetAtGrow@?$CArray@PAVdl_element@@ABQAV1@@@QAEXHABQAVdl_element@@@Z 00669eb0 f i PolyLine.obj
 0002:00172f80       ??0?$CArray@VCPolyPt@@ABV1@@@QAE@XZ 00669f80 f i PolyLine.obj
 0002:00173010       ?GetSize@?$CArray@VCPolyPt@@ABV1@@@QBEHXZ 0066a010 f i PolyLine.obj
 0002:00173050       ?RemoveAll@?$CArray@VCPolyPt@@ABV1@@@QAEXXZ 0066a050 f i PolyLine.obj
 0002:001730b0       ?InsertAt@?$CArray@VCPolyPt@@ABV1@@@QAEXHABVCPolyPt@@H@Z 0066a0b0 f i PolyLine.obj
 0002:001733c0       ?RemoveAt@?$CArray@VCPolyPt@@ABV1@@@QAEXHH@Z 0066a3c0 f i PolyLine.obj
 0002:00173570       ??0?$CArray@VCContourData@@ABV1@@@QAE@XZ 0066a570 f i PolyLine.obj
 0002:00173600       ?GetSize@?$CArray@VCContourData@@ABV1@@@QBEHXZ 0066a600 f i PolyLine.obj
 0002:00173640       ?RemoveAll@?$CArray@VCContourData@@ABV1@@@QAEXXZ 0066a640 f i PolyLine.obj
 0002:001736a0       ??A?$CArray@VCContourData@@ABV1@@@QAEAAVCContourData@@H@Z 0066a6a0 f i PolyLine.obj
 0002:00173700       ?GetSize@?$CArray@VCArc@@ABV1@@@QBEHXZ 0066a700 f i PolyLine.obj
 0002:00173740       ??A?$CArray@VCArc@@ABV1@@@QAEAAVCArc@@H@Z 0066a740 f i PolyLine.obj
 0002:001737a0       ?GetSize@?$CArray@PAVCPolyLine@@ABQAV1@@@QBEHXZ 0066a7a0 f i PolyLine.obj
 0002:001737e0       ?ElementAt@?$CArray@VCContourData@@ABV1@@@QAEAAVCContourData@@H@Z 0066a7e0 f i PolyLine.obj
 0002:00173890       ?ElementAt@?$CArray@VCArc@@ABV1@@@QAEAAVCArc@@H@Z 0066a890 f i PolyLine.obj
 0002:00173940       ??0CPolyPt@@QAE@HHH@Z      0066a940 f i PolyLine.obj
 0002:001739b0       ??1?$CArray@VCPolyPt@@ABV1@@@UAE@XZ 0066a9b0 f i PolyLine.obj
 0002:00173ac0       ?Serialize@?$CArray@VCPolyPt@@ABV1@@@UAEXAAVCArchive@@@Z 0066aac0 f i PolyLine.obj
 0002:00173b90       ?Dump@?$CArray@VCPolyPt@@ABV1@@@UBEXAAVCDumpContext@@@Z 0066ab90 f i PolyLine.obj
 0002:00173c70       ?AssertValid@?$CArray@VCPolyPt@@ABV1@@@UBEXXZ 0066ac70 f i PolyLine.obj
 0002:00173dd0       ??1?$CArray@VCContourData@@ABV1@@@UAE@XZ 0066add0 f i PolyLine.obj
 0002:00173ee0       ?Serialize@?$CArray@VCContourData@@ABV1@@@UAEXAAVCArchive@@@Z 0066aee0 f i PolyLine.obj
 0002:00173fb0       ?Dump@?$CArray@VCContourData@@ABV1@@@UBEXAAVCDumpContext@@@Z 0066afb0 f i PolyLine.obj
 0002:00174090       ?AssertValid@?$CArray@VCContourData@@ABV1@@@UBEXXZ 0066b090 f i PolyLine.obj
 0002:001741f0       ??_E?$CArray@VCPolyPt@@ABV1@@@UAEPAXI@Z 0066b1f0 f i PolyLine.obj
 0002:001741f0       ??_G?$CArray@VCPolyPt@@ABV1@@@UAEPAXI@Z 0066b1f0 f i PolyLine.obj
 0002:00174260       ??_G?$CArray@VCContourData@@ABV1@@@UAEPAXI@Z 0066b260 f i PolyLine.obj
 0002:00174260       ??_E?$CArray@VCContourData@@ABV1@@@UAEPAXI@Z 0066b260 f i PolyLine.obj
 0002:001742d0       ?SetSize@?$CArray@VCPolyPt@@ABV1@@@QAEXHH@Z 0066b2d0 f i PolyLine.obj
 0002:001749b0       ??$SerializeElements@VCPolyPt@@@@YGXAAVCArchive@@PAVCPolyPt@@H@Z 0066b9b0 f i PolyLine.obj
 0002:00174ba0       ??$DumpElements@VCPolyPt@@@@YGXAAVCDumpContext@@PBVCPolyPt@@H@Z 0066bba0 f i PolyLine.obj
 0002:00174c90       ?SetSize@?$CArray@VCContourData@@ABV1@@@QAEXHH@Z 0066bc90 f i PolyLine.obj
 0002:00175230       ??$SerializeElements@VCContourData@@@@YGXAAVCArchive@@PAVCContourData@@H@Z 0066c230 f i PolyLine.obj
 0002:00175420       ??$DumpElements@VCContourData@@@@YGXAAVCDumpContext@@PBVCContourData@@H@Z 0066c420 f i PolyLine.obj
 0002:00175510       ?DirExists0@@YA_NPBD@Z     0066c510 f   QAFDebug.obj
 0002:00175590       ?CreateSubFolders0@@YA_NPBD@Z 0066c590 f   QAFDebug.obj
 0002:00175750       ?SHGetSpecialFolderPathCustom@@YAJPAUHWND__@@HPAXKPAD@Z 0066c750 f   QAFDebug.obj
 0002:00175870       ?qafGetLogFileName@CQAFDebug@@KAKPADK@Z 0066c870 f   QAFDebug.obj
 0002:00175900       ?tryEnable@QAFDebug@@YA_NXZ 0066c900 f   QAFDebug.obj
 0002:00175950       ?tryEnable@CQAFDebug@@SA_NXZ 0066c950 f i QAFDebug.obj
 0002:00175a50       ??0CSync@@QAE@PAU_RTL_CRITICAL_SECTION@@W4CSOP@0@@Z 0066ca50 f i QAFDebug.obj
 0002:00175af0       ??1CSync@@QAE@XZ           0066caf0 f i QAFDebug.obj
 0002:00175b80       ?SetSharedFlag@CQAFDebug@@IAE_NK@Z 0066cb80 f i QAFDebug.obj
 0002:00175c10       ?tryLock@CQAFDebug@@IAE_NXZ 0066cc10 f i QAFDebug.obj
 0002:00175c80       ?unLock@CQAFDebug@@IAEXXZ  0066cc80 f i QAFDebug.obj
 0002:00175ce0       ?instance@CQAFDebug@@KAAAV1@XZ 0066cce0 f i QAFDebug.obj
 0002:00175db0       ??0CQAFDebug@@QAE@XZ       0066cdb0 f i QAFDebug.obj
 0002:00175ff0       ?ODS@@YAXPBD@Z             0066cff0 f i QAFDebug.obj
 0002:00176050       ?tryDisable@QAFDebug@@YA_NXZ 0066d050 f   QAFDebug.obj
 0002:001760a0       ?tryDisable@CQAFDebug@@SA_NXZ 0066d0a0 f i QAFDebug.obj
 0002:001761a0       ?OutputDebugStringEx@QAFDebug@@YAXPBDH00@Z 0066d1a0 f   QAFDebug.obj
 0002:00176740       ?tryOpenLogFile@CQAFDebug@@SAPAXXZ 0066d740 f i QAFDebug.obj
 0002:00176a40       ?qafReportComError@QAFDebug@@YAJJPBDH@Z 0066da40 f   QAFDebug.obj
 0002:00176bf0       ?SetLogDir@QAFDebug@@YAXPAV?$CStringT@DV?$StrTraitMFC_DLL@DV?$ChTraitsCRT@D@ATL@@@@@ATL@@@Z 0066dbf0 f   QAFDebug.obj
 0002:00176c50       ?GetLogDir@QAFDebug@@YAKPADK@Z 0066dc50 f   QAFDebug.obj
 0002:00176e90       ?_tcsrchr@@YAPADPADI@Z     0066de90 f i QAFDebug.obj
 0002:00176ef0       __tcsrchr                  0066def0 f i QAFDebug.obj
 0002:00176f50       ??1CQAFDebug@@QAE@XZ       0066df50 f i QAFDebug.obj
 0002:001770e0       ?SpawnAndRedirect@@YAPAXPBDPAPAX0@Z 0066e0e0 f   RTcall.obj
 0002:00177430       ?RunConsoleProcess@@YAHPBDPAVCDlgLog@@@Z 0066e430 f   RTcall.obj
 0002:00177600       ??$strcpy@$0EAA@@@YAPADAAY0EAA@DPBD@Z 0066e600 f i RTcall.obj
 0002:00177670       ?ws@@YA?AV?$CStringT@DV?$StrTraitMFC_DLL@DV?$ChTraitsCRT@D@ATL@@@@@ATL@@HH@Z 0066e670 f   Shape.obj
 0002:001777c0       ??0pad@@QAE@XZ             0066e7c0 f   Shape.obj
 0002:00177820       ??8pad@@QAEHV0@@Z          0066e820 f   Shape.obj
 0002:001778d0       ??0padstack@@QAE@XZ        0066e8d0 f   Shape.obj
 0002:00177b30       ??8padstack@@QAEHV0@@Z     0066eb30 f   Shape.obj
 0002:00177eb0       ??0CShape@@QAE@XZ          0066eeb0 f   Shape.obj
 0002:001781d0       ??1CShape@@QAE@XZ          0066f1d0 f   Shape.obj
 0002:00178490       ?Clear@CShape@@QAEXXZ      0066f490 f   Shape.obj
 0002:001786a0       ?MakeFromString@CShape@@QAEHV?$CStringT@DV?$StrTraitMFC_DLL@DV?$ChTraitsCRT@D@ATL@@@@@ATL@@0@Z 0066f6a0 f   Shape.obj
 0002:0017d540       ?MakeFromFile@CShape@@QAEHPAVCStdioFile@@V?$CStringT@DV?$StrTraitMFC_DLL@DV?$ChTraitsCRT@D@ATL@@@@@ATL@@1H@Z 00674540 f   Shape.obj
 0002:00183090       ?Copy@CShape@@QAEHPAV1@@Z  0067a090 f   Shape.obj
 0002:00183510       ?Import@CShape@@QAEHPAV1@@Z 0067a510 f   Shape.obj
 0002:001838c0       ?ComparePins@CShape@@QAEHPAV1@@Z 0067a8c0 f   Shape.obj
 0002:00183ad0       ?Compare@CShape@@QAEHPAV1@@Z 0067aad0 f   Shape.obj
 0002:00184290       ??0padstack@@QAE@ABV0@@Z   0067b290 f i Shape.obj
 0002:00184570       ?GetNumPins@CShape@@QAEHXZ 0067b570 f   Shape.obj
 0002:001845d0       ?GetPinIndexByName@CShape@@QAEHPBDH@Z 0067b5d0 f   Shape.obj
 0002:001846b0       ?GetPinNameByIndex@CShape@@QAE?AV?$CStringT@DV?$StrTraitMFC_DLL@DV?$ChTraitsCRT@D@ATL@@@@@ATL@@H@Z 0067b6b0 f   Shape.obj
 0002:00184750       ?GetPinDescriptionByIndex@CShape@@QAE?AV?$CStringT@DV?$StrTraitMFC_DLL@DV?$ChTraitsCRT@D@ATL@@@@@ATL@@H@Z 0067b750 f   Shape.obj
 0002:001847f0       ?WriteFootprint@CShape@@QAEHPAVCStdioFile@@@Z 0067b7f0 f   Shape.obj
 0002:001877e0       ?CreateMetafile@CShape@@QAEPAUHENHMETAFILE__@@PAVCMetaFileDC@@PAVCDC@@HH@Z 0067e7e0 f   Shape.obj
 0002:0018bfe0       ?CreateWarningMetafile@CShape@@QAEPAUHENHMETAFILE__@@PAVCMetaFileDC@@PAVCDC@@HH@Z 00682fe0 f   Shape.obj
 0002:0018c220       ?GetDefaultCentroid@CShape@@QAE?AVCPoint@@XZ 00683220 f   Shape.obj
 0002:0018c340       ?GetAllPadBounds@CShape@@QAE?AUtagRECT@@XZ 00683340 f   Shape.obj
 0002:0018c570       ?GetPadBounds@CShape@@QAEXHPAUtagRECT@@@Z 00683570 f   Shape.obj
 0002:0018cd60       ?GetPadRowBounds@CShape@@QAE?AUtagRECT@@HH@Z 00683d60 f   Shape.obj
 0002:0018cec0       ?GetBounds@CShape@@QAE?AUtagRECT@@HH@Z 00683ec0 f   Shape.obj
 0002:0018d3b0       ?GetCornerBounds@CShape@@QAE?AUtagRECT@@XZ 006843b0 f   Shape.obj
 0002:0018d410       ?Draw@CShape@@QAEXPAVCDisplayList@@PAVSMFontUtil@@@Z 00684410 f   Shape.obj
 0002:0018d450       ?Undraw@CShape@@QAEXXZ     00684450 f   Shape.obj
 0002:0018db10       ?SelectPad@CShape@@QAEXH@Z 00684b10 f   Shape.obj
 0002:0018dbc0       ?StartDraggingPad@CShape@@QAEXPAVCDC@@H@Z 00684bc0 f   Shape.obj
 0002:0018dee0       ?CancelDraggingPad@CShape@@QAEXH@Z 00684ee0 f   Shape.obj
 0002:0018e040       ?StartDraggingPadRow@CShape@@QAEXPAVCDC@@HH@Z 00685040 f   Shape.obj
 0002:0018e2b0       ?CancelDraggingPadRow@CShape@@QAEXHH@Z 006852b0 f   Shape.obj
 0002:0018e440       ?StartDraggingGroup@CShape@@QAEXPAVCDC@@PAUtagRECT@@@Z 00685440 f   Shape.obj
 0002:0018e510       ?CancelDraggingGroup@CShape@@QAEXXZ 00685510 f   Shape.obj
 0002:0018e570       ?SelectAdhesive@CShape@@QAEXH@Z 00685570 f   Shape.obj
 0002:0018e600       ?StartDraggingAdhesive@CShape@@QAEXPAVCDC@@H@Z 00685600 f   Shape.obj
 0002:0018e710       ?CancelDraggingAdhesive@CShape@@QAEXH@Z 00685710 f   Shape.obj
 0002:0018e790       ?SelectCentroid@CShape@@QAEXXZ 00685790 f   Shape.obj
 0002:0018e820       ?StartDraggingCentroid@CShape@@QAEXPAVCDC@@@Z 00685820 f   Shape.obj
 0002:0018eb60       ?CancelDraggingCentroid@CShape@@QAEXXZ 00685b60 f   Shape.obj
 0002:0018ebd0       ?SelectRef@CShape@@QAEXXZ  00685bd0 f   Shape.obj
 0002:0018ec50       ?StartDraggingRef@CShape@@QAEXPAVCDC@@@Z 00685c50 f   Shape.obj
 0002:0018edd0       ?CancelDraggingRef@CShape@@QAEXXZ 00685dd0 f   Shape.obj
 0002:0018ee80       ?SelectValue@CShape@@QAEXXZ 00685e80 f   Shape.obj
 0002:0018ef00       ?StartDraggingValue@CShape@@QAEXPAVCDC@@@Z 00685f00 f   Shape.obj
 0002:0018f090       ?CancelDraggingValue@CShape@@QAEXXZ 00686090 f   Shape.obj
 0002:0018f140       ?ShiftToInsertPadName@CShape@@QAEXPAV?$CStringT@DV?$StrTraitMFC_DLL@DV?$ChTraitsCRT@D@ATL@@@@@ATL@@H@Z 00686140 f   Shape.obj
 0002:0018f490       ?GenerateSelectionRectangle@CShape@@QAEHPAUtagRECT@@@Z 00686490 f   Shape.obj
 0002:0018f540       ?GetHoleFlag@CShape@@QAEHXZ 00686540 f   Shape.obj
 0002:0018f5e0       ??0?$CArray@Vpadstack@@ABV1@@@QAE@XZ 006865e0 f i Shape.obj
 0002:0018f670       ?RemoveAll@?$CArray@Vpadstack@@ABV1@@@QAEXXZ 00686670 f i Shape.obj
 0002:0018f6d0       ??0?$CArray@Uglue@@ABU1@@@QAE@XZ 006866d0 f i Shape.obj
 0002:0018f760       ??$strcpy@$0BE@@@YAPADAAY0BE@DPBD@Z 00686760 f i Shape.obj
 0002:0018f7d0       ??1?$CArray@Vpadstack@@ABV1@@@UAE@XZ 006867d0 f i Shape.obj
 0002:0018f900       ?Serialize@?$CArray@Vpadstack@@ABV1@@@UAEXAAVCArchive@@@Z 00686900 f i Shape.obj
 0002:0018f9d0       ?Dump@?$CArray@Vpadstack@@ABV1@@@UBEXAAVCDumpContext@@@Z 006869d0 f i Shape.obj
 0002:0018fab0       ?AssertValid@?$CArray@Vpadstack@@ABV1@@@UBEXXZ 00686ab0 f i Shape.obj
 0002:0018fc10       ??1?$CArray@Uglue@@ABU1@@@UAE@XZ 00686c10 f i Shape.obj
 0002:0018fd20       ?Serialize@?$CArray@Uglue@@ABU1@@@UAEXAAVCArchive@@@Z 00686d20 f i Shape.obj
 0002:0018fdf0       ?Dump@?$CArray@Uglue@@ABU1@@@UBEXAAVCDumpContext@@@Z 00686df0 f i Shape.obj
 0002:0018fed0       ?AssertValid@?$CArray@Uglue@@ABU1@@@UBEXXZ 00686ed0 f i Shape.obj
 0002:00190030       ??_E?$CArray@Vpadstack@@ABV1@@@UAEPAXI@Z 00687030 f i Shape.obj
 0002:00190030       ??_G?$CArray@Vpadstack@@ABV1@@@UAEPAXI@Z 00687030 f i Shape.obj
 0002:001900a0       ??_G?$CArray@Uglue@@ABU1@@@UAEPAXI@Z 006870a0 f i Shape.obj
 0002:001900a0       ??_E?$CArray@Uglue@@ABU1@@@UAEPAXI@Z 006870a0 f i Shape.obj
 0002:00190110       ??$SerializeElements@Vpadstack@@@@YGXAAVCArchive@@PAVpadstack@@H@Z 00687110 f i Shape.obj
 0002:00190310       ??$DumpElements@Vpadstack@@@@YGXAAVCDumpContext@@PBVpadstack@@H@Z 00687310 f i Shape.obj
 0002:00190400       ??$SerializeElements@Uglue@@@@YGXAAVCArchive@@PAUglue@@H@Z 00687400 f i Shape.obj
 0002:001905f0       ??$DumpElements@Uglue@@@@YGXAAVCDumpContext@@PBUglue@@H@Z 006875f0 f i Shape.obj
 0002:001906e0       ??0SMCharacter@@QAE@XZ     006876e0 f   smcharacter.obj
 0002:00190730       ??0SMCharacter@@QAE@PAV0@@Z 00687730 f   smcharacter.obj
 0002:00190840       ??1SMCharacter@@QAE@XZ     00687840 f   smcharacter.obj
 0002:001908c0       ?Read@SMCharacter@@QAEXPAU_iobuf@@@Z 006878c0 f   smcharacter.obj
 0002:001909b0       ?Write@SMCharacter@@QAEXPAU_iobuf@@@Z 006879b0 f   smcharacter.obj
 0002:00190a50       ?ReadOldStyle@SMCharacter@@QAEHPAU_iobuf@@@Z 00687a50 f   smcharacter.obj
 0002:00190d00       ?GetFirstVertex@SMCharacter@@QAE?AW4CHARVERTEX_TYPE@1@AAUCharVertex@@AAH@Z 00687d00 f   smcharacter.obj
 0002:00190d90       ?GetNextVertex@SMCharacter@@QAE?AW4CHARVERTEX_TYPE@1@AAUCharVertex@@AAH@Z 00687d90 f   smcharacter.obj
 0002:00190e90       ??0SMFontUtil@@QAE@PAV?$CStringT@DV?$StrTraitMFC_DLL@DV?$ChTraitsCRT@D@ATL@@@@@ATL@@@Z 00687e90 f   smfontutil.obj
 0002:00191010       ??0?$CTypedPtrArray@VCPtrArray@@PAVSMCharacter@@@@QAE@XZ 00688010 f i smfontutil.obj
 0002:00191070       ??1?$CTypedPtrArray@VCPtrArray@@PAVSMCharacter@@@@UAE@XZ 00688070 f i smfontutil.obj
 0002:001910c0       ??_G?$CTypedPtrArray@VCPtrArray@@PAVSMCharacter@@@@UAEPAXI@Z 006880c0 f i smfontutil.obj
 0002:001910c0       ??_E?$CTypedPtrArray@VCPtrArray@@PAVSMCharacter@@@@UAEPAXI@Z 006880c0 f i smfontutil.obj
 0002:00191130       ??1SMFontUtil@@QAE@XZ      00688130 f   smfontutil.obj
 0002:00191270       ??_GSMCharacter@@QAEPAXI@Z 00688270 f i smfontutil.obj
 0002:001912e0       ?LoadFontData@SMFontUtil@@IAEHXZ 006882e0 f   smfontutil.obj
 0002:00191630       ?LoadXlationData@SMFontUtil@@IAEHXZ 00688630 f   smfontutil.obj
 0002:001919d0       ?SaveXlationData@SMFontUtil@@IAEXXZ 006889d0 f   smfontutil.obj
 0002:00191bb0       ?SaveFontData@SMFontUtil@@IAEXXZ 00688bb0 f   smfontutil.obj
 0002:00191d00       ?LoadOldStyleXlation@SMFontUtil@@IAEXXZ 00688d00 f   smfontutil.obj
 0002:00192110       ?LoadOldStyleFile@SMFontUtil@@IAEXXZ 00689110 f   smfontutil.obj
 0002:00192460       ?GetCharID@SMFontUtil@@QAEHEW4FONT_TYPE@@@Z 00689460 f   smfontutil.obj
 0002:001924e0       ?DrawString@SMFontUtil@@QAEXPAVCDC@@VCPoint@@NNNW4FONT_TYPE@@V?$CStringT@DV?$StrTraitMFC_DLL@DV?$ChTraitsCRT@D@ATL@@@@@ATL@@@Z 006894e0 f   smfontutil.obj
 0002:00192900       ?GetCharStrokes@SMFontUtil@@QAEHDW4FONT_TYPE@@PAN111QAY03NH@Z 00689900 f   smfontutil.obj
 0002:00192ca0       ?GetCharacter@SMFontUtil@@QAEPAVSMCharacter@@H@Z 00689ca0 f i smfontutil.obj
 0002:00192d00       ?Add@?$CTypedPtrArray@VCPtrArray@@PAVSMCharacter@@@@QAEHPAVSMCharacter@@@Z 00689d00 f i smfontutil.obj
 0002:00192d60       ??A?$CTypedPtrArray@VCPtrArray@@PAVSMCharacter@@@@QAEAAPAVSMCharacter@@H@Z 00689d60 f i smfontutil.obj
 0002:00192dc0       ?_AfxInitManaged@@YAHXZ    00689dc0 f i StdAfx.obj
 0002:00192df0       ??_Estringdispid@CComTypeInfoHolder@ATL@@QAEPAXI@Z 00689df0 f i StdAfx.obj
 0002:00192eb0       ??1stringdispid@CComTypeInfoHolder@ATL@@QAE@XZ 00689eb0 f i StdAfx.obj
 0002:00192f00       ??1CComBSTR@ATL@@QAE@XZ    00689f00 f i StdAfx.obj
 0002:00192f60       ??0Thank_you@Define_the_symbol__ATL_MIXED@@QAE@XZ 00689f60 f i StdAfx.obj
 0002:00192fb0       ?one@Thank_you@Define_the_symbol__ATL_MIXED@@UAEXXZ 00689fb0 f i StdAfx.obj
 0002:00192ff0       ??0CText@@QAE@PAVCDisplayList@@HHHHHHHHPAVSMFontUtil@@PAV?$CStringT@DV?$StrTraitMFC_DLL@DV?$ChTraitsCRT@D@ATL@@@@@ATL@@@Z 00689ff0 f   TextList.obj
 0002:001931d0       ??1CText@@QAE@XZ           0068a1d0 f   TextList.obj
 0002:00193280       ?Draw@CText@@QAEXPAVCDisplayList@@PAVSMFontUtil@@PAV?$CArray@VCPoint@@ABV1@@@@Z 0068a280 f   TextList.obj
 0002:00193c60       ?Undraw@CText@@QAEXXZ      0068ac60 f   TextList.obj
 0002:00193d20       ??0CTextList@@QAE@XZ       0068ad20 f   TextList.obj
 0002:00193d90       ??0CTextList@@QAE@PAVCDisplayList@@PAVSMFontUtil@@@Z 0068ad90 f   TextList.obj
 0002:00193e00       ??1CTextList@@QAE@XZ       0068ae00 f   TextList.obj
 0002:00193f30       ??_GCText@@QAEPAXI@Z       0068af30 f i TextList.obj
 0002:00193fa0       ?AddText@CTextList@@QAEPAVCText@@HHHHHHHHPAV?$CStringT@DV?$StrTraitMFC_DLL@DV?$ChTraitsCRT@D@ATL@@@@@ATL@@H@Z 0068afa0 f   TextList.obj
 0002:00194220       ?GetSelCount@CTextList@@QAEHXZ 0068b220 f   TextList.obj
 0002:001942d0       ?RemoveText@CTextList@@QAEHPAVCText@@@Z 0068b2d0 f   TextList.obj
 0002:00194410       ?RemoveAllTexts@CTextList@@QAEXXZ 0068b410 f   TextList.obj
 0002:001944b0       ?HighlightText@CTextList@@QAEXPAVCText@@H@Z 0068b4b0 f   TextList.obj
 0002:001945a0       ?StartDraggingText@CTextList@@QAEXPAVCDC@@PAVCText@@@Z 0068b5a0 f   TextList.obj
 0002:00194720       ?CancelDraggingText@CTextList@@QAEXPAVCText@@@Z 0068b720 f   TextList.obj
 0002:00194790       ?MoveText@CTextList@@QAEXPAVCText@@HHHHHH@Z 0068b790 f   TextList.obj
 0002:00194860       ?WriteTexts@CTextList@@QAEHPAVCStdioFile@@@Z 0068b860 f   TextList.obj
 0002:00194ed0       ?ReadTexts@CTextList@@QAEXPAVCStdioFile@@N@Z 0068bed0 f   TextList.obj
 0002:001958d0       ?CreateUndoRecord@CTextList@@QAEPAUundo_text@@PAVCText@@@Z 0068c8d0 f   TextList.obj
 0002:00195a70       ?TextUndoCallback@CTextList@@SAXHPAXH@Z 0068ca70 f   TextList.obj
 0002:00195dc0       ??_Gundo_text@@QAEPAXI@Z   0068cdc0 f i TextList.obj
 0002:00195e30       ??1undo_text@@QAE@XZ       0068ce30 f i TextList.obj
 0002:00195e90       ?MoveOrigin@CTextList@@QAEXHH@Z 0068ce90 f   TextList.obj
 0002:00195f70       ?GetText@CTextList@@QAEPAVCText@@PAU_GUID@@@Z 0068cf70 f   TextList.obj
 0002:00196040       ?GetText@CTextList@@QAEPAVCText@@HH@Z 0068d040 f   TextList.obj
 0002:00196110       ?GetFirstText@CTextList@@QAEPAVCText@@XZ 0068d110 f   TextList.obj
 0002:00196190       ?GetNextText@CTextList@@QAEPAVCText@@PAH@Z 0068d190 f   TextList.obj
 0002:00196230       ?GetTextBoundaries@CTextList@@QAEHPAUtagRECT@@@Z 0068d230 f   TextList.obj
 0002:00196760       ?GetTextRectOnPCB@CTextList@@QAEHPAVCText@@PAUtagRECT@@@Z 0068d760 f   TextList.obj
 0002:00196860       ?ReassignCopperLayers@CTextList@@QAEXHPAH@Z 0068d860 f   TextList.obj
 0002:001969b0       ?GetAt@?$CArray@VCPoint@@ABV1@@@QAEAAVCPoint@@H@Z 0068d9b0 f i TextList.obj
 0002:00196a60       ?SetAt@?$CArray@VCPoint@@ABV1@@@QAEXHABVCPoint@@@Z 0068da60 f i TextList.obj
 0002:00196b20       ??0?$CArray@PAVCText@@ABQAV1@@@QAE@XZ 0068db20 f i TextList.obj
 0002:00196bb0       ?Add@?$CArray@PAVCText@@ABQAV1@@@QAEHABQAVCText@@@Z 0068dbb0 f i TextList.obj
 0002:00196c20       ?RemoveAt@?$CArray@PAVCText@@ABQAV1@@@QAEXHH@Z 0068dc20 f i TextList.obj
 0002:00196dd0       ?SetAtGrow@?$CArray@PAVCText@@ABQAV1@@@QAEXHABQAVCText@@@Z 0068ddd0 f i TextList.obj
 0002:00196ea0       ??1?$CArray@PAVCText@@ABQAV1@@@UAE@XZ 0068dea0 f i TextList.obj
 0002:00196fb0       ?Serialize@?$CArray@PAVCText@@ABQAV1@@@UAEXAAVCArchive@@@Z 0068dfb0 f i TextList.obj
 0002:00197080       ?Dump@?$CArray@PAVCText@@ABQAV1@@@UBEXAAVCDumpContext@@@Z 0068e080 f i TextList.obj
 0002:00197160       ?AssertValid@?$CArray@PAVCText@@ABQAV1@@@UBEXXZ 0068e160 f i TextList.obj
 0002:001972c0       ??_G?$CArray@PAVCText@@ABQAV1@@@UAEPAXI@Z 0068e2c0 f i TextList.obj
 0002:001972c0       ??_E?$CArray@PAVCText@@ABQAV1@@@UAEPAXI@Z 0068e2c0 f i TextList.obj
 0002:00197330       ?SetSize@?$CArray@PAVCText@@ABQAV1@@@QAEXHH@Z 0068e330 f i TextList.obj
 0002:001978c0       ??$SerializeElements@PAVCText@@@@YGXAAVCArchive@@PAPAVCText@@H@Z 0068e8c0 f i TextList.obj
 0002:00197ab0       ??$DumpElements@PAVCText@@@@YGXAAVCDumpContext@@PBQAVCText@@H@Z 0068eab0 f i TextList.obj
 0002:00197ba0       ??0CUndoList@@QAE@HH@Z     0068eba0 f   UndoList.obj
 0002:00197c50       ??1CUndoList@@QAE@XZ       0068ec50 f   UndoList.obj
 0002:00197ca0       ?Clear@CUndoList@@QAEXXZ   0068eca0 f   UndoList.obj
 0002:00197d00       ?DropFirstEvent@CUndoList@@QAEXXZ 0068ed00 f   UndoList.obj
 0002:00197e70       ?Push@CUndoList@@QAEXHPAXP6AXH0H@ZH@Z 0068ee70 f   UndoList.obj
 0002:00197f80       ?Pop@CUndoList@@QAEHXZ     0068ef80 f   UndoList.obj
 0002:00198130       ?NewEvent@CUndoList@@QAEXXZ 0068f130 f   UndoList.obj
 0002:001981d0       ?PCB_lay@@YAHH@Z           0068f1d0 f   utility.obj
 0002:00198280       ?FP_lay@@YAHH@Z            0068f280 f   utility.obj
 0002:00198330       ?Get_Side@@YAHH@Z          0068f330 f   utility.obj
 0002:001983b0       ?Get_fp_Side@@YAHH@Z       0068f3b0 f   utility.obj
 0002:00198430       ?GetInflectionPoint@@YA?AVCPoint@@V1@0H@Z 0068f430 f   utility.obj
 0002:00198710       ?getbit@@YAEHH@Z           0068f710 f   utility.obj
 0002:00198780       ?RotatePoint@@YAXPAVCPoint@@MV1@@Z 0068f780 f   utility.obj
 0002:001988b0       ?RotatePOINTS@@YAXPAVCPoint@@HMV1@@Z 0068f8b0 f   utility.obj
 0002:00198a20       ?Angle@@YAMVCPoint@@00@Z   0068fa20 f   utility.obj
 0002:00198b20       ?FindArcElements@@YAHPAVcconnect@@PAH@Z 0068fb20 f   utility.obj
 0002:00199070       ?FindArcElements@@YAHPAVCPolyLine@@PAH1@Z 00690070 f   utility.obj
 0002:00199630       ?Check_45@@YAHVCPoint@@0@Z 00690630 f   utility.obj
 0002:00199730       ?Check_90@@YAHVCPoint@@0@Z 00690730 f   utility.obj
 0002:00199830       ?Check_45@@YAHVCPoint@@00@Z 00690830 f   utility.obj
 0002:00199860       ?Check_90@@YAHVCPoint@@00@Z 00690860 f   utility.obj
 0002:00199890       ?Angle@@YAMMMMMH@Z         00690890 f   utility.obj
 0002:00199a20       ?Rotate_i_Vertex@@YAXPAH0HHH@Z 00690a20 f   utility.obj
 0002:00199b30       ?Rotate_Vertex@@YAXPAM0M@Z 00690b30 f   utility.obj
 0002:00199d70       ?atan@@YAMM@Z              00690d70 f i utility.obj
 0002:00199dd0       _atanf                     00690dd0 f i utility.obj
 0002:00199e40       ?Colinear@@YAHHHHHHH@Z     00690e40 f   utility.obj
 0002:0019a150       ?AlignPoints@@YA?AVCPoint@@V1@00HM@Z 00691150 f   utility.obj
 0002:0019ae30       ?sqrt@@YAMM@Z              00691e30 f i utility.obj
 0002:0019ae90       _sqrtf                     00691e90 f i utility.obj
 0002:0019af00       ?TripplePointArc@@YAHHHHHHHPAVCPoint@@H@Z 00691f00 f   utility.obj
 0002:0019b130       ?Gen_HollowLinePoly@@YAHHHHHHPAVCPoint@@H@Z 00692130 f   utility.obj
 0002:0019b4b0       ?cos@@YAMM@Z               006924b0 f i utility.obj
 0002:0019b510       _cosf                      00692510 f i utility.obj
 0002:0019b580       ?sin@@YAMM@Z               00692580 f i utility.obj
 0002:0019b5e0       _sinf                      006925e0 f i utility.obj
 0002:0019b650       ?Gen_RndRectPoly@@YAHHHHHMMPAVCPoint@@H@Z 00692650 f   utility.obj
 0002:0019bd40       ?Generate_Arc@@YAHHHHHHPAVCPoint@@H@Z 00692d40 f   utility.obj
 0002:0019c250       ?Rnd_Func@@YAHMMMMMMMMPAMH@Z 00693250 f   utility.obj
 0002:0019cc30       ?MirrorRect@@YAXPAUtagRECT@@VCPoint@@@Z 00693c30 f   utility.obj
 0002:0019ccc0       ?RotateRect@@YAXPAH000HHH@Z 00693cc0 f   utility.obj
 0002:0019cde0       ?RotateRect@@YAXPAUtagRECT@@HVCPoint@@@Z 00693de0 f   utility.obj
 0002:0019d130       ?RectsIntersection@@YAHUtagRECT@@0@Z 00694130 f   utility.obj
 0002:0019d240       ?SwellRect@@YAXPAUtagRECT@@H@Z 00694240 f   utility.obj
 0002:0019d2c0       ?SwellRect@@YAXPAUtagRECT@@U1@@Z 006942c0 f   utility.obj
 0002:0019d410       ?SwellRect@@YAXPAUtagRECT@@VCPoint@@@Z 00694410 f   utility.obj
 0002:0019d520       ?SwellRect@@YAXPAUtagRECT@@HH@Z 00694520 f   utility.obj
 0002:0019d630       ?MoveRect@@YAXPAUtagRECT@@HH@Z 00694630 f   utility.obj
 0002:0019d6b0       ?rect@@YA?AUtagRECT@@HHHH@Z 006946b0 f   utility.obj
 0002:0019d810       ?SwellPolygon@@YAHPAVCPoint@@H0H@Z 00694810 f   utility.obj
 0002:0019e350       ?TestPolygon@@YAHHHPAVCPoint@@H@Z 00695350 f   utility.obj
 0002:0019e5a0       ?TestLineHit@@YAHHHHHHHN@Z 006955a0 f   utility.obj
 0002:0019e8e0       ?ReadFontFile@@YAHPAD@Z    006958e0 f   utility.obj
 0002:0019e910       ?mystrtok@@YAPADPBD0@Z     00695910 f   utility.obj
 0002:0019eaa0       ?GetDimensionFromString@@YANPAV?$CStringT@DV?$StrTraitMFC_DLL@DV?$ChTraitsCRT@D@ATL@@@@@ATL@@HH@Z 00695aa0 f   utility.obj
 0002:0019edc0       ?MakeCStringFromDimension@@YAXPAV?$CStringT@DV?$StrTraitMFC_DLL@DV?$ChTraitsCRT@D@ATL@@@@@ATL@@HHHHHHH@Z 00695dc0 f   utility.obj
 0002:0019f660       ?MakeCStringFromDouble@@YAXPAV?$CStringT@DV?$StrTraitMFC_DLL@DV?$ChTraitsCRT@D@ATL@@@@@ATL@@N@Z 00696660 f   utility.obj
 0002:0019f960       ?ParseRef@@YAHPAV?$CStringT@DV?$StrTraitMFC_DLL@DV?$ChTraitsCRT@D@ATL@@@@@ATL@@0@Z 00696960 f   utility.obj
 0002:0019fbc0       ?CheckLegalPinName@@YAHPAV?$CStringT@DV?$StrTraitMFC_DLL@DV?$ChTraitsCRT@D@ATL@@@@@ATL@@00PAH@Z 00696bc0 f   utility.obj
 0002:001a0280       ?FindLineIntersection@@YAHNNNNPAN0@Z 00697280 f   utility.obj
 0002:001a02e0       ?FindLineIntersection@@YAHNNNNNNNNPAN0@Z 006972e0 f   utility.obj
 0002:001a0450       ?MakeEllipseFromArc@@YAHHHHHHPAUEllipseTag@@@Z 00697450 f   utility.obj
 0002:001a0660       ?FindSegmentIntersections@@YAHHHHHHHHHHHQAN0@Z 00697660 f   utility.obj
 0002:001a1230       ?FindLineSegmentIntersection@@YAHNNHHHHHPAN0000@Z 00698230 f   utility.obj
 0002:001a2040       ?TestForIntersectionOfStraightLineSegments@@YAHHHHHHHHHPAH0PAN@Z 00699040 f   utility.obj
 0002:001a2df0       ?DunselFunction@@YAXXZ     00699df0 f   utility.obj
 0002:001a2e20       ?CalibrateTimer@@YAXXZ     00699e20 f   utility.obj
 0002:001a2f10       ?StartTimer@@YAXXZ         00699f10 f   utility.obj
 0002:001a2f90       ?GetElapsedTime@@YANXZ     00699f90 f   utility.obj
 0002:001a31a0       _Int64ShrlMod32@12         0069a1a0 f i utility.obj
 0002:001a3200       ?quickSort@@YAXQAH0H@Z     0069a200 f   utility.obj
 0002:001a3260       ?q_sort@@YAXQAH0HH@Z       0069a260 f   utility.obj
 0002:001a3450       ?q_sort_3way@@YAXQAH0HH@Z  0069a450 f   utility.obj
 0002:001a38d0       ?ccw@@YAHH@Z               0069a8d0 f   utility.obj
 0002:001a3920       ?t_octant@@YA?AVCPoint@@HAAV1@@Z 0069a920 f   utility.obj
 0002:001a3bf0       ?Quadratic@@YAHNNNPAN0@Z   0069abf0 f   utility.obj
 0002:001a3cc0       ?FindVerticalLineEllipseIntersections@@YAHNNNPAN0@Z 0069acc0 f   utility.obj
 0002:001a3d70       ?FindLineEllipseIntersections@@YAHNNNNPAN0@Z 0069ad70 f   utility.obj
 0002:001a3e30       ?DrawArc@@YAXPAVCDC@@HHHHHH@Z 0069ae30 f   utility.obj
 0002:001a4290       ?DrawCurve@@YAXPAVCDC@@HHHHHH@Z 0069b290 f   utility.obj
 0002:001a4f90       ?GetPadElements@@YAXHHHHHHHPAHQAVmy_rect@@0QAVmy_circle@@0QAVmy_seg@@@Z 0069bf90 f   utility.obj
 0002:001a6520       ?GetClearanceBetweenSegmentAndPad@@YAHHHHHHHHHHHHH@Z 0069d520 f   utility.obj
 0002:001a6a40       ?GetClearanceBetweenSegments@@YAHHHHHHHHHHHHHHPAH0@Z 0069da40 f   utility.obj
 0002:001a79d0       ?GetClearanceBetweenPads@@YAHHHHHHHHHHHHHHH@Z 0069e9d0 f   utility.obj
 0002:001a8790       ?GetPointToLineDistance@@YANNNHHPAN0@Z 0069f790 f   utility.obj
 0002:001a88c0       ?GetPointToLineSegmentDistance@@YANHHHHHH@Z 0069f8c0 f   utility.obj
 0002:001a8d30       ?InRange@@YAHNNN@Z         0069fd30 f   utility.obj
 0002:001a8dd0       ?Distance@@YANHHHHH@Z      0069fdd0 f   utility.obj
 0002:001a90a0       ?GetArcIntersections@@YAHPAUEllipseTag@@0PAN111@Z 006a00a0 f   utility.obj
 0002:001a9710       ?GetArcClearance@@YANPAUEllipseTag@@0PAN1@Z 006a0710 f   utility.obj
 0002:001a9f50       ?SetGuidFromString@@YAXPAV?$CStringT@DV?$StrTraitMFC_DLL@DV?$ChTraitsCRT@D@ATL@@@@@ATL@@PAU_GUID@@@Z 006a0f50 f   utility.obj
 0002:001aa030       ?GetStringFromGuid@@YAXPAU_GUID@@PAV?$CStringT@DV?$StrTraitMFC_DLL@DV?$ChTraitsCRT@D@ATL@@@@@ATL@@@Z 006a1030 f   utility.obj
 0002:001aa110       ?SplitString@@YAHPAV?$CStringT@DV?$StrTraitMFC_DLL@DV?$ChTraitsCRT@D@ATL@@@@@ATL@@00DH@Z 006a1110 f   utility.obj
 0002:001aa440       ?GetReportedAngleForPart@@YAHHHH@Z 006a1440 f   utility.obj
 0002:001aa4d0       ?GetPartAngleForReportedAngle@@YAHHHH@Z 006a14d0 f   utility.obj
 0002:001aa560       ?sign@@YAHH@Z              006a1560 f   utility.obj
 0002:001aa5b0       ??$strcpy@$0BAA@@@YAPADAAY0BAA@DPBD@Z 006a15b0 f i utility.obj
 0002:001aa620       ??$strcpy@PAD@@YAPADABQADPBD@Z 006a1620 f i utility.obj
 0002:001aa680       ??0my_circle@@QAE@XZ       006a1680 f i utility.obj
 0002:001aa6c0       ??0my_circle@@QAE@HHH@Z    006a16c0 f i utility.obj
 0002:001aa720       ??0my_rect@@QAE@XZ         006a1720 f i utility.obj
 0002:001aa760       ??0my_rect@@QAE@HHHH@Z     006a1760 f i utility.obj
 0002:001aa870       ??0my_seg@@QAE@XZ          006a1870 f i utility.obj
 0002:001aa8b0       ??0my_seg@@QAE@HHHH@Z      006a18b0 f i utility.obj
 0002:001aa916       _UuidCreate@4              006a1916 f   rpcrt4:RPCRT4.dll
 0002:001aa91c       _UuidFromStringA@8         006a191c f   rpcrt4:RPCRT4.dll
 0002:001aa922       _UuidToStringA@8           006a1922 f   rpcrt4:RPCRT4.dll
 0002:001aa930       _cpdf_createPlotDomain     006a1930 f   clibpdf:cpdfDomain.obj
 0002:001aabd0       _cpdf_createTimePlotDomain 006a1bd0 f   clibpdf:cpdfDomain.obj
 0002:001aae80       _cpdf_freePlotDomain       006a1e80 f   clibpdf:cpdfDomain.obj
 0002:001aaef0       _cpdf_fillDomainWithGray   006a1ef0 f   clibpdf:cpdfDomain.obj
 0002:001aafb0       _cpdf_fillDomainWithRGBcolor 006a1fb0 f   clibpdf:cpdfDomain.obj
 0002:001ab080       _cpdf_clipDomain           006a2080 f   clibpdf:cpdfDomain.obj
 0002:001ab130       _cpdf_setPlotDomain        006a2130 f   clibpdf:cpdfDomain.obj
 0002:001ab2b0       _cpdf_setMeshColor         006a22b0 f   clibpdf:cpdfDomain.obj
 0002:001ab340       _cpdf_drawMeshForDomain    006a2340 f   clibpdf:cpdfDomain.obj
 0002:001ab3e0       __do_meshLines_X           006a23e0 f   clibpdf:cpdfDomain.obj
 0002:001abdb0       __do_meshLines_Y           006a2db0 f   clibpdf:cpdfDomain.obj
 0002:001ac2e0       _cpdf_setLinearMeshParams  006a32e0 f   clibpdf:cpdfDomain.obj
 0002:001ac390       _x_Domain2Points           006a3390 f   clibpdf:cpdfDomain.obj
 0002:001ac4f0       _y_Domain2Points           006a34f0 f   clibpdf:cpdfDomain.obj
 0002:001ac650       _y_Points2Domain           006a3650 f   clibpdf:cpdfDomain.obj
 0002:001ac7a0       _x_Points2Domain           006a37a0 f   clibpdf:cpdfDomain.obj
 0002:001ac8f0       _my_init_debug             006a38f0 f   clibpdf:cpdfInit.obj
 0002:001ac940       _cpdf_setGlobalDocumentLimits 006a3940 f   clibpdf:cpdfInit.obj
 0002:001ac9d0       _cpdf_open                 006a39d0 f   clibpdf:cpdfInit.obj
 0002:001acf80       _cpdf_enableCompression    006a3f80 f   clibpdf:cpdfInit.obj
 0002:001ad060       _cpdf_setCompressionFilter 006a4060 f   clibpdf:cpdfInit.obj
 0002:001ad1e0       _cpdf_init                 006a41e0 f   clibpdf:cpdfInit.obj
 0002:001ad3e0       _cpdf_pageInit             006a43e0 f   clibpdf:cpdfInit.obj
 0002:001ada50       _cpdf_setPageDuration      006a4a50 f   clibpdf:cpdfInit.obj
 0002:001adab0       _cpdf_setPageTransition    006a4ab0 f   clibpdf:cpdfInit.obj
 0002:001ade70       _cpdf_setCurrentPage       006a4e70 f   clibpdf:cpdfInit.obj
 0002:001ae050       _cpdf_finalizePage         006a5050 f   clibpdf:cpdfInit.obj
 0002:001ae160       _cpdf_savePDFmemoryStreamToFile 006a5160 f   clibpdf:cpdfInit.obj
 0002:001ae230       _cpdf_getBufferForPDF      006a5230 f   clibpdf:cpdfInit.obj
 0002:001ae320       __cpdf_pdfWrite            006a5320 f   clibpdf:cpdfInit.obj
 0002:001ae3f0       __cpdf_pdfBinaryWrite      006a53f0 f   clibpdf:cpdfInit.obj
 0002:001ae4b0       _cpdf_close                006a54b0 f   clibpdf:cpdfInit.obj
 0002:001ae7f0       _cpdf_finalizeAll          006a57f0 f   clibpdf:cpdfInit.obj
 0002:001af240       _cpdf_setPageSize          006a6240 f   clibpdf:cpdfInit.obj
 0002:001af420       _cpdf_setBoundingBox       006a6420 f   clibpdf:cpdfInit.obj
 0002:001af4b0       _cpdf_setMediaBox          006a64b0 f   clibpdf:cpdfInit.obj
 0002:001af590       _cpdf_setCropBox           006a6590 f   clibpdf:cpdfInit.obj
 0002:001af670       _cpdf_setCurrentMemoryStream 006a6670 f   clibpdf:cpdfInit.obj
 0002:001af6c0       _getFileSize               006a66c0 f   clibpdf:cpdfInit.obj
 0002:001af7a0       _cpdf_setViewerPreferences 006a67a0 f   clibpdf:cpdfInit.obj
 0002:001af870       __cpdf_closeContentMemStreamForPage 006a6870 f   clibpdf:cpdfInit.obj
 0002:001afb00       __cpdf_freeAllPageInfos    006a6b00 f   clibpdf:cpdfInit.obj
 0002:001afdd0       __cpdf_file_open           006a6dd0 f   clibpdf:cpdfInit.obj
 0002:001b0030       __cpdf_file_close          006a7030 f   clibpdf:cpdfInit.obj
 0002:001b00b0       __cpdf_WriteCatalogObject  006a70b0 f   clibpdf:cpdfInit.obj
 0002:001b0700       __cpdf_WriteOutlinesObject 006a7700 f   clibpdf:cpdfInit.obj
 0002:001b09d0       __cpdf_WritePagesObject    006a79d0 f   clibpdf:cpdfInit.obj
 0002:001b0ca0       __cpdf_WritePageObject     006a7ca0 f   clibpdf:cpdfInit.obj
 0002:001b14c0       __cpdf_WriteContentsFromFile 006a84c0 f   clibpdf:cpdfInit.obj
 0002:001b19d0       __cpdf_WriteContentsFromMemory 006a89d0 f   clibpdf:cpdfInit.obj
 0002:001b1db0       __cpdf_WriteProcSetArray   006a8db0 f   clibpdf:cpdfInit.obj
 0002:001b2090       __cpdf_WriteFont           006a9090 f   clibpdf:cpdfInit.obj
 0002:001b2700       __cpdf_WriteFontDescriptor 006a9700 f   clibpdf:cpdfInit.obj
 0002:001b2dd0       __cpdf_WriteDescendantFont 006a9dd0 f   clibpdf:cpdfInit.obj
 0002:001b3160       __cpdf_WriteFontData       006aa160 f   clibpdf:cpdfInit.obj
 0002:001b3530       __cpdf_WriteImage          006aa530 f   clibpdf:cpdfInit.obj
 0002:001b3ca0       __cpdf_WriteAnnotation     006aaca0 f   clibpdf:cpdfInit.obj
 0002:001b43a0       __cpdf_WriteProducerDate   006ab3a0 f   clibpdf:cpdfInit.obj
 0002:001b4790       __cpdf_WriteXrefTrailer    006ab790 f   clibpdf:cpdfInit.obj
 0002:001b4bc0       __cpdf_initDocumentStruct  006abbc0 f   clibpdf:cpdfInit.obj
 0002:001b5030       _cpdf_moveto               006ac030 f   clibpdf:cpdfDomPlot.obj
 0002:001b50b0       _cpdf_lineto               006ac0b0 f   clibpdf:cpdfDomPlot.obj
 0002:001b5130       _cpdf_rmoveto              006ac130 f   clibpdf:cpdfDomPlot.obj
 0002:001b51b0       _cpdf_rlineto              006ac1b0 f   clibpdf:cpdfDomPlot.obj
 0002:001b5230       _cpdf_curveto              006ac230 f   clibpdf:cpdfDomPlot.obj
 0002:001b5310       _cpdf_quickCircle          006ac310 f   clibpdf:cpdfDomPlot.obj
 0002:001b53e0       _cpdf_rect                 006ac3e0 f   clibpdf:cpdfDomPlot.obj
 0002:001b54f0       _cpdf_rectRotated          006ac4f0 f   clibpdf:cpdfDomPlot.obj
 0002:001b5600       _cpdf_circle               006ac600 f   clibpdf:cpdfArc.obj
 0002:001b56d0       _cpdf_arc                  006ac6d0 f   clibpdf:cpdfArc.obj
 0002:001b57b0       _cpdf_rawCircle            006ac7b0 f   clibpdf:cpdfArc.obj
 0002:001b5990       _cpdf_rawArc               006ac990 f   clibpdf:cpdfArc.obj
 0002:001b5b60       __cpdf_arc_small           006acb60 f   clibpdf:cpdfArc.obj
 0002:001b5ed0       _rotate_xyCoordinate       006aced0 f   clibpdf:cpdfArc.obj
 0002:001b5f90       _cpdf_rawMoveto            006acf90 f   clibpdf:cpdfRawPlot.obj
 0002:001b60c0       _cpdf_rawRmoveto           006ad0c0 f   clibpdf:cpdfRawPlot.obj
 0002:001b6220       _cpdf_rawLineto            006ad220 f   clibpdf:cpdfRawPlot.obj
 0002:001b6350       _cpdf_rawRlineto           006ad350 f   clibpdf:cpdfRawPlot.obj
 0002:001b64b0       _cpdf_rawCurveto           006ad4b0 f   clibpdf:cpdfRawPlot.obj
 0002:001b6640       _cpdf_rawQuickCircle       006ad640 f   clibpdf:cpdfRawPlot.obj
 0002:001b6790       _cpdf_rawRect              006ad790 f   clibpdf:cpdfRawPlot.obj
 0002:001b68f0       _cpdf_rawRectRotated       006ad8f0 f   clibpdf:cpdfRawPlot.obj
 0002:001b6a80       _cpdf_closepath            006ada80 f   clibpdf:cpdfRawPlot.obj
 0002:001b6b20       _cpdf_stroke               006adb20 f   clibpdf:cpdfRawPlot.obj
 0002:001b6bc0       _cpdf_fill                 006adbc0 f   clibpdf:cpdfRawPlot.obj
 0002:001b6c60       _cpdf_eofill               006adc60 f   clibpdf:cpdfRawPlot.obj
 0002:001b6d00       _cpdf_fillAndStroke        006add00 f   clibpdf:cpdfRawPlot.obj
 0002:001b6da0       _cpdf_eofillAndStroke      006adda0 f   clibpdf:cpdfRawPlot.obj
 0002:001b6e40       _cpdf_clip                 006ade40 f   clibpdf:cpdfRawPlot.obj
 0002:001b6ee0       _cpdf_eoclip               006adee0 f   clibpdf:cpdfRawPlot.obj
 0002:001b6f80       _cpdf_newpath              006adf80 f   clibpdf:cpdfRawPlot.obj
 0002:001b7020       _cpdf_setgray              006ae020 f   clibpdf:cpdfColor.obj
 0002:001b7090       _cpdf_setrgbcolor          006ae090 f   clibpdf:cpdfColor.obj
 0002:001b7110       _cpdf_setcmykcolor         006ae110 f   clibpdf:cpdfColor.obj
 0002:001b71a0       _cpdf_setgrayFill          006ae1a0 f   clibpdf:cpdfColor.obj
 0002:001b72a0       _cpdf_setgrayStroke        006ae2a0 f   clibpdf:cpdfColor.obj
 0002:001b73a0       _cpdf_setrgbcolorFill      006ae3a0 f   clibpdf:cpdfColor.obj
 0002:001b74c0       _cpdf_setrgbcolorStroke    006ae4c0 f   clibpdf:cpdfColor.obj
 0002:001b75e0       _cpdf_setcmykcolorFill     006ae5e0 f   clibpdf:cpdfColor.obj
 0002:001b7720       _cpdf_setcmykcolorStroke   006ae720 f   clibpdf:cpdfColor.obj
 0002:001b7860       _cpdf_gsave                006ae860 f   clibpdf:cpdfGstate.obj
 0002:001b7900       _cpdf_grestore             006ae900 f   clibpdf:cpdfGstate.obj
 0002:001b79a0       _cpdf_setdash              006ae9a0 f   clibpdf:cpdfGstate.obj
 0002:001b7a90       _cpdf_nodash               006aea90 f   clibpdf:cpdfGstate.obj
 0002:001b7af0       _cpdf_setstrokeadjust      006aeaf0 f   clibpdf:cpdfGstate.obj
 0002:001b7b20       _cpdf_concat               006aeb20 f   clibpdf:cpdfGstate.obj
 0002:001b7bc0       _cpdf_rawConcat            006aebc0 f   clibpdf:cpdfGstate.obj
 0002:001b7d30       _cpdf_rotate               006aed30 f   clibpdf:cpdfGstate.obj
 0002:001b7de0       _cpdf_translate            006aede0 f   clibpdf:cpdfGstate.obj
 0002:001b7e60       _cpdf_rawTranslate         006aee60 f   clibpdf:cpdfGstate.obj
 0002:001b7ed0       _cpdf_scale                006aeed0 f   clibpdf:cpdfGstate.obj
 0002:001b7f40       _cpdf_setflat              006aef40 f   clibpdf:cpdfGstate.obj
 0002:001b8030       _cpdf_setlinejoin          006af030 f   clibpdf:cpdfGstate.obj
 0002:001b8120       _cpdf_setlinecap           006af120 f   clibpdf:cpdfGstate.obj
 0002:001b8210       _cpdf_setmiterlimit        006af210 f   clibpdf:cpdfGstate.obj
 0002:001b8310       _cpdf_setlinewidth         006af310 f   clibpdf:cpdfGstate.obj
 0002:001b8410       __cpdf_resetTextCTM        006af410 f   clibpdf:cpdfText.obj
 0002:001b84a0       _cpdf_beginText            006af4a0 f   clibpdf:cpdfText.obj
 0002:001b8660       _cpdf_endText              006af660 f   clibpdf:cpdfText.obj
 0002:001b8810       _cpdf_text                 006af810 f   clibpdf:cpdfText.obj
 0002:001b88b0       _cpdf_rawText              006af8b0 f   clibpdf:cpdfText.obj
 0002:001b89a0       _cpdf_textAligned          006af9a0 f   clibpdf:cpdfText.obj
 0002:001b8a30       _cpdf_rawTextAligned       006afa30 f   clibpdf:cpdfText.obj
 0002:001b8c40       _cpdf_setWordSpacing       006afc40 f   clibpdf:cpdfText.obj
 0002:001b8d40       _cpdf_setCharacterSpacing  006afd40 f   clibpdf:cpdfText.obj
 0002:001b8e40       _cpdf_setHorizontalScaling 006afe40 f   clibpdf:cpdfText.obj
 0002:001b8f40       _cpdf_setTextLeading       006aff40 f   clibpdf:cpdfText.obj
 0002:001b9040       _cpdf_setTextMatrix        006b0040 f   clibpdf:cpdfText.obj
 0002:001b9200       _cpdf_concatTextMatrix     006b0200 f   clibpdf:cpdfText.obj
 0002:001b9320       _cpdf_rotateText           006b0320 f   clibpdf:cpdfText.obj
 0002:001b9410       _cpdf_skewText             006b0410 f   clibpdf:cpdfText.obj
 0002:001b94f0       _cpdf_setTextPosition      006b04f0 f   clibpdf:cpdfText.obj
 0002:001b9570       _cpdf_rawSetTextPosition   006b0570 f   clibpdf:cpdfText.obj
 0002:001b9740       _cpdf_setTextRenderingMode 006b0740 f   clibpdf:cpdfText.obj
 0002:001b9830       _cpdf_setTextRise          006b0830 f   clibpdf:cpdfText.obj
 0002:001b9930       _cpdf_rawSetNextTextLineOffset 006b0930 f   clibpdf:cpdfText.obj
 0002:001b9a40       _cpdf_setNextTextLineOffset 006b0a40 f   clibpdf:cpdfText.obj
 0002:001b9ac0       _cpdf_textCRLF             006b0ac0 f   clibpdf:cpdfText.obj
 0002:001b9b60       _cpdf_textShow             006b0b60 f   clibpdf:cpdfText.obj
 0002:001b9e80       _cpdf_textCRLFshow         006b0e80 f   clibpdf:cpdfText.obj
 0002:001ba190       _cpdf_escapeSpecialChars   006b1190 f   clibpdf:cpdfText.obj
 0002:001ba3a0       _cpdf_escapeSpecialCharsBinary 006b13a0 f   clibpdf:cpdfText.obj
 0002:001ba5a0       _cpdf_capHeight            006b15a0 f   clibpdf:cpdfFont.obj
 0002:001ba660       _cpdf_ascent               006b1660 f   clibpdf:cpdfFont.obj
 0002:001ba720       _cpdf_descent              006b1720 f   clibpdf:cpdfFont.obj
 0002:001ba7e0       _cpdf_stringWidth          006b17e0 f   clibpdf:cpdfFont.obj
 0002:001bab00       _cpdf_setFont              006b1b00 f   clibpdf:cpdfFont.obj
 0002:001bb930       __cpdf_loadExternalFont    006b2930 f   clibpdf:cpdfFont.obj
 0002:001bbd00       __isNewFont                006b2d00 f   clibpdf:cpdfFont.obj
 0002:001bbed0       __cpdf_readFontPathFromMapFile 006b2ed0 f   clibpdf:cpdfFont.obj
 0002:001bc810       _cpdf_setFontMapFile       006b3810 f   clibpdf:cpdfFont.obj
 0002:001bc880       _cpdf_setFontDirectories   006b3880 f   clibpdf:cpdfFont.obj
 0002:001bc920       __cpdf_freeAllFontInfos    006b3920 f   clibpdf:cpdfFont.obj
 0002:001bcc20       _cpdf_suggestLinearDomainParams 006b3c20 f   clibpdf:cpdfTicInt.obj
 0002:001bd150       _cpdf_suggestMinMaxForLinearDomain 006b4150 f   clibpdf:cpdfTicInt.obj
 0002:001bd230       __cpdf_inc_docID           006b4230 f   clibpdf:cpdfUtil.obj
 0002:001bd2d0       _cpdf_localtime            006b42d0 f   clibpdf:cpdfUtil.obj
 0002:001bd340       _cpdf_mktime               006b4340 f   clibpdf:cpdfUtil.obj
 0002:001bd3b0       _cpdf_setDocumentID        006b43b0 f   clibpdf:cpdfUtil.obj
 0002:001bd400       _multiplyCTM               006b4400 f   clibpdf:cpdfUtil.obj
 0002:001bd590       _getMantissaExp            006b4590 f   clibpdf:cpdfUtil.obj
 0002:001bd6b0       __cpdf_nibbleValue         006b46b0 f   clibpdf:cpdfUtil.obj
 0002:001bd760       _cpdf_convertBinaryToHex   006b4760 f   clibpdf:cpdfUtil.obj
 0002:001bd8c0       _cpdf_convertHexToBinary   006b48c0 f   clibpdf:cpdfUtil.obj
 0002:001bd9f0       _cpdf_hexStringMode        006b49f0 f   clibpdf:cpdfUtil.obj
 0002:001bda30       _cpdf_useContentMemStream  006b4a30 f   clibpdf:cpdfUtil.obj
 0002:001bda70       _cpdf_useStdout            006b4a70 f   clibpdf:cpdfUtil.obj
 0002:001bdab0       _cpdf_setCreator           006b4ab0 f   clibpdf:cpdfUtil.obj
 0002:001bdb20       _cpdf_setTitle             006b4b20 f   clibpdf:cpdfUtil.obj
 0002:001bdb90       _cpdf_setSubject           006b4b90 f   clibpdf:cpdfUtil.obj
 0002:001bdc00       _cpdf_setKeywords          006b4c00 f   clibpdf:cpdfUtil.obj
 0002:001bdc70       _cpdf_setPDFLevel          006b4c70 f   clibpdf:cpdfUtil.obj
 0002:001bdce0       _cpdf_comments             006b4ce0 f   clibpdf:cpdfUtil.obj
 0002:001bdda0       _cpdf_getOutputFilename    006b4da0 f   clibpdf:cpdfUtil.obj
 0002:001bdde0       _cpdf_setOutputFilename    006b4de0 f   clibpdf:cpdfUtil.obj
 0002:001bde70       _cpdf_setDefaultDomainUnit 006b4e70 f   clibpdf:cpdfUtil.obj
 0002:001bdeb0       _cpdf_version              006b4eb0 f   clibpdf:cpdfUtil.obj
 0002:001bdef0       _cpdf_platform             006b4ef0 f   clibpdf:cpdfUtil.obj
 0002:001bdf30       _cpdf_convertUpathToOS     006b4f30 f   clibpdf:cpdfUtil.obj
 0002:001bdfd0       _cpdf_setErrorHandler      006b4fd0 f   clibpdf:cpdfUtil.obj
 0002:001be020       _cpdf_Error                006b5020 f   clibpdf:cpdfUtil.obj
 0002:001be0c0       __cpdf_defaultErrorHandler 006b50c0 f   clibpdf:cpdfUtil.obj
 0002:001be1b0       _cpdf_setGlobalErrorHandler 006b51b0 f   clibpdf:cpdfUtil.obj
 0002:001be200       _cpdf_GlobalError          006b5200 f   clibpdf:cpdfUtil.obj
 0002:001be290       __cpdf_defaultGlobalErrorHandler 006b5290 f   clibpdf:cpdfUtil.obj
 0002:001be380       __Big_Endian               006b5380 f   clibpdf:cpdfUtil.obj
 0002:001be400       _str_append_int            006b5400 f   clibpdf:cpdfUtil.obj
 0002:001be4d0       __cpdf_malloc_check        006b54d0 f   clibpdf:cpdfUtil.obj
 0002:001be530       _timestring                006b5530 f   clibpdf:cpdfTime.obj
 0002:001be6d0       _tm_to_NumDays             006b56d0 f   clibpdf:cpdfTime.obj
 0002:001be880       _isLeapYear                006b5880 f   clibpdf:cpdfTime.obj
 0002:001be900       __printfTime               006b5900 f   clibpdf:cpdfTime.obj
 0002:001be9a0       _cpdf_createAxis           006b59a0 f   clibpdf:cpdfAxis.obj
 0002:001bed10       _cpdf_createTimeAxis       006b5d10 f   clibpdf:cpdfAxis.obj
 0002:001bf0b0       _cpdf_freeAxis             006b60b0 f   clibpdf:cpdfAxis.obj
 0002:001bf240       _cpdf_drawAxis             006b6240 f   clibpdf:cpdfAxis.obj
 0002:001bf580       _cpdf_attachAxisToDomain   006b6580 f   clibpdf:cpdfAxis.obj
 0002:001bf5d0       _cpdf_setTicNumEnable      006b65d0 f   clibpdf:cpdfAxis.obj
 0002:001bf630       _cpdf_setAxisTicNumLabelPosition 006b6630 f   clibpdf:cpdfAxis.obj
 0002:001bf6a0       _fix_trailingZeros         006b66a0 f   clibpdf:cpdfAxis.obj
 0002:001bf770       __do_oneNumber             006b6770 f   clibpdf:cpdfAxis.obj
 0002:001bfaf0       __yearFormat               006b6af0 f   clibpdf:cpdfAxis.obj
 0002:001bfba0       _cpdf_setMonthNames        006b6ba0 f   clibpdf:cpdfAxis.obj
 0002:001bfca0       __cpdf_freeMonthNames      006b6ca0 f   clibpdf:cpdfAxis.obj
 0002:001bfd40       __do_oneTimeNumber         006b6d40 f   clibpdf:cpdfAxis.obj
 0002:001c0560       __do_linearNumbers         006b7560 f   clibpdf:cpdfAxis.obj
 0002:001c0670       __do_logNumbers            006b7670 f   clibpdf:cpdfAxis.obj
 0002:001c08a0       __do_timeNumbers           006b78a0 f   clibpdf:cpdfAxis.obj
 0002:001c0b40       __bump_tm_Time             006b7b40 f   clibpdf:cpdfAxis.obj
 0002:001c0d40       __setDefaultTimeBumpVar    006b7d40 f   clibpdf:cpdfAxis.obj
 0002:001c0e80       _cpdf_suggestTimeDomainParams 006b7e80 f   clibpdf:cpdfAxis.obj
 0002:001c14d0       __bittest                  006b84d0 f   clibpdf:cpdfAxis.obj
 0002:001c1530       _cpdf_setAxisNumberFormat  006b8530 f   clibpdf:cpdfAxis.obj
 0002:001c1590       _cpdf_setAxisNumberFormat2 006b8590 f   clibpdf:cpdfAxis.obj
 0002:001c17d0       _cpdf_setTimeAxisNumberFormat 006b87d0 f   clibpdf:cpdfAxis.obj
 0002:001c1840       _cpdf_setTimeAxisNumberFormat2 006b8840 f   clibpdf:cpdfAxis.obj
 0002:001c1a00       _cpdf_setAxisLineParams    006b8a00 f   clibpdf:cpdfAxis.obj
 0002:001c1a70       __do_oneTick               006b8a70 f   clibpdf:cpdfAxis.obj
 0002:001c1b50       __do_linearTics            006b8b50 f   clibpdf:cpdfAxis.obj
 0002:001c1d10       __do_logTics               006b8d10 f   clibpdf:cpdfAxis.obj
 0002:001c1f90       __do_timeTics              006b8f90 f   clibpdf:cpdfAxis.obj
 0002:001c22c0       _cpdf_setLinearAxisParams  006b92c0 f   clibpdf:cpdfAxis.obj
 0002:001c2330       _cpdf_setLogAxisTickSelector 006b9330 f   clibpdf:cpdfAxis.obj
 0002:001c2370       _cpdf_setLogAxisNumberSelector 006b9370 f   clibpdf:cpdfAxis.obj
 0002:001c23b0       _cpdf_setAxisLabel         006b93b0 f   clibpdf:cpdfAxis.obj
 0002:001c25d0       __do_axisLabel             006b95d0 f   clibpdf:cpdfAxis.obj
 0002:001c2900       _vAxis2Points              006b9900 f   clibpdf:cpdfAxis.obj
 0002:001c2a60       _cpdf_openMemoryStream     006b9a60 f   clibpdf:cpdfMemBuf.obj
 0002:001c2b30       _cpdf_clearMemoryStream    006b9b30 f   clibpdf:cpdfMemBuf.obj
 0002:001c2bd0       _cpdf_closeMemoryStream    006b9bd0 f   clibpdf:cpdfMemBuf.obj
 0002:001c2ca0       _cpdf_writeMemoryStream    006b9ca0 f   clibpdf:cpdfMemBuf.obj
 0002:001c2e80       _cpdf_memPutc              006b9e80 f   clibpdf:cpdfMemBuf.obj
 0002:001c2f20       _cpdf_memPuts              006b9f20 f   clibpdf:cpdfMemBuf.obj
 0002:001c2f90       _cpdf_getMemoryBuffer      006b9f90 f   clibpdf:cpdfMemBuf.obj
 0002:001c3030       _cpdf_saveMemoryStreamToFile 006ba030 f   clibpdf:cpdfMemBuf.obj
 0002:001c31f0       __checkMemMagic            006ba1f0 f   clibpdf:cpdfMemBuf.obj
 0002:001c3280       _cpdf_addOutlineEntry      006ba280 f   clibpdf:cpdfOutline.obj
 0002:001c3750       _cpdf_addOutlineAction     006ba750 f   clibpdf:cpdfOutline.obj
 0002:001c3be0       __cpdf_copy_string_with_malloc 006babe0 f   clibpdf:cpdfOutline.obj
 0002:001c3c80       __cpdf_dest_attribute      006bac80 f   clibpdf:cpdfOutline.obj
 0002:001c3ff0       __cpdf_serializeOutlineEntries 006baff0 f   clibpdf:cpdfOutline.obj
 0002:001c40a0       __cpdf_WriteOutlineEntries 006bb0a0 f   clibpdf:cpdfOutline.obj
 0002:001c4140       __cpdf_WriteOneOutlineEntry 006bb140 f   clibpdf:cpdfOutline.obj
 0002:001c4600       __cpdf_freeAllOutlineEntries 006bb600 f   clibpdf:cpdfOutline.obj
 0002:001c4700       _cpdf_setAnnotation        006bb700 f   clibpdf:cpdfAnnot.obj
 0002:001c47c0       _cpdf_setActionURL         006bb7c0 f   clibpdf:cpdfAnnot.obj
 0002:001c4880       _cpdf_setLinkGoToPage      006bb880 f   clibpdf:cpdfAnnot.obj
 0002:001c4940       _cpdf_setLinkAction        006bb940 f   clibpdf:cpdfAnnot.obj
 0002:001c4a00       _cpdf_includeTextFileAsAnnotation 006bba00 f   clibpdf:cpdfAnnot.obj
 0002:001c4ac0       _cpdf_rawSetAnnotation     006bbac0 f   clibpdf:cpdfAnnot.obj
 0002:001c5300       _cpdf_rawSetActionURL      006bc300 f   clibpdf:cpdfAnnot.obj
 0002:001c57c0       _cpdf_rawSetLinkGoToPage   006bc7c0 f   clibpdf:cpdfAnnot.obj
 0002:001c5c30       _cpdf_rawSetLinkAction     006bcc30 f   clibpdf:cpdfAnnot.obj
 0002:001c60f0       _cpdf_rawIncludeTextFileAsAnnotation 006bd0f0 f   clibpdf:cpdfAnnot.obj
 0002:001c62e0       __cpdf_freeAllAnnotInfos   006bd2e0 f   clibpdf:cpdfAnnot.obj
 0002:001c6420       _cpdf_importImage          006bd420 f   clibpdf:cpdfImage.obj
 0002:001c64d0       _cpdf_rawImportImage       006bd4d0 f   clibpdf:cpdfImage.obj
 0002:001c7030       __isNewImage               006be030 f   clibpdf:cpdfImage.obj
 0002:001c7120       _cpdf_selectImage          006be120 f   clibpdf:cpdfImage.obj
 0002:001c7180       __cpdf_freeAllImageInfos   006be180 f   clibpdf:cpdfImage.obj
 0002:001c72b0       _cpdf_readTIFFheader       006be2b0 f   clibpdf:cpdfImage.obj
 0002:001c7310       _cpdf_readTIFFimageData    006be310 f   clibpdf:cpdfImage.obj
 0002:001c7350       _cpdf_readPDFimageHeader   006be350 f   clibpdf:cpdfImage.obj
 0002:001c73b0       __cpdf_copyPDFimageHeader  006be3b0 f   clibpdf:cpdfImage.obj
 0002:001c73f0       _cpdf_readPDFimageData     006be3f0 f   clibpdf:cpdfImage.obj
 0002:001c7430       _compress2                 006be430 f   clibpdf:compress.obj
 0002:001c75a0       _compress                  006be5a0 f   clibpdf:compress.obj
 0002:001c7600       __cpdf_readPFB             006be600 f   clibpdf:cpdfReadPFB.obj
 0002:001c7d80       __cpdf_readPFM             006bed80 f   clibpdf:cpdfReadPFM.obj
 0002:001c83e0       __cpdf_readPFM_Header      006bf3e0 f   clibpdf:cpdfReadPFM.obj
 0002:001c8b50       __cpdf_readPFM_Extension   006bfb50 f   clibpdf:cpdfReadPFM.obj
 0002:001c8e50       __cpdf_byteRevPFM_Header   006bfe50 f   clibpdf:cpdfReadPFM.obj
 0002:001c9180       __cpdf_byteRevPFM_Extension 006c0180 f   clibpdf:cpdfReadPFM.obj
 0002:001c9320       _LbyteRev                  006c0320 f   clibpdf:cpdfReadPFM.obj
 0002:001c93a0       _SbyteRev                  006c03a0 f   clibpdf:cpdfReadPFM.obj
 0002:001c9400       _read_JPEG_header          006c0400 f   clibpdf:jpegsize.obj
 0002:001c9b40       _deflateInit_              006c0b40 f   clibpdf:deflate.obj
 0002:001c9bb0       _deflateInit2_             006c0bb0 f   clibpdf:deflate.obj
 0002:001c9fc0       _deflateSetDictionary      006c0fc0 f   clibpdf:deflate.obj
 0002:001ca1f0       _deflateReset              006c11f0 f   clibpdf:deflate.obj
 0002:001ca330       _deflateParams             006c1330 f   clibpdf:deflate.obj
 0002:001ca4c0       _deflate                   006c14c0 f   clibpdf:deflate.obj
 0002:001cab20       _deflateEnd                006c1b20 f   clibpdf:deflate.obj
 0002:001cacf0       _deflateCopy               006c1cf0 f   clibpdf:deflate.obj
 0002:001ccc70       _zlibVersion               006c3c70 f   clibpdf:zutil.obj
 0002:001cccb0       _zError                    006c3cb0 f   clibpdf:zutil.obj
 0002:001ccd00       _zcalloc                   006c3d00 f   clibpdf:zutil.obj
 0002:001ccd80       _zcfree                    006c3d80 f   clibpdf:zutil.obj
 0002:001ccde0       _adler32                   006c3de0 f   clibpdf:adler32.obj
 0002:001cd0e0       __tr_init                  006c40e0 f   clibpdf:trees.obj
 0002:001cd330       __tr_stored_block          006c4330 f   clibpdf:trees.obj
 0002:001cd4f0       __tr_align                 006c44f0 f   clibpdf:trees.obj
 0002:001cdb10       __tr_flush_block           006c4b10 f   clibpdf:trees.obj
 0002:001d03c0       __tr_tally                 006c73c0 f   clibpdf:trees.obj
 0002:001d154e       ??3@YAXPAX@Z               006c854e f   mfc100d:mfc100d.dll
 0002:001d1554       ??1?$CStringT@DV?$StrTraitMFC_DLL@DV?$ChTraitsCRT@D@ATL@@@@@ATL@@QAE@XZ 006c8554 f   mfc100d:mfc100d.dll
 0002:001d155a       ??0?$CStringT@DV?$StrTraitMFC_DLL@DV?$ChTraitsCRT@D@ATL@@@@@ATL@@QAE@XZ 006c855a f   mfc100d:mfc100d.dll
 0002:001d1560       ??0CPtrList@@QAE@H@Z       006c8560 f   mfc100d:mfc100d.dll
 0002:001d1566       ??1CPtrList@@UAE@XZ        006c8566 f   mfc100d:mfc100d.dll
 0002:001d156c       ?RemoveHead@CPtrList@@QAEPAXXZ 006c856c f   mfc100d:mfc100d.dll
 0002:001d1572       ?GetHead@CPtrList@@QAEAAPAXXZ 006c8572 f   mfc100d:mfc100d.dll
 0002:001d1578       ?IsEmpty@CPtrList@@QBEHXZ  006c8578 f   mfc100d:mfc100d.dll
 0002:001d157e       ?RemoveAt@CPtrList@@QAEXPAU__POSITION@@@Z 006c857e f   mfc100d:mfc100d.dll
 0002:001d1584       ?Find@CPtrList@@QBEPAU__POSITION@@PAXPAU2@@Z 006c8584 f   mfc100d:mfc100d.dll
 0002:001d158a       ??3@YAXPAXPBDH@Z           006c858a f   mfc100d:mfc100d.dll
 0002:001d1590       ?AddTail@CPtrList@@QAEPAU__POSITION@@PAX@Z 006c8590 f   mfc100d:mfc100d.dll
 0002:001d1596       ??4?$CStringT@DV?$StrTraitMFC_DLL@DV?$ChTraitsCRT@D@ATL@@@@@ATL@@QAEAAV01@ABV01@@Z 006c8596 f   mfc100d:mfc100d.dll
 0002:001d159c       ??2@YAPAXIPBDH@Z           006c859c f   mfc100d:mfc100d.dll
 0002:001d15a2       ?GetNext@CPtrList@@QAEAAPAXAAPAU__POSITION@@@Z 006c85a2 f   mfc100d:mfc100d.dll
 0002:001d15a8       ?GetHeadPosition@CPtrList@@QBEPAU__POSITION@@XZ 006c85a8 f   mfc100d:mfc100d.dll
 0002:001d15ae       ?AfxThrowInvalidArgException@@YGXXZ 006c85ae f   mfc100d:mfc100d.dll
 0002:001d15b4       ?Ellipse@CDC@@QAEHPBUtagRECT@@@Z 006c85b4 f   mfc100d:mfc100d.dll
 0002:001d15ba       ?CreatePen@CPen@@QAEHHHK@Z 006c85ba f   mfc100d:mfc100d.dll
 0002:001d15c0       ??0CPen@@QAE@XZ            006c85c0 f   mfc100d:mfc100d.dll
 0002:001d15c6       ?SetPixel@CDC@@QAEKHHK@Z   006c85c6 f   mfc100d:mfc100d.dll
 0002:001d15cc       ??1CBrush@@UAE@XZ          006c85cc f   mfc100d:mfc100d.dll
 0002:001d15d2       ?Polygon@CDC@@QAEHPBUtagPOINT@@H@Z 006c85d2 f   mfc100d:mfc100d.dll
 0002:001d15d8       ?RoundRect@CDC@@QAEHHHHHHH@Z 006c85d8 f   mfc100d:mfc100d.dll
 0002:001d15de       ?Rectangle@CDC@@QAEHHHHH@Z 006c85de f   mfc100d:mfc100d.dll
 0002:001d15e4       ?Polyline@CDC@@QAEHPBUtagPOINT@@H@Z 006c85e4 f   mfc100d:mfc100d.dll
 0002:001d15ea       ?LineTo@CDC@@QAEHHH@Z      006c85ea f   mfc100d:mfc100d.dll
 0002:001d15f0       ?MoveTo@CDC@@QAE?AVCPoint@@HH@Z 006c85f0 f   mfc100d:mfc100d.dll
 0002:001d15f6       ?Ellipse@CDC@@QAEHHHHH@Z   006c85f6 f   mfc100d:mfc100d.dll
 0002:001d15fc       ?SelectObject@CDC@@QAEPAXPAX@Z 006c85fc f   mfc100d:mfc100d.dll
 0002:001d1602       ??BCGdiObject@@QBEPAXXZ    006c8602 f   mfc100d:mfc100d.dll
 0002:001d1608       ?SetROP2@CDC@@QAEHH@Z      006c8608 f   mfc100d:mfc100d.dll
 0002:001d160e       ?BitBlt@CDC@@QAEHHHHHPAV1@HHK@Z 006c860e f   mfc100d:mfc100d.dll
 0002:001d1614       ??1CPen@@UAE@XZ            006c8614 f   mfc100d:mfc100d.dll
 0002:001d161a       ?LineTo@CDC@@QAEHUtagPOINT@@@Z 006c861a f   mfc100d:mfc100d.dll
 0002:001d1620       ?MoveTo@CDC@@QAE?AVCPoint@@UtagPOINT@@@Z 006c8620 f   mfc100d:mfc100d.dll
 0002:001d1626       ?Rectangle@CDC@@QAEHPBUtagRECT@@@Z 006c8626 f   mfc100d:mfc100d.dll
 0002:001d162c       ?GetBkMode@CDC@@QBEHXZ     006c862c f   mfc100d:mfc100d.dll
 0002:001d1632       ?SelectObject@CDC@@QAEPAVCBrush@@PAV2@@Z 006c8632 f   mfc100d:mfc100d.dll
 0002:001d1638       ?SelectObject@CDC@@QAEPAVCPen@@PAV2@@Z 006c8638 f   mfc100d:mfc100d.dll
 0002:001d163e       ??0CPen@@QAE@HHK@Z         006c863e f   mfc100d:mfc100d.dll
 0002:001d1644       ??0CBrush@@QAE@K@Z         006c8644 f   mfc100d:mfc100d.dll
 0002:001d164a       ?GetROP2@CDC@@QBEHXZ       006c864a f   mfc100d:mfc100d.dll
 0002:001d1650       ?SetWindowOrg@CDC@@QAE?AVCPoint@@HH@Z 006c8650 f   mfc100d:mfc100d.dll
 0002:001d1656       ??0CObject@@IAE@XZ         006c8656 f   mfc100d:mfc100d.dll
 0002:001d165c       ?GetRuntimeClass@CObject@@UBEPAUCRuntimeClass@@XZ 006c865c f   mfc100d:mfc100d.dll
 0002:001d1662       ??1CObject@@UAE@XZ         006c8662 f   mfc100d:mfc100d.dll
 0002:001d1668       ??_V@YAXPAX@Z              006c8668 f   mfc100d:mfc100d.dll
 0002:001d166e       ?AfxAssertValidObject@@YGXPBVCObject@@PBDH@Z 006c866e f   mfc100d:mfc100d.dll
 0002:001d1674       ?ReadCount@CArchive@@QAEKXZ 006c8674 f   mfc100d:mfc100d.dll
 0002:001d167a       ?WriteCount@CArchive@@QAEXK@Z 006c867a f   mfc100d:mfc100d.dll
 0002:001d1680       ?IsStoring@CArchive@@QBEHXZ 006c8680 f   mfc100d:mfc100d.dll
 0002:001d1686       ?Serialize@CObject@@UAEXAAVCArchive@@@Z 006c8686 f   mfc100d:mfc100d.dll
 0002:001d168c       ?GetDepth@CDumpContext@@QBEHXZ 006c868c f   mfc100d:mfc100d.dll
 0002:001d1692       ??6CDumpContext@@QAEAAV0@H@Z 006c8692 f   mfc100d:mfc100d.dll
 0002:001d1698       ??6CDumpContext@@QAEAAV0@PBD@Z 006c8698 f   mfc100d:mfc100d.dll
 0002:001d169e       ?Dump@CObject@@UBEXAAVCDumpContext@@@Z 006c869e f   mfc100d:mfc100d.dll
 0002:001d16a4       ?AfxIsValidAddress@@YGHPBXIH@Z 006c86a4 f   mfc100d:mfc100d.dll
 0002:001d16aa       ?AssertValid@CObject@@UBEXXZ 006c86aa f   mfc100d:mfc100d.dll
 0002:001d16b0       ??3CObject@@SGXPAX@Z       006c86b0 f   mfc100d:mfc100d.dll
 0002:001d16b6       ??_U@YAPAXI@Z              006c86b6 f   mfc100d:mfc100d.dll
 0002:001d16bc       ??_U@YAPAXIPBDH@Z          006c86bc f   mfc100d:mfc100d.dll
 0002:001d16c2       ?AfxThrowMemoryException@@YGXXZ 006c86c2 f   mfc100d:mfc100d.dll
 0002:001d16c8       ?EnsureRead@CArchive@@QAEXPAXI@Z 006c86c8 f   mfc100d:mfc100d.dll
 0002:001d16ce       ?Write@CArchive@@QAEXPBXI@Z 006c86ce f   mfc100d:mfc100d.dll
 0002:001d16d4       ?GetThisMessageMap@CDialog@@KGPBUAFX_MSGMAP@@XZ 006c86d4 f   mfc100d:mfc100d.dll
 0002:001d16da       ?GetThisClass@CDialog@@SGPAUCRuntimeClass@@XZ 006c86da f   mfc100d:mfc100d.dll
 0002:001d16e0       ??1CButton@@UAE@XZ         006c86e0 f   mfc100d:mfc100d.dll
 0002:001d16e6       ??1CComboBox@@UAE@XZ       006c86e6 f   mfc100d:mfc100d.dll
 0002:001d16ec       ??1CDialog@@UAE@XZ         006c86ec f   mfc100d:mfc100d.dll
 0002:001d16f2       ??0CButton@@QAE@XZ         006c86f2 f   mfc100d:mfc100d.dll
 0002:001d16f8       ??0CComboBox@@QAE@XZ       006c86f8 f   mfc100d:mfc100d.dll
 0002:001d16fe       ??0CDialog@@QAE@IPAVCWnd@@@Z 006c86fe f   mfc100d:mfc100d.dll
 0002:001d1704       ?AssertValid@CDialog@@UBEXXZ 006c8704 f   mfc100d:mfc100d.dll
 0002:001d170a       ?Dump@CDialog@@UBEXAAVCDumpContext@@@Z 006c870a f   mfc100d:mfc100d.dll
 0002:001d1710       ?OnCmdMsg@CDialog@@UAEHIHPAXPAUAFX_CMDHANDLERINFO@@@Z 006c8710 f   mfc100d:mfc100d.dll
 0002:001d1716       ?OnFinalRelease@CWnd@@UAEXXZ 006c8716 f   mfc100d:mfc100d.dll
 0002:001d171c       ?IsInvokeAllowed@CCmdTarget@@UAEHJ@Z 006c871c f   mfc100d:mfc100d.dll
 0002:001d1722       ?GetDispatchIID@CCmdTarget@@UAEHPAU_GUID@@@Z 006c8722 f   mfc100d:mfc100d.dll
 0002:001d1728       ?GetTypeInfoCount@CCmdTarget@@UAEIXZ 006c8728 f   mfc100d:mfc100d.dll
 0002:001d172e       ?GetTypeLibCache@CCmdTarget@@UAEPAVCTypeLibCache@@XZ 006c872e f   mfc100d:mfc100d.dll
 0002:001d1734       ?GetTypeLib@CCmdTarget@@UAEJKPAPAUITypeLib@@@Z 006c8734 f   mfc100d:mfc100d.dll
 0002:001d173a       ?GetCommandMap@CCmdTarget@@MBEPBUAFX_OLECMDMAP@@XZ 006c873a f   mfc100d:mfc100d.dll
 0002:001d1740       ?GetDispatchMap@CCmdTarget@@MBEPBUAFX_DISPMAP@@XZ 006c8740 f   mfc100d:mfc100d.dll
 0002:001d1746       ?GetConnectionMap@CCmdTarget@@MBEPBUAFX_CONNECTIONMAP@@XZ 006c8746 f   mfc100d:mfc100d.dll
 0002:001d174c       ?GetInterfaceMap@CWnd@@MBEPBUAFX_INTERFACEMAP@@XZ 006c874c f   mfc100d:mfc100d.dll
 0002:001d1752       ?GetEventSinkMap@CCmdTarget@@MBEPBUAFX_EVENTSINKMAP@@XZ 006c8752 f   mfc100d:mfc100d.dll
 0002:001d1758       ?OnCreateAggregates@CCmdTarget@@UAEHXZ 006c8758 f   mfc100d:mfc100d.dll
 0002:001d175e       ?GetInterfaceHook@CCmdTarget@@UAEPAUIUnknown@@PBX@Z 006c875e f   mfc100d:mfc100d.dll
 0002:001d1764       ?GetExtraConnectionPoints@CCmdTarget@@MAEHPAVCPtrArray@@@Z 006c8764 f   mfc100d:mfc100d.dll
 0002:001d176a       ?GetConnectionHook@CCmdTarget@@MAEPAUIConnectionPoint@@ABU_GUID@@@Z 006c876a f   mfc100d:mfc100d.dll
 0002:001d1770       ?PreSubclassWindow@CWnd@@UAEXXZ 006c8770 f   mfc100d:mfc100d.dll
 0002:001d1776       ?Create@CWnd@@UAEHPBD0KABUtagRECT@@PAV1@IPAUCCreateContext@@@Z 006c8776 f   mfc100d:mfc100d.dll
 0002:001d177c       ?CreateEx@CWnd@@UAEHKPBD0KABUtagRECT@@PAV1@IPAX@Z 006c877c f   mfc100d:mfc100d.dll
 0002:001d1782       ?CreateEx@CWnd@@UAEHKPBD0KHHHHPAUHWND__@@PAUHMENU__@@PAX@Z 006c8782 f   mfc100d:mfc100d.dll
 0002:001d1788       ?DestroyWindow@CWnd@@UAEHXZ 006c8788 f   mfc100d:mfc100d.dll
 0002:001d178e       ?PreCreateWindow@CWnd@@UAEHAAUtagCREATESTRUCTA@@@Z 006c878e f   mfc100d:mfc100d.dll
 0002:001d1794       ?CalcWindowRect@CWnd@@UAEXPAUtagRECT@@I@Z 006c8794 f   mfc100d:mfc100d.dll
 0002:001d179a       ?GetMenu@CWnd@@UBEPAVCMenu@@XZ 006c879a f   mfc100d:mfc100d.dll
 0002:001d17a0       ?SetMenu@CWnd@@UAEHPAVCMenu@@@Z 006c87a0 f   mfc100d:mfc100d.dll
 0002:001d17a6       ?OnToolHitTest@CWnd@@UBEHVCPoint@@PAUtagTOOLINFOA@@@Z 006c87a6 f   mfc100d:mfc100d.dll
 0002:001d17ac       ?GetScrollBarCtrl@CWnd@@UBEPAVCScrollBar@@H@Z 006c87ac f   mfc100d:mfc100d.dll
 0002:001d17b2       ?WinHelpA@CWnd@@UAEXKI@Z   006c87b2 f   mfc100d:mfc100d.dll
 0002:001d17b8       ?HtmlHelpA@CWnd@@UAEXKI@Z  006c87b8 f   mfc100d:mfc100d.dll
 0002:001d17be       ?WinHelpInternal@CWnd@@UAEXKI@Z 006c87be f   mfc100d:mfc100d.dll
 0002:001d17c4       ?ContinueModal@CWnd@@UAEHXZ 006c87c4 f   mfc100d:mfc100d.dll
 0002:001d17ca       ?EndModalLoop@CWnd@@UAEXH@Z 006c87ca f   mfc100d:mfc100d.dll
 0002:001d17d0       ?OnDrawIconicThumbnailOrLivePreview@CWnd@@UAEXAAVCDC@@VCRect@@VCSize@@HAAH@Z 006c87d0 f   mfc100d:mfc100d.dll
 0002:001d17d6       ?EnsureStdObj@CWnd@@UAEJXZ 006c87d6 f   mfc100d:mfc100d.dll
 0002:001d17dc       ?get_accParent@CWnd@@UAEJPAPAUIDispatch@@@Z 006c87dc f   mfc100d:mfc100d.dll
 0002:001d17e2       ?get_accChildCount@CWnd@@UAEJPAJ@Z 006c87e2 f   mfc100d:mfc100d.dll
 0002:001d17e8       ?get_accChild@CWnd@@UAEJUtagVARIANT@@PAPAUIDispatch@@@Z 006c87e8 f   mfc100d:mfc100d.dll
 0002:001d17ee       ?get_accName@CWnd@@UAEJUtagVARIANT@@PAPA_W@Z 006c87ee f   mfc100d:mfc100d.dll
 0002:001d17f4       ?get_accValue@CWnd@@UAEJUtagVARIANT@@PAPA_W@Z 006c87f4 f   mfc100d:mfc100d.dll
 0002:001d17fa       ?get_accDescription@CWnd@@UAEJUtagVARIANT@@PAPA_W@Z 006c87fa f   mfc100d:mfc100d.dll
 0002:001d1800       ?get_accRole@CWnd@@UAEJUtagVARIANT@@PAU2@@Z 006c8800 f   mfc100d:mfc100d.dll
 0002:001d1806       ?get_accState@CWnd@@UAEJUtagVARIANT@@PAU2@@Z 006c8806 f   mfc100d:mfc100d.dll
 0002:001d180c       ?get_accHelp@CWnd@@UAEJUtagVARIANT@@PAPA_W@Z 006c880c f   mfc100d:mfc100d.dll
 0002:001d1812       ?get_accHelpTopic@CWnd@@UAEJPAPA_WUtagVARIANT@@PAJ@Z 006c8812 f   mfc100d:mfc100d.dll
 0002:001d1818       ?get_accKeyboardShortcut@CWnd@@UAEJUtagVARIANT@@PAPA_W@Z 006c8818 f   mfc100d:mfc100d.dll
 0002:001d181e       ?get_accFocus@CWnd@@UAEJPAUtagVARIANT@@@Z 006c881e f   mfc100d:mfc100d.dll
 0002:001d1824       ?get_accSelection@CWnd@@UAEJPAUtagVARIANT@@@Z 006c8824 f   mfc100d:mfc100d.dll
 0002:001d182a       ?get_accDefaultAction@CWnd@@UAEJUtagVARIANT@@PAPA_W@Z 006c882a f   mfc100d:mfc100d.dll
 0002:001d1830       ?accSelect@CWnd@@UAEJJUtagVARIANT@@@Z 006c8830 f   mfc100d:mfc100d.dll
 0002:001d1836       ?accLocation@CWnd@@UAEJPAJ000UtagVARIANT@@@Z 006c8836 f   mfc100d:mfc100d.dll
 0002:001d183c       ?accNavigate@CWnd@@UAEJJUtagVARIANT@@PAU2@@Z 006c883c f   mfc100d:mfc100d.dll
 0002:001d1842       ?accHitTest@CWnd@@UAEJJJPAUtagVARIANT@@@Z 006c8842 f   mfc100d:mfc100d.dll
 0002:001d1848       ?accDoDefaultAction@CWnd@@UAEJUtagVARIANT@@@Z 006c8848 f   mfc100d:mfc100d.dll
 0002:001d184e       ?put_accName@CWnd@@UAEJUtagVARIANT@@PA_W@Z 006c884e f   mfc100d:mfc100d.dll
 0002:001d1854       ?put_accValue@CWnd@@UAEJUtagVARIANT@@PA_W@Z 006c8854 f   mfc100d:mfc100d.dll
 0002:001d185a       ?SetProxy@CWnd@@UAEJPAUIAccessibleProxy@@@Z 006c885a f   mfc100d:mfc100d.dll
 0002:001d1860       ?CreateAccessibleProxy@CWnd@@UAEJIJPAJ@Z 006c8860 f   mfc100d:mfc100d.dll
 0002:001d1866       ?OnCommand@CWnd@@MAEHIJ@Z  006c8866 f   mfc100d:mfc100d.dll
 0002:001d186c       ?OnNotify@CWnd@@MAEHIJPAJ@Z 006c886c f   mfc100d:mfc100d.dll
 0002:001d1872       ?GetSuperWndProcAddr@CWnd@@MAEPAP6GJPAUHWND__@@IIJ@ZXZ 006c8872 f   mfc100d:mfc100d.dll
 0002:001d1878       ?BeginModalState@CWnd@@UAEXXZ 006c8878 f   mfc100d:mfc100d.dll
 0002:001d187e       ?EndModalState@CWnd@@UAEXXZ 006c887e f   mfc100d:mfc100d.dll
 0002:001d1884       ?PreTranslateMessage@CDialog@@UAEHPAUtagMSG@@@Z 006c8884 f   mfc100d:mfc100d.dll
 0002:001d188a       ?OnAmbientProperty@CWnd@@UAEHPAVCOleControlSite@@JPAUtagVARIANT@@@Z 006c888a f   mfc100d:mfc100d.dll
 0002:001d1890       ?WindowProc@CWnd@@MAEJIIJ@Z 006c8890 f   mfc100d:mfc100d.dll
 0002:001d1896       ?OnWndMsg@CWnd@@MAEHIIJPAJ@Z 006c8896 f   mfc100d:mfc100d.dll
 0002:001d189c       ?DefWindowProcA@CWnd@@MAEJIIJ@Z 006c889c f   mfc100d:mfc100d.dll
 0002:001d18a2       ?PostNcDestroy@CWnd@@MAEXXZ 006c88a2 f   mfc100d:mfc100d.dll
 0002:001d18a8       ?OnChildNotify@CWnd@@MAEHIIJPAJ@Z 006c88a8 f   mfc100d:mfc100d.dll
 0002:001d18ae       ?OnTouchInputs@CWnd@@MAEHIPAUtagTOUCHINPUT@@@Z 006c88ae f   mfc100d:mfc100d.dll
 0002:001d18b4       ?OnTouchInput@CWnd@@MAEHVCPoint@@HHPAUtagTOUCHINPUT@@@Z 006c88b4 f   mfc100d:mfc100d.dll
 0002:001d18ba       ?GetGestureStatus@CWnd@@MAEKVCPoint@@@Z 006c88ba f   mfc100d:mfc100d.dll
 0002:001d18c0       ?OnGestureZoom@CWnd@@MAEHVCPoint@@J@Z 006c88c0 f   mfc100d:mfc100d.dll
 0002:001d18c6       ?OnGesturePan@CWnd@@MAEHVCPoint@@0@Z 006c88c6 f   mfc100d:mfc100d.dll
 0002:001d18cc       ?OnGestureRotate@CWnd@@MAEHVCPoint@@N@Z 006c88cc f   mfc100d:mfc100d.dll
 0002:001d18d2       ?OnGestureTwoFingerTap@CWnd@@MAEHVCPoint@@@Z 006c88d2 f   mfc100d:mfc100d.dll
 0002:001d18d8       ?OnGesturePressAndTap@CWnd@@MAEHVCPoint@@J@Z 006c88d8 f   mfc100d:mfc100d.dll
 0002:001d18de       ?CheckAutoCenter@CDialog@@UAEHXZ 006c88de f   mfc100d:mfc100d.dll
 0002:001d18e4       ?IsFrameWnd@CWnd@@UBEHXZ   006c88e4 f   mfc100d:mfc100d.dll
 0002:001d18ea       ?CreateControlContainer@CWnd@@MAEHPAPAVCOleControlContainer@@@Z 006c88ea f   mfc100d:mfc100d.dll
 0002:001d18f0       ?CreateControlSite@CWnd@@MAEHPAVCOleControlContainer@@PAPAVCOleControlSite@@IABU_GUID@@@Z 006c88f0 f   mfc100d:mfc100d.dll
 0002:001d18f6       ?SetOccDialogInfo@CDialog@@MAEHPAU_AFX_OCC_DIALOG_INFO@@@Z 006c88f6 f   mfc100d:mfc100d.dll
 0002:001d18fc       ?GetOccDialogInfo@CDialog@@MAEPAU_AFX_OCC_DIALOG_INFO@@XZ 006c88fc f   mfc100d:mfc100d.dll
 0002:001d1902       ?Create@CDialog@@UAEHIPAVCWnd@@@Z 006c8902 f   mfc100d:mfc100d.dll
 0002:001d1908       ?Create@CDialog@@UAEHPBDPAVCWnd@@@Z 006c8908 f   mfc100d:mfc100d.dll
 0002:001d190e       ?CreateIndirect@CDialog@@UAEHPAXPAVCWnd@@@Z 006c890e f   mfc100d:mfc100d.dll
 0002:001d1914       ?CreateIndirect@CDialog@@UAEHPBUDLGTEMPLATE@@PAVCWnd@@PAX@Z 006c8914 f   mfc100d:mfc100d.dll
 0002:001d191a       ?DoModal@CDialog@@UAEHXZ   006c891a f   mfc100d:mfc100d.dll
 0002:001d1920       ?OnInitDialog@CDialog@@UAEHXZ 006c8920 f   mfc100d:mfc100d.dll
 0002:001d1926       ?OnSetFont@CDialog@@UAEXPAVCFont@@@Z 006c8926 f   mfc100d:mfc100d.dll
 0002:001d192c       ?OnOK@CDialog@@MAEXXZ      006c892c f   mfc100d:mfc100d.dll
 0002:001d1932       ?OnCancel@CDialog@@MAEXXZ  006c8932 f   mfc100d:mfc100d.dll
 0002:001d1938       ?PreInitDialog@CDialog@@MAEXXZ 006c8938 f   mfc100d:mfc100d.dll
 0002:001d193e       ?GetCheck@CButton@@QBEHXZ  006c893e f   mfc100d:mfc100d.dll
 0002:001d1944       ?GetCurSel@CComboBox@@QBEHXZ 006c8944 f   mfc100d:mfc100d.dll
 0002:001d194a       ?SetCheck@CButton@@QAEXH@Z 006c894a f   mfc100d:mfc100d.dll
 0002:001d1950       ?SetCurSel@CComboBox@@QAEHH@Z 006c8950 f   mfc100d:mfc100d.dll
 0002:001d1956       ?InsertString@CComboBox@@QAEHHPBD@Z 006c8956 f   mfc100d:mfc100d.dll
 0002:001d195c       ?DDX_Control@@YGXPAVCDataExchange@@HAAVCWnd@@@Z 006c895c f   mfc100d:mfc100d.dll
 0002:001d1962       ?DoDataExchange@CWnd@@MAEXPAVCDataExchange@@@Z 006c8962 f   mfc100d:mfc100d.dll
 0002:001d1968       ??1CEdit@@UAE@XZ           006c8968 f   mfc100d:mfc100d.dll
 0002:001d196e       ??4?$CStringT@DV?$StrTraitMFC_DLL@DV?$ChTraitsCRT@D@ATL@@@@@ATL@@QAEAAV01@PBD@Z 006c896e f   mfc100d:mfc100d.dll
 0002:001d1974       ??0CEdit@@QAE@XZ           006c8974 f   mfc100d:mfc100d.dll
 0002:001d197a       ?SetWindowTextA@CWnd@@QAEXPBD@Z 006c897a f   mfc100d:mfc100d.dll
 0002:001d1980       ??B?$CSimpleStringT@D$00@ATL@@QBEPBDXZ 006c8980 f   mfc100d:mfc100d.dll
 0002:001d1986       ?AddString@CComboBox@@QAEHPBD@Z 006c8986 f   mfc100d:mfc100d.dll
 0002:001d198c       ?Format@?$CStringT@DV?$StrTraitMFC_DLL@DV?$ChTraitsCRT@D@ATL@@@@@ATL@@QAAXPBDZZ 006c898c f   mfc100d:mfc100d.dll
 0002:001d1992       ??0?$CStringT@DV?$StrTraitMFC_DLL@DV?$ChTraitsCRT@D@ATL@@@@@ATL@@QAE@ABV01@@Z 006c8992 f   mfc100d:mfc100d.dll
 0002:001d1998       ?GetLength@?$CSimpleStringT@D$00@ATL@@QBEHXZ 006c8998 f   mfc100d:mfc100d.dll
 0002:001d199e       ??Y?$CStringT@DV?$StrTraitMFC_DLL@DV?$ChTraitsCRT@D@ATL@@@@@ATL@@QAEAAV01@PBD@Z 006c899e f   mfc100d:mfc100d.dll
 0002:001d19a4       ??0?$CStringT@DV?$StrTraitMFC_DLL@DV?$ChTraitsCRT@D@ATL@@@@@ATL@@QAE@PBD@Z 006c89a4 f   mfc100d:mfc100d.dll
 0002:001d19aa       ?Left@?$CStringT@DV?$StrTraitMFC_DLL@DV?$ChTraitsCRT@D@ATL@@@@@ATL@@QBE?AV12@H@Z 006c89aa f   mfc100d:mfc100d.dll
 0002:001d19b0       ?Fail@CDataExchange@@QAEXXZ 006c89b0 f   mfc100d:mfc100d.dll
 0002:001d19b6       ?AfxMessageBox@@YGHPBDII@Z 006c89b6 f   mfc100d:mfc100d.dll
 0002:001d19bc       ?Find@?$CStringT@DV?$StrTraitMFC_DLL@DV?$ChTraitsCRT@D@ATL@@@@@ATL@@QBEHPBDH@Z 006c89bc f   mfc100d:mfc100d.dll
 0002:001d19c2       ?GetWindowTextA@CWnd@@QBEXAAV?$CStringT@DV?$StrTraitMFC_DLL@DV?$ChTraitsCRT@D@ATL@@@@@ATL@@@Z 006c89c2 f   mfc100d:mfc100d.dll
 0002:001d19c8       ?Compare@?$CStringT@DV?$StrTraitMFC_DLL@DV?$ChTraitsCRT@D@ATL@@@@@ATL@@QBEHPBD@Z 006c89c8 f   mfc100d:mfc100d.dll
 0002:001d19ce       ??1CStatic@@UAE@XZ         006c89ce f   mfc100d:mfc100d.dll
 0002:001d19d4       ??1CListBox@@UAE@XZ        006c89d4 f   mfc100d:mfc100d.dll
 0002:001d19da       ??1CTreeCtrl@@UAE@XZ       006c89da f   mfc100d:mfc100d.dll
 0002:001d19e0       ??0CStatic@@QAE@XZ         006c89e0 f   mfc100d:mfc100d.dll
 0002:001d19e6       ??0CListBox@@QAE@XZ        006c89e6 f   mfc100d:mfc100d.dll
 0002:001d19ec       ??0CTreeCtrl@@QAE@XZ       006c89ec f   mfc100d:mfc100d.dll
 0002:001d19f2       ?GetCurSel@CListBox@@QBEHXZ 006c89f2 f   mfc100d:mfc100d.dll
 0002:001d19f8       ?SetAt@CMapStringToPtr@@QAEXPBDPAX@Z 006c89f8 f   mfc100d:mfc100d.dll
 0002:001d19fe       ?Lookup@CMapStringToPtr@@QBEHPBDAAPAX@Z 006c89fe f   mfc100d:mfc100d.dll
 0002:001d1a04       ?Right@?$CStringT@DV?$StrTraitMFC_DLL@DV?$ChTraitsCRT@D@ATL@@@@@ATL@@QBE?AV12@H@Z 006c8a04 f   mfc100d:mfc100d.dll
 0002:001d1a0a       ?FindOneOf@?$CStringT@DV?$StrTraitMFC_DLL@DV?$ChTraitsCRT@D@ATL@@@@@ATL@@QBEHPBD@Z 006c8a0a f   mfc100d:mfc100d.dll
 0002:001d1a10       ?PrepareEditCtrl@CDataExchange@@QAEPAUHWND__@@H@Z 006c8a10 f   mfc100d:mfc100d.dll
 0002:001d1a16       ?Trim@?$CStringT@DV?$StrTraitMFC_DLL@DV?$ChTraitsCRT@D@ATL@@@@@ATL@@QAEAAV12@XZ 006c8a16 f   mfc100d:mfc100d.dll
 0002:001d1a1c       ?EnableWindow@CWnd@@QAEHH@Z 006c8a1c f   mfc100d:mfc100d.dll
 0002:001d1a22       ?GetCount@CComboBox@@QBEHXZ 006c8a22 f   mfc100d:mfc100d.dll
 0002:001d1a28       ?SetCurSel@CListBox@@QAEHH@Z 006c8a28 f   mfc100d:mfc100d.dll
 0002:001d1a2e       ??A?$CSimpleStringT@D$00@ATL@@QBEDH@Z 006c8a2e f   mfc100d:mfc100d.dll
 0002:001d1a34       ?InsertString@CListBox@@QAEHHPBD@Z 006c8a34 f   mfc100d:mfc100d.dll
 0002:001d1a3a       ?DeleteItem@CTreeCtrl@@QAEHPAU_TREEITEM@@@Z 006c8a3a f   mfc100d:mfc100d.dll
 0002:001d1a40       ?CompareNoCase@?$CStringT@DV?$StrTraitMFC_DLL@DV?$ChTraitsCRT@D@ATL@@@@@ATL@@QBEHPBD@Z 006c8a40 f   mfc100d:mfc100d.dll
 0002:001d1a46       ?GetNextAssoc@CMapStringToPtr@@QBEXAAPAU__POSITION@@AAV?$CStringT@DV?$StrTraitMFC_DLL@DV?$ChTraitsCRT@D@ATL@@@@@ATL@@AAPAX@Z 006c8a46 f   mfc100d:mfc100d.dll
 0002:001d1a4c       ?GetStartPosition@CMapStringToPtr@@QBEPAU__POSITION@@XZ 006c8a4c f   mfc100d:mfc100d.dll
 0002:001d1a52       ?SetItemState@CTreeCtrl@@QAEHPAU_TREEITEM@@II@Z 006c8a52 f   mfc100d:mfc100d.dll
 0002:001d1a58       ?InsertItem@CTreeCtrl@@QAEPAU_TREEITEM@@PAUtagTVINSERTSTRUCTA@@@Z 006c8a58 f   mfc100d:mfc100d.dll
 0002:001d1a5e       ??BCWnd@@QBEPAUHWND__@@XZ  006c8a5e f   mfc100d:mfc100d.dll
 0002:001d1a64       ?DeleteAllItems@CTreeCtrl@@QAEHXZ 006c8a64 f   mfc100d:mfc100d.dll
 0002:001d1a6a       ??1CMetaFileDC@@UAE@XZ     006c8a6a f   mfc100d:mfc100d.dll
 0002:001d1a70       ?ReleaseDC@CWnd@@QAEHPAVCDC@@@Z 006c8a70 f   mfc100d:mfc100d.dll
 0002:001d1a76       ?SetEnhMetaFile@CStatic@@QAEPAUHENHMETAFILE__@@PAU2@@Z 006c8a76 f   mfc100d:mfc100d.dll
 0002:001d1a7c       ?GetClientRect@CWnd@@QBEXPAUtagRECT@@@Z 006c8a7c f   mfc100d:mfc100d.dll
 0002:001d1a82       ?GetDC@CWnd@@QAEPAVCDC@@XZ 006c8a82 f   mfc100d:mfc100d.dll
 0002:001d1a88       ??0CMetaFileDC@@QAE@XZ     006c8a88 f   mfc100d:mfc100d.dll
 0002:001d1a8e       ?GetItemText@CTreeCtrl@@QBE?AV?$CStringT@DV?$StrTraitMFC_DLL@DV?$ChTraitsCRT@D@ATL@@@@@ATL@@PAU_TREEITEM@@@Z 006c8a8e f   mfc100d:mfc100d.dll
 0002:001d1a94       ?GetSelectedItem@CTreeCtrl@@QBEPAU_TREEITEM@@XZ 006c8a94 f   mfc100d:mfc100d.dll
 0002:001d1a9a       ?RedrawWindow@CWnd@@QAEHPBUtagRECT@@PAVCRgn@@I@Z 006c8a9a f   mfc100d:mfc100d.dll
 0002:001d1aa0       ?GetItemState@CTreeCtrl@@QBEIPAU_TREEITEM@@I@Z 006c8aa0 f   mfc100d:mfc100d.dll
 0002:001d1aa6       ?GetNextItem@CTreeCtrl@@QBEPAU_TREEITEM@@PAU2@I@Z 006c8aa6 f   mfc100d:mfc100d.dll
 0002:001d1aac       ?BringWindowToTop@CWnd@@QAEXXZ 006c8aac f   mfc100d:mfc100d.dll
 0002:001d1ab2       ?UpdateWindow@CWnd@@QAEXXZ 006c8ab2 f   mfc100d:mfc100d.dll
 0002:001d1ab8       ?ShowWindow@CWnd@@QAEHH@Z  006c8ab8 f   mfc100d:mfc100d.dll
 0002:001d1abe       ??1CWnd@@UAE@XZ            006c8abe f   mfc100d:mfc100d.dll
 0002:001d1ac4       ?Concatenate@?$CSimpleStringT@D$00@ATL@@KAXAAV12@PBDH1H@Z 006c8ac4 f   mfc100d:mfc100d.dll
 0002:001d1aca       ??0?$CStringT@DV?$StrTraitMFC_DLL@DV?$ChTraitsCRT@D@ATL@@@@@ATL@@QAE@PAUIAtlStringMgr@1@@Z 006c8aca f   mfc100d:mfc100d.dll
 0002:001d1ad0       ?GetManager@?$CStringT@DV?$StrTraitMFC_DLL@DV?$ChTraitsCRT@D@ATL@@@@@ATL@@QBEPAUIAtlStringMgr@2@XZ 006c8ad0 f   mfc100d:mfc100d.dll
 0002:001d1ad6       ?GetAt@?$CSimpleStringT@D$00@ATL@@QBEDH@Z 006c8ad6 f   mfc100d:mfc100d.dll
 0002:001d1adc       ?GetSel@CListBox@@QBEHH@Z  006c8adc f   mfc100d:mfc100d.dll
 0002:001d1ae2       ?GetCount@CListBox@@QBEHXZ 006c8ae2 f   mfc100d:mfc100d.dll
 0002:001d1ae8       ?FindString@CComboBox@@QBEHHPBD@Z 006c8ae8 f   mfc100d:mfc100d.dll
 0002:001d1aee       ??$SerializeElements@V?$CStringT@DV?$StrTraitMFC_DLL@DV?$ChTraitsCRT@D@ATL@@@@@ATL@@@@YGXAAVCArchive@@PAV?$CStringT@DV?$StrTraitMFC_DLL@DV?$ChTraitsCRT@D@ATL@@@@@ATL@@H@Z 006c8aee f   mfc100d:mfc100d.dll
 0002:001d1af4       ?Find@?$CStringT@DV?$StrTraitMFC_DLL@DV?$ChTraitsCRT@D@ATL@@@@@ATL@@QBEHDH@Z 006c8af4 f   mfc100d:mfc100d.dll
 0002:001d1afa       ?DDX_Text@@YGXPAVCDataExchange@@HAAV?$CStringT@DV?$StrTraitMFC_DLL@DV?$ChTraitsCRT@D@ATL@@@@@ATL@@@Z 006c8afa f   mfc100d:mfc100d.dll
 0002:001d1b00       ?PrepareCtrl@CDataExchange@@QAEPAUHWND__@@H@Z 006c8b00 f   mfc100d:mfc100d.dll
 0002:001d1b06       ?SetFocus@CWnd@@QAEPAV1@XZ 006c8b06 f   mfc100d:mfc100d.dll
 0002:001d1b0c       ?DDV_MaxChars@@YGXPAVCDataExchange@@ABV?$CStringT@DV?$StrTraitMFC_DLL@DV?$ChTraitsCRT@D@ATL@@@@@ATL@@H@Z 006c8b0c f   mfc100d:mfc100d.dll
 0002:001d1b12       ?DDX_CBString@@YGXPAVCDataExchange@@HAAV?$CStringT@DV?$StrTraitMFC_DLL@DV?$ChTraitsCRT@D@ATL@@@@@ATL@@@Z 006c8b12 f   mfc100d:mfc100d.dll
 0002:001d1b18       ?StringLength@?$CSimpleStringT@D$00@ATL@@SAHPBD@Z 006c8b18 f   mfc100d:mfc100d.dll
 0002:001d1b1e       ?DDV_MinMaxUInt@@YGXPAVCDataExchange@@III@Z 006c8b1e f   mfc100d:mfc100d.dll
 0002:001d1b24       ?DDX_Text@@YGXPAVCDataExchange@@HAAH@Z 006c8b24 f   mfc100d:mfc100d.dll
 0002:001d1b2a       ?MakeLower@?$CStringT@DV?$StrTraitMFC_DLL@DV?$ChTraitsCRT@D@ATL@@@@@ATL@@QAEAAV12@XZ 006c8b2a f   mfc100d:mfc100d.dll
 0002:001d1b30       ?WriteString@CStdioFile@@UAEXPBD@Z 006c8b30 f   mfc100d:mfc100d.dll
 0002:001d1b36       ??1CStdioFile@@UAE@XZ      006c8b36 f   mfc100d:mfc100d.dll
 0002:001d1b3c       ?Close@CStdioFile@@UAEXXZ  006c8b3c f   mfc100d:mfc100d.dll
 0002:001d1b42       ?Open@CStdioFile@@UAEHPBDIPAVCFileException@@@Z 006c8b42 f   mfc100d:mfc100d.dll
 0002:001d1b48       ??0CStdioFile@@QAE@XZ      006c8b48 f   mfc100d:mfc100d.dll
 0002:001d1b4e       ?ReverseFind@?$CStringT@DV?$StrTraitMFC_DLL@DV?$ChTraitsCRT@D@ATL@@@@@ATL@@QBEHD@Z 006c8b4e f   mfc100d:mfc100d.dll
 0002:001d1b54       ?GetText@CListBox@@QBEXHAAV?$CStringT@DV?$StrTraitMFC_DLL@DV?$ChTraitsCRT@D@ATL@@@@@ATL@@@Z 006c8b54 f   mfc100d:mfc100d.dll
 0002:001d1b5a       ?GetState@CButton@@QBEIXZ  006c8b5a f   mfc100d:mfc100d.dll
 0002:001d1b60       ?DeleteString@CListBox@@QAEHI@Z 006c8b60 f   mfc100d:mfc100d.dll
 0002:001d1b66       ?GetSelItems@CListBox@@QBEHHPAH@Z 006c8b66 f   mfc100d:mfc100d.dll
 0002:001d1b6c       ?GetSelCount@CListBox@@QBEHXZ 006c8b6c f   mfc100d:mfc100d.dll
 0002:001d1b72       ?SetButtonStyle@CButton@@QAEXIH@Z 006c8b72 f   mfc100d:mfc100d.dll
 0002:001d1b78       ?AddString@CListBox@@QAEHPBD@Z 006c8b78 f   mfc100d:mfc100d.dll
 0002:001d1b7e       ?FindStringExact@CListBox@@QBEHHPBD@Z 006c8b7e f   mfc100d:mfc100d.dll
 0002:001d1b84       ?SetSel@CListBox@@QAEHHH@Z 006c8b84 f   mfc100d:mfc100d.dll
 0002:001d1b8a       ?FindString@CListBox@@QBEHHPBD@Z 006c8b8a f   mfc100d:mfc100d.dll
 0002:001d1b90       ?GetLBText@CComboBox@@QBEXHAAV?$CStringT@DV?$StrTraitMFC_DLL@DV?$ChTraitsCRT@D@ATL@@@@@ATL@@@Z 006c8b90 f   mfc100d:mfc100d.dll
 0002:001d1b96       ?GetFocus@CWnd@@SGPAV1@XZ  006c8b96 f   mfc100d:mfc100d.dll
 0002:001d1b9c       ?DDX_CBIndex@@YGXPAVCDataExchange@@HAAH@Z 006c8b9c f   mfc100d:mfc100d.dll
 0002:001d1ba2       ??1CListCtrl@@UAE@XZ       006c8ba2 f   mfc100d:mfc100d.dll
 0002:001d1ba8       ??0CListCtrl@@QAE@XZ       006c8ba8 f   mfc100d:mfc100d.dll
 0002:001d1bae       ?GetItemData@CListCtrl@@QBEKH@Z 006c8bae f   mfc100d:mfc100d.dll
 0002:001d1bb4       ?GetItemCount@CListCtrl@@QBEHXZ 006c8bb4 f   mfc100d:mfc100d.dll
 0002:001d1bba       ?MoveWindow@CWnd@@QAEXHHHHH@Z 006c8bba f   mfc100d:mfc100d.dll
 0002:001d1bc0       ?GetWindowRect@CWnd@@QBEXPAUtagRECT@@@Z 006c8bc0 f   mfc100d:mfc100d.dll
 0002:001d1bc6       ?SetItem@CListCtrl@@QAEHHHIPBDHIIJ@Z 006c8bc6 f   mfc100d:mfc100d.dll
 0002:001d1bcc       ?SetItemData@CListCtrl@@QAEHHK@Z 006c8bcc f   mfc100d:mfc100d.dll
 0002:001d1bd2       ?InsertItem@CListCtrl@@QAEHHPBD@Z 006c8bd2 f   mfc100d:mfc100d.dll
 0002:001d1bd8       ?InsertColumn@CListCtrl@@QAEHHPBDHHH@Z 006c8bd8 f   mfc100d:mfc100d.dll
 0002:001d1bde       ?SetExtendedStyle@CListCtrl@@QAEKK@Z 006c8bde f   mfc100d:mfc100d.dll
 0002:001d1be4       ?GetExtendedStyle@CListCtrl@@QBEKXZ 006c8be4 f   mfc100d:mfc100d.dll
 0002:001d1bea       ?SelectString@CComboBox@@QAEHHPBD@Z 006c8bea f   mfc100d:mfc100d.dll
 0002:001d1bf0       ?DDX_Text@@YGXPAVCDataExchange@@HAAN@Z 006c8bf0 f   mfc100d:mfc100d.dll
 0002:001d1bf6       ?SortItems@CListCtrl@@QAEHP6GHJJJ@ZK@Z 006c8bf6 f   mfc100d:mfc100d.dll
 0002:001d1bfc       ?Append@?$CSimpleStringT@D$00@ATL@@QAEXPBD@Z 006c8bfc f   mfc100d:mfc100d.dll
 0002:001d1c02       ?DDX_Check@@YGXPAVCDataExchange@@HAAH@Z 006c8c02 f   mfc100d:mfc100d.dll
 0002:001d1c08       ?LoadIconA@CWinApp@@QBEPAUHICON__@@I@Z 006c8c08 f   mfc100d:mfc100d.dll
 0002:001d1c0e       ?AfxGetApp@@YGPAVCWinApp@@XZ 006c8c0e f   mfc100d:mfc100d.dll
 0002:001d1c14       ?GetRuntimeClass@CDialog@@UBEPAUCRuntimeClass@@XZ 006c8c14 f   mfc100d:mfc100d.dll
 0002:001d1c1a       ?OnSysCommand@CWnd@@IAEXIJ@Z 006c8c1a f   mfc100d:mfc100d.dll
 0002:001d1c20       ?OnPaint@CDialog@@IAEXXZ   006c8c20 f   mfc100d:mfc100d.dll
 0002:001d1c26       ??1CPaintDC@@UAE@XZ        006c8c26 f   mfc100d:mfc100d.dll
 0002:001d1c2c       ?DrawIcon@CDC@@QAEHHHPAUHICON__@@@Z 006c8c2c f   mfc100d:mfc100d.dll
 0002:001d1c32       ?SendMessageA@CWnd@@QBEJIIJ@Z 006c8c32 f   mfc100d:mfc100d.dll
 0002:001d1c38       ?GetSafeHdc@CDC@@QBEPAUHDC__@@XZ 006c8c38 f   mfc100d:mfc100d.dll
 0002:001d1c3e       ??0CPaintDC@@QAE@PAVCWnd@@@Z 006c8c3e f   mfc100d:mfc100d.dll
 0002:001d1c44       ?IsIconic@CWnd@@QBEHXZ     006c8c44 f   mfc100d:mfc100d.dll
 0002:001d1c4a       ?ReplaceSel@CEdit@@QAEXPBDH@Z 006c8c4a f   mfc100d:mfc100d.dll
 0002:001d1c50       ??0CBrush@@QAE@XZ          006c8c50 f   mfc100d:mfc100d.dll
 0002:001d1c56       ?GetDlgItem@CWnd@@QBEPAV1@H@Z 006c8c56 f   mfc100d:mfc100d.dll
 0002:001d1c5c       ??BCBrush@@QBEPAUHBRUSH__@@XZ 006c8c5c f   mfc100d:mfc100d.dll
 0002:001d1c62       ?CreateSolidBrush@CBrush@@QAEHK@Z 006c8c62 f   mfc100d:mfc100d.dll
 0002:001d1c68       ?DeleteObject@CGdiObject@@QAEHXZ 006c8c68 f   mfc100d:mfc100d.dll
 0002:001d1c6e       ?SetBkMode@CDC@@QAEHH@Z    006c8c6e f   mfc100d:mfc100d.dll
 0002:001d1c74       ?GetDlgCtrlID@CWnd@@QBEHXZ 006c8c74 f   mfc100d:mfc100d.dll
 0002:001d1c7a       ?OnCtlColor@CWnd@@IAEPAUHBRUSH__@@PAVCDC@@PAV1@I@Z 006c8c7a f   mfc100d:mfc100d.dll
 0002:001d1c80       ?Invalidate@CWnd@@QAEXH@Z  006c8c80 f   mfc100d:mfc100d.dll
 0002:001d1c86       ?GetColor@CColorDialog@@QBEKXZ 006c8c86 f   mfc100d:mfc100d.dll
 0002:001d1c8c       ?DoModal@CColorDialog@@UAEHXZ 006c8c8c f   mfc100d:mfc100d.dll
 0002:001d1c92       ??0CColorDialog@@QAE@KKPAVCWnd@@@Z 006c8c92 f   mfc100d:mfc100d.dll
 0002:001d1c98       ?GetRuntimeClass@CCommonDialog@@UBEPAUCRuntimeClass@@XZ 006c8c98 f   mfc100d:mfc100d.dll
 0002:001d1c9e       ?GetMessageMap@CCommonDialog@@MBEPBUAFX_MSGMAP@@XZ 006c8c9e f   mfc100d:mfc100d.dll
 0002:001d1ca4       ?OnOK@CCommonDialog@@MAEXXZ 006c8ca4 f   mfc100d:mfc100d.dll
 0002:001d1caa       ?OnCancel@CCommonDialog@@MAEXXZ 006c8caa f   mfc100d:mfc100d.dll
 0002:001d1cb0       ??Y?$CStringT@DV?$StrTraitMFC_DLL@DV?$ChTraitsCRT@D@ATL@@@@@ATL@@QAEAAV01@ABV?$CSimpleStringT@D$00@1@@Z 006c8cb0 f   mfc100d:mfc100d.dll
 0002:001d1cb6       ?DeleteString@CComboBox@@QAEHI@Z 006c8cb6 f   mfc100d:mfc100d.dll
 0002:001d1cbc       ?LimitText@CEdit@@QAEXH@Z  006c8cbc f   mfc100d:mfc100d.dll
 0002:001d1cc2       ?MoveWindow@CWnd@@QAEXPBUtagRECT@@H@Z 006c8cc2 f   mfc100d:mfc100d.dll
 0002:001d1cc8       ?SetSel@CEdit@@QAEXHHH@Z   006c8cc8 f   mfc100d:mfc100d.dll
 0002:001d1cce       ?AfxGetMainWnd@@YGPAVCWnd@@XZ 006c8cce f   mfc100d:mfc100d.dll
 0002:001d1cd4       ?OnSetCursor@CWnd@@IAEHPAV1@II@Z 006c8cd4 f   mfc100d:mfc100d.dll
 0002:001d1cda       ?SetItemState@CListCtrl@@QAEHHII@Z 006c8cda f   mfc100d:mfc100d.dll
 0002:001d1ce0       ?DeleteAllItems@CListCtrl@@QAEHXZ 006c8ce0 f   mfc100d:mfc100d.dll
 0002:001d1ce6       ?GetItemText@CListCtrl@@QBEHHHPADH@Z 006c8ce6 f   mfc100d:mfc100d.dll
 0002:001d1cec       ?GetNextSelectedItem@CListCtrl@@QBEHAAPAU__POSITION@@@Z 006c8cec f   mfc100d:mfc100d.dll
 0002:001d1cf2       ?GetFirstSelectedItemPosition@CListCtrl@@QBEPAU__POSITION@@XZ 006c8cf2 f   mfc100d:mfc100d.dll
 0002:001d1cf8       ?GetSelectedCount@CListCtrl@@QBEIXZ 006c8cf8 f   mfc100d:mfc100d.dll
 0002:001d1cfe       ?DeleteItem@CListCtrl@@QAEHH@Z 006c8cfe f   mfc100d:mfc100d.dll
 0002:001d1d04       ?GetItemState@CListCtrl@@QBEIHI@Z 006c8d04 f   mfc100d:mfc100d.dll
 0002:001d1d0a       ?DDV_MinMaxInt@@YGXPAVCDataExchange@@HHH@Z 006c8d0a f   mfc100d:mfc100d.dll
 0002:001d1d10       ?DDX_Radio@@YGXPAVCDataExchange@@HAAH@Z 006c8d10 f   mfc100d:mfc100d.dll
 0002:001d1d16       ?TrimRight@?$CStringT@DV?$StrTraitMFC_DLL@DV?$ChTraitsCRT@D@ATL@@@@@ATL@@QAEAAV12@XZ 006c8d16 f   mfc100d:mfc100d.dll
 0002:001d1d1c       ?FreeDataChain@CPlex@@QAEXXZ 006c8d1c f   mfc100d:mfc100d.dll
 0002:001d1d22       ?Create@CPlex@@SGPAU1@AAPAU1@II@Z 006c8d22 f   mfc100d:mfc100d.dll
 0002:001d1d28       ??3CObject@@SGXPAXPBDH@Z   006c8d28 f   mfc100d:mfc100d.dll
 0002:001d1d2e       ??0CStdioFile@@QAE@PBDI@Z  006c8d2e f   mfc100d:mfc100d.dll
 0002:001d1d34       ??2CObject@@SGPAXIPBDH@Z   006c8d34 f   mfc100d:mfc100d.dll
 0002:001d1d3a       ?Replace@?$CStringT@DV?$StrTraitMFC_DLL@DV?$ChTraitsCRT@D@ATL@@@@@ATL@@QAEHDD@Z 006c8d3a f   mfc100d:mfc100d.dll
 0002:001d1d40       ??0CMapStringToPtr@@QAE@H@Z 006c8d40 f   mfc100d:mfc100d.dll
 0002:001d1d46       ??1CMapStringToPtr@@UAE@XZ 006c8d46 f   mfc100d:mfc100d.dll
 0002:001d1d4c       ?SetItemData@CListBox@@QAEHHK@Z 006c8d4c f   mfc100d:mfc100d.dll
 0002:001d1d52       ?GetItemData@CListBox@@QBEKH@Z 006c8d52 f   mfc100d:mfc100d.dll
 0002:001d1d58       ??1CBitmap@@UAE@XZ         006c8d58 f   mfc100d:mfc100d.dll
 0002:001d1d5e       ??0CBitmap@@QAE@XZ         006c8d5e f   mfc100d:mfc100d.dll
 0002:001d1d64       ?SetBitmap@CStatic@@QAEPAUHBITMAP__@@PAU2@@Z 006c8d64 f   mfc100d:mfc100d.dll
 0002:001d1d6a       ??BCBitmap@@QBEPAUHBITMAP__@@XZ 006c8d6a f   mfc100d:mfc100d.dll
 0002:001d1d70       ?LoadBitmapA@CBitmap@@QAEHI@Z 006c8d70 f   mfc100d:mfc100d.dll
 0002:001d1d76       ?AppendChar@?$CSimpleStringT@D$00@ATL@@QAEXD@Z 006c8d76 f   mfc100d:mfc100d.dll
 0002:001d1d7c       ?Tokenize@?$CStringT@DV?$StrTraitMFC_DLL@DV?$ChTraitsCRT@D@ATL@@@@@ATL@@QBE?AV12@PBDAAH@Z 006c8d7c f   mfc100d:mfc100d.dll
 0002:001d1d82       ?GetPosition@CStdioFile@@UBE_KXZ 006c8d82 f   mfc100d:mfc100d.dll
 0002:001d1d88       ?ReadString@CStdioFile@@UAEHAAV?$CStringT@DV?$StrTraitMFC_DLL@DV?$ChTraitsCRT@D@ATL@@@@@ATL@@@Z 006c8d88 f   mfc100d:mfc100d.dll
 0002:001d1d8e       ?RemoveKey@CMapStringToPtr@@QAEHPBD@Z 006c8d8e f   mfc100d:mfc100d.dll
 0002:001d1d94       ??1CFileFind@@UAE@XZ       006c8d94 f   mfc100d:mfc100d.dll
 0002:001d1d9a       ?Close@CFileFind@@QAEXXZ   006c8d9a f   mfc100d:mfc100d.dll
 0002:001d1da0       ?IsDirectory@CFileFind@@QBEHXZ 006c8da0 f   mfc100d:mfc100d.dll
 0002:001d1da6       ?GetFileName@CFileFind@@UBE?AV?$CStringT@DV?$StrTraitMFC_DLL@DV?$ChTraitsCRT@D@ATL@@@@@ATL@@XZ 006c8da6 f   mfc100d:mfc100d.dll
 0002:001d1dac       ?FindNextFileA@CFileFind@@UAEHXZ 006c8dac f   mfc100d:mfc100d.dll
 0002:001d1db2       ?FindFile@CFileFind@@UAEHPBDK@Z 006c8db2 f   mfc100d:mfc100d.dll
 0002:001d1db8       ??0CFileFind@@QAE@XZ       006c8db8 f   mfc100d:mfc100d.dll
 0002:001d1dbe       ?RemoveAll@CMapStringToPtr@@QAEXXZ 006c8dbe f   mfc100d:mfc100d.dll
 0002:001d1dc4       ?GetThisMessageMap@CView@@KGPBUAFX_MSGMAP@@XZ 006c8dc4 f   mfc100d:mfc100d.dll
 0002:001d1dca       ?OnFilePrintPreview@CView@@IAEXXZ 006c8dca f   mfc100d:mfc100d.dll
 0002:001d1dd0       ?OnFilePrint@CView@@IAEXXZ 006c8dd0 f   mfc100d:mfc100d.dll
 0002:001d1dd6       ?GetThisClass@CView@@SGPAUCRuntimeClass@@XZ 006c8dd6 f   mfc100d:mfc100d.dll
 0002:001d1ddc       ??1CDC@@UAE@XZ             006c8ddc f   mfc100d:mfc100d.dll
 0002:001d1de2       ??1CRgn@@UAE@XZ            006c8de2 f   mfc100d:mfc100d.dll
 0002:001d1de8       ??1CFont@@UAE@XZ           006c8de8 f   mfc100d:mfc100d.dll
 0002:001d1dee       ??1CView@@UAE@XZ           006c8dee f   mfc100d:mfc100d.dll
 0002:001d1df4       ?CreateFontA@CFont@@QAEHHHHHHEEEEEEEEPBD@Z 006c8df4 f   mfc100d:mfc100d.dll
 0002:001d1dfa       ??0CDC@@QAE@XZ             006c8dfa f   mfc100d:mfc100d.dll
 0002:001d1e00       ??0CRgn@@QAE@XZ            006c8e00 f   mfc100d:mfc100d.dll
 0002:001d1e06       ??0CFont@@QAE@XZ           006c8e06 f   mfc100d:mfc100d.dll
 0002:001d1e0c       ??0CView@@IAE@XZ           006c8e0c f   mfc100d:mfc100d.dll
 0002:001d1e12       ?OnCmdMsg@CView@@UAEHIHPAXPAUAFX_CMDHANDLERINFO@@@Z 006c8e12 f   mfc100d:mfc100d.dll
 0002:001d1e18       ?CalcWindowRect@CView@@UAEXPAUtagRECT@@I@Z 006c8e18 f   mfc100d:mfc100d.dll
 0002:001d1e1e       ?GetScrollBarCtrl@CView@@UBEPAVCScrollBar@@H@Z 006c8e1e f   mfc100d:mfc100d.dll
 0002:001d1e24       ?PreTranslateMessage@CWnd@@UAEHPAUtagMSG@@@Z 006c8e24 f   mfc100d:mfc100d.dll
 0002:001d1e2a       ?PostNcDestroy@CView@@MAEXXZ 006c8e2a f   mfc100d:mfc100d.dll
 0002:001d1e30       ?CheckAutoCenter@CWnd@@UAEHXZ 006c8e30 f   mfc100d:mfc100d.dll
 0002:001d1e36       ?SetOccDialogInfo@CWnd@@MAEHPAU_AFX_OCC_DIALOG_INFO@@@Z 006c8e36 f   mfc100d:mfc100d.dll
 0002:001d1e3c       ?GetOccDialogInfo@CWnd@@MAEPAU_AFX_OCC_DIALOG_INFO@@XZ 006c8e3c f   mfc100d:mfc100d.dll
 0002:001d1e42       ?IsSelected@CView@@UBEHPBVCObject@@@Z 006c8e42 f   mfc100d:mfc100d.dll
 0002:001d1e48       ?OnScroll@CView@@UAEHIIH@Z 006c8e48 f   mfc100d:mfc100d.dll
 0002:001d1e4e       ?OnScrollBy@CView@@UAEHVCSize@@H@Z 006c8e4e f   mfc100d:mfc100d.dll
 0002:001d1e54       ?OnDragEnter@CView@@UAEKPAVCOleDataObject@@KVCPoint@@@Z 006c8e54 f   mfc100d:mfc100d.dll
 0002:001d1e5a       ?OnDragOver@CView@@UAEKPAVCOleDataObject@@KVCPoint@@@Z 006c8e5a f   mfc100d:mfc100d.dll
 0002:001d1e60       ?OnDragLeave@CView@@UAEXXZ 006c8e60 f   mfc100d:mfc100d.dll
 0002:001d1e66       ?OnDrop@CView@@UAEHPAVCOleDataObject@@KVCPoint@@@Z 006c8e66 f   mfc100d:mfc100d.dll
 0002:001d1e6c       ?OnDropEx@CView@@UAEKPAVCOleDataObject@@KKVCPoint@@@Z 006c8e6c f   mfc100d:mfc100d.dll
 0002:001d1e72       ?OnDragScroll@CView@@UAEKKVCPoint@@@Z 006c8e72 f   mfc100d:mfc100d.dll
 0002:001d1e78       ?OnPrepareDC@CView@@UAEXPAVCDC@@PAUCPrintInfo@@@Z 006c8e78 f   mfc100d:mfc100d.dll
 0002:001d1e7e       ?OnInitialUpdate@CView@@UAEXXZ 006c8e7e f   mfc100d:mfc100d.dll
 0002:001d1e84       ?OnActivateView@CView@@MAEXHPAV1@0@Z 006c8e84 f   mfc100d:mfc100d.dll
 0002:001d1e8a       ?OnActivateFrame@CView@@MAEXIPAVCFrameWnd@@@Z 006c8e8a f   mfc100d:mfc100d.dll
 0002:001d1e90       ?OnUpdate@CView@@MAEXPAV1@JPAVCObject@@@Z 006c8e90 f   mfc100d:mfc100d.dll
 0002:001d1e96       ?OnPrint@CView@@MAEXPAVCDC@@PAUCPrintInfo@@@Z 006c8e96 f   mfc100d:mfc100d.dll
 0002:001d1e9c       ?OnEndPrintPreview@CView@@MAEXPAVCDC@@PAUCPrintInfo@@UtagPOINT@@PAVCPreviewView@@@Z 006c8e9c f   mfc100d:mfc100d.dll
 0002:001d1ea2       ?PreCreateWindow@CView@@MAEHAAUtagCREATESTRUCTA@@@Z 006c8ea2 f   mfc100d:mfc100d.dll
 0002:001d1ea8       ?SelectClipRgn@CDC@@QAEHPAVCRgn@@@Z 006c8ea8 f   mfc100d:mfc100d.dll
 0002:001d1eae       ?FillSolidRect@CDC@@QAEXPBUtagRECT@@K@Z 006c8eae f   mfc100d:mfc100d.dll
 0002:001d1eb4       ?DoPreparePrinting@CView@@QAEHPAUCPrintInfo@@@Z 006c8eb4 f   mfc100d:mfc100d.dll
 0002:001d1eba       ?AssertValid@CView@@UBEXXZ 006c8eba f   mfc100d:mfc100d.dll
 0002:001d1ec0       ?Dump@CView@@UBEXAAVCDumpContext@@@Z 006c8ec0 f   mfc100d:mfc100d.dll
 0002:001d1ec6       ?IsKindOf@CObject@@QBEHPBUCRuntimeClass@@@Z 006c8ec6 f   mfc100d:mfc100d.dll
 0002:001d1ecc       ?SelectObject@CDC@@QAEPAVCBitmap@@PAV2@@Z 006c8ecc f   mfc100d:mfc100d.dll
 0002:001d1ed2       ?CreateCompatibleBitmap@CBitmap@@QAEHPAVCDC@@HH@Z 006c8ed2 f   mfc100d:mfc100d.dll
 0002:001d1ed8       ?CreateCompatibleDC@CDC@@QAEHPAV1@@Z 006c8ed8 f   mfc100d:mfc100d.dll
 0002:001d1ede       ?CreateRectRgn@CRgn@@QAEHHHHH@Z 006c8ede f   mfc100d:mfc100d.dll
 0002:001d1ee4       ?OnSize@CWnd@@IAEXIHH@Z    006c8ee4 f   mfc100d:mfc100d.dll
 0002:001d1eea       ?OnLButtonUp@CWnd@@IAEXIVCPoint@@@Z 006c8eea f   mfc100d:mfc100d.dll
 0002:001d1ef0       ?OnLButtonDown@CWnd@@IAEXIVCPoint@@@Z 006c8ef0 f   mfc100d:mfc100d.dll
 0002:001d1ef6       ?OnLButtonDblClk@CWnd@@IAEXIVCPoint@@@Z 006c8ef6 f   mfc100d:mfc100d.dll
 0002:001d1efc       ?OnRButtonDown@CWnd@@IAEXIVCPoint@@@Z 006c8efc f   mfc100d:mfc100d.dll
 0002:001d1f02       ?OnSysKeyDown@CWnd@@IAEXIII@Z 006c8f02 f   mfc100d:mfc100d.dll
 0002:001d1f08       ?OnSysKeyUp@CWnd@@IAEXIII@Z 006c8f08 f   mfc100d:mfc100d.dll
 0002:001d1f0e       ?OnKeyDown@CWnd@@IAEXIII@Z 006c8f0e f   mfc100d:mfc100d.dll
 0002:001d1f14       ?DrawDragRect@CDC@@QAEXPBUtagRECT@@UtagSIZE@@01PAVCBrush@@2@Z 006c8f14 f   mfc100d:mfc100d.dll
 0002:001d1f1a       ?OnMouseWheel@CWnd@@IAEHIFVCPoint@@@Z 006c8f1a f   mfc100d:mfc100d.dll
 0002:001d1f20       ??1CMenu@@UAE@XZ           006c8f20 f   mfc100d:mfc100d.dll
 0002:001d1f26       ?EnableMenuItem@CMenu@@QAEIII@Z 006c8f26 f   mfc100d:mfc100d.dll
 0002:001d1f2c       ?TrackPopupMenu@CMenu@@QAEHIHHPAVCWnd@@PBUtagRECT@@@Z 006c8f2c f   mfc100d:mfc100d.dll
 0002:001d1f32       ?GetSubMenu@CMenu@@QBEPAV1@H@Z 006c8f32 f   mfc100d:mfc100d.dll
 0002:001d1f38       ?LoadMenuA@CMenu@@QAEHI@Z  006c8f38 f   mfc100d:mfc100d.dll
 0002:001d1f3e       ??0CMenu@@QAE@XZ           006c8f3e f   mfc100d:mfc100d.dll
 0002:001d1f44       ?DrawMenuBar@CWnd@@QAEXXZ  006c8f44 f   mfc100d:mfc100d.dll
 0002:001d1f4a       ?GetThisMessageMap@CDocument@@KGPBUAFX_MSGMAP@@XZ 006c8f4a f   mfc100d:mfc100d.dll
 0002:001d1f50       ?GetThisClass@CDocument@@SGPAUCRuntimeClass@@XZ 006c8f50 f   mfc100d:mfc100d.dll
 0002:001d1f56       ??1CDocument@@UAE@XZ       006c8f56 f   mfc100d:mfc100d.dll
 0002:001d1f5c       ??0CDocument@@QAE@XZ       006c8f5c f   mfc100d:mfc100d.dll
 0002:001d1f62       ?OnCmdMsg@CDocument@@UAEHIHPAXPAUAFX_CMDHANDLERINFO@@@Z 006c8f62 f   mfc100d:mfc100d.dll
 0002:001d1f68       ?OnFinalRelease@CDocument@@UAEXXZ 006c8f68 f   mfc100d:mfc100d.dll
 0002:001d1f6e       ?GetInterfaceMap@CCmdTarget@@MBEPBUAFX_INTERFACEMAP@@XZ 006c8f6e f   mfc100d:mfc100d.dll
 0002:001d1f74       ?SetTitle@CDocument@@UAEXPBD@Z 006c8f74 f   mfc100d:mfc100d.dll
 0002:001d1f7a       ?SetPathName@CDocument@@UAEXPBDH@Z 006c8f7a f   mfc100d:mfc100d.dll
 0002:001d1f80       ?ClearPathName@CDocument@@UAEXXZ 006c8f80 f   mfc100d:mfc100d.dll
 0002:001d1f86       ?IsModified@CDocument@@UAEHXZ 006c8f86 f   mfc100d:mfc100d.dll
 0002:001d1f8c       ?SetModifiedFlag@CDocument@@UAEXH@Z 006c8f8c f   mfc100d:mfc100d.dll
 0002:001d1f92       ?GetFirstViewPosition@CDocument@@UBEPAU__POSITION@@XZ 006c8f92 f   mfc100d:mfc100d.dll
 0002:001d1f98       ?GetNextView@CDocument@@UBEPAVCView@@AAPAU__POSITION@@@Z 006c8f98 f   mfc100d:mfc100d.dll
 0002:001d1f9e       ?OnChangedViewList@CDocument@@UAEXXZ 006c8f9e f   mfc100d:mfc100d.dll
 0002:001d1fa4       ?DeleteContents@CDocument@@UAEXXZ 006c8fa4 f   mfc100d:mfc100d.dll
 0002:001d1faa       ?OnOpenDocument@CDocument@@UAEHPBD@Z 006c8faa f   mfc100d:mfc100d.dll
 0002:001d1fb0       ?OnCloseDocument@CDocument@@UAEXXZ 006c8fb0 f   mfc100d:mfc100d.dll
 0002:001d1fb6       ?ReportSaveLoadException@CDocument@@UAEXPBDPAVCException@@HI@Z 006c8fb6 f   mfc100d:mfc100d.dll
 0002:001d1fbc       ?GetFile@CDocument@@UAEPAVCFile@@PBDIPAVCFileException@@@Z 006c8fbc f   mfc100d:mfc100d.dll
 0002:001d1fc2       ?ReleaseFile@CDocument@@UAEXPAVCFile@@H@Z 006c8fc2 f   mfc100d:mfc100d.dll
 0002:001d1fc8       ?OnRichPreviewUnload@CDocument@@UAEXXZ 006c8fc8 f   mfc100d:mfc100d.dll
 0002:001d1fce       ?LoadDocumentFromStream@CDocument@@UAEJPAUIStream@@K@Z 006c8fce f   mfc100d:mfc100d.dll
 0002:001d1fd4       ?GetThumbnail@CDocument@@UAEHIPAPAUHBITMAP__@@PAW4WTS_ALPHATYPE@@@Z 006c8fd4 f   mfc100d:mfc100d.dll
 0002:001d1fda       ?ClearChunkList@CDocument@@UAEXXZ 006c8fda f   mfc100d:mfc100d.dll
 0002:001d1fe0       ?SetChunkValue@CDocument@@UAEHPAUIFilterChunkValue@ATL@@@Z 006c8fe0 f   mfc100d:mfc100d.dll
 0002:001d1fe6       ?BeginReadChunks@CDocument@@UAEXXZ 006c8fe6 f   mfc100d:mfc100d.dll
 0002:001d1fec       ?ReadNextChunkValue@CDocument@@UAEHPAPAUIFilterChunkValue@ATL@@@Z 006c8fec f   mfc100d:mfc100d.dll
 0002:001d1ff2       ?RemoveChunk@CDocument@@UAEXABU_GUID@@K@Z 006c8ff2 f   mfc100d:mfc100d.dll
 0002:001d1ff8       ?FindChunk@CDocument@@UAEPAU__POSITION@@ABU_GUID@@K@Z 006c8ff8 f   mfc100d:mfc100d.dll
 0002:001d1ffe       ?OnDocumentEvent@CDocument@@UAEXW4DocumentEvent@1@@Z 006c8ffe f   mfc100d:mfc100d.dll
 0002:001d2004       ?CanCloseFrame@CDocument@@UAEHPAVCFrameWnd@@@Z 006c9004 f   mfc100d:mfc100d.dll
 0002:001d200a       ?SaveModified@CDocument@@UAEHXZ 006c900a f   mfc100d:mfc100d.dll
 0002:001d2010       ?PreCloseFrame@CDocument@@UAEXPAVCFrameWnd@@@Z 006c9010 f   mfc100d:mfc100d.dll
 0002:001d2016       ?DoSave@CDocument@@UAEHPBDH@Z 006c9016 f   mfc100d:mfc100d.dll
 0002:001d201c       ?DoFileSave@CDocument@@UAEHXZ 006c901c f   mfc100d:mfc100d.dll
 0002:001d2022       ?UpdateFrameCounts@CDocument@@UAEXXZ 006c9022 f   mfc100d:mfc100d.dll
 0002:001d2028       ?GetDefaultMenu@CDocument@@UAEPAUHMENU__@@XZ 006c9028 f   mfc100d:mfc100d.dll
 0002:001d202e       ?GetDefaultAccelerator@CDocument@@UAEPAUHACCEL__@@XZ 006c902e f   mfc100d:mfc100d.dll
 0002:001d2034       ?OnIdle@CDocument@@UAEXXZ  006c9034 f   mfc100d:mfc100d.dll
 0002:001d203a       ?OnLoadDocumentFromStream@CDocument@@UAEJPAUIStream@@K@Z 006c903a f   mfc100d:mfc100d.dll
 0002:001d2040       ?OnPreviewHandlerQueryFocus@CDocument@@UAEJPAPAUHWND__@@@Z 006c9040 f   mfc100d:mfc100d.dll
 0002:001d2046       ?OnPreviewHandlerTranslateAccelerator@CDocument@@UAEJPAUtagMSG@@@Z 006c9046 f   mfc100d:mfc100d.dll
 0002:001d204c       ?OnCreatePreviewFrame@CDocument@@UAEHXZ 006c904c f   mfc100d:mfc100d.dll
 0002:001d2052       ?OnUnloadHandler@CDocument@@UAEXXZ 006c9052 f   mfc100d:mfc100d.dll
 0002:001d2058       ?OnDrawThumbnail@CDocument@@UAEXAAVCDC@@PAUtagRECT@@@Z 006c9058 f   mfc100d:mfc100d.dll
 0002:001d205e       ?SendInitialUpdate@CDocument@@QAEXXZ 006c905e f   mfc100d:mfc100d.dll
 0002:001d2064       ?OnNewDocument@CDocument@@UAEHXZ 006c9064 f   mfc100d:mfc100d.dll
 0002:001d206a       ?AssertValid@CDocument@@UBEXXZ 006c906a f   mfc100d:mfc100d.dll
 0002:001d2070       ?Dump@CDocument@@UBEXAAVCDumpContext@@@Z 006c9070 f   mfc100d:mfc100d.dll
 0002:001d2076       ?OnSaveDocument@CDocument@@UAEHPBD@Z 006c9076 f   mfc100d:mfc100d.dll
 0002:001d207c       ?GetSafeHwnd@CWnd@@QBEPAUHWND__@@XZ 006c907c f   mfc100d:mfc100d.dll
 0002:001d2082       ?GetMainWnd@CWinThread@@UAEPAVCWnd@@XZ 006c9082 f   mfc100d:mfc100d.dll
 0002:001d2088       ?GetActiveWindow@CWnd@@SGPAV1@XZ 006c9088 f   mfc100d:mfc100d.dll
 0002:001d208e       ?GetLastWriteTime@CFileFind@@UBEHAAVCTime@ATL@@@Z 006c908e f   mfc100d:mfc100d.dll
 0002:001d2094       ?Seek@CStdioFile@@UAE_K_JI@Z 006c9094 f   mfc100d:mfc100d.dll
 0002:001d209a       ?GetFilePath@CFileFind@@UBE?AV?$CStringT@DV?$StrTraitMFC_DLL@DV?$ChTraitsCRT@D@ATL@@@@@ATL@@XZ 006c909a f   mfc100d:mfc100d.dll
 0002:001d20a0       ?IsDots@CFileFind@@UBEHXZ  006c90a0 f   mfc100d:mfc100d.dll
 0002:001d20a6       ?GetSafeHmenu@CMenu@@QBEPAUHMENU__@@XZ 006c90a6 f   mfc100d:mfc100d.dll
 0002:001d20ac       ?DeleteMenu@CMenu@@QAEHII@Z 006c90ac f   mfc100d:mfc100d.dll
 0002:001d20b2       ?Delete@CException@@QAEXXZ 006c90b2 f   mfc100d:mfc100d.dll
 0002:001d20b8       ??2@YAPAXI@Z               006c90b8 f   mfc100d:mfc100d.dll
 0002:001d20be       ?OnMove@CWnd@@IAEXHH@Z     006c90be f   mfc100d:mfc100d.dll
 0002:001d20c4       ?OnKeyUp@CWnd@@IAEXIII@Z   006c90c4 f   mfc100d:mfc100d.dll
 0002:001d20ca       ?FindWindowA@CWnd@@SGPAV1@PBD0@Z 006c90ca f   mfc100d:mfc100d.dll
 0002:001d20d0       ?GetThisMessageMap@CWinApp@@KGPBUAFX_MSGMAP@@XZ 006c90d0 f   mfc100d:mfc100d.dll
 0002:001d20d6       ?OnFilePrintSetup@CWinApp@@IAEXXZ 006c90d6 f   mfc100d:mfc100d.dll
 0002:001d20dc       ?OnFileOpen@CWinApp@@IAEXXZ 006c90dc f   mfc100d:mfc100d.dll
 0002:001d20e2       ?OnFileNew@CWinApp@@IAEXXZ 006c90e2 f   mfc100d:mfc100d.dll
 0002:001d20e8       ??1CWinApp@@UAE@XZ         006c90e8 f   mfc100d:mfc100d.dll
 0002:001d20ee       ??0CWinApp@@QAE@PBD@Z      006c90ee f   mfc100d:mfc100d.dll
 0002:001d20f4       ?GetRuntimeClass@CWinApp@@UBEPAUCRuntimeClass@@XZ 006c90f4 f   mfc100d:mfc100d.dll
 0002:001d20fa       ?AssertValid@CWinApp@@UBEXXZ 006c90fa f   mfc100d:mfc100d.dll
 0002:001d2100       ?Dump@CWinApp@@UBEXAAVCDumpContext@@@Z 006c9100 f   mfc100d:mfc100d.dll
 0002:001d2106       ?OnCmdMsg@CCmdTarget@@UAEHIHPAXPAUAFX_CMDHANDLERINFO@@@Z 006c9106 f   mfc100d:mfc100d.dll
 0002:001d210c       ?OnFinalRelease@CCmdTarget@@UAEXXZ 006c910c f   mfc100d:mfc100d.dll
 0002:001d2112       ?Run@CWinApp@@UAEHXZ       006c9112 f   mfc100d:mfc100d.dll
 0002:001d2118       ?PreTranslateMessage@CWinThread@@UAEHPAUtagMSG@@@Z 006c9118 f   mfc100d:mfc100d.dll
 0002:001d211e       ?PumpMessage@CWinThread@@UAEHXZ 006c911e f   mfc100d:mfc100d.dll
 0002:001d2124       ?OnIdle@CWinApp@@UAEHJ@Z   006c9124 f   mfc100d:mfc100d.dll
 0002:001d212a       ?IsIdleMessage@CWinThread@@UAEHPAUtagMSG@@@Z 006c912a f   mfc100d:mfc100d.dll
 0002:001d2130       ?ProcessWndProcException@CWinApp@@UAEJPAVCException@@PBUtagMSG@@@Z 006c9130 f   mfc100d:mfc100d.dll
 0002:001d2136       ?ProcessMessageFilter@CWinThread@@UAEHHPAUtagMSG@@@Z 006c9136 f   mfc100d:mfc100d.dll
 0002:001d213c       ?Delete@CWinThread@@UAEXXZ 006c913c f   mfc100d:mfc100d.dll
 0002:001d2142       ?GetProfileIntA@CWinApp@@UAEIPBD0H@Z 006c9142 f   mfc100d:mfc100d.dll
 0002:001d2148       ?WriteProfileInt@CWinApp@@UAEHPBD0H@Z 006c9148 f   mfc100d:mfc100d.dll
 0002:001d214e       ?GetProfileStringA@CWinApp@@UAE?AV?$CStringT@DV?$StrTraitMFC_DLL@DV?$ChTraitsCRT@D@ATL@@@@@ATL@@PBD00@Z 006c914e f   mfc100d:mfc100d.dll
 0002:001d2154       ?WriteProfileStringA@CWinApp@@UAEHPBD00@Z 006c9154 f   mfc100d:mfc100d.dll
 0002:001d215a       ?GetProfileBinary@CWinApp@@UAEHPBD0PAPAEPAI@Z 006c915a f   mfc100d:mfc100d.dll
 0002:001d2160       ?WriteProfileBinary@CWinApp@@UAEHPBD0PAEI@Z 006c9160 f   mfc100d:mfc100d.dll
 0002:001d2166       ?InitLibId@CWinApp@@UAEXXZ 006c9166 f   mfc100d:mfc100d.dll
 0002:001d216c       ?Register@CWinApp@@UAEHXZ  006c916c f   mfc100d:mfc100d.dll
 0002:001d2172       ?Unregister@CWinApp@@UAEHXZ 006c9172 f   mfc100d:mfc100d.dll
 0002:001d2178       ?OpenDocumentFile@CWinApp@@UAEPAVCDocument@@PBDH@Z 006c9178 f   mfc100d:mfc100d.dll
 0002:001d217e       ?OpenDocumentFile@CWinApp@@UAEPAVCDocument@@PBD@Z 006c917e f   mfc100d:mfc100d.dll
 0002:001d2184       ?AddToRecentFileList@CWinApp@@UAEXPBD@Z 006c9184 f   mfc100d:mfc100d.dll
 0002:001d218a       ?InitApplication@CWinApp@@UAEHXZ 006c918a f   mfc100d:mfc100d.dll
 0002:001d2190       ?SaveAllModified@CWinApp@@UAEHXZ 006c9190 f   mfc100d:mfc100d.dll
 0002:001d2196       ?DoWaitCursor@CWinApp@@UAEXH@Z 006c9196 f   mfc100d:mfc100d.dll
 0002:001d219c       ?OnDDECommand@CWinApp@@UAEHPAD@Z 006c919c f   mfc100d:mfc100d.dll
 0002:001d21a2       ?WinHelpA@CWinApp@@UAEXKI@Z 006c91a2 f   mfc100d:mfc100d.dll
 0002:001d21a8       ?HtmlHelpA@CWinApp@@UAEXKI@Z 006c91a8 f   mfc100d:mfc100d.dll
 0002:001d21ae       ?WinHelpInternal@CWinApp@@UAEXKI@Z 006c91ae f   mfc100d:mfc100d.dll
 0002:001d21b4       ?RegisterWithRestartManager@CWinApp@@UAEJPB_WKP6GKPAX@Z1KK@Z 006c91b4 f   mfc100d:mfc100d.dll
 0002:001d21ba       ?RegisterWithRestartManager@CWinApp@@UAEJHABV?$CStringT@DV?$StrTraitMFC_DLL@DV?$ChTraitsCRT@D@ATL@@@@@ATL@@@Z 006c91ba f   mfc100d:mfc100d.dll
 0002:001d21c0       ?ApplicationRecoveryCallback@CWinApp@@UAEKPAX@Z 006c91c0 f   mfc100d:mfc100d.dll
 0002:001d21c6       ?GetDataRecoveryHandler@CWinApp@@UAEPAVCDataRecoveryHandler@@XZ 006c91c6 f   mfc100d:mfc100d.dll
 0002:001d21cc       ?IsTaskbarInteractionEnabled@CWinApp@@UAEHXZ 006c91cc f   mfc100d:mfc100d.dll
 0002:001d21d2       ?RestartInstance@CWinApp@@UAEHXZ 006c91d2 f   mfc100d:mfc100d.dll
 0002:001d21d8       ?LoadAppLangResourceDLL@CWinApp@@UAEPAUHINSTANCE__@@XZ 006c91d8 f   mfc100d:mfc100d.dll
 0002:001d21de       ?LoadSysPolicies@CWinApp@@UAEHXZ 006c91de f   mfc100d:mfc100d.dll
 0002:001d21e4       ?GetActiveView@CFrameWnd@@QBEPAVCView@@XZ 006c91e4 f   mfc100d:mfc100d.dll
 0002:001d21ea       ??1CCommandLineInfo@@UAE@XZ 006c91ea f   mfc100d:mfc100d.dll
 0002:001d21f0       ?ProcessShellCommand@CWinApp@@QAEHAAVCCommandLineInfo@@@Z 006c91f0 f   mfc100d:mfc100d.dll
 0002:001d21f6       ?ParseCommandLine@CWinApp@@QAEXAAVCCommandLineInfo@@@Z 006c91f6 f   mfc100d:mfc100d.dll
 0002:001d21fc       ??0CCommandLineInfo@@QAE@XZ 006c91fc f   mfc100d:mfc100d.dll
 0002:001d2202       ?AddDocTemplate@CWinApp@@QAEXPAVCDocTemplate@@@Z 006c9202 f   mfc100d:mfc100d.dll
 0002:001d2208       ??0CSingleDocTemplate@@QAE@IPAUCRuntimeClass@@00@Z 006c9208 f   mfc100d:mfc100d.dll
 0002:001d220e       ?EnableShellOpen@CWinApp@@IAEXXZ 006c920e f   mfc100d:mfc100d.dll
 0002:001d2214       ?LoadStdProfileSettings@CWinApp@@IAEXI@Z 006c9214 f   mfc100d:mfc100d.dll
 0002:001d221a       ?SetRegistryKey@CWinApp@@IAEXPBD@Z 006c921a f   mfc100d:mfc100d.dll
 0002:001d2220       ?Enable3dControls@CWinApp@@IAEHXZ 006c9220 f   mfc100d:mfc100d.dll
 0002:001d2226       ?AfxEnableControlContainer@@YAXPAVCOccManager@@@Z 006c9226 f   mfc100d:mfc100d.dll
 0002:001d222c       ?SetActiveView@CFrameWnd@@QAEXPAVCView@@H@Z 006c922c f   mfc100d:mfc100d.dll
 0002:001d2232       ?AfxStaticDownCast@@YAPAVCObject@@PAUCRuntimeClass@@PAV1@@Z 006c9232 f   mfc100d:mfc100d.dll
 0002:001d2238       ?CreateView@CFrameWnd@@QAEPAVCWnd@@PAUCCreateContext@@I@Z 006c9238 f   mfc100d:mfc100d.dll
 0002:001d223e       ??0CCreateContext@@QAE@XZ  006c923e f   mfc100d:mfc100d.dll
 0002:001d2244       ?ExitInstance@CWinApp@@UAEHXZ 006c9244 f   mfc100d:mfc100d.dll
 0002:001d224a       ?OnOpenRecentFile@CWinApp@@IAEHI@Z 006c924a f   mfc100d:mfc100d.dll
 0002:001d2250       ?DoMessageBox@CWinApp@@UAEHPBDII@Z 006c9250 f   mfc100d:mfc100d.dll
 0002:001d2256       ?Remove@?$CStringT@DV?$StrTraitMFC_DLL@DV?$ChTraitsCRT@D@ATL@@@@@ATL@@QAEHD@Z 006c9256 f   mfc100d:mfc100d.dll
 0002:001d225c       ?MakeUpper@?$CStringT@DV?$StrTraitMFC_DLL@DV?$ChTraitsCRT@D@ATL@@@@@ATL@@QAEAAV12@XZ 006c925c f   mfc100d:mfc100d.dll
 0002:001d2262       ?GetThisMessageMap@CFrameWnd@@KGPBUAFX_MSGMAP@@XZ 006c9262 f   mfc100d:mfc100d.dll
 0002:001d2268       ?GetThisClass@CFrameWnd@@SGPAUCRuntimeClass@@XZ 006c9268 f   mfc100d:mfc100d.dll
 0002:001d226e       ??1CFrameWnd@@UAE@XZ       006c926e f   mfc100d:mfc100d.dll
 0002:001d2274       ??0CStatusBar@@QAE@XZ      006c9274 f   mfc100d:mfc100d.dll
 0002:001d227a       ??0CFrameWnd@@QAE@XZ       006c927a f   mfc100d:mfc100d.dll
 0002:001d2280       ?OnCmdMsg@CFrameWnd@@UAEHIHPAXPAUAFX_CMDHANDLERINFO@@@Z 006c9280 f   mfc100d:mfc100d.dll
 0002:001d2286       ?GetMenu@CFrameWnd@@UBEPAVCMenu@@XZ 006c9286 f   mfc100d:mfc100d.dll
 0002:001d228c       ?SetMenu@CFrameWnd@@UAEHPAVCMenu@@@Z 006c928c f   mfc100d:mfc100d.dll
 0002:001d2292       ?OnCommand@CFrameWnd@@MAEHIJ@Z 006c9292 f   mfc100d:mfc100d.dll
 0002:001d2298       ?BeginModalState@CFrameWnd@@UAEXXZ 006c9298 f   mfc100d:mfc100d.dll
 0002:001d229e       ?EndModalState@CFrameWnd@@UAEXXZ 006c929e f   mfc100d:mfc100d.dll
 0002:001d22a4       ?PreTranslateMessage@CFrameWnd@@UAEHPAUtagMSG@@@Z 006c92a4 f   mfc100d:mfc100d.dll
 0002:001d22aa       ?PostNcDestroy@CFrameWnd@@MAEXXZ 006c92aa f   mfc100d:mfc100d.dll
 0002:001d22b0       ?IsFrameWnd@CFrameWnd@@UBEHXZ 006c92b0 f   mfc100d:mfc100d.dll
 0002:001d22b6       ?Create@CFrameWnd@@UAEHPBD0KABUtagRECT@@PAVCWnd@@0KPAUCCreateContext@@@Z 006c92b6 f   mfc100d:mfc100d.dll
 0002:001d22bc       ?LoadFrame@CFrameWnd@@UAEHIKPAVCWnd@@PAUCCreateContext@@@Z 006c92bc f   mfc100d:mfc100d.dll
 0002:001d22c2       ?GetActiveDocument@CFrameWnd@@UAEPAVCDocument@@XZ 006c92c2 f   mfc100d:mfc100d.dll
 0002:001d22c8       ?GetActiveFrame@CFrameWnd@@UAEPAV1@XZ 006c92c8 f   mfc100d:mfc100d.dll
 0002:001d22ce       ?GetMessageString@CFrameWnd@@UBEXIAAV?$CStringT@DV?$StrTraitMFC_DLL@DV?$ChTraitsCRT@D@ATL@@@@@ATL@@@Z 006c92ce f   mfc100d:mfc100d.dll
 0002:001d22d4       ?RecalcLayout@CFrameWnd@@UAEXH@Z 006c92d4 f   mfc100d:mfc100d.dll
 0002:001d22da       ?ActivateFrame@CFrameWnd@@UAEXH@Z 006c92da f   mfc100d:mfc100d.dll
 0002:001d22e0       ?SetMenuBarVisibility@CFrameWnd@@UAEXK@Z 006c92e0 f   mfc100d:mfc100d.dll
 0002:001d22e6       ?GetMenuBarVisibility@CFrameWnd@@UBEKXZ 006c92e6 f   mfc100d:mfc100d.dll
 0002:001d22ec       ?SetMenuBarState@CFrameWnd@@UAEHK@Z 006c92ec f   mfc100d:mfc100d.dll
 0002:001d22f2       ?GetMenuBarState@CFrameWnd@@UBEKXZ 006c92f2 f   mfc100d:mfc100d.dll
 0002:001d22f8       ?OnSetPreviewMode@CFrameWnd@@UAEXHPAUCPrintPreviewState@@@Z 006c92f8 f   mfc100d:mfc100d.dll
 0002:001d22fe       ?GetMessageBar@CFrameWnd@@UAEPAVCWnd@@XZ 006c92fe f   mfc100d:mfc100d.dll
 0002:001d2304       ?NegotiateBorderSpace@CFrameWnd@@UAEHIPAUtagRECT@@@Z 006c9304 f   mfc100d:mfc100d.dll
 0002:001d230a       ?OnCreateClient@CFrameWnd@@MAEHPAUtagCREATESTRUCTA@@PAUCCreateContext@@@Z 006c930a f   mfc100d:mfc100d.dll
 0002:001d2310       ?OnUpdateFrameTitle@CFrameWnd@@UAEXH@Z 006c9310 f   mfc100d:mfc100d.dll
 0002:001d2316       ?OnUpdateFrameMenu@CFrameWnd@@UAEXPAUHMENU__@@@Z 006c9316 f   mfc100d:mfc100d.dll
 0002:001d231c       ?GetDefaultAccelerator@CFrameWnd@@UAEPAUHACCEL__@@XZ 006c931c f   mfc100d:mfc100d.dll
 0002:001d2322       ?DelayUpdateFrameMenu@CFrameWnd@@UAEXPAUHMENU__@@@Z 006c9322 f   mfc100d:mfc100d.dll
 0002:001d2328       ?ExitHelpMode@CFrameWnd@@UAEXXZ 006c9328 f   mfc100d:mfc100d.dll
 0002:001d232e       ?OnShowMenuBar@CFrameWnd@@MAEXXZ 006c932e f   mfc100d:mfc100d.dll
 0002:001d2334       ?OnHideMenuBar@CFrameWnd@@MAEXXZ 006c9334 f   mfc100d:mfc100d.dll
 0002:001d233a       ??1CStatusBar@@UAE@XZ      006c933a f   mfc100d:mfc100d.dll
 0002:001d2340       ?DragAcceptFiles@CWnd@@QAEXH@Z 006c9340 f   mfc100d:mfc100d.dll
 0002:001d2346       ?SetTimer@CWnd@@QAEIIIP6GXPAUHWND__@@IIK@Z@Z 006c9346 f   mfc100d:mfc100d.dll
 0002:001d234c       ?SetPaneText@CStatusBar@@QAEHHPBDH@Z 006c934c f   mfc100d:mfc100d.dll
 0002:001d2352       ?GetFont@CWnd@@QBEPAVCFont@@XZ 006c9352 f   mfc100d:mfc100d.dll
 0002:001d2358       ?SetPaneInfo@CStatusBar@@QAEXHIIH@Z 006c9358 f   mfc100d:mfc100d.dll
 0002:001d235e       ?GetPaneInfo@CStatusBar@@QBEXHAAI0AAH@Z 006c935e f   mfc100d:mfc100d.dll
 0002:001d2364       ?SetIndicators@CStatusBar@@QAEHPBIH@Z 006c9364 f   mfc100d:mfc100d.dll
 0002:001d236a       ?OnCreate@CFrameWnd@@IAEHPAUtagCREATESTRUCTA@@@Z 006c936a f   mfc100d:mfc100d.dll
 0002:001d2370       ?PreCreateWindow@CFrameWnd@@MAEHAAUtagCREATESTRUCTA@@@Z 006c9370 f   mfc100d:mfc100d.dll
 0002:001d2376       ?AssertValid@CFrameWnd@@UBEXXZ 006c9376 f   mfc100d:mfc100d.dll
 0002:001d237c       ?Dump@CFrameWnd@@UBEXAAVCDumpContext@@@Z 006c937c f   mfc100d:mfc100d.dll
 0002:001d2382       ?OnSysCommand@CFrameWnd@@IAEXIJ@Z 006c9382 f   mfc100d:mfc100d.dll
 0002:001d2388       ?OnTimer@CWnd@@IAEXI@Z     006c9388 f   mfc100d:mfc100d.dll
 0002:001d238e       ?OnSetCursor@CFrameWnd@@IAEHPAVCWnd@@II@Z 006c938e f   mfc100d:mfc100d.dll
 0002:001d2394       ?OnSize@CFrameWnd@@IAEXIHH@Z 006c9394 f   mfc100d:mfc100d.dll
 0002:001d239a       ?GetWindowPlacement@CWnd@@QBEHPAUtagWINDOWPLACEMENT@@@Z 006c939a f   mfc100d:mfc100d.dll
 0002:001d23a0       ?GetThisMessageMap@CToolBar@@KGPBUAFX_MSGMAP@@XZ 006c93a0 f   mfc100d:mfc100d.dll
 0002:001d23a6       ?GetThisClass@CToolBar@@SGPAUCRuntimeClass@@XZ 006c93a6 f   mfc100d:mfc100d.dll
 0002:001d23ac       ??1CToolBar@@UAE@XZ        006c93ac f   mfc100d:mfc100d.dll
 0002:001d23b2       ??0CToolBar@@QAE@XZ        006c93b2 f   mfc100d:mfc100d.dll
 0002:001d23b8       ?AssertValid@CToolBar@@UBEXXZ 006c93b8 f   mfc100d:mfc100d.dll
 0002:001d23be       ?Dump@CToolBar@@UBEXAAVCDumpContext@@@Z 006c93be f   mfc100d:mfc100d.dll
 0002:001d23c4       ?DestroyWindow@CControlBar@@UAEHXZ 006c93c4 f   mfc100d:mfc100d.dll
 0002:001d23ca       ?PreCreateWindow@CControlBar@@UAEHAAUtagCREATESTRUCTA@@@Z 006c93ca f   mfc100d:mfc100d.dll
 0002:001d23d0       ?OnToolHitTest@CToolBar@@UBEHVCPoint@@PAUtagTOOLINFOA@@@Z 006c93d0 f   mfc100d:mfc100d.dll
 0002:001d23d6       ?get_accName@CToolBar@@UAEJUtagVARIANT@@PAPA_W@Z 006c93d6 f   mfc100d:mfc100d.dll
 0002:001d23dc       ?PreTranslateMessage@CControlBar@@UAEHPAUtagMSG@@@Z 006c93dc f   mfc100d:mfc100d.dll
 0002:001d23e2       ?WindowProc@CControlBar@@UAEJIIJ@Z 006c93e2 f   mfc100d:mfc100d.dll
 0002:001d23e8       ?PostNcDestroy@CControlBar@@UAEXXZ 006c93e8 f   mfc100d:mfc100d.dll
 0002:001d23ee       ?CalcFixedLayout@CToolBar@@UAE?AVCSize@@HH@Z 006c93ee f   mfc100d:mfc100d.dll
 0002:001d23f4       ?CalcDynamicLayout@CToolBar@@UAE?AVCSize@@HK@Z 006c93f4 f   mfc100d:mfc100d.dll
 0002:001d23fa       ?OnUpdateCmdUI@CToolBar@@UAEXPAVCFrameWnd@@H@Z 006c93fa f   mfc100d:mfc100d.dll
 0002:001d2400       ?CalcInsideRect@CControlBar@@UBEXAAVCRect@@H@Z 006c9400 f   mfc100d:mfc100d.dll
 0002:001d2406       ?DoPaint@CControlBar@@UAEXPAVCDC@@@Z 006c9406 f   mfc100d:mfc100d.dll
 0002:001d240c       ?DrawBorders@CControlBar@@UAEXPAVCDC@@AAVCRect@@@Z 006c940c f   mfc100d:mfc100d.dll
 0002:001d2412       ?DrawGripper@CControlBar@@UAEXPAVCDC@@ABVCRect@@@Z 006c9412 f   mfc100d:mfc100d.dll
 0002:001d2418       ?DrawNCGripper@CControlBar@@UAEXPAVCDC@@ABVCRect@@@Z 006c9418 f   mfc100d:mfc100d.dll
 0002:001d241e       ?DrawThemedGripper@CControlBar@@UAEHPAVCDC@@ABVCRect@@H@Z 006c941e f   mfc100d:mfc100d.dll
 0002:001d2424       ?DrawNonThemedGripper@CControlBar@@UAEHPAVCDC@@ABVCRect@@@Z 006c9424 f   mfc100d:mfc100d.dll
 0002:001d242a       ?DelayShow@CControlBar@@UAEXH@Z 006c942a f   mfc100d:mfc100d.dll
 0002:001d2430       ?IsVisible@CControlBar@@UBEHXZ 006c9430 f   mfc100d:mfc100d.dll
 0002:001d2436       ?RecalcDelayShow@CControlBar@@UAEKPAUAFX_SIZEPARENTPARAMS@@@Z 006c9436 f   mfc100d:mfc100d.dll
 0002:001d243c       ?IsDockBar@CControlBar@@UBEHXZ 006c943c f   mfc100d:mfc100d.dll
 0002:001d2442       ?OnBarStyleChange@CToolBar@@UAEXKK@Z 006c9442 f   mfc100d:mfc100d.dll
 0002:001d2448       ?SetStatusText@CControlBar@@UAEHH@Z 006c9448 f   mfc100d:mfc100d.dll
 0002:001d244e       ?Create@CToolBar@@UAEHPAVCWnd@@KI@Z 006c944e f   mfc100d:mfc100d.dll
 0002:001d2454       ?CreateEx@CToolBar@@UAEHPAVCWnd@@KKVCRect@@I@Z 006c9454 f   mfc100d:mfc100d.dll
 0002:001d245a       ?GetItemRect@CToolBar@@UBEXHPAUtagRECT@@@Z 006c945a f   mfc100d:mfc100d.dll
 0002:001d2460       ?SetFont@CWnd@@QAEXPAVCFont@@H@Z 006c9460 f   mfc100d:mfc100d.dll
 0002:001d2466       ?SetButtonInfo@CToolBar@@QAEXHIIH@Z 006c9466 f   mfc100d:mfc100d.dll
 0002:001d246c       ?LoadToolBar@CToolBar@@QAEHI@Z 006c946c f   mfc100d:mfc100d.dll
 0002:001d2472       ?OnCreate@CControlBar@@QAEHPAUtagCREATESTRUCTA@@@Z 006c9472 f   mfc100d:mfc100d.dll
 0002:001d2478       ?ResetContent@CComboBox@@QAEXXZ 006c9478 f   mfc100d:mfc100d.dll
 0002:001d247e       ?GetSize@CMapStringToPtr@@QBEHXZ 006c947e f   mfc100d:mfc100d.dll
 0002:001d2484       ?Append@?$CSimpleStringT@D$00@ATL@@QAEXABV12@@Z 006c9484 f   mfc100d:mfc100d.dll
 0002:001d248a       ?GetThisMessageMap@CWnd@@KGPBUAFX_MSGMAP@@XZ 006c948a f   mfc100d:mfc100d.dll
 0002:001d2490       ?GetSafeOwner@CWnd@@SGPAV1@PAV1@PAPAUHWND__@@@Z 006c9490 f   mfc100d:mfc100d.dll
 0002:001d2496       ??0CWnd@@QAE@XZ            006c9496 f   mfc100d:mfc100d.dll
 0002:001d249c       ?GetRuntimeClass@CWnd@@UBEPAUCRuntimeClass@@XZ 006c949c f   mfc100d:mfc100d.dll
 0002:001d24a2       ?AssertValid@CWnd@@UBEXXZ  006c94a2 f   mfc100d:mfc100d.dll
 0002:001d24a8       ?Dump@CWnd@@UBEXAAVCDumpContext@@@Z 006c94a8 f   mfc100d:mfc100d.dll
 0002:001d24ae       ?SubclassWindow@CWnd@@QAEHPAUHWND__@@@Z 006c94ae f   mfc100d:mfc100d.dll
 0002:001d24b4       ?EndWaitCursor@CCmdTarget@@QAEXXZ 006c94b4 f   mfc100d:mfc100d.dll
 0002:001d24ba       ?CloseEnhanced@CMetaFileDC@@QAEPAUHENHMETAFILE__@@XZ 006c94ba f   mfc100d:mfc100d.dll
 0002:001d24c0       ??BCDC@@QBEPAUHDC__@@XZ    006c94c0 f   mfc100d:mfc100d.dll
 0002:001d24c6       ?CreateEnhanced@CMetaFileDC@@QAEHPAVCDC@@PBDPBUtagRECT@@1@Z 006c94c6 f   mfc100d:mfc100d.dll
 0002:001d24cc       ?GetDeviceCaps@CDC@@QBEHH@Z 006c94cc f   mfc100d:mfc100d.dll
 0002:001d24d2       ??0CPtrArray@@QAE@XZ       006c94d2 f   mfc100d:mfc100d.dll
 0002:001d24d8       ?GetRuntimeClass@CPtrArray@@UBEPAUCRuntimeClass@@XZ 006c94d8 f   mfc100d:mfc100d.dll
 0002:001d24de       ?AssertValid@CPtrArray@@UBEXXZ 006c94de f   mfc100d:mfc100d.dll
 0002:001d24e4       ?Dump@CPtrArray@@UBEXAAVCDumpContext@@@Z 006c94e4 f   mfc100d:mfc100d.dll
 0002:001d24ea       ??1CPtrArray@@UAE@XZ       006c94ea f   mfc100d:mfc100d.dll
 0002:001d24f0       ?RemoveAll@CPtrArray@@QAEXXZ 006c94f0 f   mfc100d:mfc100d.dll
 0002:001d24f6       ??1CFileDialog@@UAE@XZ     006c94f6 f   mfc100d:mfc100d.dll
 0002:001d24fc       ?GetPathName@CFileDialog@@QBE?AV?$CStringT@DV?$StrTraitMFC_DLL@DV?$ChTraitsCRT@D@ATL@@@@@ATL@@XZ 006c94fc f   mfc100d:mfc100d.dll
 0002:001d2502       ?DoModal@CFileDialog@@UAEHXZ 006c9502 f   mfc100d:mfc100d.dll
 0002:001d2508       ?GetOFN@CFileDialog@@QAEAAUtagOFNA@@XZ 006c9508 f   mfc100d:mfc100d.dll
 0002:001d250e       ??0CFileDialog@@QAE@HPBD0K0PAVCWnd@@KH@Z 006c950e f   mfc100d:mfc100d.dll
 0002:001d2514       ?Add@CPtrArray@@QAEHPAX@Z  006c9514 f   mfc100d:mfc100d.dll
 0002:001d251a       ??ACPtrArray@@QAEAAPAXH@Z  006c951a f   mfc100d:mfc100d.dll
 0002:001d2520       ?GetBuffer@?$CSimpleStringT@D$00@ATL@@QAEPADXZ 006c9520 f   mfc100d:mfc100d.dll
 0002:001d2526       ?SpanIncluding@?$CStringT@DV?$StrTraitMFC_DLL@DV?$ChTraitsCRT@D@ATL@@@@@ATL@@QBE?AV12@PBD@Z 006c9526 f   mfc100d:mfc100d.dll
 0002:001d252c       ?Arc@CDC@@QAEHHHHHHHHH@Z   006c952c f   mfc100d:mfc100d.dll
 0002:001d2532       ?Arc@CDC@@QAEHPBUtagRECT@@UtagPOINT@@1@Z 006c9532 f   mfc100d:mfc100d.dll
 0002:001d2538       ??4?$CStringT@DV?$StrTraitMFC_DLL@DV?$ChTraitsCRT@D@ATL@@@@@ATL@@QAEAAV01@PBE@Z 006c9538 f   mfc100d:mfc100d.dll
 0002:001d253e       __CrtDbgReport             006c953e f   msvcrtd:MSVCR100D.dll
 0002:001d2550       __RTC_CheckEsp             006c9550 f   msvcrtd:_stack_.obj
 0002:001d2580       @_RTC_CheckStackVars@8     006c9580 f   msvcrtd:_stack_.obj
 0002:001d2600       @_RTC_AllocaHelper@12      006c9600 f   msvcrtd:_stack_.obj
 0002:001d2640       @_RTC_CheckStackVars2@12   006c9640 f   msvcrtd:_stack_.obj
 0002:001d2750       __RTC_InitBase             006c9750 f   msvcrtd:_init_.obj
 0002:001d2790       __RTC_Shutdown             006c9790 f   msvcrtd:_init_.obj
 0002:001d27a8       _srand                     006c97a8 f   msvcrtd:MSVCR100D.dll
 0002:001d27ae       __wassert                  006c97ae f   msvcrtd:MSVCR100D.dll
 0002:001d27b4       _rand                      006c97b4 f   msvcrtd:MSVCR100D.dll
 0002:001d27c0       ?_RTC_Failure@@YAXPAXH@Z   006c97c0 f   msvcrtd:_error_.obj
 0002:001d2c50       ?_RTC_StackFailure@@YAXPAXPBD@Z 006c9c50 f   msvcrtd:_error_.obj
 0002:001d2d90       ?_RTC_AllocaFailure@@YAXPAXPAU_RTC_ALLOCA_NODE@@H@Z 006c9d90 f   msvcrtd:_error_.obj
 0002:001d2fa0       __RTC_UninitUse            006c9fa0 f   msvcrtd:_error_.obj
 0002:001d30c4       ___CxxFrameHandler3        006ca0c4 f   msvcrtd:MSVCR100D.dll
 0002:001d30d0       @__security_check_cookie@4 006ca0d0 f   msvcrtd:secchk.obj
 0002:001d30f0       __ftol2_sse                006ca0f0 f   msvcrtd:ftol2.obj
 0002:001d30f9       __ftol2_pentium4           006ca0f9 f   msvcrtd:ftol2.obj
 0002:001d310c       __ftol2_sse_excpt          006ca10c f   msvcrtd:ftol2.obj
 0002:001d3126       __ftol2                    006ca126 f   msvcrtd:ftol2.obj
 0002:001d31c6       _free                      006ca1c6 f   msvcrtd:MSVCR100D.dll
 0002:001d31cc       _abs                       006ca1cc f   msvcrtd:MSVCR100D.dll
 0002:001d31e0       __chkstk                   006ca1e0 f   msvcrtd:chkstk.obj
 0002:001d31e0       __alloca_probe             006ca1e0     msvcrtd:chkstk.obj
 0002:001d3220       __allmul                   006ca220 f   msvcrtd:llmul.obj
 0002:001d3262       _floor                     006ca262 f   msvcrtd:MSVCR100D.dll
 0002:001d3268       _calloc                    006ca268 f   msvcrtd:MSVCR100D.dll
 0002:001d3270       ??0type_info@@AAE@ABV0@@Z  006ca270 f   msvcrtd:ti_inst.obj
 0002:001d32a0       ??_Etype_info@@UAEPAXI@Z   006ca2a0 f i msvcrtd:ti_inst.obj
 0002:001d3330       ??4type_info@@AAEAAV0@ABV0@@Z 006ca330 f   msvcrtd:ti_inst.obj
 0002:001d3346       _memset                    006ca346 f   msvcrtd:MSVCR100D.dll
 0002:001d334c       _memcpy_s                  006ca34c f   msvcrtd:MSVCR100D.dll
 0002:001d3352       _atoi                      006ca352 f   msvcrtd:MSVCR100D.dll
 0002:001d3358       _atof                      006ca358 f   msvcrtd:MSVCR100D.dll
 0002:001d3360       __onexit                   006ca360 f   msvcrtd:atonexit.obj
 0002:001d3490       _atexit                    006ca490 f   msvcrtd:atonexit.obj
 0002:001d34c0       ??_L@YGXPAXIHP6EX0@Z1@Z    006ca4c0 f   msvcrtd:ehvecctr.obj
 0002:001d35a0       ??_M@YGXPAXIHP6EX0@Z@Z     006ca5a0 f   msvcrtd:ehvecdtr.obj
 0002:001d3680       ?__ArrayUnwind@@YGXPAXIHP6EX0@Z@Z 006ca680 f   msvcrtd:ehvecdtr.obj
 0002:001d376a       _memmove_s                 006ca76a f   msvcrtd:MSVCR100D.dll
 0002:001d3770       __chdir                    006ca770 f   msvcrtd:MSVCR100D.dll
 0002:001d3776       __mkdir                    006ca776 f   msvcrtd:MSVCR100D.dll
 0002:001d377c       __stat64i32                006ca77c f   msvcrtd:MSVCR100D.dll
 0002:001d3782       __localtime64              006ca782 f   msvcrtd:MSVCR100D.dll
 0002:001d3788       __time64                   006ca788 f   msvcrtd:MSVCR100D.dll
 0002:001d378e       _strcmp                    006ca78e f   msvcrtd:MSVCR100D.dll
 0002:001d3794       _cos                       006ca794 f   msvcrtd:MSVCR100D.dll
 0002:001d379a       _sin                       006ca79a f   msvcrtd:MSVCR100D.dll
 0002:001d37a0       _sqrt                      006ca7a0 f   msvcrtd:MSVCR100D.dll
 0002:001d37a6       _fabs                      006ca7a6 f   msvcrtd:MSVCR100D.dll
 0002:001d37ac       _qsort                     006ca7ac f   msvcrtd:MSVCR100D.dll
 0002:001d37b2       _malloc                    006ca7b2 f   msvcrtd:MSVCR100D.dll
 0002:001d37b8       _ldiv                      006ca7b8 f   msvcrtd:MSVCR100D.dll
 0002:001d37be       _rename                    006ca7be f   msvcrtd:MSVCR100D.dll
 0002:001d37c4       _remove                    006ca7c4 f   msvcrtd:MSVCR100D.dll
 0002:001d37ca       __splitpath                006ca7ca f   msvcrtd:MSVCR100D.dll
 0002:001d37d0       _strcat_s                  006ca7d0 f   msvcrtd:MSVCR100D.dll
 0002:001d37d6       _strlen                    006ca7d6 f   msvcrtd:MSVCR100D.dll
 0002:001d37dc       _labs                      006ca7dc f   msvcrtd:MSVCR100D.dll
 0002:001d37e2       __ftime64                  006ca7e2 f   msvcrtd:MSVCR100D.dll
 0002:001d37e8       __difftime64               006ca7e8 f   msvcrtd:MSVCR100D.dll
 0002:001d37ee       _atan2                     006ca7ee f   msvcrtd:MSVCR100D.dll
 0002:001d37f4       _fmod                      006ca7f4 f   msvcrtd:MSVCR100D.dll
 0002:001d37fa       _strcpy_s                  006ca7fa f   msvcrtd:MSVCR100D.dll
 0002:001d3800       __fullpath                 006ca800 f   msvcrtd:MSVCR100D.dll
 0002:001d3806       _memcpy                    006ca806 f   msvcrtd:MSVCR100D.dll
 0002:001d380c       ___sys_errlist             006ca80c f   msvcrtd:MSVCR100D.dll
 0002:001d3812       __CxxThrowException@8      006ca812 f   msvcrtd:MSVCR100D.dll
 0002:001d3818       __purecall                 006ca818 f   msvcrtd:MSVCR100D.dll
 0002:001d381e       _modf                      006ca81e f   msvcrtd:MSVCR100D.dll
 0002:001d3830       __alldiv                   006ca830 f   msvcrtd:lldiv.obj
 0002:001d3904       _memcmp                    006ca904 f   msvcrtd:MSVCR100D.dll
 0002:001d390a       _tan                       006ca90a f   msvcrtd:MSVCR100D.dll
 0002:001d3910       _llabs                     006ca910 f   msvcrtd:MSVCR100D.dll
 0002:001d3916       _exit                      006ca916 f   msvcrtd:MSVCR100D.dll
 0002:001d391c       _fprintf                   006ca91c f   msvcrtd:MSVCR100D.dll
 0002:001d3922       ___iob_func                006ca922 f   msvcrtd:MSVCR100D.dll
 0002:001d3928       _fscanf                    006ca928 f   msvcrtd:MSVCR100D.dll
 0002:001d392e       _strcpy                    006ca92e f   msvcrtd:MSVCR100D.dll
 0002:001d3934       __access                   006ca934 f   msvcrtd:MSVCR100D.dll
 0002:001d393a       _strcat                    006ca93a f   msvcrtd:MSVCR100D.dll
 0002:001d3940       _acos                      006ca940 f   msvcrtd:MSVCR100D.dll
 0002:001d3946       _asin                      006ca946 f   msvcrtd:MSVCR100D.dll
 0002:001d394c       __mbsrchr                  006ca94c f   msvcrtd:MSVCR100D.dll
 0002:001d3952       _fread                     006ca952 f   msvcrtd:MSVCR100D.dll
 0002:001d3958       _fwrite                    006ca958 f   msvcrtd:MSVCR100D.dll
 0002:001d395e       _sscanf                    006ca95e f   msvcrtd:MSVCR100D.dll
 0002:001d3964       _fgets                     006ca964 f   msvcrtd:MSVCR100D.dll
 0002:001d396a       _feof                      006ca96a f   msvcrtd:MSVCR100D.dll
 0002:001d3970       _fclose                    006ca970 f   msvcrtd:MSVCR100D.dll
 0002:001d3976       _fopen                     006ca976 f   msvcrtd:MSVCR100D.dll
 0002:001d397c       __exit                     006ca97c f   msvcrtd:MSVCR100D.dll
 0002:001d3982       _atan                      006ca982 f   msvcrtd:MSVCR100D.dll
 0002:001d3ab0       _WinMainCRTStartup         006caab0 f   msvcrtd:crtexew.obj
 0002:001d3e90       _NtCurrentTeb              006cae90 f i msvcrtd:crtexew.obj
 0002:001d3f2a       _log10                     006caf2a f   msvcrtd:MSVCR100D.dll
 0002:001d3f30       _pow                       006caf30 f   msvcrtd:MSVCR100D.dll
 0002:001d3f36       _strstr                    006caf36 f   msvcrtd:MSVCR100D.dll
 0002:001d3f3c       _strncpy                   006caf3c f   msvcrtd:MSVCR100D.dll
 0002:001d3f42       _sprintf                   006caf42 f   msvcrtd:MSVCR100D.dll
 0002:001d3f48       _fputs                     006caf48 f   msvcrtd:MSVCR100D.dll
 0002:001d3f4e       _fputc                     006caf4e f   msvcrtd:MSVCR100D.dll
 0002:001d3f54       _strncmp                   006caf54 f   msvcrtd:MSVCR100D.dll
 0002:001d3f5a       _strchr                    006caf5a f   msvcrtd:MSVCR100D.dll
 0002:001d3f60       _ceil                      006caf60 f   msvcrtd:MSVCR100D.dll
 0002:001d3f66       _vfprintf                  006caf66 f   msvcrtd:MSVCR100D.dll
 0002:001d3f6c       _strncat                   006caf6c f   msvcrtd:MSVCR100D.dll
 0002:001d3f72       _printf                    006caf72 f   msvcrtd:MSVCR100D.dll
 0002:001d3f78       _realloc                   006caf78 f   msvcrtd:MSVCR100D.dll
 0002:001d3f7e       _fgetc                     006caf7e f   msvcrtd:MSVCR100D.dll
 0002:001d3f84       _getc                      006caf84 f   msvcrtd:MSVCR100D.dll
 0002:001d3f8a       _fseek                     006caf8a f   msvcrtd:MSVCR100D.dll
 0002:001d3f90       __RTC_NumErrors            006caf90 f   msvcrtd:_userapi_.obj
 0002:001d3fa0       __RTC_GetErrDesc           006cafa0 f   msvcrtd:_userapi_.obj
 0002:001d3fc0       __RTC_SetErrorType         006cafc0 f   msvcrtd:_userapi_.obj
 0002:001d3ff0       __RTC_SetErrorFunc         006caff0 f   msvcrtd:_userapi_.obj
 0002:001d4020       __RTC_SetErrorFuncW        006cb020 f   msvcrtd:_userapi_.obj
 0002:001d4050       ?_RTC_GetErrorFunc@@YAP6AHHPBDH00ZZPBX@Z 006cb050 f   msvcrtd:_userapi_.obj
 0002:001d4060       ?_RTC_GetErrorFuncW@@YAP6AHHPB_WH00ZZPBX@Z 006cb060 f   msvcrtd:_userapi_.obj
 0002:001d4066       __CRT_RTC_INITW            006cb066 f   msvcrtd:MSVCR100D.dll
 0002:001d4070       ?_RTC_GetSrcLine@@YAHPAEPA_WKPAH1K@Z 006cb070 f   msvcrtd:_pdblkup_.obj
 0002:001d4650       __except_handler4          006cb650 f   msvcrtd:chandler4gs.obj
 0002:001d4690       ___report_gsfailure        006cb690 f   msvcrtd:gs_report.obj
 0002:001d47f0       ___sse2_available_init     006cb7f0 f   msvcrtd:cpu_disp.obj
 0002:001d480c       __unlock                   006cb80c f   msvcrtd:MSVCR100D.dll
 0002:001d4812       ___dllonexit               006cb812 f   msvcrtd:MSVCR100D.dll
 0002:001d4818       __lock                     006cb818 f   msvcrtd:MSVCR100D.dll
 0002:001d481e       ?terminate@@YAXXZ          006cb81e f   msvcrtd:MSVCR100D.dll
 0002:001d4830       ?__CxxUnhandledExceptionFilter@@YGJPAU_EXCEPTION_POINTERS@@@Z 006cb830 f   msvcrtd:unhandld.obj
 0002:001d48b0       ___CxxSetUnhandledExceptionFilter 006cb8b0 f   msvcrtd:unhandld.obj
 0002:001d48ca       __configthreadlocale       006cb8ca f   msvcrtd:MSVCR100D.dll
 0002:001d48d0       __setdefaultprecision      006cb8d0 f   msvcrtd:fp8.obj
 0002:001d4920       __invoke_watson_if_error   006cb920 f i msvcrtd:fp8.obj
 0002:001d4952       ___setusermatherr          006cb952 f   msvcrtd:MSVCR100D.dll
 0002:001d4960       __matherr                  006cb960 f   msvcrtd:merr.obj
 0002:001d4970       __setargv                  006cb970 f   msvcrtd:dllargv.obj
 0002:001d4980       __RTC_Initialize           006cb980 f   msvcrtd:_initsect_.obj
 0002:001d49b0       __RTC_Terminate            006cb9b0 f   msvcrtd:_initsect_.obj
 0002:001d49e0       ___set_app_type            006cb9e0 f   msvcrtd:MSVCR100D.dll
 0002:001d49e6       __amsg_exit                006cb9e6 f   msvcrtd:MSVCR100D.dll
 0002:001d49ec       ___getmainargs             006cb9ec f   msvcrtd:MSVCR100D.dll
 0002:001d4a00       ___security_init_cookie    006cba00 f   msvcrtd:gs_support.obj
 0002:001d4b18       __XcptFilter               006cbb18 f   msvcrtd:MSVCR100D.dll
 0002:001d4b1e       __cexit                    006cbb1e f   msvcrtd:MSVCR100D.dll
 0002:001d4b24       __ismbblead                006cbb24 f   msvcrtd:MSVCR100D.dll
 0002:001d4b2a       __CrtSetCheckCount         006cbb2a f   msvcrtd:MSVCR100D.dll
 0002:001d4b30       __ValidateImageBase        006cbb30 f   msvcrtd:pesect.obj
 0002:001d4bb0       __FindPESection            006cbbb0 f   msvcrtd:pesect.obj
 0002:001d4c50       __IsNonwritableInCurrentImage 006cbc50 f   msvcrtd:pesect.obj
 0002:001d4da6       __CrtDbgReportW            006cbda6 f   msvcrtd:MSVCR100D.dll
 0002:001d4dac       __initterm                 006cbdac f   msvcrtd:MSVCR100D.dll
 0002:001d4db2       __initterm_e               006cbdb2 f   msvcrtd:MSVCR100D.dll
 0002:001d4db8       __stat32                   006cbdb8 f   msvcrtd:MSVCR100D.dll
 0002:001d4dbe       __localtime32              006cbdbe f   msvcrtd:MSVCR100D.dll
 0002:001d4dc4       __mktime32                 006cbdc4 f   msvcrtd:MSVCR100D.dll
 0002:001d4dca       __time32                   006cbdca f   msvcrtd:MSVCR100D.dll
 0002:001d4dd0       __except_handler4_common   006cbdd0 f   msvcrtd:MSVCR100D.dll
 0002:001d4dd6       __crt_debugger_hook        006cbdd6 f   msvcrtd:MSVCR100D.dll
 0002:001d4ddc       ??1type_info@@UAE@XZ       006cbddc f   msvcrtd:MSVCR100D.dll
 0002:001d4ddc       ?_type_info_dtor_internal_method@type_info@@QAEXXZ 006cbddc f   msvcrtd:MSVCR100D.dll
 0002:001d4de2       __controlfp_s              006cbde2 f   msvcrtd:MSVCR100D.dll
 0002:001d4de8       __invoke_watson            006cbde8 f   msvcrtd:MSVCR100D.dll
 0002:001d4dee       _DeleteFileA@4             006cbdee f   kernel32:KERNEL32.dll
 0002:001d4df4       _FindNextFileA@8           006cbdf4 f   kernel32:KERNEL32.dll
 0002:001d4dfa       _FindFirstFileA@8          006cbdfa f   kernel32:KERNEL32.dll
 0002:001d4e00       _GetCommandLineA@0         006cbe00 f   kernel32:KERNEL32.dll
 0002:001d4e06       _GetFullPathNameA@16       006cbe06 f   kernel32:KERNEL32.dll
 0002:001d4e0c       _Sleep@4                   006cbe0c f   kernel32:KERNEL32.dll
 0002:001d4e12       _GlobalAlloc@8             006cbe12 f   kernel32:KERNEL32.dll
 0002:001d4e18       _CopyFileA@12              006cbe18 f   kernel32:KERNEL32.dll
 0002:001d4e1e       _GetLastError@0            006cbe1e f   kernel32:KERNEL32.dll
 0002:001d4e24       _GetFileAttributesA@4      006cbe24 f   kernel32:KERNEL32.dll
 0002:001d4e2a       _InterlockedIncrement@4    006cbe2a f   kernel32:KERNEL32.dll
 0002:001d4e30       _InterlockedDecrement@4    006cbe30 f   kernel32:KERNEL32.dll
 0002:001d4e36       _GetCurrentDirectoryA@8    006cbe36 f   kernel32:KERNEL32.dll
 0002:001d4e3c       _CreateDirectoryA@8        006cbe3c f   kernel32:KERNEL32.dll
 0002:001d4e42       _FreeLibrary@4             006cbe42 f   kernel32:KERNEL32.dll
 0002:001d4e48       _GetProcAddress@8          006cbe48 f   kernel32:KERNEL32.dll
 0002:001d4e4e       _LoadLibraryA@4            006cbe4e f   kernel32:KERNEL32.dll
 0002:001d4e54       _EnterCriticalSection@4    006cbe54 f   kernel32:KERNEL32.dll
 0002:001d4e5a       _InitializeCriticalSection@4 006cbe5a f   kernel32:KERNEL32.dll
 0002:001d4e60       _DeleteCriticalSection@4   006cbe60 f   kernel32:KERNEL32.dll
 0002:001d4e66       _LeaveCriticalSection@4    006cbe66 f   kernel32:KERNEL32.dll
 0002:001d4e6c       _WaitForSingleObject@8     006cbe6c f   kernel32:KERNEL32.dll
 0002:001d4e72       _ReleaseMutex@4            006cbe72 f   kernel32:KERNEL32.dll
 0002:001d4e78       _MapViewOfFile@20          006cbe78 f   kernel32:KERNEL32.dll
 0002:001d4e7e       _CreateFileMappingA@24     006cbe7e f   kernel32:KERNEL32.dll
 0002:001d4e84       _CreateMutexA@12           006cbe84 f   kernel32:KERNEL32.dll
 0002:001d4e8a       _OutputDebugStringA@4      006cbe8a f   kernel32:KERNEL32.dll
 0002:001d4e90       _CloseHandle@4             006cbe90 f   kernel32:KERNEL32.dll
 0002:001d4e96       _WriteFile@20              006cbe96 f   kernel32:KERNEL32.dll
 0002:001d4e9c       _SetFilePointer@16         006cbe9c f   kernel32:KERNEL32.dll
 0002:001d4ea2       _GetModuleFileNameA@12     006cbea2 f   kernel32:KERNEL32.dll
 0002:001d4ea8       _GetCurrentThreadId@0      006cbea8 f   kernel32:KERNEL32.dll
 0002:001d4eae       _GetCurrentProcessId@0     006cbeae f   kernel32:KERNEL32.dll
 0002:001d4eb4       _GetLocalTime@4            006cbeb4 f   kernel32:KERNEL32.dll
 0002:001d4eba       _MoveFileExA@12            006cbeba f   kernel32:KERNEL32.dll
 0002:001d4ec0       _GetFileSize@8             006cbec0 f   kernel32:KERNEL32.dll
 0002:001d4ec6       _CreateFileA@28            006cbec6 f   kernel32:KERNEL32.dll
 0002:001d4ecc       _LocalFree@4               006cbecc f   kernel32:KERNEL32.dll
 0002:001d4ed2       _FormatMessageA@28         006cbed2 f   kernel32:KERNEL32.dll
 0002:001d4ed8       _GetEnvironmentVariableA@12 006cbed8 f   kernel32:KERNEL32.dll
 0002:001d4ede       _UnmapViewOfFile@4         006cbede f   kernel32:KERNEL32.dll
 0002:001d4ee4       _CreateProcessA@40         006cbee4 f   kernel32:KERNEL32.dll
 0002:001d4eea       _GetStdHandle@4            006cbeea f   kernel32:KERNEL32.dll
 0002:001d4ef0       _DuplicateHandle@28        006cbef0 f   kernel32:KERNEL32.dll
 0002:001d4ef6       _GetCurrentProcess@0       006cbef6 f   kernel32:KERNEL32.dll
 0002:001d4efc       _CreatePipe@16             006cbefc f   kernel32:KERNEL32.dll
 0002:001d4f02       _ReadFile@20               006cbf02 f   kernel32:KERNEL32.dll
 0002:001d4f08       _QueryPerformanceFrequency@4 006cbf08 f   kernel32:KERNEL32.dll
 0002:001d4f0e       _QueryPerformanceCounter@4 006cbf0e f   kernel32:KERNEL32.dll
 0002:001d4f14       _SetThreadPriority@8       006cbf14 f   kernel32:KERNEL32.dll
 0002:001d4f1a       _GetCurrentThread@0        006cbf1a f   kernel32:KERNEL32.dll
 0002:001d4f20       _WideCharToMultiByte@32    006cbf20 f   kernel32:KERNEL32.dll
 0002:001d4f26       _IsDebuggerPresent@0       006cbf26 f   kernel32:KERNEL32.dll
 0002:001d4f2c       _MultiByteToWideChar@24    006cbf2c f   kernel32:KERNEL32.dll
 0002:001d4f32       _RaiseException@16         006cbf32 f   kernel32:KERNEL32.dll
 0002:001d4f38       _lstrlenA@4                006cbf38 f   kernel32:KERNEL32.dll
 0002:001d4f3e       _LoadLibraryW@4            006cbf3e f   kernel32:KERNEL32.dll
 0002:001d4f44       _EncodePointer@4           006cbf44 f   kernel32:KERNEL32.dll
 0002:001d4f4a       _DecodePointer@4           006cbf4a f   kernel32:KERNEL32.dll
 0002:001d4f50       _InterlockedExchange@8     006cbf50 f   kernel32:KERNEL32.dll
 0002:001d4f56       _InterlockedCompareExchange@12 006cbf56 f   kernel32:KERNEL32.dll
 0002:001d4f5c       _HeapSetInformation@16     006cbf5c f   kernel32:KERNEL32.dll
 0002:001d4f62       _GetStartupInfoW@4         006cbf62 f   kernel32:KERNEL32.dll
 0002:001d4f68       _HeapFree@12               006cbf68 f   kernel32:KERNEL32.dll
 0002:001d4f6e       _HeapAlloc@12              006cbf6e f   kernel32:KERNEL32.dll
 0002:001d4f74       _GetProcessHeap@0          006cbf74 f   kernel32:KERNEL32.dll
 0002:001d4f7a       _GetModuleFileNameW@12     006cbf7a f   kernel32:KERNEL32.dll
 0002:001d4f80       _VirtualQuery@12           006cbf80 f   kernel32:KERNEL32.dll
 0002:001d4f86       _TerminateProcess@8        006cbf86 f   kernel32:KERNEL32.dll
 0002:001d4f8c       _UnhandledExceptionFilter@4 006cbf8c f   kernel32:KERNEL32.dll
 0002:001d4f92       _SetUnhandledExceptionFilter@4 006cbf92 f   kernel32:KERNEL32.dll
 0002:001d4f98       _IsProcessorFeaturePresent@4 006cbf98 f   kernel32:KERNEL32.dll
 0002:001d4f9e       _GetTickCount@0            006cbf9e f   kernel32:KERNEL32.dll
 0002:001d4fa4       _GetSystemTimeAsFileTime@4 006cbfa4 f   kernel32:KERNEL32.dll
 0002:001d4faa       _PostQuitMessage@4         006cbfaa f   user32:USER32.dll
 0002:001d4fb0       _PeekMessageA@20           006cbfb0 f   user32:USER32.dll
 0002:001d4fb6       _SetWindowLongA@12         006cbfb6 f   user32:USER32.dll
 0002:001d4fbc       _GetWindowLongA@8          006cbfbc f   user32:USER32.dll
 0002:001d4fc2       _ShowCursor@4              006cbfc2 f   user32:USER32.dll
 0002:001d4fc8       _SendMessageA@16           006cbfc8 f   user32:USER32.dll
 0002:001d4fce       _GetSystemMetrics@4        006cbfce f   user32:USER32.dll
 0002:001d4fd4       _SetCursorPos@8            006cbfd4 f   user32:USER32.dll
 0002:001d4fda       _GetCursorPos@4            006cbfda f   user32:USER32.dll
 0002:001d4fe0       _GetKeyState@4             006cbfe0 f   user32:USER32.dll
 0002:001d4fe6       _UpdateWindow@4            006cbfe6 f   user32:USER32.dll
 0002:001d4fec       _SetForegroundWindow@4     006cbfec f   user32:USER32.dll
 0002:001d4ff2       _ShowWindow@8              006cbff2 f   user32:USER32.dll
 0002:001d4ff8       _FindWindowA@8             006cbff8 f   user32:USER32.dll
 0002:001d4ffe       _CloseClipboard@0          006cbffe f   user32:USER32.dll
 0002:001d5004       _SetClipboardData@8        006cc004 f   user32:USER32.dll
 0002:001d500a       _EmptyClipboard@0          006cc00a f   user32:USER32.dll
 0002:001d5010       _OpenClipboard@4           006cc010 f   user32:USER32.dll
 0002:001d5016       _AppendMenuA@16            006cc016 f   user32:USER32.dll
 0002:001d501c       _InsertMenuItemA@16        006cc01c f   user32:USER32.dll
 0002:001d5022       _CreatePopupMenu@0         006cc022 f   user32:USER32.dll
 0002:001d5028       _LoadCursorA@8             006cc028 f   user32:USER32.dll
 0002:001d502e       _SetCursor@4               006cc02e f   user32:USER32.dll
 0002:001d5034       _SetFocus@4                006cc034 f   user32:USER32.dll
 0002:001d503a       _EndDialog@8               006cc03a f   user32:USER32.dll
 0002:001d5040       _GetWindowTextA@12         006cc040 f   user32:USER32.dll
 0002:001d5046       _GetDlgItem@8              006cc046 f   user32:USER32.dll
 0002:001d504c       _CreateWindowExA@48        006cc04c f   user32:USER32.dll
 0002:001d5052       _ScreenToClient@8          006cc052 f   user32:USER32.dll
 0002:001d5058       _GetWindowRect@8           006cc058 f   user32:USER32.dll
 0002:001d505e       _SetWindowTextA@8          006cc05e f   user32:USER32.dll
 0002:001d5064       _wsprintfA                 006cc064 f   user32:USER32.dll
 0002:001d506a       _MessageBoxA@16            006cc06a f   user32:USER32.dll
 0002:001d5070       _GetStockObject@4          006cc070 f   gdi32:GDI32.dll
 0002:001d5076       _SelectObject@8            006cc076 f   gdi32:GDI32.dll
 0002:001d507c       _ShellExecuteA@24          006cc07c f   shell32:SHELL32.dll
 0002:001d5082       _ShellExecuteExA@4         006cc082 f   shell32:SHELL32.dll
 0002:001d5088       _DragFinish@4              006cc088 f   shell32:SHELL32.dll
 0002:001d508e       _DragQueryFileA@16         006cc08e f   shell32:SHELL32.dll
 0002:001d5094       _SHGetPathFromIDListA@8    006cc094 f   shell32:SHELL32.dll
 0002:001d509a       _SHBrowseForFolderA@4      006cc09a f   shell32:SHELL32.dll
 0002:001d50a0       _SHGetMalloc@4             006cc0a0 f   shell32:SHELL32.dll
 0002:001d50b0       ??0CSize@@QAE@XZ           006cc0b0 f   atlsd:atltypes.obj
 0002:001d50e0       ??0CSize@@QAE@HH@Z         006cc0e0 f   atlsd:atltypes.obj
 0002:001d5110       ??0CSize@@QAE@UtagSIZE@@@Z 006cc110 f   atlsd:atltypes.obj
 0002:001d5140       ??0CSize@@QAE@UtagPOINT@@@Z 006cc140 f   atlsd:atltypes.obj
 0002:001d5170       ??0CSize@@QAE@K@Z          006cc170 f   atlsd:atltypes.obj
 0002:001d51c0       ??8CSize@@QBEHUtagSIZE@@@Z 006cc1c0 f   atlsd:atltypes.obj
 0002:001d5210       ??9CSize@@QBEHUtagSIZE@@@Z 006cc210 f   atlsd:atltypes.obj
 0002:001d5260       ??YCSize@@QAEXUtagSIZE@@@Z 006cc260 f   atlsd:atltypes.obj
 0002:001d52a0       ??ZCSize@@QAEXUtagSIZE@@@Z 006cc2a0 f   atlsd:atltypes.obj
 0002:001d52e0       ?SetSize@CSize@@QAEXHH@Z   006cc2e0 f   atlsd:atltypes.obj
 0002:001d5310       ??HCSize@@QBE?AV0@UtagSIZE@@@Z 006cc310 f   atlsd:atltypes.obj
 0002:001d5350       ??GCSize@@QBE?AV0@UtagSIZE@@@Z 006cc350 f   atlsd:atltypes.obj
 0002:001d5390       ??GCSize@@QBE?AV0@XZ       006cc390 f   atlsd:atltypes.obj
 0002:001d53d0       ??HCSize@@QBE?AVCPoint@@UtagPOINT@@@Z 006cc3d0 f   atlsd:atltypes.obj
 0002:001d5410       ??GCSize@@QBE?AVCPoint@@UtagPOINT@@@Z 006cc410 f   atlsd:atltypes.obj
 0002:001d5450       ??HCSize@@QBE?AVCRect@@PBUtagRECT@@@Z 006cc450 f   atlsd:atltypes.obj
 0002:001d54c0       ??GCSize@@QBE?AVCRect@@PBUtagRECT@@@Z 006cc4c0 f   atlsd:atltypes.obj
 0002:001d5530       ??0CPoint@@QAE@XZ          006cc530 f   atlsd:atltypes.obj
 0002:001d5560       ??0CPoint@@QAE@HH@Z        006cc560 f   atlsd:atltypes.obj
 0002:001d5590       ??0CPoint@@QAE@UtagPOINT@@@Z 006cc590 f   atlsd:atltypes.obj
 0002:001d55c0       ??0CPoint@@QAE@UtagSIZE@@@Z 006cc5c0 f   atlsd:atltypes.obj
 0002:001d55f0       ??0CPoint@@QAE@J@Z         006cc5f0 f   atlsd:atltypes.obj
 0002:001d5640       ?Offset@CPoint@@QAEXHH@Z   006cc640 f   atlsd:atltypes.obj
 0002:001d5680       ?Offset@CPoint@@QAEXUtagPOINT@@@Z 006cc680 f   atlsd:atltypes.obj
 0002:001d56c0       ?Offset@CPoint@@QAEXUtagSIZE@@@Z 006cc6c0 f   atlsd:atltypes.obj
 0002:001d5700       ?SetPoint@CPoint@@QAEXHH@Z 006cc700 f   atlsd:atltypes.obj
 0002:001d5730       ??8CPoint@@QBEHUtagPOINT@@@Z 006cc730 f   atlsd:atltypes.obj
 0002:001d5780       ??9CPoint@@QBEHUtagPOINT@@@Z 006cc780 f   atlsd:atltypes.obj
 0002:001d57d0       ??YCPoint@@QAEXUtagSIZE@@@Z 006cc7d0 f   atlsd:atltypes.obj
 0002:001d5810       ??ZCPoint@@QAEXUtagSIZE@@@Z 006cc810 f   atlsd:atltypes.obj
 0002:001d5850       ??YCPoint@@QAEXUtagPOINT@@@Z 006cc850 f   atlsd:atltypes.obj
 0002:001d5890       ??ZCPoint@@QAEXUtagPOINT@@@Z 006cc890 f   atlsd:atltypes.obj
 0002:001d58d0       ??HCPoint@@QBE?AV0@UtagSIZE@@@Z 006cc8d0 f   atlsd:atltypes.obj
 0002:001d5910       ??GCPoint@@QBE?AV0@UtagSIZE@@@Z 006cc910 f   atlsd:atltypes.obj
 0002:001d5950       ??GCPoint@@QBE?AV0@XZ      006cc950 f   atlsd:atltypes.obj
 0002:001d5990       ??HCPoint@@QBE?AV0@UtagPOINT@@@Z 006cc990 f   atlsd:atltypes.obj
 0002:001d59d0       ??GCPoint@@QBE?AVCSize@@UtagPOINT@@@Z 006cc9d0 f   atlsd:atltypes.obj
 0002:001d5a10       ??HCPoint@@QBE?AVCRect@@PBUtagRECT@@@Z 006cca10 f   atlsd:atltypes.obj
 0002:001d5a80       ??GCPoint@@QBE?AVCRect@@PBUtagRECT@@@Z 006cca80 f   atlsd:atltypes.obj
 0002:001d5af0       ??0CRect@@QAE@XZ           006ccaf0 f   atlsd:atltypes.obj
 0002:001d5b40       ??0CRect@@QAE@HHHH@Z       006ccb40 f   atlsd:atltypes.obj
 0002:001d5b90       ??0CRect@@QAE@ABUtagRECT@@@Z 006ccb90 f   atlsd:atltypes.obj
 0002:001d5bc0       ??0CRect@@QAE@PBUtagRECT@@@Z 006ccbc0 f   atlsd:atltypes.obj
 0002:001d5bf0       ??0CRect@@QAE@UtagPOINT@@UtagSIZE@@@Z 006ccbf0 f   atlsd:atltypes.obj
 0002:001d5c40       ??0CRect@@QAE@UtagPOINT@@0@Z 006ccc40 f   atlsd:atltypes.obj
 0002:001d5c90       ?Width@CRect@@QBEHXZ       006ccc90 f   atlsd:atltypes.obj
 0002:001d5cb0       ?Height@CRect@@QBEHXZ      006cccb0 f   atlsd:atltypes.obj
 0002:001d5cd0       ?Size@CRect@@QBE?AVCSize@@XZ 006cccd0 f   atlsd:atltypes.obj
 0002:001d5d10       ?TopLeft@CRect@@QAEAAVCPoint@@XZ 006ccd10 f   atlsd:atltypes.obj
 0002:001d5d30       ?BottomRight@CRect@@QAEAAVCPoint@@XZ 006ccd30 f   atlsd:atltypes.obj
 0002:001d5d50       ?TopLeft@CRect@@QBEABVCPoint@@XZ 006ccd50 f   atlsd:atltypes.obj
 0002:001d5d70       ?BottomRight@CRect@@QBEABVCPoint@@XZ 006ccd70 f   atlsd:atltypes.obj
 0002:001d5d90       ?CenterPoint@CRect@@QBE?AVCPoint@@XZ 006ccd90 f   atlsd:atltypes.obj
 0002:001d5de0       ?SwapLeftRight@CRect@@QAEXXZ 006ccde0 f   atlsd:atltypes.obj
 0002:001d5e00       ?SwapLeftRight@CRect@@SGXPAUtagRECT@@@Z 006cce00 f   atlsd:atltypes.obj
 0002:001d5e40       ??BCRect@@QAEPAUtagRECT@@XZ 006cce40 f   atlsd:atltypes.obj
 0002:001d5e60       ??BCRect@@QBEPBUtagRECT@@XZ 006cce60 f   atlsd:atltypes.obj
 0002:001d5e80       ?IsRectEmpty@CRect@@QBEHXZ 006cce80 f   atlsd:atltypes.obj
 0002:001d5ea0       ?IsRectNull@CRect@@QBEHXZ  006ccea0 f   atlsd:atltypes.obj
 0002:001d5f00       ?PtInRect@CRect@@QBEHUtagPOINT@@@Z 006ccf00 f   atlsd:atltypes.obj
 0002:001d5f30       ?SetRect@CRect@@QAEXHHHH@Z 006ccf30 f   atlsd:atltypes.obj
 0002:001d5f70       ?SetRect@CRect@@QAEXUtagPOINT@@0@Z 006ccf70 f   atlsd:atltypes.obj
 0002:001d5fb0       ?SetRectEmpty@CRect@@QAEXXZ 006ccfb0 f   atlsd:atltypes.obj
 0002:001d5fd0       ?CopyRect@CRect@@QAEXPBUtagRECT@@@Z 006ccfd0 f   atlsd:atltypes.obj
 0002:001d6000       ?EqualRect@CRect@@QBEHPBUtagRECT@@@Z 006cd000 f   atlsd:atltypes.obj
 0002:001d6030       ?InflateRect@CRect@@QAEXHH@Z 006cd030 f   atlsd:atltypes.obj
 0002:001d6060       ?InflateRect@CRect@@QAEXUtagSIZE@@@Z 006cd060 f   atlsd:atltypes.obj
 0002:001d6090       ?DeflateRect@CRect@@QAEXHH@Z 006cd090 f   atlsd:atltypes.obj
 0002:001d60c0       ?DeflateRect@CRect@@QAEXUtagSIZE@@@Z 006cd0c0 f   atlsd:atltypes.obj
 0002:001d60f0       ?OffsetRect@CRect@@QAEXHH@Z 006cd0f0 f   atlsd:atltypes.obj
 0002:001d6120       ?OffsetRect@CRect@@QAEXUtagPOINT@@@Z 006cd120 f   atlsd:atltypes.obj
 0002:001d6150       ?OffsetRect@CRect@@QAEXUtagSIZE@@@Z 006cd150 f   atlsd:atltypes.obj
 0002:001d6180       ?MoveToY@CRect@@QAEXH@Z    006cd180 f   atlsd:atltypes.obj
 0002:001d61c0       ?MoveToX@CRect@@QAEXH@Z    006cd1c0 f   atlsd:atltypes.obj
 0002:001d6200       ?MoveToXY@CRect@@QAEXHH@Z  006cd200 f   atlsd:atltypes.obj
 0002:001d6230       ?MoveToXY@CRect@@QAEXUtagPOINT@@@Z 006cd230 f   atlsd:atltypes.obj
 0002:001d6260       ?IntersectRect@CRect@@QAEHPBUtagRECT@@0@Z 006cd260 f   atlsd:atltypes.obj
 0002:001d6290       ?UnionRect@CRect@@QAEHPBUtagRECT@@0@Z 006cd290 f   atlsd:atltypes.obj
 0002:001d62c0       ??4CRect@@QAEXABUtagRECT@@@Z 006cd2c0 f   atlsd:atltypes.obj
 0002:001d62f0       ??8CRect@@QBEHABUtagRECT@@@Z 006cd2f0 f   atlsd:atltypes.obj
 0002:001d6320       ??9CRect@@QBEHABUtagRECT@@@Z 006cd320 f   atlsd:atltypes.obj
 0002:001d6350       ??YCRect@@QAEXUtagPOINT@@@Z 006cd350 f   atlsd:atltypes.obj
 0002:001d6380       ??YCRect@@QAEXUtagSIZE@@@Z 006cd380 f   atlsd:atltypes.obj
 0002:001d63b0       ??YCRect@@QAEXPBUtagRECT@@@Z 006cd3b0 f   atlsd:atltypes.obj
 0002:001d63e0       ??ZCRect@@QAEXUtagPOINT@@@Z 006cd3e0 f   atlsd:atltypes.obj
 0002:001d6410       ??ZCRect@@QAEXUtagSIZE@@@Z 006cd410 f   atlsd:atltypes.obj
 0002:001d6440       ??ZCRect@@QAEXPBUtagRECT@@@Z 006cd440 f   atlsd:atltypes.obj
 0002:001d6470       ??_4CRect@@QAEXABUtagRECT@@@Z 006cd470 f   atlsd:atltypes.obj
 0002:001d64a0       ??_5CRect@@QAEXABUtagRECT@@@Z 006cd4a0 f   atlsd:atltypes.obj
 0002:001d64d0       ??HCRect@@QBE?AV0@UtagPOINT@@@Z 006cd4d0 f   atlsd:atltypes.obj
 0002:001d6560       ??GCRect@@QBE?AV0@UtagPOINT@@@Z 006cd560 f   atlsd:atltypes.obj
 0002:001d65f0       ??HCRect@@QBE?AV0@UtagSIZE@@@Z 006cd5f0 f   atlsd:atltypes.obj
 0002:001d6680       ??GCRect@@QBE?AV0@UtagSIZE@@@Z 006cd680 f   atlsd:atltypes.obj
 0002:001d6710       ??HCRect@@QBE?AV0@PBUtagRECT@@@Z 006cd710 f   atlsd:atltypes.obj
 0002:001d6780       ??GCRect@@QBE?AV0@PBUtagRECT@@@Z 006cd780 f   atlsd:atltypes.obj
 0002:001d67f0       ??ICRect@@QBE?AV0@ABUtagRECT@@@Z 006cd7f0 f   atlsd:atltypes.obj
 0002:001d6870       ??UCRect@@QBE?AV0@ABUtagRECT@@@Z 006cd870 f   atlsd:atltypes.obj
 0002:001d68f0       ?SubtractRect@CRect@@QAEHPBUtagRECT@@0@Z 006cd8f0 f   atlsd:atltypes.obj
 0002:001d6920       ?NormalizeRect@CRect@@QAEXXZ 006cd920 f   atlsd:atltypes.obj
 0002:001d69a0       ?InflateRect@CRect@@QAEXPBUtagRECT@@@Z 006cd9a0 f   atlsd:atltypes.obj
 0002:001d6a10       ?InflateRect@CRect@@QAEXHHHH@Z 006cda10 f   atlsd:atltypes.obj
 0002:001d6a70       ?DeflateRect@CRect@@QAEXPBUtagRECT@@@Z 006cda70 f   atlsd:atltypes.obj
 0002:001d6ae0       ?DeflateRect@CRect@@QAEXHHHH@Z 006cdae0 f   atlsd:atltypes.obj
 0002:001d6b40       ?MulDiv@CRect@@QBE?AV1@HH@Z 006cdb40 f   atlsd:atltypes.obj
 0002:001d6bd0       ??0CTimeSpan@ATL@@QAE@XZ   006cdbd0 f   atlsd:atltime.obj
 0002:001d6c00       ??0CTimeSpan@ATL@@QAE@_J@Z 006cdc00 f   atlsd:atltime.obj
 0002:001d6c30       ??0CTimeSpan@ATL@@QAE@JHHH@Z 006cdc30 f   atlsd:atltime.obj
 0002:001d6cd0       ?GetDays@CTimeSpan@ATL@@QBE_JXZ 006cdcd0 f   atlsd:atltime.obj
 0002:001d6d00       ?GetTotalHours@CTimeSpan@ATL@@QBE_JXZ 006cdd00 f   atlsd:atltime.obj
 0002:001d6d30       ?GetHours@CTimeSpan@ATL@@QBEJXZ 006cdd30 f   atlsd:atltime.obj
 0002:001d6d80       ?GetTotalMinutes@CTimeSpan@ATL@@QBE_JXZ 006cdd80 f   atlsd:atltime.obj
 0002:001d6db0       ?GetMinutes@CTimeSpan@ATL@@QBEJXZ 006cddb0 f   atlsd:atltime.obj
 0002:001d6e00       ?GetTotalSeconds@CTimeSpan@ATL@@QBE_JXZ 006cde00 f   atlsd:atltime.obj
 0002:001d6e20       ?GetSeconds@CTimeSpan@ATL@@QBEJXZ 006cde20 f   atlsd:atltime.obj
 0002:001d6e70       ?GetTimeSpan@CTimeSpan@ATL@@QBE_JXZ 006cde70 f   atlsd:atltime.obj
 0002:001d6e90       ??HCTimeSpan@ATL@@QBE?AV01@V01@@Z 006cde90 f   atlsd:atltime.obj
 0002:001d6ed0       ??GCTimeSpan@ATL@@QBE?AV01@V01@@Z 006cded0 f   atlsd:atltime.obj
 0002:001d6f10       ??YCTimeSpan@ATL@@QAEAAV01@V01@@Z 006cdf10 f   atlsd:atltime.obj
 0002:001d6f50       ??ZCTimeSpan@ATL@@QAEAAV01@V01@@Z 006cdf50 f   atlsd:atltime.obj
 0002:001d6f90       ??8CTimeSpan@ATL@@QBE_NV01@@Z 006cdf90 f   atlsd:atltime.obj
 0002:001d6fe0       ??9CTimeSpan@ATL@@QBE_NV01@@Z 006cdfe0 f   atlsd:atltime.obj
 0002:001d7030       ??MCTimeSpan@ATL@@QBE_NV01@@Z 006ce030 f   atlsd:atltime.obj
 0002:001d7090       ??OCTimeSpan@ATL@@QBE_NV01@@Z 006ce090 f   atlsd:atltime.obj
 0002:001d70f0       ??NCTimeSpan@ATL@@QBE_NV01@@Z 006ce0f0 f   atlsd:atltime.obj
 0002:001d7150       ??PCTimeSpan@ATL@@QBE_NV01@@Z 006ce150 f   atlsd:atltime.obj
 0002:001d71b0       ?GetTickCount@CTime@ATL@@SG?AV12@XZ 006ce1b0 f   atlsd:atltime.obj
 0002:001d71e0       ?IsValidFILETIME@CTime@ATL@@SGHABU_FILETIME@@@Z 006ce1e0 f   atlsd:atltime.obj
 0002:001d7250       ??0CTime@ATL@@QAE@XZ       006ce250 f   atlsd:atltime.obj
 0002:001d7280       ??0CTime@ATL@@QAE@_J@Z     006ce280 f   atlsd:atltime.obj
 0002:001d72b0       ??0CTime@ATL@@QAE@HHHHHHH@Z 006ce2b0 f   atlsd:atltime.obj
 0002:001d7690       ??0CTime@ATL@@QAE@GGH@Z    006ce690 f   atlsd:atltime.obj
 0002:001d77d0       ??0CTime@ATL@@QAE@ABU_SYSTEMTIME@@H@Z 006ce7d0 f   atlsd:atltime.obj
 0002:001d7890       ??0CTime@ATL@@QAE@ABU_FILETIME@@H@Z 006ce890 f   atlsd:atltime.obj
 0002:001d7960       ??4CTime@ATL@@QAEAAV01@_J@Z 006ce960 f   atlsd:atltime.obj
 0002:001d7990       ??YCTime@ATL@@QAEAAV01@VCTimeSpan@1@@Z 006ce990 f   atlsd:atltime.obj
 0002:001d79d0       ??ZCTime@ATL@@QAEAAV01@VCTimeSpan@1@@Z 006ce9d0 f   atlsd:atltime.obj
 0002:001d7a10       ??GCTime@ATL@@QBE?AVCTimeSpan@1@V01@@Z 006cea10 f   atlsd:atltime.obj
 0002:001d7a50       ??GCTime@ATL@@QBE?AV01@VCTimeSpan@1@@Z 006cea50 f   atlsd:atltime.obj
 0002:001d7a90       ??HCTime@ATL@@QBE?AV01@VCTimeSpan@1@@Z 006cea90 f   atlsd:atltime.obj
 0002:001d7ad0       ??8CTime@ATL@@QBE_NV01@@Z  006cead0 f   atlsd:atltime.obj
 0002:001d7b20       ??9CTime@ATL@@QBE_NV01@@Z  006ceb20 f   atlsd:atltime.obj
 0002:001d7b70       ??MCTime@ATL@@QBE_NV01@@Z  006ceb70 f   atlsd:atltime.obj
 0002:001d7bd0       ??OCTime@ATL@@QBE_NV01@@Z  006cebd0 f   atlsd:atltime.obj
 0002:001d7c30       ??NCTime@ATL@@QBE_NV01@@Z  006cec30 f   atlsd:atltime.obj
 0002:001d7c90       ??PCTime@ATL@@QBE_NV01@@Z  006cec90 f   atlsd:atltime.obj
 0002:001d7cf0       ?GetGmtTm@CTime@ATL@@QBEPAUtm@@PAU3@@Z 006cecf0 f   atlsd:atltime.obj
 0002:001d7dd0       ?GetLocalTm@CTime@ATL@@QBEPAUtm@@PAU3@@Z 006cedd0 f   atlsd:atltime.obj
 0002:001d7eb0       ?GetAsSystemTime@CTime@ATL@@QBE_NAAU_SYSTEMTIME@@@Z 006ceeb0 f   atlsd:atltime.obj
 0002:001d7f90       ?GetTime@CTime@ATL@@QBE_JXZ 006cef90 f   atlsd:atltime.obj
 0002:001d7fb0       ?GetYear@CTime@ATL@@QBEHXZ 006cefb0 f   atlsd:atltime.obj
 0002:001d8020       ?GetMonth@CTime@ATL@@QBEHXZ 006cf020 f   atlsd:atltime.obj
 0002:001d8090       ?GetDay@CTime@ATL@@QBEHXZ  006cf090 f   atlsd:atltime.obj
 0002:001d80f0       ?GetHour@CTime@ATL@@QBEHXZ 006cf0f0 f   atlsd:atltime.obj
 0002:001d8150       ?GetMinute@CTime@ATL@@QBEHXZ 006cf150 f   atlsd:atltime.obj
 0002:001d81b0       ?GetSecond@CTime@ATL@@QBEHXZ 006cf1b0 f   atlsd:atltime.obj
 0002:001d8210       ?GetDayOfWeek@CTime@ATL@@QBEHXZ 006cf210 f   atlsd:atltime.obj
 0002:001d8280       ??0CFileTimeSpan@ATL@@QAE@XZ 006cf280 f   atlsd:atltime.obj
 0002:001d82b0       ??0CFileTimeSpan@ATL@@QAE@ABV01@@Z 006cf2b0 f   atlsd:atltime.obj
 0002:001d82e0       ??0CFileTimeSpan@ATL@@QAE@_J@Z 006cf2e0 f   atlsd:atltime.obj
 0002:001d8310       ??4CFileTimeSpan@ATL@@QAEAAV01@ABV01@@Z 006cf310 f   atlsd:atltime.obj
 0002:001d8340       ??YCFileTimeSpan@ATL@@QAEAAV01@V01@@Z 006cf340 f   atlsd:atltime.obj
 0002:001d8380       ??ZCFileTimeSpan@ATL@@QAEAAV01@V01@@Z 006cf380 f   atlsd:atltime.obj
 0002:001d83c0       ??HCFileTimeSpan@ATL@@QBE?AV01@V01@@Z 006cf3c0 f   atlsd:atltime.obj
 0002:001d8400       ??GCFileTimeSpan@ATL@@QBE?AV01@V01@@Z 006cf400 f   atlsd:atltime.obj
 0002:001d8440       ??8CFileTimeSpan@ATL@@QBE_NV01@@Z 006cf440 f   atlsd:atltime.obj
 0002:001d8490       ??9CFileTimeSpan@ATL@@QBE_NV01@@Z 006cf490 f   atlsd:atltime.obj
 0002:001d84e0       ??MCFileTimeSpan@ATL@@QBE_NV01@@Z 006cf4e0 f   atlsd:atltime.obj
 0002:001d8540       ??OCFileTimeSpan@ATL@@QBE_NV01@@Z 006cf540 f   atlsd:atltime.obj
 0002:001d85a0       ??NCFileTimeSpan@ATL@@QBE_NV01@@Z 006cf5a0 f   atlsd:atltime.obj
 0002:001d8600       ??PCFileTimeSpan@ATL@@QBE_NV01@@Z 006cf600 f   atlsd:atltime.obj
 0002:001d8660       ?GetTimeSpan@CFileTimeSpan@ATL@@QBE_JXZ 006cf660 f   atlsd:atltime.obj
 0002:001d8680       ?SetTimeSpan@CFileTimeSpan@ATL@@QAEX_J@Z 006cf680 f   atlsd:atltime.obj
 0002:001d86b0       ??0CFileTime@ATL@@QAE@XZ   006cf6b0 f   atlsd:atltime.obj
 0002:001d86e0       ??0CFileTime@ATL@@QAE@ABU_FILETIME@@@Z 006cf6e0 f   atlsd:atltime.obj
 0002:001d8720       ??0CFileTime@ATL@@QAE@_K@Z 006cf720 f   atlsd:atltime.obj
 0002:001d8760       ??4CFileTime@ATL@@QAEAAV01@ABU_FILETIME@@@Z 006cf760 f   atlsd:atltime.obj
 0002:001d87a0       ?GetTickCount@CFileTime@ATL@@SG?AV12@XZ 006cf7a0 f   atlsd:atltime.obj
 0002:001d87e0       ??YCFileTime@ATL@@QAEAAV01@VCFileTimeSpan@1@@Z 006cf7e0 f   atlsd:atltime.obj
 0002:001d8830       ??ZCFileTime@ATL@@QAEAAV01@VCFileTimeSpan@1@@Z 006cf830 f   atlsd:atltime.obj
 0002:001d8880       ??HCFileTime@ATL@@QBE?AV01@VCFileTimeSpan@1@@Z 006cf880 f   atlsd:atltime.obj
 0002:001d88d0       ??GCFileTime@ATL@@QBE?AV01@VCFileTimeSpan@1@@Z 006cf8d0 f   atlsd:atltime.obj
 0002:001d8920       ??GCFileTime@ATL@@QBE?AVCFileTimeSpan@1@V01@@Z 006cf920 f   atlsd:atltime.obj
 0002:001d8970       ??8CFileTime@ATL@@QBE_NV01@@Z 006cf970 f   atlsd:atltime.obj
 0002:001d89e0       ??9CFileTime@ATL@@QBE_NV01@@Z 006cf9e0 f   atlsd:atltime.obj
 0002:001d8a50       ??MCFileTime@ATL@@QBE_NV01@@Z 006cfa50 f   atlsd:atltime.obj
 0002:001d8ac0       ??OCFileTime@ATL@@QBE_NV01@@Z 006cfac0 f   atlsd:atltime.obj
 0002:001d8b30       ??NCFileTime@ATL@@QBE_NV01@@Z 006cfb30 f   atlsd:atltime.obj
 0002:001d8ba0       ??PCFileTime@ATL@@QBE_NV01@@Z 006cfba0 f   atlsd:atltime.obj
 0002:001d8c10       ?GetTime@CFileTime@ATL@@QBE_KXZ 006cfc10 f   atlsd:atltime.obj
 0002:001d8c50       ?SetTime@CFileTime@ATL@@QAEX_K@Z 006cfc50 f   atlsd:atltime.obj
 0002:001d8c90       ?UTCToLocal@CFileTime@ATL@@QBE?AV12@XZ 006cfc90 f   atlsd:atltime.obj
 0002:001d8ce0       ?LocalToUTC@CFileTime@ATL@@QBE?AV12@XZ 006cfce0 f   atlsd:atltime.obj
 0002:001d8d30       ?AtlThrowImpl@ATL@@YGXJ@Z  006cfd30 f i atlsd:atltime.obj
 0002:001d8de0       ??RCTraceFileAndLineInfo@ATL@@QBAXKIPBDZZ 006cfde0 f i atlsd:atltime.obj
 0002:001d8e40       ?_AtlRaiseException@ATL@@YAXKK@Z 006cfe40 f i atlsd:atltime.obj
 0002:001d8e60       ??0CAtlAllocator@@QAE@XZ   006cfe60 f i atlsd:Externs.obj
 0002:001d8ec0       ??0CTraceSnapshot@@QAE@XZ  006cfec0 f i atlsd:Externs.obj
 0002:001d8ef0       ??0?$CSimpleArray@UCModuleInfo@CTraceSnapshot@@V?$CSimpleArrayEqualHelper@UCModuleInfo@CTraceSnapshot@@@ATL@@@ATL@@QAE@XZ 006cfef0 f i atlsd:Externs.obj
 0002:001d8f30       ??0?$CSimpleArray@KV?$CSimpleArrayEqualHelper@K@ATL@@@ATL@@QAE@XZ 006cff30 f i atlsd:Externs.obj
 0002:001d90a0       ??0CAtlException@ATL@@QAE@J@Z 006d00a0 f i atlsd:Externs.obj
 0002:001d90c0       ?AtlCrtErrorCheck@ATL@@YAHH@Z 006d00c0 f i atlsd:Externs.obj
 0002:001d91a0       ??0CTrace@ATL@@AAE@P6AHHPBDH00ZZ@Z 006d01a0 f i atlsd:Externs.obj
 0002:001d91f0       ??1CAtlAllocator@@QAE@XZ   006d01f0 f i atlsd:Externs.obj
 0002:001d9220       ??1CTraceSnapshot@@QAE@XZ  006d0220 f i atlsd:Externs.obj
 0002:001d9250       ??1?$CSimpleArray@UCModuleInfo@CTraceSnapshot@@V?$CSimpleArrayEqualHelper@UCModuleInfo@CTraceSnapshot@@@ATL@@@ATL@@QAE@XZ 006d0250 f i atlsd:Externs.obj
 0002:001d9270       ??1?$CSimpleArray@KV?$CSimpleArrayEqualHelper@K@ATL@@@ATL@@QAE@XZ 006d0270 f i atlsd:Externs.obj
 0002:001d9290       ?RemoveAll@?$CSimpleArray@UCModuleInfo@CTraceSnapshot@@V?$CSimpleArrayEqualHelper@UCModuleInfo@CTraceSnapshot@@@ATL@@@ATL@@QAEXXZ 006d0290 f i atlsd:Externs.obj
 0002:001d9310       ?RemoveAll@?$CSimpleArray@KV?$CSimpleArrayEqualHelper@K@ATL@@@ATL@@QAEXXZ 006d0310 f i atlsd:Externs.obj
 0002:001d9390       ??1CTrace@ATL@@AAE@XZ      006d0390 f i atlsd:Externs.obj
 0002:001d93b0       ??0CTraceCategory@ATL@@QAE@PBDI@Z 006d03b0 f i atlsd:atltrace.obj
 0002:001d9410       ?ChangeCategory@CTrace@ATL@@QAE_NKIW4ATLTRACESTATUS@2@@Z 006d0410 f i atlsd:atltrace.obj
 0002:001d9450       ?RegisterCategory@CTrace@ATL@@QAEKPBD@Z 006d0450 f i atlsd:atltrace.obj
 0002:001d9480       ?NotifyTool@ATL@@YGXXZ     006d0480 f   atlsd:AtlDebugAPI.obj
 0002:001d94d0       _AtlTraceRegister@8        006d04d0 f   atlsd:AtlDebugAPI.obj
 0002:001d9560       _AtlTraceUnregister@4      006d0560 f   atlsd:AtlDebugAPI.obj
 0002:001d95a0       _AtlTraceRegisterCategoryA@8 006d05a0 f   atlsd:AtlDebugAPI.obj
 0002:001d9620       _AtlTraceRegisterCategoryU@8 006d0620 f   atlsd:AtlDebugAPI.obj
 0002:001d9680       _AtlTraceModifyProcess@20  006d0680 f   atlsd:AtlDebugAPI.obj
 0002:001d9750       ?GetProcess@CAtlAllocator@@QBEPAVCAtlTraceProcess@@XZ 006d0750 f i atlsd:AtlDebugAPI.obj
 0002:001d9770       _AtlTraceModifyModule@16   006d0770 f   atlsd:AtlDebugAPI.obj
 0002:001d9890       _AtlTraceModifyCategory@16 006d0890 f   atlsd:AtlDebugAPI.obj
 0002:001d9970       _AtlTraceGetProcess@20     006d0970 f   atlsd:AtlDebugAPI.obj
 0002:001d9a80       _AtlTraceGetModule@16      006d0a80 f   atlsd:AtlDebugAPI.obj
 0002:001d9bd0       _AtlTraceGetCategory@16    006d0bd0 f   atlsd:AtlDebugAPI.obj
 0002:001d9cf0       _AtlTraceGetUpdateEventNameA@4 006d0cf0 f   atlsd:AtlDebugAPI.obj
 0002:001d9d30       _AtlTraceGetUpdateEventNameA_s@8 006d0d30 f   atlsd:AtlDebugAPI.obj
 0002:001d9d70       _AtlTraceGetUpdateEventNameU@4 006d0d70 f   atlsd:AtlDebugAPI.obj
 0002:001d9df0       _AtlTraceGetUpdateEventNameU_s@8 006d0df0 f   atlsd:AtlDebugAPI.obj
 0002:001d9e80       _AtlTraceVA                006d0e80 f   atlsd:AtlDebugAPI.obj
 0002:001da260       ?Name@CAtlTraceCategory@@QBEPB_WXZ 006d1260 f i atlsd:AtlDebugAPI.obj
 0002:001da280       _AtlTraceVU                006d1280 f   atlsd:AtlDebugAPI.obj
 0002:001da6a0       _AtlTraceOpenProcess@4     006d16a0 f   atlsd:AtlDebugAPI.obj
 0002:001da7d0       ??_GCAtlAllocator@@QAEPAXI@Z 006d17d0 f i atlsd:AtlDebugAPI.obj
 0002:001da810       _AtlTraceCloseProcess@4    006d1810 f   atlsd:AtlDebugAPI.obj
 0002:001da8d0       _AtlTraceSnapshotProcess@4 006d18d0 f   atlsd:AtlDebugAPI.obj
 0002:001da960       _AtlTraceGetProcessInfo@8  006d1960 f   atlsd:AtlDebugAPI.obj
 0002:001dab70       ?Path@CAtlTraceModuleInfo@@QBEPB_WXZ 006d1b70 f i atlsd:AtlDebugAPI.obj
 0002:001dab90       ?Name@CAtlTraceModuleInfo@@QBEPB_WXZ 006d1b90 f i atlsd:AtlDebugAPI.obj
 0002:001dabb0       ?Id@CAtlTraceProcess@@QBEKXZ 006d1bb0 f i atlsd:AtlDebugAPI.obj
 0002:001dabd0       _AtlTraceGetModuleInfo@12  006d1bd0 f   atlsd:AtlDebugAPI.obj
 0002:001dadd0       _AtlTraceGetCategoryInfo@16 006d1dd0 f   atlsd:AtlDebugAPI.obj
 0002:001db230       ?CrtDbgReport@CAtlTraceModule@@QBEP6AHHPBDH00ZZXZ 006d2230 f i atlsd:AtlDebugAPI.obj
 0002:001db250       ?_IsTracingEnabled@ATL@@YA_NKKI@Z 006d2250 f   atlsd:AtlDebugAPI.obj
 0002:001db290       ?GetSize@?$CSimpleArray@UCModuleInfo@CTraceSnapshot@@V?$CSimpleArrayEqualHelper@UCModuleInfo@CTraceSnapshot@@@ATL@@@ATL@@QBEHXZ 006d2290 f i atlsd:AtlDebugAPI.obj
 0002:001db2b0       ??A?$CSimpleArray@UCModuleInfo@CTraceSnapshot@@V?$CSimpleArrayEqualHelper@UCModuleInfo@CTraceSnapshot@@@ATL@@@ATL@@QAEAAUCModuleInfo@CTraceSnapshot@@H@Z 006d22b0 f i atlsd:AtlDebugAPI.obj
 0002:001db340       ?strcpy_s@Checked@ATL@@YAXPADIPBD@Z 006d2340 f i atlsd:AtlDebugAPI.obj
 0002:001db370       ?wcscpy_s@Checked@ATL@@YAXPA_WIPB_W@Z 006d2370 f i atlsd:AtlDebugAPI.obj
 0002:001db3a0       ??0?$CA2WEX@$0IA@@ATL@@QAE@PBD@Z 006d23a0 f i atlsd:AtlDebugAPI.obj
 0002:001db3e0       ?_AtlGetConversionACP@ATL@@YGIXZ 006d23e0 f i atlsd:AtlDebugAPI.obj
 0002:001db3f0       ??1?$CA2WEX@$0IA@@ATL@@QAE@XZ 006d23f0 f i atlsd:AtlDebugAPI.obj
 0002:001db420       ??B?$CA2WEX@$0IA@@ATL@@QBEPA_WXZ 006d2420 f i atlsd:AtlDebugAPI.obj
 0002:001db440       ?Init@?$CA2WEX@$0IA@@ATL@@AAEXPBDI@Z 006d2440 f i atlsd:AtlDebugAPI.obj
 0002:001db580       ?AtlThrowLastWin32@ATL@@YGXXZ 006d2580 f i atlsd:AtlDebugAPI.obj
 0002:001db5b0       _HRESULT_FROM_WIN32        006d25b0 f i atlsd:AtlDebugAPI.obj
 0002:001db5f0       ??$AtlConvFreeMemory@_W@ATL@@YAXPA_W0H@Z 006d25f0 f i atlsd:AtlDebugAPI.obj
 0002:001db640       ??$AtlConvAllocMemory@_W@ATL@@YAXPAPA_WHPA_WH@Z 006d2640 f i atlsd:AtlDebugAPI.obj
 0002:001db830       ?Init@CAtlAllocator@@QAE_NPBDK@Z 006d2830 f   atlsd:Allocate.obj
 0002:001dbc30       ?IncRef@CAtlTraceProcess@@QAEIXZ 006d2c30 f i atlsd:Allocate.obj
 0002:001dbc70       ?Base@CAtlTraceProcess@@QBEPAXXZ 006d2c70 f i atlsd:Allocate.obj
 0002:001dbc90       ?Open@CAtlAllocator@@QAE_NPBD@Z 006d2c90 f   atlsd:Allocate.obj
 0002:001dbe20       ?Close@CAtlAllocator@@QAEX_N@Z 006d2e20 f   atlsd:Allocate.obj
 0002:001dbea0       ?DecRef@CAtlTraceProcess@@QAEIXZ 006d2ea0 f i atlsd:Allocate.obj
 0002:001dbee0       ?GetModule@CAtlAllocator@@QBEPAVCAtlTraceModule@@H@Z 006d2ee0 f   atlsd:Allocate.obj
 0002:001dbfa0       ?ModuleCount@CAtlTraceProcess@@QBEHXZ 006d2fa0 f i atlsd:Allocate.obj
 0002:001dbfc0       ?GetCategory@CAtlAllocator@@QBEPAVCAtlTraceCategory@@H@Z 006d2fc0 f   atlsd:Allocate.obj
 0002:001dc0a0       ?MaxSize@CAtlTraceProcess@@QBEKXZ 006d30a0 f i atlsd:Allocate.obj
 0002:001dc0c0       ?CategoryCount@CAtlTraceProcess@@QBEHXZ 006d30c0 f i atlsd:Allocate.obj
 0002:001dc0e0       ?GetCategoryCount@CAtlAllocator@@QBEHH@Z 006d30e0 f   atlsd:Allocate.obj
 0002:001dc180       ?GetCategoryCount@CAtlAllocator@@QBEHABVCAtlTraceModule@@@Z 006d3180 f   atlsd:Allocate.obj
 0002:001dc200       ?GetModuleCount@CAtlAllocator@@QBEHXZ 006d3200 f   atlsd:Allocate.obj
 0002:001dc270       ?FindModule@CAtlAllocator@@QBE_NPB_WPAI@Z 006d3270 f   atlsd:Allocate.obj
 0002:001dc310       ?AddModule@CAtlAllocator@@QAEHPAUHINSTANCE__@@@Z 006d3310 f   atlsd:Allocate.obj
 0002:001dc550       ?TryAllocate@CAtlTraceSettings@@QAE_NXZ 006d3550 f i atlsd:Allocate.obj
 0002:001dc5a0       ?MarkValid@CAtlTraceSettings@@QAEXJ@Z 006d35a0 f i atlsd:Allocate.obj
 0002:001dc5f0       ?IncModuleCount@CAtlTraceProcess@@QAEXI@Z 006d35f0 f i atlsd:Allocate.obj
 0002:001dc620       ?AddCategory@CAtlAllocator@@QAEHHPB_W@Z 006d3620 f   atlsd:Allocate.obj
 0002:001dc8e0       ?TryAddRef@CAtlTraceSettings@@QAE_NXZ 006d38e0 f i atlsd:Allocate.obj
 0002:001dc930       ?Release@CAtlTraceSettings@@QAEXXZ 006d3930 f i atlsd:Allocate.obj
 0002:001dc970       ?IncCategoryCount@CAtlTraceProcess@@QAEXI@Z 006d3970 f i atlsd:Allocate.obj
 0002:001dc9a0       ?RemoveModule@CAtlAllocator@@QAE_NH@Z 006d39a0 f   atlsd:Allocate.obj
 0002:001dca80       ?CleanUp@CAtlAllocator@@QAEXXZ 006d3a80 f   atlsd:Allocate.obj
 0002:001dcaa0       ?TakeSnapshot@CAtlAllocator@@QAEXXZ 006d3aa0 f   atlsd:Allocate.obj
 0002:001dcd00       ?ReleaseSnapshot@CAtlAllocator@@QAEXXZ 006d3d00 f   atlsd:Allocate.obj
 0002:001dce10       ?Add@?$CSimpleArray@UCModuleInfo@CTraceSnapshot@@V?$CSimpleArrayEqualHelper@UCModuleInfo@CTraceSnapshot@@@ATL@@@ATL@@QAEHABUCModuleInfo@CTraceSnapshot@@@Z 006d3e10 f i atlsd:Allocate.obj
 0002:001dcf90       ?GetSize@?$CSimpleArray@KV?$CSimpleArrayEqualHelper@K@ATL@@@ATL@@QBEHXZ 006d3f90 f i atlsd:Allocate.obj
 0002:001dcfb0       ?Add@?$CSimpleArray@KV?$CSimpleArrayEqualHelper@K@ATL@@@ATL@@QAEHABK@Z 006d3fb0 f i atlsd:Allocate.obj
 0002:001dd130       ?RemoveAt@?$CSimpleArray@KV?$CSimpleArrayEqualHelper@K@ATL@@@ATL@@QAEHH@Z 006d4130 f i atlsd:Allocate.obj
 0002:001dd220       ??A?$CSimpleArray@KV?$CSimpleArrayEqualHelper@K@ATL@@@ATL@@QAEAAKH@Z 006d4220 f i atlsd:Allocate.obj
 0002:001dd2b0       ?InternalSetAtIndex@?$CSimpleArray@UCModuleInfo@CTraceSnapshot@@V?$CSimpleArrayEqualHelper@UCModuleInfo@CTraceSnapshot@@@ATL@@@ATL@@QAEXHABUCModuleInfo@CTraceSnapshot@@@Z 006d42b0 f i atlsd:Allocate.obj
 0002:001dd310       ?InternalSetAtIndex@?$CSimpleArray@KV?$CSimpleArrayEqualHelper@K@ATL@@@ATL@@QAEXHABK@Z 006d4310 f i atlsd:Allocate.obj
 0002:001dd370       ??0Wrapper@?$CSimpleArray@UCModuleInfo@CTraceSnapshot@@V?$CSimpleArrayEqualHelper@UCModuleInfo@CTraceSnapshot@@@ATL@@@ATL@@QAE@ABUCModuleInfo@CTraceSnapshot@@@Z 006d4370 f i atlsd:Allocate.obj
 0002:001dd3b0       ??0Wrapper@?$CSimpleArray@KV?$CSimpleArrayEqualHelper@K@ATL@@@ATL@@QAE@ABK@Z 006d43b0 f i atlsd:Allocate.obj
 0002:001dd3e0       ??$?2UCModuleInfo@CTraceSnapshot@@@Wrapper@?$CSimpleArray@UCModuleInfo@CTraceSnapshot@@V?$CSimpleArrayEqualHelper@UCModuleInfo@CTraceSnapshot@@@ATL@@@ATL@@SAPAXIPAUCModuleInfo@CTraceSnapshot@@@Z 006d43e0 f i atlsd:Allocate.obj
 0002:001dd3f0       ??$?2K@Wrapper@?$CSimpleArray@KV?$CSimpleArrayEqualHelper@K@ATL@@@ATL@@SAPAXIPAK@Z 006d43f0 f i atlsd:Allocate.obj
 0002:001dd400       ??0CAtlTraceModuleInfo@@QAE@XZ 006d4400 f   atlsd:AtlTraceModuleManager.obj
 0002:001dd460       ?Reset@CAtlTraceModuleInfo@@QAEXPAUHINSTANCE__@@@Z 006d4460 f   atlsd:AtlTraceModuleManager.obj
 0002:001dd5f0       ??0CAtlTraceCategory@@QAE@XZ 006d45f0 f   atlsd:AtlTraceModuleManager.obj
 0002:001dd640       ??0CAtlTraceSettings@@QAE@XZ 006d4640 f i atlsd:AtlTraceModuleManager.obj
 0002:001dd690       ?Reset@CAtlTraceCategory@@QAEXPB_WJ@Z 006d4690 f   atlsd:AtlTraceModuleManager.obj
 0002:001dd6f0       ??0CAtlTraceModule@@QAE@XZ 006d46f0 f   atlsd:AtlTraceModuleManager.obj
 0002:001dd730       ?CrtDbgReport@CAtlTraceModule@@QAEXP6AHHPBDH00ZZ@Z 006d4730 f   atlsd:AtlTraceModuleManager.obj
 0002:001dd770       ??0CAtlTraceProcess@@QAE@K@Z 006d4770 f   atlsd:AtlTraceModuleManager.obj
 0002:001dd880       ?GetNextCookie@CAtlTraceProcess@@QAEJXZ 006d4880 f   atlsd:AtlTraceModuleManager.obj
 0002:001dd8a4       _SysFreeString@4           006d48a4 f   oleaut32:OLEAUT32.dll
 0002:001dd8b0       _WinMain@16                006d48b0 f   mfcs100d:appmodul.obj
 0002:001dd8e0       ?AfxInitialize@@YGHHK@Z    006d48e0 f   mfcs100d:appmodul.obj
 0002:001dd94c       __mktime64                 006d494c f   msvcrtd:MSVCR100D.dll
 0002:001dd952       __gmtime64_s               006d4952 f   msvcrtd:MSVCR100D.dll
 0002:001dd958       __localtime64_s            006d4958 f   msvcrtd:MSVCR100D.dll
 0002:001dd960       __aullshr                  006d4960 f   msvcrtd:ullshr.obj
 0002:001dd990       __allshl                   006d4990 f   msvcrtd:llshl.obj
 0002:001dd9b6       __snprintf_s               006d49b6 f   msvcrtd:MSVCR100D.dll
 0002:001dd9bc       __errno                    006d49bc f   msvcrtd:MSVCR100D.dll
 0002:001dd9c2       _wcscpy                    006d49c2 f   msvcrtd:MSVCR100D.dll
 0002:001dd9c8       __vsnprintf_s              006d49c8 f   msvcrtd:MSVCR100D.dll
 0002:001dd9ce       __vsnwprintf_s             006d49ce f   msvcrtd:MSVCR100D.dll
 0002:001dd9d4       __snwprintf_s              006d49d4 f   msvcrtd:MSVCR100D.dll
 0002:001dd9da       _wcscpy_s                  006d49da f   msvcrtd:MSVCR100D.dll
 0002:001dd9e0       _wcsncpy_s                 006d49e0 f   msvcrtd:MSVCR100D.dll
 0002:001dd9e6       __recalloc                 006d49e6 f   msvcrtd:MSVCR100D.dll
 0002:001dd9ec       __wcsicmp                  006d49ec f   msvcrtd:MSVCR100D.dll
 0002:001dd9f2       _wcslen                    006d49f2 f   msvcrtd:MSVCR100D.dll
 0002:001dd9f8       __setmode                  006d49f8 f   msvcrtd:MSVCR100D.dll
 0002:001dd9f8       _setmode                   006d49f8 f   msvcrtd:MSVCR100D.dll
 0002:001dd9fe       __fileno                   006d49fe f   msvcrtd:MSVCR100D.dll
 0002:001dda04       __setmbcp                  006d4a04 f   msvcrtd:MSVCR100D.dll
 0002:001dda0a       _MulDiv@12                 006d4a0a f   kernel32:KERNEL32.dll
 0002:001dda10       _FileTimeToSystemTime@8    006d4a10 f   kernel32:KERNEL32.dll
 0002:001dda16       _FileTimeToLocalFileTime@8 006d4a16 f   kernel32:KERNEL32.dll
 0002:001dda1c       _LocalFileTimeToFileTime@8 006d4a1c f   kernel32:KERNEL32.dll
 0002:001dda22       _SetEvent@4                006d4a22 f   kernel32:KERNEL32.dll
 0002:001dda28       _OpenEventA@12             006d4a28 f   kernel32:KERNEL32.dll
 0002:001dda2e       _OutputDebugStringW@4      006d4a2e f   kernel32:KERNEL32.dll
 0002:001dda34       _VirtualAlloc@16           006d4a34 f   kernel32:KERNEL32.dll
 0002:001dda3a       _GetSystemInfo@4           006d4a3a f   kernel32:KERNEL32.dll
 0002:001dda40       _OpenFileMappingA@12       006d4a40 f   kernel32:KERNEL32.dll
 0002:001dda46       _CopyRect@8                006d4a46 f   user32:USER32.dll
 0002:001dda4c       _IsRectEmpty@4             006d4a4c f   user32:USER32.dll
 0002:001dda52       _PtInRect@12               006d4a52 f   user32:USER32.dll
 0002:001dda58       _SetRect@20                006d4a58 f   user32:USER32.dll
 0002:001dda5e       _SetRectEmpty@4            006d4a5e f   user32:USER32.dll
 0002:001dda64       _EqualRect@8               006d4a64 f   user32:USER32.dll
 0002:001dda6a       _InflateRect@12            006d4a6a f   user32:USER32.dll
 0002:001dda70       _OffsetRect@12             006d4a70 f   user32:USER32.dll
 0002:001dda76       _IntersectRect@12          006d4a76 f   user32:USER32.dll
 0002:001dda7c       _UnionRect@12              006d4a7c f   user32:USER32.dll
 0002:001dda82       _SubtractRect@12           006d4a82 f   user32:USER32.dll
 0002:001dda88       _SetThreadToken@8          006d4a88 f   advapi32:ADVAPI32.dll
 0002:001dda8e       _RevertToSelf@0            006d4a8e f   advapi32:ADVAPI32.dll
 0002:001dda94       _OpenThreadToken@16        006d4a94 f   advapi32:ADVAPI32.dll
 0002:001dda9a       ?AfxWinMain@@YGHPAUHINSTANCE__@@0PADH@Z 006d4a9a f   mfc100d:mfc100d.dll
 0002:001ddaa0       ?AfxGetModuleState@@YGPAVAFX_MODULE_STATE@@XZ 006d4aa0 f   mfc100d:mfc100d.dll
 0002:001f74e0       ??__Fstd_err@?1??instance@CQAFDebug@@KAAAV1@XZ@YAXXZ 006ee4e0 f i QAFDebug.obj
 0003:00000000       ___xc_a                    006f0000     msvcrtd:cinitexe.obj
 0003:00000654       ___xc_z                    006f0654     msvcrtd:cinitexe.obj
 0003:00000758       ___xi_a                    006f0758     msvcrtd:cinitexe.obj
 0003:00000b68       ___xi_z                    006f0b68     msvcrtd:cinitexe.obj
 0003:00000c8c       ??_C@_13COJANIEC@?$AA0?$AA?$AA@ 006f0c8c     Cuid.obj
 0003:00000c90       ??_C@_1CI@CHPBNIIH@?$AAc?$AA?3?$AA?2?$AAf?$AAr?$AAe?$AAe?$AAs?$AAc?$AAh?$AA?2?$AAc?$AAu?$AAi?$AAd?$AA?4?$AAc?$AAp?$AAp?$AA?$AA@ 006f0c90     Cuid.obj
 0003:00000cc0       __real@4000000000000000    006f0cc0     DesignRules.obj
 0003:00000cd0       __real@413360f000000000    006f0cd0     DesignRules.obj
 0003:00000cdc       ??_C@_0BL@JACIDEHJ@c?3?2freesch?2designrules?4cpp?$AA@ 006f0cdc     DesignRules.obj
 0003:00000d00       ??_C@_0FB@LMHGDHBC@c?3?2program?5files?5?$CIx86?$CJ?2microsoft@ 006f0d00     DesignRules.obj
 0003:00000d68       __real@0000000000000000    006f0d68     DisplayList.obj
 0003:00000d78       __real@4093d80000000000    006f0d78     DisplayList.obj
 0003:00000d84       ??_C@_0BL@KNENPJJC@c?3?2freesch?2displaylist?4cpp?$AA@ 006f0d84     DisplayList.obj
 0003:00000da8       __real@403e000000000000    006f0da8     DisplayList.obj
 0003:00000db8       __real@4024000000000000    006f0db8     DisplayList.obj
 0003:00000dc8       __real@402e000000000000    006f0dc8     DisplayList.obj
 0003:00000dd4       ??_C@_1DG@NAMHKPOC@?$AAc?$AA?3?$AA?2?$AAf?$AAr?$AAe?$AAe?$AAs?$AAc?$AAh?$AA?2?$AAd?$AAi?$AAs?$AAp?$AAl?$AAa?$AAy?$AAl?$AAi?$AAs?$AAt?$AA?4?$AAc?$AAp?$AAp?$AA?$AA@ 006f0dd4     DisplayList.obj
 0003:00000e18       __real@4010000000000000    006f0e18     DisplayList.obj
 0003:00000e28       __real@4014000000000000    006f0e28     DisplayList.obj
 0003:00000e38       __real@3fe0000000000000    006f0e38     DisplayList.obj
 0003:00000e44       ??_C@_1DM@MMGFGJEG@?$AAm?$AA_?$AAd?$AAr?$AAa?$AAg?$AA_?$AAs?$AAt?$AAy?$AAl?$AAe?$AA1?$AA?5?$AA?$DN?$AA?$DN?$AA?5?$AAD?$AAS?$AAS?$AA_?$AAS?$AAT?$AAR?$AAA?$AAI?$AAG?$AAH?$AAT?$AA?$AA@ 006f0e44     DisplayList.obj
 0003:00000e8c       ??_C@_1DM@FJBFLNND@?$AAm?$AA_?$AAd?$AAr?$AAa?$AAg?$AA_?$AAs?$AAt?$AAy?$AAl?$AAe?$AA0?$AA?5?$AA?$DN?$AA?$DN?$AA?5?$AAD?$AAS?$AAS?$AA_?$AAS?$AAT?$AAR?$AAA?$AAI?$AAG?$AAH?$AAT?$AA?$AA@ 006f0e8c     DisplayList.obj
 0003:00000ed4       __real@c2b40000            006f0ed4     DisplayList.obj
 0003:00000edc       ??_7?$CArray@VCPoint@@ABV1@@@6B@ 006f0edc     DisplayList.obj
 0003:00000ef4       ??_C@_01EEMJAFIK@?6?$AA@   006f0ef4     DisplayList.obj
 0003:00000ef8       ??_C@_05PLCFPPOI@with?5?$AA@ 006f0ef8     DisplayList.obj
 0003:00000f00       ??_C@_09HCLNAIDE@?5elements?$AA@ 006f0f00     DisplayList.obj
 0003:00000f0c       ??_C@_0BC@KHHBAGNL@CDlgAddMaskCutout?$AA@ 006f0f0c     DlgAddMaskCutout.obj
 0003:00000f24       ?classCDlgAddMaskCutout@CDlgAddMaskCutout@@2UCRuntimeClass@@B 006f0f24     DlgAddMaskCutout.obj
 0003:00000f74       ??_7CDlgAddMaskCutout@@6B@ 006f0f74     DlgAddMaskCutout.obj
 0003:00001158       ??_C@_1EA@MFLKANIF@?$AAc?$AA?3?$AA?2?$AAf?$AAr?$AAe?$AAe?$AAs?$AAc?$AAh?$AA?2?$AAd?$AAl?$AAg?$AAa?$AAd?$AAd?$AAm?$AAa?$AAs?$AAk?$AAc?$AAu?$AAt?$AAo?$AAu?$AAt?$AA?4?$AAc?$AAp?$AAp?$AA?$AA@ 006f1158     DlgAddMaskCutout.obj
 0003:000011a4       ??_C@_0BD@BAAMCCMN@Additional?5layer?58?$AA@ 006f11a4     DlgAddMaskCutout.obj
 0003:000011bc       ??_C@_0BD@JHJEDOAC@Additional?5layer?57?$AA@ 006f11bc     DlgAddMaskCutout.obj
 0003:000011d4       ??_C@_0BD@IOIPAPED@Additional?5layer?56?$AA@ 006f11d4     DlgAddMaskCutout.obj
 0003:000011ec       ??_C@_0BD@KFKCFMIA@Additional?5layer?55?$AA@ 006f11ec     DlgAddMaskCutout.obj
 0003:00001204       ??_C@_0BD@LMLJGNMB@Additional?5layer?54?$AA@ 006f1204     DlgAddMaskCutout.obj
 0003:0000121c       ??_C@_0BD@PDPIPLAG@Additional?5layer?53?$AA@ 006f121c     DlgAddMaskCutout.obj
 0003:00001234       ??_C@_0BD@OKODMKEH@Additional?5layer?52?$AA@ 006f1234     DlgAddMaskCutout.obj
 0003:0000124c       ??_C@_0BD@MBMOJJIE@Additional?5layer?51?$AA@ 006f124c     DlgAddMaskCutout.obj
 0003:00001264       ??_C@_0N@DONNMJEN@CDlgAddMerge?$AA@ 006f1264     DlgAddMerge.obj
 0003:00001274       ?classCDlgAddMerge@CDlgAddMerge@@2UCRuntimeClass@@B 006f1274     DlgAddMerge.obj
 0003:000012be       ??_C@_00CNPNBAHC@?$AA@     006f12be     DlgAddMerge.obj
 0003:000012c4       ??_7CDlgAddMerge@@6B@      006f12c4     DlgAddMerge.obj
 0003:000014a4       ??_C@_08ELFMLPKD@Units?5NM?$AA@ 006f14a4     DlgAddMerge.obj
 0003:000014b0       ??_C@_09GOEKJNG@Units?5MIL?$AA@ 006f14b0     DlgAddMerge.obj
 0003:000014bc       ??_C@_08EJBKABPK@Units?5MM?$AA@ 006f14bc     DlgAddMerge.obj
 0003:000014c8       ??_C@_03MDAFIFFL@0?40?$AA@ 006f14c8     DlgAddMerge.obj
 0003:000014cc       ??_C@_04OHJIHAFH@None?$AA@ 006f14cc     DlgAddMerge.obj
 0003:000014d4       ??_C@_08PJDIHONO@Merge?9?$CFs?$AA@ 006f14d4     DlgAddMerge.obj
 0003:000014e0       ??_C@_07GGADEGEP@Merge?91?$AA@ 006f14e0     DlgAddMerge.obj
 0003:000014ec       ??_C@_05LGDANENA@Empty?$AA@ 006f14ec     DlgAddMerge.obj
 0003:000014f4       ??_C@_03JEECBGEF@MIL?$AA@  006f14f4     DlgAddMerge.obj
 0003:000014f8       ??_C@_02DNCLAJDG@MM?$AA@   006f14f8     DlgAddMerge.obj
 0003:00001500       ??_C@_0EA@ELJPDJIE@Illegal?5merge?5name?4?5The?5name?5can@ 006f1500     DlgAddMerge.obj
 0003:0000154c       ??_C@_01CLKCMJKC@?5?$AA@   006f154c     DlgAddMerge.obj
 0003:00001550       ??_C@_0EC@GCOJNCKG@Illegal?5merge?5name?4?5The?5name?5can@ 006f1550     DlgAddMerge.obj
 0003:000015a0       ??_C@_01BJJEKLCA@?$CC?$AA@ 006f15a0     DlgAddMerge.obj
 0003:000015a4       ??_C@_0L@EPNFDFAO@CDlgAddNet?$AA@ 006f15a4     DlgAddNet.obj
 0003:000015b4       ?classCDlgAddNet@CDlgAddNet@@2UCRuntimeClass@@B 006f15b4     DlgAddNet.obj
 0003:00001604       ??_7CDlgAddNet@@6B@        006f1604     DlgAddNet.obj
 0003:000017e4       ??_C@_0M@PIJLIGMG@CDlgAddPart?$AA@ 006f17e4     DlgAddPart.obj
 0003:000017f4       ?classCDlgAddPart@CDlgAddPart@@2UCRuntimeClass@@B 006f17f4     DlgAddPart.obj
 0003:00001964       ??_7CDlgAddPart@@6B@       006f1964     DlgAddPart.obj
 0003:00001b48       ??_C@_0JM@CDNBCOHD@Warning?3?5?$CFs?5has?5fewer?5pins?5than?5@ 006f1b48     DlgAddPart.obj
 0003:00001c08       ??_C@_0EH@DFAPOAHH@Warning?3?5?$CFs?5has?5fewer?5pins?5than?5@ 006f1c08     DlgAddPart.obj
 0003:00001c60       ??_C@_1DE@CPJINAOK@?$AAc?$AA?3?$AA?2?$AAf?$AAr?$AAe?$AAe?$AAs?$AAc?$AAh?$AA?2?$AAd?$AAl?$AAg?$AAa?$AAd?$AAd?$AAp?$AAa?$AAr?$AAt?$AA?4?$AAc?$AAp?$AAp?$AA?$AA@ 006f1c60     DlgAddPart.obj
 0003:00001ca0       ??_C@_0BN@PMAGCCDM@Error?3?5No?5footprint?5selected?$AA@ 006f1ca0     DlgAddPart.obj
 0003:00001cc4       ??_C@_0BK@LPJJNEA@c?3?2freesch?2dlgaddpart?4cpp?$AA@ 006f1cc4     DlgAddPart.obj
 0003:00001ce8       ??_C@_0FE@FPMEDOOE@Loading?5this?5new?5footprint?5will?5@ 006f1ce8     DlgAddPart.obj
 0003:00001d50       ??_C@_0EF@MILNOPKJ@Warning?3?5A?5footprint?5named?5?$CC?$CFs?$CC?$AN@ 006f1d50     DlgAddPart.obj
 0003:00001da4       ??_C@_01MCMALHOG@a?$AA@    006f1da4     DlgAddPart.obj
 0003:00001da8       ??_C@_01FHEEJDEE@A?$AA@    006f1da8     DlgAddPart.obj
 0003:00001dac       ??_C@_02LHLLMGKI@A1?$AA@   006f1dac     DlgAddPart.obj
 0003:00001db0       ??_C@_01HIHLOKLC@1?$AA@    006f1db0     DlgAddPart.obj
 0003:00001db4       ??_C@_0M@BIOLIJGA@EMPTY_SHAPE?$AA@ 006f1db4     DlgAddPart.obj
 0003:00001dc4       ??_C@_0BJ@PLOFHNAH@Value?5cannot?5contain?5?$CC?$EA?$CC?$AA@ 006f1dc4     DlgAddPart.obj
 0003:00001de4       ??_C@_01EOFPKCAF@?$EA?$AA@ 006f1de4     DlgAddPart.obj
 0003:00001de8       ??_C@_0DL@BEFHMLCI@Part?5?$CFs?5already?5exists?5and?5will?5@ 006f1de8     DlgAddPart.obj
 0003:00001e30       ??_C@_04HGGBINEM@?$CFs?$CFd?$AA@ 006f1e30     DlgAddPart.obj
 0003:00001e38       ??_C@_0GA@FCMNPDDM@?5Duplicate?5reference?$CB?5?$CFs?5already@ 006f1e38     DlgAddPart.obj
 0003:00001eac       ??_C@_02EAOCEIGI@?$DP?$CK?$AA@ 006f1eac     DlgAddPart.obj
 0003:00001eb0       ??_C@_01OGPIMHDM@?$DP?$AA@ 006f1eb0     DlgAddPart.obj
 0003:00001eb4       ??_C@_0CC@DFCOOCID@Illegal?5reference?5designator?5?$CC?$CFs@ 006f1eb4     DlgAddPart.obj
 0003:00001edc       ??_C@_03JDAIHPCN@?0?4?5?$AA@ 006f1edc     DlgAddPart.obj
 0003:00001ee0       ??_C@_0BN@BOBOMOCC@Illegal?5reference?5designator?$AA@ 006f1ee0     DlgAddPart.obj
 0003:00001f04       ??_C@_08CKJFGDBG@multiple?$AA@ 006f1f04     DlgAddPart.obj
 0003:00001f10       ??_C@_01GBGANLPD@0?$AA@    006f1f10     DlgAddPart.obj
 0003:00001f14       ??_C@_06PMMPCIPB@bottom?$AA@ 006f1f14     DlgAddPart.obj
 0003:00001f1c       ??_C@_03FGFCOCMD@top?$AA@  006f1f1c     DlgAddPart.obj
 0003:00001f20       ??_C@_0M@OIAKCIF@local?5cache?$AA@ 006f1f20     DlgAddPart.obj
 0003:00001f30       ??_C@_0BO@OPJKDEJF@Warning?3?5Library?5was?5changed?$CB?$AA@ 006f1f30     DlgAddPart.obj
 0003:00001f58       __real@412e848000000000    006f1f58     DlgAddPart.obj
 0003:00001f68       __real@40d8ce0000000000    006f1f68     DlgAddPart.obj
 0003:00001f74       ??_C@_0M@HAMKBNN@Open?5Folder?$AA@ 006f1f74     DlgAddPart.obj
 0003:00001f84       ??_C@_0CA@DNAHDAEA@Select?5footprint?5library?5folder?$AA@ 006f1f84     DlgAddPart.obj
 0003:00001fac       ??_C@_0L@EGCEBGBN@CDlgAddPin?$AA@ 006f1fac     DlgAddPin.obj
 0003:00001fbc       ?classCDlgAddPin@CDlgAddPin@@2UCRuntimeClass@@B 006f1fbc     DlgAddPin.obj
 0003:000023a0       __real@4044000000000000    006f23a0     DlgAddPin.obj
 0003:000023b4       ??_7CDlgAddPin@@6B@        006f23b4     DlgAddPin.obj
 0003:00002594       ??_C@_04HDOCAJNK@?$CFs?$CFs?$AA@ 006f2594     DlgAddPin.obj
 0003:0000259c       ??_C@_0DC@CEKCPGIG@or?5NO?5to?5set?5them?5all?5to?5the?5lay@ 006f259c     DlgAddPin.obj
 0003:000025d8       ??_C@_0DB@HJFKDKLP@Click?5YES?5to?5preserve?5the?5layers@ 006f25d8     DlgAddPin.obj
 0003:00002614       ??_C@_0CB@IBABIBBG@on?5both?5top?5and?5bottom?5layers?4?6?6@ 006f2614     DlgAddPin.obj
 0003:0000263c       ??_C@_0DB@GJLDMHHA@You?5are?5applying?5new?5pad?5paramet@ 006f263c     DlgAddPin.obj
 0003:00002678       ??_C@_0EO@CHMFFMDD@Pin?5names?5?$CC?$CFs?$CFd?$CC?5through?5?$CC?$CFs?$CFd?$CC?5@ 006f2678     DlgAddPin.obj
 0003:000026d8       ??_C@_0DO@MILAFAFC@Pin?5name?5?$CC?$CFs?$CC?5conflicts?5with?5an?5@ 006f26d8     DlgAddPin.obj
 0003:00002724       ??_C@_0DH@CAMOPKPB@Radius?5of?5inner?5rounded?9rect?5pad@ 006f2724     DlgAddPin.obj
 0003:00002768       ??_C@_0DO@CCHMJPAF@Radius?5of?5bottom?5paste?5rounded?9r@ 006f2768     DlgAddPin.obj
 0003:000027b4       ??_C@_0DN@GJJFGDHB@Radius?5of?5bottom?5mask?5rounded?9re@ 006f27b4     DlgAddPin.obj
 0003:00002800       ??_C@_0DI@IJJIEECD@Radius?5of?5bottom?5rounded?9rect?5pa@ 006f2800     DlgAddPin.obj
 0003:00002844       ??_C@_0DL@KAPEEDOO@Radius?5of?5top?5paste?5rounded?9rect@ 006f2844     DlgAddPin.obj
 0003:0000288c       ??_C@_0DK@OJLNEJCH@Radius?5of?5top?5mask?5rounded?9rect?5@ 006f288c     DlgAddPin.obj
 0003:000028d4       ??_C@_0DF@OJPLDOLB@Radius?5of?5top?5rounded?9rect?5pad?5?$DO@ 006f28d4     DlgAddPin.obj
 0003:00002914       ??_C@_0BD@EKBEKCCI@Illegal?5mask?5width?$AA@ 006f2914     DlgAddPin.obj
 0003:0000292c       ??_C@_0BE@HKHDINCE@Illegal?5paste?5width?$AA@ 006f292c     DlgAddPin.obj
 0003:00002944       ??_C@_0BO@DOEFNNGK@SMT?5pad?5shape?5can?8t?5be?5?$CCnone?$CC?$AA@ 006f2944     DlgAddPin.obj
 0003:00002968       ??_C@_0BJ@EHADMEKJ@Illegal?5bottom?5pad?5width?$AA@ 006f2968     DlgAddPin.obj
 0003:00002988       ??_C@_0BI@HPFGFGKL@Illegal?5inner?5pad?5width?$AA@ 006f2988     DlgAddPin.obj
 0003:000029a4       ??_C@_0BG@LMKDHNKC@Illegal?5top?5pad?5width?$AA@ 006f29a4     DlgAddPin.obj
 0003:000029c0       ??_C@_0DA@KDJLJKPK@For?5through?9hole?5pin?0?5hole?5diame@ 006f29c0     DlgAddPin.obj
 0003:000029fc       ??_C@_0BE@JKOKBCDO@illegal?5row?5spacing?$AA@ 006f29fc     DlgAddPin.obj
 0003:00002a14       ??_C@_0BN@OOHJLBBO@while?51A?0?5A2B3?0?5A?33?5are?5not?6?$AA@ 006f2a14     DlgAddPin.obj
 0003:00002a38       ??_C@_0CL@FOBNMFOE@For?5example?3?51?0?523?0?5A12?0?5SOURCE?5@ 006f2a38     DlgAddPin.obj
 0003:00002a6c       ??_C@_0DK@PKJGELBA@The?5characters?5?$CC?5?4?0?$DL?3?1?$CB?$EA?$CD$?$CF?$FO?$CG?$CK?$CI?$CJ@ 006f2a6c     DlgAddPin.obj
 0003:00002ab4       ??_C@_0CC@IOMJPDLL@Followed?5by?5zero?5or?5more?5numbers@ 006f2ab4     DlgAddPin.obj
 0003:00002adc       ??_C@_0CP@DGBNMBH@Pin?5name?5must?5consist?5of?5zero?5or@ 006f2adc     DlgAddPin.obj
 0003:00002b14       ??_C@_02DPKJAMEF@?$CFd?$AA@ 006f2b14     DlgAddPin.obj
 0003:00002b18       ??_C@_06BPGFIOAL@?$CFs?$CI?$CFd?$CJ?$AA@ 006f2b18     DlgAddPin.obj
 0003:00002b20       ??_C@_0BC@LNNPBBLO@?$CFs?5?$CI?5?$CFs?5?$CFs?5x?5?$CFs?5?$CJ?$AA@ 006f2b20     DlgAddPin.obj
 0003:00002b38       ??_C@_04MNFAFELN@oct?5?$AA@ 006f2b38     DlgAddPin.obj
 0003:00002b40       ??_C@_05JGNOHADM@oval?5?$AA@ 006f2b40     DlgAddPin.obj
 0003:00002b48       ??_C@_06OBLDAJLH@rrect?5?$AA@ 006f2b48     DlgAddPin.obj
 0003:00002b50       ??_C@_05LGOKLGGI@rect?5?$AA@ 006f2b50     DlgAddPin.obj
 0003:00002b58       ??_C@_04JGNNMNJI@sqr?5?$AA@ 006f2b58     DlgAddPin.obj
 0003:00002b60       ??_C@_04LLGMHMCD@rnd?5?$AA@ 006f2b60     DlgAddPin.obj
 0003:00002b68       ??_C@_05NDLFFNHM@paste?$AA@ 006f2b68     DlgAddPin.obj
 0003:00002b70       ??_C@_04LFLEPBN@mask?$AA@  006f2b70     DlgAddPin.obj
 0003:00002b78       ??_C@_04KKJNHOJN@hole?$AA@ 006f2b78     DlgAddPin.obj
 0003:00002b80       ??_C@_08HFNFBPNK@thru?5pad?$AA@ 006f2b80     DlgAddPin.obj
 0003:00002b8c       ??_C@_03BBKEAIF@?$DP?$DP?$DP?$AA@ 006f2b8c     DlgAddPin.obj
 0003:00002b90       ??_C@_04FPJBBKHA@vert?$AA@ 006f2b90     DlgAddPin.obj
 0003:00002b98       ??_C@_05OCBIDKDD@horiz?$AA@ 006f2b98     DlgAddPin.obj
 0003:00002ba0       ??_C@_06CGLIEPEJ@middle?$AA@ 006f2ba0     DlgAddPin.obj
 0003:00002ba8       ??_C@_05DHJDAOHK@right?$AA@ 006f2ba8     DlgAddPin.obj
 0003:00002bb0       ??_C@_06BBLOAEEI@center?$AA@ 006f2bb0     DlgAddPin.obj
 0003:00002bb8       ??_C@_04GOOOJOPP@left?$AA@ 006f2bb8     DlgAddPin.obj
 0003:00002bc0       ??_C@_02JAOCGLHE@mm?$AA@   006f2bc0     DlgAddPin.obj
 0003:00002bc4       ??_C@_03JJLJNLDJ@mil?$AA@  006f2bc4     DlgAddPin.obj
 0003:00002bc8       ??_C@_09IOAPNCJN@?$DMdefault?$DO?$AA@ 006f2bc8     DlgAddPin.obj
 0003:00002bd4       ??_C@_07DKNNAFN@octagon?$AA@ 006f2bd4     DlgAddPin.obj
 0003:00002be0       ??_C@_04OMLGJCIC@oval?$AA@ 006f2be0     DlgAddPin.obj
 0003:00002be8       ??_C@_0N@ODNJDEMF@rounded?9rect?$AA@ 006f2be8     DlgAddPin.obj
 0003:00002bf8       ??_C@_04LHPFHFPH@rect?$AA@ 006f2bf8     DlgAddPin.obj
 0003:00002c00       ??_C@_06ICDKOIFG@square?$AA@ 006f2c00     DlgAddPin.obj
 0003:00002c08       ??_C@_05MIMAKCN@round?$AA@ 006f2c08     DlgAddPin.obj
 0003:00002c10       ??_C@_04CGFJFPFD@none?$AA@ 006f2c10     DlgAddPin.obj
 0003:00002c18       ??_C@_1DC@ECKCBHKB@?$AAc?$AA?3?$AA?2?$AAf?$AAr?$AAe?$AAe?$AAs?$AAc?$AAh?$AA?2?$AAd?$AAl?$AAg?$AAa?$AAd?$AAd?$AAp?$AAi?$AAn?$AA?4?$AAc?$AAp?$AAp?$AA?$AA@ 006f2c18     DlgAddPin.obj
 0003:00002c58       ??_7?$CArray@V?$CStringT@DV?$StrTraitMFC_DLL@DV?$ChTraitsCRT@D@ATL@@@@@ATL@@ABV12@@@6B@ 006f2c58     DlgAddPin.obj
 0003:00002c70       ??_C@_0M@LLFCABMC@CDlgAddPoly?$AA@ 006f2c70     DlgAddPoly.obj
 0003:00002c80       ?classCDlgAddPoly@CDlgAddPoly@@2UCRuntimeClass@@B 006f2c80     DlgAddPoly.obj
 0003:00002cec       ??_7CDlgAddPoly@@6B@       006f2cec     DlgAddPoly.obj
 0003:00002ecc       ??_C@_0CD@GIIDCIJF@Width?5out?5of?5range?5?$CI1?5to?5999?5mil@ 006f2ecc     DlgAddPoly.obj
 0003:00002ef8       ??_C@_0M@IPOODCIH@CDlgAddText?$AA@ 006f2ef8     DlgAddText.obj
 0003:00002f08       ?classCDlgAddText@CDlgAddText@@2UCRuntimeClass@@B 006f2f08     DlgAddText.obj
 0003:00003044       ??_7CDlgAddText@@6B@       006f3044     DlgAddText.obj
 0003:00003224       ??_C@_0BM@EDNKKDNO@Text?5string?5can?8t?5contain?5?$CC?$AA@ 006f3224     DlgAddText.obj
 0003:00003248       ??_C@_0BE@CKHKHGKB@Invalid?5text?5string?$AA@ 006f3248     DlgAddText.obj
 0003:00003260       ??_C@_0N@IHNMGOJG@CDlgAddWidth?$AA@ 006f3260     DlgAddWidth.obj
 0003:00003270       ?classCDlgAddWidth@CDlgAddWidth@@2UCRuntimeClass@@B 006f3270     DlgAddWidth.obj
 0003:000032c4       ??_7CDlgAddWidth@@6B@      006f32c4     DlgAddWidth.obj
 0003:000034a4       ??_C@_0N@FKAFOHHC@DlgAreaLayer?$AA@ 006f34a4     DlgAreaLayer.obj
 0003:000034b4       ?classDlgAreaLayer@DlgAreaLayer@@2UCRuntimeClass@@B 006f34b4     DlgAreaLayer.obj
 0003:00003504       ??_7DlgAreaLayer@@6B@      006f3504     DlgAreaLayer.obj
 0003:000036e4       ??_C@_0N@BANIIAEA@DlgAssignNet?$AA@ 006f36e4     DlgAssignNet.obj
 0003:000036f4       ?classDlgAssignNet@DlgAssignNet@@2UCRuntimeClass@@B 006f36f4     DlgAssignNet.obj
 0003:0000377c       ??_7DlgAssignNet@@6B@      006f377c     DlgAssignNet.obj
 0003:0000395c       ??_C@_0BG@IKIBNLK@Neither?5pin?5nor?5net?5?$CC?$AA@ 006f395c     DlgAssignNet.obj
 0003:00003978       ??_C@_0CJ@PPDCHELD@?$CC?5was?5found?5in?5netlist?6Create?5th@ 006f3978     DlgAssignNet.obj
 0003:000039ac       ??_C@_01LFCBOECM@?4?$AA@   006f39ac     DlgAssignNet.obj
 0003:000039b0       ??_C@_05FBBPPKHG@Net?5?$CC?$AA@ 006f39b0     DlgAssignNet.obj
 0003:000039b8       ??_C@_0CD@KKEAALFB@?$CC?5not?5found?5in?5netlist?6Create?5it@ 006f39b8     DlgAssignNet.obj
 0003:000039e4       ??_C@_05NNFHCGPF@?$CFs?4?$CFs?$AA@ 006f39e4     DlgAssignNet.obj
 0003:000039ec       ??_C@_0BB@KAOONMBF@Illegal?5net?5name?$AA@ 006f39ec     DlgAssignNet.obj
 0003:00003a00       ??_C@_05BBJCMEOB@N?$CF?45d?$AA@ 006f3a00     DlgAssignNet.obj
 0003:00003a08       ??_C@_07LFEDEKKL@CDlgCAD?$AA@ 006f3a08     DlgCAD.obj
 0003:00003a14       ?classCDlgCAD@CDlgCAD@@2UCRuntimeClass@@B 006f3a14     DlgCAD.obj
 0003:00003b84       ??_7CDlgCAD@@6B@           006f3b84     DlgCAD.obj
 0003:00003d64       ??_C@_0DL@PKBLBIPK@?$CK?$CK?$CK?$CK?$CK?$CK?$CK?$CK?$CK?$CK?$CK?$CK?$CK?$CK?$CK?$CK?$CK?$CK?$CK?$CK?$CK?$CK?$CK?$CK?$CK?5DONE?5?$CK@ 006f3d64     DlgCAD.obj
 0003:00003dac       ??_C@_05FJMIFMML@Run?3?5?$AA@ 006f3dac     DlgCAD.obj
 0003:00003db4       ??_C@_02PCIJFNDE@?$AN?6?$AA@ 006f3db4     DlgCAD.obj
 0003:00003db8       ??_C@_0DL@MLENLFGE@?$CK?$CK?$CK?$CK?$CK?$CK?$CK?$CK?$CK?$CK?$CK?5RENDERING?5?4PNG?5FILES@ 006f3db8     DlgCAD.obj
 0003:00003e00       ??_C@_0DL@LNBDDELK@?$CK?$CK?$CK?$CK?$CK?$CK?$CK?$CK?$CK?$CK?$CK?$CK?5ALL?5GERBERS?5CREATED@ 006f3e00     DlgCAD.obj
 0003:00003e48       ??_C@_0DL@FJPIMHHJ@?$CK?$CK?$CK?$CK?$CK?$CK?5ERRORS?5OCCURRED?5DURING?5CR@ 006f3e48     DlgCAD.obj
 0003:00003e90       ??_C@_0CD@ECGOIABJ@?2GerberRender?4exe?5?9r?51200?5?9a?50?40@ 006f3e90     DlgCAD.obj
 0003:00003ebc       ??_C@_09OEOEKGON@?9?9mirror?5?$AA@ 006f3ebc     DlgCAD.obj
 0003:00003ec8       ??_C@_05MJMNOEPO@M02?$CK?6?$AA@ 006f3ec8     DlgCAD.obj
 0003:00003ed0       ??_C@_08MCNGNGCP@G04?5?$CFs?$CK?6?$AA@ 006f3ed0     DlgCAD.obj
 0003:00003edc       ??_C@_0BP@KEKOFMID@G04?5WebSite?3?5www?4freepcb?4dev?$CK?6?$AA@ 006f3edc     DlgCAD.obj
 0003:00003f04       ??_C@_0BN@JEMLEJMA@G04?5Version?3?5FreeSCH?91?4000?$CK?6?$AA@ 006f3f04     DlgCAD.obj
 0003:00003f28       ??_C@_0BO@HMILDLLA@G04?5FreePCB?5MFC?5Application?$CK?6?$AA@ 006f3f28     DlgCAD.obj
 0003:00003f4c       ??_C@_1CM@JEIPJKBG@?$AAc?$AA?3?$AA?2?$AAf?$AAr?$AAe?$AAe?$AAs?$AAc?$AAh?$AA?2?$AAd?$AAl?$AAg?$AAc?$AAa?$AAd?$AA?4?$AAc?$AAp?$AAp?$AA?$AA@ 006f3f4c     DlgCAD.obj
 0003:00003f80       ??_C@_0O@DKLONDKO@?$CFs?4HIGHLIGHTS?$AA@ 006f3f80     DlgCAD.obj
 0003:00003f90       ??_C@_0P@BJIMOIGC@HIGHLIGHTS?4gbr?$AA@ 006f3f90     DlgCAD.obj
 0003:00003fa4       ??_C@_06NOGAFMFF@?$CFs?4NTB?$AA@ 006f3fa4     DlgCAD.obj
 0003:00003fac       ??_C@_0BB@LIIMAIJP@BOTTOM_NOTES?4gbr?$AA@ 006f3fac     DlgCAD.obj
 0003:00003fc0       ??_C@_06MCPIOJIC@?$CFs?4NTT?$AA@ 006f3fc0     DlgCAD.obj
 0003:00003fc8       ??_C@_0O@BPGEIJFF@TOP_NOTES?4gbr?$AA@ 006f3fc8     DlgCAD.obj
 0003:00003fd8       ??_C@_08DBFIMICH@?$CFs?4V_CUT?$AA@ 006f3fd8     DlgCAD.obj
 0003:00003fe4       ??_C@_0O@OOKLAKGP@V_CUTOUTS?4gbr?$AA@ 006f3fe4     DlgCAD.obj
 0003:00003ff4       ??_C@_06HLBKHLML@?$CFs?4SPB?$AA@ 006f3ff4     DlgCAD.obj
 0003:00003ffc       ??_C@_0BB@FHMKBNLD@BOTTOM_PASTE?4gbr?$AA@ 006f3ffc     DlgCAD.obj
 0003:00004010       ??_C@_06GHICMOBM@?$CFs?4SPT?$AA@ 006f4010     DlgCAD.obj
 0003:00004018       ??_C@_0O@PACCJMHJ@TOP_PASTE?4gbr?$AA@ 006f4018     DlgCAD.obj
 0003:00004028       ??_C@_06MGGBDINJ@?$CFs?4BRD?$AA@ 006f4028     DlgCAD.obj
 0003:00004030       ??_C@_0O@HCKGPGAG@FREE_LINE?4gbr?$AA@ 006f4030     DlgCAD.obj
 0003:00004040       ??_C@_0M@HIFFJNJO@?$CFs?4INNER_14?$AA@ 006f4040     DlgCAD.obj
 0003:00004050       ??_C@_0N@CAGLIBPP@INNER_14?4gbr?$AA@ 006f4050     DlgCAD.obj
 0003:00004060       ??_C@_0M@DHBEALFJ@?$CFs?4INNER_13?$AA@ 006f4060     DlgCAD.obj
 0003:00004070       ??_C@_0N@DNGOLBEH@INNER_13?4gbr?$AA@ 006f4070     DlgCAD.obj
 0003:00004080       ??_C@_0M@COAPDKBI@?$CFs?4INNER_12?$AA@ 006f4080     DlgCAD.obj
 0003:00004090       ??_C@_0N@PGDCGCOC@INNER_12?4gbr?$AA@ 006f4090     DlgCAD.obj
 0003:000040a0       ??_C@_0M@FCCGJNL@?$CFs?4INNER_11?$AA@ 006f40a0     DlgCAD.obj
 0003:000040b0       ??_C@_0N@HAKGBAEM@INNER_11?4gbr?$AA@ 006f40b0     DlgCAD.obj
 0003:000040c0       ??_C@_0M@BMDJFIJK@?$CFs?4INNER_10?$AA@ 006f40c0     DlgCAD.obj
 0003:000040d0       ??_C@_0N@LLPKMDOJ@INNER_10?4gbr?$AA@ 006f40d0     DlgCAD.obj
 0003:000040e0       ??_C@_0L@LLDJECPF@?$CFs?4INNER_9?$AA@ 006f40e0     DlgCAD.obj
 0003:000040f0       ??_C@_0M@NGBJJGCG@INNER_9?4gbr?$AA@ 006f40f0     DlgCAD.obj
 0003:00004100       ??_C@_0L@KCCCHDLE@?$CFs?4INNER_8?$AA@ 006f4100     DlgCAD.obj
 0003:00004110       ??_C@_0M@BNEFEFID@INNER_8?4gbr?$AA@ 006f4110     DlgCAD.obj
 0003:00004120       ??_C@_0L@CFLKGPHL@?$CFs?4INNER_7?$AA@ 006f4120     DlgCAD.obj
 0003:00004130       ??_C@_0M@OMBDPHFG@INNER_7?4gbr?$AA@ 006f4130     DlgCAD.obj
 0003:00004140       ??_C@_0L@DMKBFODK@?$CFs?4INNER_6?$AA@ 006f4140     DlgCAD.obj
 0003:00004150       ??_C@_0M@CHEPCEPD@INNER_6?4gbr?$AA@ 006f4150     DlgCAD.obj
 0003:00004160       ??_C@_0L@BHIMANPJ@?$CFs?4INNER_5?$AA@ 006f4160     DlgCAD.obj
 0003:00004170       ??_C@_0M@KBNLFGFN@INNER_5?4gbr?$AA@ 006f4170     DlgCAD.obj
 0003:00004180       ??_C@_0L@OJHDMLI@?$CFs?4INNER_4?$AA@ 006f4180     DlgCAD.obj
 0003:00004190       ??_C@_0M@GKIHIFPI@INNER_4?4gbr?$AA@ 006f4190     DlgCAD.obj
 0003:000041a0       ??_C@_0L@EBNGKKHP@?$CFs?4INNER_3?$AA@ 006f41a0     DlgCAD.obj
 0003:000041b0       ??_C@_0M@HHICLFEA@INNER_3?4gbr?$AA@ 006f41b0     DlgCAD.obj
 0003:000041c0       ??_C@_0L@FIMNJLDO@?$CFs?4INNER_2?$AA@ 006f41c0     DlgCAD.obj
 0003:000041d0       ??_C@_0M@LMNOGGOF@INNER_2?4gbr?$AA@ 006f41d0     DlgCAD.obj
 0003:000041e0       ??_C@_0L@HDOAMIPN@?$CFs?4INNER_1?$AA@ 006f41e0     DlgCAD.obj
 0003:000041f0       ??_C@_0M@DKEKBEEL@INNER_1?4gbr?$AA@ 006f41f0     DlgCAD.obj
 0003:00004200       ??_C@_06JIFNBKKL@?$CFs?4BOT?$AA@ 006f4200     DlgCAD.obj
 0003:00004208       ??_C@_0BC@NJNHDHNJ@BOTTOM_COPPER?4gbr?$AA@ 006f4208     DlgCAD.obj
 0003:00004220       ??_C@_06IJEDNHOM@?$CFs?4TOP?$AA@ 006f4220     DlgCAD.obj
 0003:00004228       ??_C@_0P@KCMBPEPG@TOP_COPPER?4gbr?$AA@ 006f4228     DlgCAD.obj
 0003:0000423c       ??_C@_06GPOEELOI@?$CFs?4SMB?$AA@ 006f423c     DlgCAD.obj
 0003:00004244       ??_C@_0BA@PHFLBCFN@BOTTOM_MASK?4gbr?$AA@ 006f4244     DlgCAD.obj
 0003:00004258       ??_C@_06HDHMPODP@?$CFs?4SMT?$AA@ 006f4258     DlgCAD.obj
 0003:00004260       ??_C@_0N@HIPMLJLJ@TOP_MASK?4gbr?$AA@ 006f4260     DlgCAD.obj
 0003:00004270       ??_C@_06HJFMMFJC@?$CFs?4SSB?$AA@ 006f4270     DlgCAD.obj
 0003:00004278       ??_C@_0BA@NBCKHMCM@BOTTOM_SILK?4gbr?$AA@ 006f4278     DlgCAD.obj
 0003:0000428c       ??_C@_06GFMEHAEF@?$CFs?4SST?$AA@ 006f428c     DlgCAD.obj
 0003:00004294       ??_C@_0N@FOINNHMI@TOP_SILK?4gbr?$AA@ 006f4294     DlgCAD.obj
 0003:000042a4       ??_C@_0BF@HIGIJKHM@Writing?5file?3?5?$CC?$CFs?$CC?$AN?6?$AA@ 006f42a4     DlgCAD.obj
 0003:000042c0       ??_C@_0CC@JLJFFLOC@ERROR?3?5Unable?5to?5open?5file?5?$CC?$CFs?$CC?$AN@ 006f42c0     DlgCAD.obj
 0003:000042e8       ??_C@_0M@KACBGDNJ@?$CFs?2?$CFs?4DRILL?$AA@ 006f42e8     DlgCAD.obj
 0003:000042f8       ??_C@_0N@EFHPEIHP@?$CFs?2HOLES?4drl?$AA@ 006f42f8     DlgCAD.obj
 0003:00004308       ??_C@_04GNFFGBEG@?4drl?$AA@ 006f4308     DlgCAD.obj
 0003:00004310       ??_C@_04EEOGCCFB@?4png?$AA@ 006f4310     DlgCAD.obj
 0003:00004318       ??_C@_04LHIHFCAH@?4gbr?$AA@ 006f4318     DlgCAD.obj
 0003:00004320       ??_C@_02KHDDNBB@?2?$CK?$AA@ 006f4320     DlgCAD.obj
 0003:00004324       ??_C@_0DF@HIFCGAFL@?6Are?5you?5SURE?5that?5you?5don?8t?5nee@ 006f4324     DlgCAD.obj
 0003:00004368       ??_C@_0FJ@BICPJOHA@?6This?5will?5disable?5automatic?5gen@ 006f4368     DlgCAD.obj
 0003:000043d8       ??_C@_0EA@GFJHCJEJ@WARNING?3?5You?5have?5set?5the?5copper@ 006f43d8     DlgCAD.obj
 0003:00004424       ??_C@_0BN@PFFOHNOK@Unable?5to?5create?5folder?5?$CC?$CFs?$CC?$AA@ 006f4424     DlgCAD.obj
 0003:00004448       ??_C@_0CH@IOFJJIGB@Folder?5?$CC?$CFs?$CC?5doesn?8t?5exist?0?5creat@ 006f4448     DlgCAD.obj
 0003:00004478       ??_C@_01KICIPPFI@?2?$AA@   006f4478     DlgCAD.obj
 0003:0000447c       ??_C@_0L@GIKPDBCF@?$CFs?2CAM?$CI?$CFs?$CJ?$AA@ 006f447c     DlgCAD.obj
 0003:0000448c       ??_C@_01ODHLEDKK@?$CI?$AA@ 006f448c     DlgCAD.obj
 0003:00004490       ??_C@_0BA@MEGKEBLG@?$CFs?2?$CFs?$CI?$CFd?9?$CFd?9?$CFd?$CJ?$AA@ 006f4490     DlgCAD.obj
 0003:000044a4       ??_C@_0N@LHLKAIHL@?$CFs?2View2?$CI?$CFs?$CJ?$AA@ 006f44a4     DlgCAD.obj
 0003:000044b4       ??_C@_0N@DBCOHKNF@?$CFs?2View1?$CI?$CFs?$CJ?$AA@ 006f44b4     DlgCAD.obj
 0003:000044c4       ??_C@_0N@OINJIBLD@?$CFs?2Print?$CI?$CFs?$CJ?$AA@ 006f44c4     DlgCAD.obj
 0003:000044d4       ??_C@_0O@GBCKEAFH@Select?5Folder?$AA@ 006f44d4     DlgCAD.obj
 0003:000044e4       ??_C@_0BG@CLFOKELM@Set?5CAM?5output?5folder?$AA@ 006f44e4     DlgCAD.obj
 0003:00004500       ??_C@_0N@DILCDAOF@CDlgCentroid?$AA@ 006f4500     DlgCentroid.obj
 0003:00004510       ?classCDlgCentroid@CDlgCentroid@@2UCRuntimeClass@@B 006f4510     DlgCentroid.obj
 0003:000045bc       ??_7CDlgCentroid@@6B@      006f45bc     DlgCentroid.obj
 0003:0000479c       ??_C@_03HKPLNFCP@270?$AA@  006f479c     DlgCentroid.obj
 0003:000047a0       ??_C@_03GDBCDNPM@180?$AA@  006f47a0     DlgCentroid.obj
 0003:000047a4       ??_C@_02PEECMOAB@90?$AA@   006f47a4     DlgCentroid.obj
 0003:000047a8       ??_C@_0BA@BMPJKOBI@CDlgChangeLayer?$AA@ 006f47a8     DlgChangeLayer.obj
 0003:000047bc       ?classCDlgChangeLayer@CDlgChangeLayer@@2UCRuntimeClass@@B 006f47bc     DlgChangeLayer.obj
 0003:0000480c       ??_7CDlgChangeLayer@@6B@   006f480c     DlgChangeLayer.obj
 0003:000049ec       ??_C@_0BC@BDEDDGEG@CDlgChooseNetName?$AA@ 006f49ec     DlgChooseNetName.obj
 0003:00004a04       ?classCDlgChooseNetName@CDlgChooseNetName@@2UCRuntimeClass@@B 006f4a04     DlgChooseNetName.obj
 0003:00004a54       ??_7CDlgChooseNetName@@6B@ 006f4a54     DlgChooseNetName.obj
 0003:00004c34       ??_C@_06CGOJDMOF@DlgDRC?$AA@ 006f4c34     DlgDRC.obj
 0003:00004c3c       ?classDlgDRC@DlgDRC@@2UCRuntimeClass@@B 006f4c3c     DlgDRC.obj
 0003:00004d04       ??_7DlgDRC@@6B@            006f4d04     DlgDRC.obj
 0003:00004ee8       ??_C@_0ED@LMOAAOIB@Warning?3?5Your?5design?5rule?5for?5mi@ 006f4ee8     DlgDRC.obj
 0003:00004f38       ??_C@_0DP@JGBDNMCH@Do?5you?5want?5to?5set?5the?5CAM?5param@ 006f4f38     DlgDRC.obj
 0003:00004f84       ??_C@_0CI@GFIOPDAN@This?5will?5probably?5create?5DRC?5er@ 006f4f84     DlgDRC.obj
 0003:00004fb4       ??_C@_0DL@MEFJONKN@exceeds?5the?5default?5annular?5ring@ 006f4fb4     DlgDRC.obj
 0003:00005000       ??_C@_0ED@DCNKPNMK@Warning?3?5Your?5design?5rule?5for?5mi@ 006f5000     DlgDRC.obj
 0003:00005050       ??_C@_0BF@FOAHHNBB@CDlgDupFootprintName?$AA@ 006f5050     DlgDupFootprintName.obj
 0003:0000506c       ?classCDlgDupFootprintName@CDlgDupFootprintName@@2UCRuntimeClass@@B 006f506c     DlgDupFootprintName.obj
 0003:00005114       ??_7CDlgDupFootprintName@@6B@ 006f5114     DlgDupFootprintName.obj
 0003:000052f4       ??_C@_0CF@MCAODJCD@New?5footprint?5name?5is?5already?5in@ 006f52f4     DlgDupFootprintName.obj
 0003:00005320       ??_C@_0CE@KOLKAIDB@You?5must?5enter?5a?5new?5footprint?5n@ 006f5320     DlgDupFootprintName.obj
 0003:0000534c       ??_C@_0BD@MBGLLCNE@DlgEditBoardCorner?$AA@ 006f534c     DlgEditBoardCorner.obj
 0003:00005364       ?classDlgEditBoardCorner@DlgEditBoardCorner@@2UCRuntimeClass@@B 006f5364     DlgEditBoardCorner.obj
 0003:000053d4       ??_7DlgEditBoardCorner@@6B@ 006f53d4     DlgEditBoardCorner.obj
 0003:000055b4       ??_C@_0M@BFDGBILL@CDlgEditNet?$AA@ 006f55b4     DlgEditNet.obj
 0003:000055c4       ?classCDlgEditNet@CDlgEditNet@@2UCRuntimeClass@@B 006f55c4     DlgEditNet.obj
 0003:000056fc       ??_7CDlgEditNet@@6B@       006f56fc     DlgEditNet.obj
 0003:000058dc       ??_C@_1DE@HGPCGOII@?$AAc?$AA?3?$AA?2?$AAf?$AAr?$AAe?$AAe?$AAs?$AAc?$AAh?$AA?2?$AAd?$AAl?$AAg?$AAe?$AAd?$AAi?$AAt?$AAn?$AAe?$AAt?$AA?4?$AAc?$AAp?$AAp?$AA?$AA@ 006f58dc     DlgEditNet.obj
 0003:0000591c       ??_C@_0BD@MAGNCHGF@duplicate?5net?5name?$AA@ 006f591c     DlgEditNet.obj
 0003:00005934       ??_C@_0BD@GFPNNHFP@illegal?5hole?5width?$AA@ 006f5934     DlgEditNet.obj
 0003:0000594c       ??_C@_0BC@PEMMALA@illegal?5via?5width?$AA@ 006f594c     DlgEditNet.obj
 0003:00005964       ??_C@_0BE@LPGHDKPH@illegal?5trace?5width?$AA@ 006f5964     DlgEditNet.obj
 0003:0000597c       ??_C@_01JOAMLHOP@?9?$AA@   006f597c     DlgEditNet.obj
 0003:00005980       ??_C@_0CI@JAOAHOKP@Max?5length?5of?5net?5name?5is?5?$CFd?5cha@ 006f5980     DlgEditNet.obj
 0003:000059b0       ??_C@_0DI@PHIFLKCB@Pin?5?$CFs?4?$CFs?5is?5assigned?5to?5net?5?$CC?$CFs@ 006f59b0     DlgEditNet.obj
 0003:000059f4       ??_C@_0CF@LCCFABB@Pin?5?$CC?$CFs?$CC?5not?5found?5in?5footprint?5@ 006f59f4     DlgEditNet.obj
 0003:00005a20       ??_C@_0CE@LBNPKAEK@Part?5?$CC?$CFs?$CC?5does?5not?5have?5a?5footpr@ 006f5a20     DlgEditNet.obj
 0003:00005a4c       ??_C@_0BI@CHMNKPPH@while?51A?0?5A2B3?5are?5not?6?$AA@ 006f5a4c     DlgEditNet.obj
 0003:00005a68       ??_C@_0BJ@NEEOPJMI@Part?5?$CC?$CFs?$CC?5does?5not?5exist?$AA@ 006f5a68     DlgEditNet.obj
 0003:00005a88       ??_C@_0BI@HPJAHHIK@Pin?5already?5in?5this?5net?$AA@ 006f5a88     DlgEditNet.obj
 0003:00005aa4       ??_C@_0M@DAFOIINH@Illegal?5pin?$AA@ 006f5aa4     DlgEditNet.obj
 0003:00005ab8       ??_7?$CArray@HH@@6B@       006f5ab8     DlgEditNet.obj
 0003:00005ad0       ??_C@_0O@CLFOLICH@CDlgExportDsn?$AA@ 006f5ad0     DlgExportDsn.obj
 0003:00005ae0       ?classCDlgExportDsn@CDlgExportDsn@@2UCRuntimeClass@@B 006f5ae0     DlgExportDsn.obj
 0003:00005bc4       ??_7CDlgExportDsn@@6B@     006f5bc4     DlgExportDsn.obj
 0003:00005da4       ??_C@_0N@CHDDDHOJ@CDlgFindPart?$AA@ 006f5da4     DlgFindPart.obj
 0003:00005db4       ?classCDlgFindPart@CDlgFindPart@@2UCRuntimeClass@@B 006f5db4     DlgFindPart.obj
 0003:00005e04       ??_7CDlgFindPart@@6B@      006f5e04     DlgFindPart.obj
 0003:00005fe4       ??_C@_0O@JJOCCJLB@CDlgFpRefText?$AA@ 006f5fe4     DlgFpRefText.obj
 0003:00005ff4       ?classCDlgFpRefText@CDlgFpRefText@@2UCRuntimeClass@@B 006f5ff4     DlgFpRefText.obj
 0003:000060bc       ??_7CDlgFpRefText@@6B@     006f60bc     DlgFpRefText.obj
 0003:0000629c       ??_C@_0L@NANJOLJH@CDlgFpText?$AA@ 006f629c     DlgFpText.obj
 0003:000062ac       ?classCDlgFpText@CDlgFpText@@2UCRuntimeClass@@B 006f62ac     DlgFpText.obj
 0003:000063c4       ??_7CDlgFpText@@6B@        006f63c4     DlgFpText.obj
 0003:000065a4       ??_C@_08NLEKPIEM@CDlgGlue?$AA@ 006f65a4     DlgGlue.obj
 0003:000065b0       ?classCDlgGlue@CDlgGlue@@2UCRuntimeClass@@B 006f65b0     DlgGlue.obj
 0003:000066b4       ??_7CDlgGlue@@6B@          006f66b4     DlgGlue.obj
 0003:00006894       ??_C@_0P@HPNFCNKB@CDlgGroupPaste?$AA@ 006f6894     DlgGroupPaste.obj
 0003:000068a8       ?classCDlgGroupPaste@CDlgGroupPaste@@2UCRuntimeClass@@B 006f68a8     DlgGroupPaste.obj
 0003:00006a74       ??_7CDlgGroupPaste@@6B@    006f6a74     DlgGroupPaste.obj
 0003:00006c54       ??_C@_1DK@NMAIHOMI@?$AAc?$AA?3?$AA?2?$AAf?$AAr?$AAe?$AAe?$AAs?$AAc?$AAh?$AA?2?$AAd?$AAl?$AAg?$AAg?$AAr?$AAo?$AAu?$AAp?$AAp?$AAa?$AAs?$AAt?$AAe?$AA?4?$AAc?$AAp?$AAp?$AA?$AA@ 006f6c54     DlgGroupPaste.obj
 0003:00006c9c       ??_C@_04GLFMFBJJ@Hole?$AA@ 006f6c9c     DlgGroupPaste.obj
 0003:00006ca4       ??_C@_05EOOFLNJP@Via?5W?$AA@ 006f6ca4     DlgGroupPaste.obj
 0003:00006cac       ??_C@_05IBAMDCFI@Width?$AA@ 006f6cac     DlgGroupPaste.obj
 0003:00006cb4       ??_C@_04BLLLDLP@Pins?$AA@  006f6cb4     DlgGroupPaste.obj
 0003:00006cbc       ??_C@_04FABLJDN@Name?$AA@  006f6cbc     DlgGroupPaste.obj
 0003:00006cc4       ??_C@_03IAFHKNMP@Sel?$AA@  006f6cc4     DlgGroupPaste.obj
 0003:00006ccc       ??_7?$CArray@Unet_info@@ABU1@@@6B@ 006f6ccc     DlgGroupPaste.obj
 0003:00006ce4       ??_C@_08FIFIFIIM@CDlgHole?$AA@ 006f6ce4     DlgHole.obj
 0003:00006cf0       ?classCDlgHole@CDlgHole@@2UCRuntimeClass@@B 006f6cf0     DlgHole.obj
 0003:00006dd4       ??_7CDlgHole@@6B@          006f6dd4     DlgHole.obj
 0003:00006fb4       ??_C@_0BE@KIJLJMAG@CDlgImportFootprint?$AA@ 006f6fb4     DlgImportFootprint.obj
 0003:00006fcc       ?classCDlgImportFootprint@CDlgImportFootprint@@2UCRuntimeClass@@B 006f6fcc     DlgImportFootprint.obj
 0003:00007094       ??_7CDlgImportFootprint@@6B@ 006f7094     DlgImportFootprint.obj
 0003:00007278       ??_C@_1EE@JGKNCDB@?$AAc?$AA?3?$AA?2?$AAf?$AAr?$AAe?$AAe?$AAs?$AAc?$AAh?$AA?2?$AAd?$AAl?$AAg?$AAi?$AAm?$AAp?$AAo?$AAr?$AAt?$AAf?$AAo?$AAo?$AAt?$AAp?$AAr?$AAi?$AAn?$AAt?$AA?4?$AAc?$AAp@ 006f7278     DlgImportFootprint.obj
 0003:000072cc       ??_C@_0BC@ICACCMBB@CDlgImportOptions?$AA@ 006f72cc     DlgImportOptions.obj
 0003:000072e4       ?classCDlgImportOptions@CDlgImportOptions@@2UCRuntimeClass@@B 006f72e4     DlgImportOptions.obj
 0003:0000736c       ??_7CDlgImportOptions@@6B@ 006f736c     DlgImportOptions.obj
 0003:0000754c       ??_C@_0O@PNDMIDGP@CDlgImportSes?$AA@ 006f754c     DlgImportSes.obj
 0003:0000755c       ?classCDlgImportSes@CDlgImportSes@@2UCRuntimeClass@@B 006f755c     DlgImportSes.obj
 0003:000075e4       ??_7CDlgImportSes@@6B@     006f75e4     DlgImportSes.obj
 0003:000077c4       ??_C@_04HEKILFAL@?4ses?$AA@ 006f77c4     DlgImportSes.obj
 0003:000077cc       ??_C@_0M@OODPBGFC@_routed?4fpc?$AA@ 006f77cc     DlgImportSes.obj
 0003:000077dc       ??_C@_03ONDPAMGP@ses?$AA@  006f77dc     DlgImportSes.obj
 0003:000077e0       ??_C@_0N@NNLFCKGG@CDlgIndexing?$AA@ 006f77e0     DlgIndexing.obj
 0003:000077f0       ?classCDlgIndexing@CDlgIndexing@@2UCRuntimeClass@@B 006f77f0     DlgIndexing.obj
 0003:00007844       ??_7CDlgIndexing@@6B@      006f7844     DlgIndexing.obj
 0003:00007b3c       ??_7CivexDlg@@6B@          006f7b3c     DlgIvex.obj
 0003:00007d1c       ??_C@_04MENIHNKD@?4fpl?$AA@ 006f7d1c     DlgIvex.obj
 0003:00007d24       ??_C@_04MMHKJEOH@?4mod?$AA@ 006f7d24     DlgIvex.obj
 0003:00007d2c       ??_C@_03FFONCNID@mod?$AA@  006f7d2c     DlgIvex.obj
 0003:00007d30       ??_C@_06DMAFEADM@done?$AN?6?$AA@ 006f7d30     DlgIvex.obj
 0003:00007d38       ??_C@_0BN@PNLAEPJI@Converting?5Ivex?5file?5?$CFs?4?4?4?$AN?6?$AA@ 006f7d38     DlgIvex.obj
 0003:00007d5c       ??_C@_0BH@CJLNCLJP@Unable?5to?5open?5file?5?$CFs?$AA@ 006f7d5c     DlgIvex.obj
 0003:00007d78       ??_C@_0L@MHKEJNED@CDlgLayers?$AA@ 006f7d78     DlgLayers.obj
 0003:00007d88       ?classCDlgLayers@CDlgLayers@@2UCRuntimeClass@@B 006f7d88     DlgLayers.obj
 0003:00008174       ??_7CDlgLayers@@6B@        006f8174     DlgLayers.obj
 0003:0000835c       ??_7CCommonDialog@@6B@     006f835c     DlgLayers.obj
 0003:0000853c       ??_C@_0BD@JAGFHHDI@CDlgLibraryManager?$AA@ 006f853c     DlgLibraryManager.obj
 0003:00008554       ?classCDlgLibraryManager@CDlgLibraryManager@@2UCRuntimeClass@@B 006f8554     DlgLibraryManager.obj
 0003:000085dc       ??_7CDlgLibraryManager@@6B@ 006f85dc     DlgLibraryManager.obj
 0003:000087bc       ??_C@_0M@HCLFNFDD@mm?5and?5mils?$AA@ 006f87bc     DlgLibraryManager.obj
 0003:000087cc       ??_C@_04FLIOBLOG@mils?$AA@ 006f87cc     DlgLibraryManager.obj
 0003:000087d4       ??_C@_0BF@FIPHIFLB@native?5for?5footprint?$AA@ 006f87d4     DlgLibraryManager.obj
 0003:000087f0       ??_C@_0BD@DDKFNMCJ@A4?5?5?$CI210?5x?5297?5mm?$CJ?$AA@ 006f87f0     DlgLibraryManager.obj
 0003:00008808       ??_C@_0BI@FHIOGLOG@letter?5?5?$CI8?45?5x?511?40?5in?$CJ?$AA@ 006f8808     DlgLibraryManager.obj
 0003:00008824       ??_C@_0BK@BJGLNCCL@?$CK?$CK?$CK?5all?5library?5files?5?$CK?$CK?$CK?$AA@ 006f8824     DlgLibraryManager.obj
 0003:00008844       ??_C@_0CG@JOIECCFI@?$CK?$CK?$CK?5Error?3?5unable?5to?5write?5file?5@ 006f8844     DlgLibraryManager.obj
 0003:00008878       ??_C@_0EP@JPIDLDEJ@Error?3?5Unable?5to?5write?5file?6It?5m@ 006f8878     DlgLibraryManager.obj
 0003:000088d8       __real@43340000            006f88d8     DlgLibraryManager.obj
 0003:000088dc       __real@43e10000            006f88dc     DlgLibraryManager.obj
 0003:000088e0       __real@42b40000            006f88e0     DlgLibraryManager.obj
 0003:000088e4       __real@43870000            006f88e4     DlgLibraryManager.obj
 0003:000088e8       __real@4066800000000000    006f88e8     DlgLibraryManager.obj
 0003:000088f8       __real@400921fb54442eea    006f88f8     DlgLibraryManager.obj
 0003:00008904       __real@43b40000            006f8904     DlgLibraryManager.obj
 0003:00008908       __real@3e99999a            006f8908     DlgLibraryManager.obj
 0003:0000890c       ??_C@_0L@MFJBOPAE@Scale?51?364?$AA@ 006f890c     DlgLibraryManager.obj
 0003:0000891c       ??_C@_0L@JFAAIKGJ@Scale?51?332?$AA@ 006f891c     DlgLibraryManager.obj
 0003:0000892c       ??_C@_0L@PCOIJLAD@Scale?51?316?$AA@ 006f892c     DlgLibraryManager.obj
 0003:0000893c       ??_C@_09JEODGDID@Scale?51?38?$AA@ 006f893c     DlgLibraryManager.obj
 0003:00008948       ??_C@_09DIFGCMIP@Scale?51?34?$AA@ 006f8948     DlgLibraryManager.obj
 0003:00008954       ??_C@_09GOAMILAJ@Scale?51?32?$AA@ 006f8954     DlgLibraryManager.obj
 0003:00008960       ??_C@_09EFCBNIMK@Scale?51?31?$AA@ 006f8960     DlgLibraryManager.obj
 0003:0000896c       ??_C@_09FHJEHHCE@Scale?52?31?$AA@ 006f896c     DlgLibraryManager.obj
 0003:00008978       ??_C@_09HCPPCIPI@Scale?54?31?$AA@ 006f8978     DlgLibraryManager.obj
 0003:00008984       ??_C@_09DICJJHEA@Scale?58?31?$AA@ 006f8984     DlgLibraryManager.obj
 0003:00008990       __real@3f847ae147ae147b    006f8990     DlgLibraryManager.obj
 0003:0000899c       __real@3c800000            006f899c     DlgLibraryManager.obj
 0003:000089a0       __real@3f90000000000000    006f89a0     DlgLibraryManager.obj
 0003:000089ac       __real@3d000000            006f89ac     DlgLibraryManager.obj
 0003:000089b0       __real@3fa0000000000000    006f89b0     DlgLibraryManager.obj
 0003:000089bc       __real@3d800000            006f89bc     DlgLibraryManager.obj
 0003:000089c0       __real@3fb0000000000000    006f89c0     DlgLibraryManager.obj
 0003:000089cc       __real@3e000000            006f89cc     DlgLibraryManager.obj
 0003:000089d0       __real@3fc0000000000000    006f89d0     DlgLibraryManager.obj
 0003:000089dc       __real@3e800000            006f89dc     DlgLibraryManager.obj
 0003:000089e0       __real@3fd0000000000000    006f89e0     DlgLibraryManager.obj
 0003:000089ec       __real@3f000000            006f89ec     DlgLibraryManager.obj
 0003:000089f0       __real@3ff0000000000000    006f89f0     DlgLibraryManager.obj
 0003:000089fc       __real@40000000            006f89fc     DlgLibraryManager.obj
 0003:00008a00       __real@40800000            006f8a00     DlgLibraryManager.obj
 0003:00008a04       __real@41000000            006f8a04     DlgLibraryManager.obj
 0003:00008a08       __real@4020000000000000    006f8a08     DlgLibraryManager.obj
 0003:00008a14       __real@4bc1c960            006f8a14     DlgLibraryManager.obj
 0003:00008a18       ??_C@_03JMFMNIFM@?9?9?9?$AA@ 006f8a18     DlgLibraryManager.obj
 0003:00008a1c       ??_C@_07PKNLLCAL@Octagon?$AA@ 006f8a1c     DlgLibraryManager.obj
 0003:00008a28       ??_C@_04CNHHLNIG@Oval?$AA@ 006f8a28     DlgLibraryManager.obj
 0003:00008a30       ??_C@_07IKNLPMMI@RndRect?$AA@ 006f8a30     DlgLibraryManager.obj
 0003:00008a3c       ??_C@_04HGDEFKPD@Rect?$AA@ 006f8a3c     DlgLibraryManager.obj
 0003:00008a44       ??_C@_06ENIHNBMK@Square?$AA@ 006f8a44     DlgLibraryManager.obj
 0003:00008a4c       ??_C@_05LCAAPBL@Round?$AA@ 006f8a4c     DlgLibraryManager.obj
 0003:00008a54       ??_C@_02FDKLGFIM@TH?$AA@   006f8a54     DlgLibraryManager.obj
 0003:00008a58       ??_C@_03KBJGAGGM@SMT?$AA@  006f8a58     DlgLibraryManager.obj
 0003:00008a5c       ??_C@_05BIKBEGBP@?$CFd?9?$CFd?$AA@ 006f8a5c     DlgLibraryManager.obj
 0003:00008a64       ??_C@_04GGKHJMOF@HOLE?$AA@ 006f8a64     DlgLibraryManager.obj
 0003:00008a6c       ??_C@_04EMFHLKGI@SIZE?$AA@ 006f8a6c     DlgLibraryManager.obj
 0003:00008a74       ??_C@_05GOLOJNCF@SHAPE?$AA@ 006f8a74     DlgLibraryManager.obj
 0003:00008a7c       ??_C@_04KDPJLEDB@TYPE?$AA@ 006f8a7c     DlgLibraryManager.obj
 0003:00008a84       ??_C@_03PAPLECLH@PAD?$AA@  006f8a84     DlgLibraryManager.obj
 0003:00008a88       ??_C@_06PJKFLKIJ@PIN?$CIs?$CJ?$AA@ 006f8a88     DlgLibraryManager.obj
 0003:00008a90       __real@3f800000            006f8a90     DlgLibraryManager.obj
 0003:00008a94       ??_C@_0BG@CJMGCMCL@?5?5?5?5?5?5?5?5Pin?5spacing?3?5?$AA@ 006f8a94     DlgLibraryManager.obj
 0003:00008ab0       ??_C@_01LBDDMOBJ@?$FN?$AA@ 006f8ab0     DlgLibraryManager.obj
 0003:00008ab4       ??_C@_03LBOPJCJH@?5x?5?$AA@ 006f8ab4     DlgLibraryManager.obj
 0003:00008ab8       ??_C@_02GBLMOEJC@?5?$FL?$AA@ 006f8ab8     DlgLibraryManager.obj
 0003:00008abc       ??_C@_06FMLHDGIC@Size?3?5?$AA@ 006f8abc     DlgLibraryManager.obj
 0003:00008ac4       ??_C@_0BD@EFGBEFHB@Size?5?$CI?5mm?$FLmil?$FN?5?$CJ?3?5?$AA@ 006f8ac4     DlgLibraryManager.obj
 0003:00008adc       ??_C@_0L@CDFCKLOG@Times?9Bold?$AA@ 006f8adc     DlgLibraryManager.obj
 0003:00008aec       __real@00000000            006f8aec     DlgLibraryManager.obj
 0003:00008af0       ??_C@_07MAEKLEBO@page?5?$CFd?$AA@ 006f8af0     DlgLibraryManager.obj
 0003:00008afc       ??_C@_0O@BKHMEJIK@Description?3?5?$AA@ 006f8afc     DlgLibraryManager.obj
 0003:00008b0c       ??_C@_09GBJGAPBG@Package?3?5?$AA@ 006f8b0c     DlgLibraryManager.obj
 0003:00008b18       ??_C@_0M@PJFPENK@Times?9Roman?$AA@ 006f8b18     DlgLibraryManager.obj
 0003:00008b28       ??_C@_08KOADNGIB@Author?3?5?$AA@ 006f8b28     DlgLibraryManager.obj
 0003:00008b34       ??_C@_0N@BGMEIPGP@Times?9Italic?$AA@ 006f8b34     DlgLibraryManager.obj
 0003:00008b44       ??_C@_0BB@OKBMIGNG@MacRomanEncoding?$AA@ 006f8b44     DlgLibraryManager.obj
 0003:00008b58       ??_C@_0M@GCLAENCJ@0?50?5595?5842?$AA@ 006f8b58     DlgLibraryManager.obj
 0003:00008b68       ??_C@_0M@JCGOLHBA@0?50?5612?5792?$AA@ 006f8b68     DlgLibraryManager.obj
 0003:00008b78       ??_C@_0BG@HALLNCFO@Creating?5file?3?5?$CC?$CFs?$CC?$AN?6?$AA@ 006f8b78     DlgLibraryManager.obj
 0003:00008b94       ??_C@_04FAGKJGMG@?4pdf?$AA@ 006f8b94     DlgLibraryManager.obj
 0003:00008ba0       __real@3fc999999999999a    006f8ba0     DlgLibraryManager.obj
 0003:00008bb0       __real@3ff6666666666666    006f8bb0     DlgLibraryManager.obj
 0003:00008bc0       __real@3fe6666666666666    006f8bc0     DlgLibraryManager.obj
 0003:00008bd0       __real@3fa999999999999a    006f8bd0     DlgLibraryManager.obj
 0003:00008be0       __real@402c000000000000    006f8be0     DlgLibraryManager.obj
 0003:00008bf0       __real@402a000000000000    006f8bf0     DlgLibraryManager.obj
 0003:00008c00       __real@4052000000000000    006f8c00     DlgLibraryManager.obj
 0003:00008c10       __real@3fb999999999999a    006f8c10     DlgLibraryManager.obj
 0003:00008c20       __real@4028000000000000    006f8c20     DlgLibraryManager.obj
 0003:00008c30       __real@3fe8000000000000    006f8c30     DlgLibraryManager.obj
 0003:00008c40       __real@3fd1ac5111534a5d    006f8c40     DlgLibraryManager.obj
 0003:00008c50       ??_C@_1EC@MPHIDEJP@?$AAc?$AA?3?$AA?2?$AAf?$AAr?$AAe?$AAe?$AAs?$AAc?$AAh?$AA?2?$AAd?$AAl?$AAg?$AAl?$AAi?$AAb?$AAr?$AAa?$AAr?$AAy?$AAm?$AAa?$AAn?$AAa?$AAg?$AAe?$AAr?$AA?4?$AAc?$AAp?$AAp@ 006f8c50     DlgLibraryManager.obj
 0003:00008ca0       __real@402762c58b162c59    006f8ca0     DlgLibraryManager.obj
 0003:00008cb0       __real@4020891224489123    006f8cb0     DlgLibraryManager.obj
 0003:00008cc0       __real@4027000000000000    006f8cc0     DlgLibraryManager.obj
 0003:00008cd0       __real@4021000000000000    006f8cd0     DlgLibraryManager.obj
 0003:00008ce0       ??_7?$CArray@HABH@@6B@     006f8ce0     DlgLibraryManager.obj
 0003:00008cf8       ??_C@_07GBFKEGHG@CDlgLog?$AA@ 006f8cf8     DlgLog.obj
 0003:00008d04       ?classCDlgLog@CDlgLog@@2UCRuntimeClass@@B 006f8d04     DlgLog.obj
 0003:00008dac       ??_7CDlgLog@@6B@           006f8dac     DlgLog.obj
 0003:00008f8c       ??_C@_0P@DPLMKJBL@CDlgMoveOrigin?$AA@ 006f8f8c     DlgMoveOrigin.obj
 0003:00008fa0       ?classCDlgMoveOrigin@CDlgMoveOrigin@@2UCRuntimeClass@@B 006f8fa0     DlgMoveOrigin.obj
 0003:0000904c       ??_7CDlgMoveOrigin@@6B@    006f904c     DlgMoveOrigin.obj
 0003:0000922c       ??_C@_0BB@FCGLJEHF@CDlgMyMessageBox?$AA@ 006f922c     DlgMyMessageBox.obj
 0003:00009240       ?classCDlgMyMessageBox@CDlgMyMessageBox@@2UCRuntimeClass@@B 006f9240     DlgMyMessageBox.obj
 0003:000092ac       ??_7CDlgMyMessageBox@@6B@  006f92ac     DlgMyMessageBox.obj
 0003:0000948c       ??_C@_0BC@MNENLKFG@CDlgMyMessageBox2?$AA@ 006f948c     DlgMyMessageBox2.obj
 0003:000094a4       ?classCDlgMyMessageBox2@CDlgMyMessageBox2@@2UCRuntimeClass@@B 006f94a4     DlgMyMessageBox2.obj
 0003:00009514       ??_7CDlgMyMessageBox2@@6B@ 006f9514     DlgMyMessageBox2.obj
 0003:000096f4       ??_C@_0P@OMBKBMDK@CDlgNetCombine?$AA@ 006f96f4     DlgNetCombine.obj
 0003:00009708       ?classCDlgNetCombine@CDlgNetCombine@@2UCRuntimeClass@@B 006f9708     DlgNetCombine.obj
 0003:000097b4       ??_7CDlgNetCombine@@6B@    006f97b4     DlgNetCombine.obj
 0003:00009994       ??_C@_0BB@HOBPANMH@No?5nets?5selected?$AA@ 006f9994     DlgNetCombine.obj
 0003:000099a8       ??_C@_0M@CELNIKBK@CDlgNetlist?$AA@ 006f99a8     DlgNetlist.obj
 0003:000099b8       ?classCDlgNetlist@CDlgNetlist@@2UCRuntimeClass@@B 006f99b8     DlgNetlist.obj
 0003:00009b84       ??_7CDlgNetlist@@6B@       006f9b84     DlgNetlist.obj
 0003:00009d64       ??_C@_07DLHCIBDH@default?$AA@ 006f9d64     DlgNetlist.obj
 0003:00009d70       ??_C@_03HDMJKKAH@Vis?$AA@  006f9d70     DlgNetlist.obj
 0003:00009d74       ??_C@_1DE@OHCFEPON@?$AAc?$AA?3?$AA?2?$AAf?$AAr?$AAe?$AAe?$AAs?$AAc?$AAh?$AA?2?$AAd?$AAl?$AAg?$AAn?$AAe?$AAt?$AAl?$AAi?$AAs?$AAt?$AA?4?$AAc?$AAp?$AAp?$AA?$AA@ 006f9d74     DlgNetlist.obj
 0003:00009db4       ??_C@_0CE@KGBEJEHM@You?5have?5more?5than?5one?5net?5selec@ 006f9db4     DlgNetlist.obj
 0003:00009de0       ??_C@_0BJ@CBFLIOAA@You?5have?5no?5net?5selected?$AA@ 006f9de0     DlgNetlist.obj
 0003:00009e00       ??_C@_0BM@PBKCOJF@You?5have?5no?5net?$CIs?$CJ?5selected?$AA@ 006f9e00     DlgNetlist.obj
 0003:00009e24       ??_C@_0N@CIADPENJ@CDlgPartlist?$AA@ 006f9e24     DlgPartlist.obj
 0003:00009e34       ?classCDlgPartlist@CDlgPartlist@@2UCRuntimeClass@@B 006f9e34     DlgPartlist.obj
 0003:00009f4c       ??_7CDlgPartlist@@6B@      006f9f4c     DlgPartlist.obj
 0003:0000a12c       ??_C@_05LPIJGKJ@Value?$AA@ 006fa12c     DlgPartlist.obj
 0003:0000a134       ??_C@_09NKODLEAL@Footprint?$AA@ 006fa134     DlgPartlist.obj
 0003:0000a140       ??_C@_07FEDAHNII@Package?$AA@ 006fa140     DlgPartlist.obj
 0003:0000a14c       ??_C@_09OGLAPBDF@Reference?$AA@ 006fa14c     DlgPartlist.obj
 0003:0000a158       ??_C@_09OOPJIFBA@Value?5Vis?$AA@ 006fa158     DlgPartlist.obj
 0003:0000a164       ??_C@_0DJ@ODPBGIBP@To?5edit?5multiple?5parts?0?5please?5s@ 006fa164     DlgPartlist.obj
 0003:0000a1a8       ??_C@_0FE@BNCHDPKD@You?5want?5to?5select?5the?5same?5foot@ 006fa1a8     DlgPartlist.obj
 0003:0000a20c       ??_C@_1DG@BMFMMDAE@?$AAc?$AA?3?$AA?2?$AAf?$AAr?$AAe?$AAe?$AAs?$AAc?$AAh?$AA?2?$AAd?$AAl?$AAg?$AAp?$AAa?$AAr?$AAt?$AAl?$AAi?$AAs?$AAt?$AA?4?$AAc?$AAp?$AAp?$AA?$AA@ 006fa20c     DlgPartlist.obj
 0003:0000a24c       ??_C@_0BK@KBKKFHBL@You?5have?5no?5part?5selected?$AA@ 006fa24c     DlgPartlist.obj
 0003:0000a270       ??_7?$CArray@Upart_info@@ABU1@@@6B@ 006fa270     DlgPartlist.obj
 0003:0000a288       ??_C@_0BD@LNPBMPBJ@CDlgProjectOptions?$AA@ 006fa288     DlgProjectOptions.obj
 0003:0000a2a0       ?classCDlgProjectOptions@CDlgProjectOptions@@2UCRuntimeClass@@B 006fa2a0     DlgProjectOptions.obj
 0003:0000a434       ??_7CDlgProjectOptions@@6B@ 006fa434     DlgProjectOptions.obj
 0003:0000a614       ??_C@_03LOMMJFNL@0mm?$AA@  006fa614     DlgProjectOptions.obj
 0003:0000a618       ??_C@_03BHEEIFFN@def?$AA@  006fa618     DlgProjectOptions.obj
 0003:0000a61c       ??_C@_0BM@HFEHFNEO@Please?5enter?5library?5folder?$AA@ 006fa61c     DlgProjectOptions.obj
 0003:0000a640       ??_C@_0BM@JJJIOJBL@Please?5enter?5project?5folder?$AA@ 006fa640     DlgProjectOptions.obj
 0003:0000a664       ??_C@_0BO@EDGNJEK@Please?5enter?5name?5for?5project?$AA@ 006fa664     DlgProjectOptions.obj
 0003:0000a688       ??_C@_0L@DHDDJIDP@fp_lib?2lib?$AA@ 006fa688     DlgProjectOptions.obj
 0003:0000a698       ??_C@_1EC@MHJOLKEN@?$AAc?$AA?3?$AA?2?$AAf?$AAr?$AAe?$AAe?$AAs?$AAc?$AAh?$AA?2?$AAd?$AAl?$AAg?$AAp?$AAr?$AAo?$AAj?$AAe?$AAc?$AAt?$AAo?$AAp?$AAt?$AAi?$AAo?$AAn?$AAs?$AA?4?$AAc?$AAp?$AAp@ 006fa698     DlgProjectOptions.obj
 0003:0000a6e8       ??_C@_0P@ICBHMAND@Via?5hole?5width?$AA@ 006fa6e8     DlgProjectOptions.obj
 0003:0000a6fc       ??_C@_0O@KDFAJHIF@Via?5pad?5width?$AA@ 006fa6fc     DlgProjectOptions.obj
 0003:0000a70c       ??_C@_0M@NJPJJPIP@Trace?5width?$AA@ 006fa70c     DlgProjectOptions.obj
 0003:0000a720       ??_C@_0GH@ECHMCLAN@Illegal?5values?5?$CIAfter?5the?5number@ 006fa720     DlgProjectOptions.obj
 0003:0000a7a0       __real@3f50624dd2f1a9fc    006fa7a0     DlgProjectOptions.obj
 0003:0000a7b0       __real@40a3d80000000000    006fa7b0     DlgProjectOptions.obj
 0003:0000a7bc       ??_C@_0BF@LPKJCMHB@Illegal?5trace?5width?4?$AA@ 006fa7bc     DlgProjectOptions.obj
 0003:0000a7d8       ??_C@_0BG@KHLKLJCP@no?5menu?5item?5selected?$AA@ 006fa7d8     DlgProjectOptions.obj
 0003:0000a7f4       ??_C@_0P@IAANDAHI@Library?5Folder?$AA@ 006fa7f4     DlgProjectOptions.obj
 0003:0000a808       ??_C@_0BO@GKKHCOCJ@Select?5default?5library?5folder?$AA@ 006fa808     DlgProjectOptions.obj
 0003:0000a82c       ??_C@_0P@GMNCIECN@Project?5Folder?$AA@ 006fa82c     DlgProjectOptions.obj
 0003:0000a840       ??_C@_0BG@EEGBEHGB@Select?5project?5folder?$AA@ 006fa840     DlgProjectOptions.obj
 0003:0000a85c       ??_C@_0BD@KKBGMADI@CDlgReassignLayers?$AA@ 006fa85c     DlgReassignLayers.obj
 0003:0000a874       ?classCDlgReassignLayers@CDlgReassignLayers@@2UCRuntimeClass@@B 006fa874     DlgReassignLayers.obj
 0003:0000a8c4       ??_7CDlgReassignLayers@@6B@ 006fa8c4     DlgReassignLayers.obj
 0003:0000aaa4       ??_C@_06FOBLBEIN@delete?$AA@ 006faaa4     DlgReassignLayers.obj
 0003:0000aaac       ??_C@_0M@JGGFKOPA@CDlgRefText?$AA@ 006faaac     DlgRefText.obj
 0003:0000aabc       ?classCDlgRefText@CDlgRefText@@2UCRuntimeClass@@B 006faabc     DlgRefText.obj
 0003:0000ab84       ??_7CDlgRefText@@6B@       006fab84     DlgRefText.obj
 0003:0000ad64       ??_C@_0L@EGDICMBE@CDlgReport?$AA@ 006fad64     DlgReport.obj
 0003:0000ad74       ?classCDlgReport@CDlgReport@@2UCRuntimeClass@@B 006fad74     DlgReport.obj
 0003:0000adfc       ??_7CDlgReport@@6B@        006fadfc     DlgReport.obj
 0003:0000afdc       ??_C@_01JLIPDDHJ@?3?$AA@   006fafdc     DlgReport.obj
 0003:0000afe0       ??_C@_0BF@HCDPKGIN@?$DN?$DN?$DN?$DN?$DN?$DN?$DN?$DN?$DN?$DN?$DN?$DN?$DN?$DN?$DN?$DN?$DN?$DN?$DN?6?$AA@ 006fafe0     DlgReport.obj
 0003:0000affc       ??_C@_0BG@JOHJHIMM@?6Connectivity?5errors?6?$AA@ 006faffc     DlgReport.obj
 0003:0000b018       ??_C@_0BH@BJGDPMLN@routed?5connection?5from?$AA@ 006fb018     DlgReport.obj
 0003:0000b034       ??_C@_0N@PNAFHMCO@?6DRC?5errors?6?$AA@ 006fb034     DlgReport.obj
 0003:0000b044       ??_C@_0CP@GGNNHMMM@Minimum?5copper?5area?5to?5copper?5ar@ 006fb044     DlgReport.obj
 0003:0000b07c       ??_C@_0CH@CKPJHELF@Minimum?5board?5edge?5to?5hole?5clear@ 006fb07c     DlgReport.obj
 0003:0000b0ac       ??_C@_0CJ@ENMKIKLM@Minimum?5board?5edge?5to?5copper?5cle@ 006fb0ac     DlgReport.obj
 0003:0000b0e0       ??_C@_0BO@MODNAPBL@Minimum?5annular?5ring?5?$CIvias?$CJ?3?5?$AA@ 006fb0e0     DlgReport.obj
 0003:0000b104       ??_C@_0BO@PJAELEEJ@Minimum?5annular?5ring?5?$CIpins?$CJ?3?5?$AA@ 006fb104     DlgReport.obj
 0003:0000b128       ??_C@_0CB@EJKFGGK@Minimum?5hole?5to?5hole?5clearance?3?5@ 006fb128     DlgReport.obj
 0003:0000b150       ??_C@_0CD@JOAKDMOL@Minimum?5hole?5to?5copper?5clearance@ 006fb150     DlgReport.obj
 0003:0000b17c       ??_C@_0CD@OOABKODA@Minimum?5trace?5to?5trace?5clearance@ 006fb17c     DlgReport.obj
 0003:0000b1a8       ??_C@_0CB@CMOGICAN@Minimum?5pad?5to?5trace?5clearance?3?5@ 006fb1a8     DlgReport.obj
 0003:0000b1d0       ??_C@_0CO@KEIFMLOM@Minimum?5pad?5to?5pad?5clearance?$CIbet@ 006fb1d0     DlgReport.obj
 0003:0000b208       ??_C@_0BG@IKCHFPOK@Minimum?5trace?5width?3?5?$AA@ 006fb208     DlgReport.obj
 0003:0000b224       ??_C@_0O@LLACHEDF@?$DN?$DN?$DN?$DN?$DN?$DN?$DN?$DN?$DN?$DN?$DN?$DN?6?$AA@ 006fb224     DlgReport.obj
 0003:0000b234       ??_C@_0P@IHGGGGKM@?6DRC?5settings?6?$AA@ 006fb234     DlgReport.obj
 0003:0000b248       ??_C@_0CL@IAMOBFKL@Amount?5to?5shrink?5SMT?5pads?5for?5pa@ 006fb248     DlgReport.obj
 0003:0000b27c       ??_C@_0CE@CJJKLIGN@Minimum?5annular?5ring?5width?5?$CIvias@ 006fb27c     DlgReport.obj
 0003:0000b2a8       ??_C@_0CE@BOKDADDP@Minimum?5annular?5ring?5width?5?$CIpins@ 006fb2a8     DlgReport.obj
 0003:0000b2d4       ??_C@_0BM@HMFNMKCB@Thermal?5relief?5line?5width?3?5?$AA@ 006fb2d4     DlgReport.obj
 0003:0000b2f8       ??_C@_0CA@BBBCIFCC@Minimum?5silkscreen?5line?5width?3?5?$AA@ 006fb2f8     DlgReport.obj
 0003:0000b320       ??_C@_0BG@IMKFFPDJ@Pilot?5hole?5diameter?3?5?$AA@ 006fb320     DlgReport.obj
 0003:0000b33c       ??_C@_0BI@NIKNDGNI@Solder?5mask?5clearance?3?5?$AA@ 006fb33c     DlgReport.obj
 0003:0000b358       ??_C@_0CF@PMANDKIL@Hole?9edge?5to?5copper?9fill?5clearan@ 006fb358     DlgReport.obj
 0003:0000b384       ??_C@_0CC@EBPBKDNF@Copper?5to?5copper?9fill?5clearance?3@ 006fb384     DlgReport.obj
 0003:0000b3ac       ??_C@_0CI@HGHNMAOL@Use?590?9degree?5thermals?5for?5round@ 006fb3ac     DlgReport.obj
 0003:0000b3dc       ??_C@_0CE@CFMMKMBH@Make?5solder?9mask?5cutouts?5for?5via@ 006fb3dc     DlgReport.obj
 0003:0000b408       ??_C@_0BI@FPJNOCDJ@Use?5thermals?5for?5vias?3?5?$AA@ 006fb408     DlgReport.obj
 0003:0000b424       ??_C@_0CF@HGGOPENP@Use?5thermals?5for?5through?9hole?5pi@ 006fb424     DlgReport.obj
 0003:0000b450       ??_C@_0BM@DNNAAJHJ@Use?5thermals?5for?5SMT?5pins?3?5?$AA@ 006fb450     DlgReport.obj
 0003:0000b474       ??_C@_0CD@JECMGKBH@Connect?5SMT?5pins?5to?5copper?5areas@ 006fb474     DlgReport.obj
 0003:0000b4a0       ??_C@_0BG@LJHOLCB@Include?5pilot?5holes?3?5?$AA@ 006fb4a0     DlgReport.obj
 0003:0000b4bc       ??_C@_0CB@NGDDKDMB@Include?5layer?5description?5text?3?5@ 006fb4bc     DlgReport.obj
 0003:0000b4e4       ??_C@_0BB@GMBKMGCA@Include?5moires?3?5?$AA@ 006fb4e4     DlgReport.obj
 0003:0000b4f8       ??_C@_0BI@COGLKJEO@Include?5board?5outline?3?5?$AA@ 006fb4f8     DlgReport.obj
 0003:0000b514       ??_C@_03IPHJCBHH@YES?$AA@  006fb514     DlgReport.obj
 0003:0000b518       ??_C@_02NFLNFON@NO?$AA@    006fb518     DlgReport.obj
 0003:0000b51c       ??_C@_0BG@EILANLKE@?$DN?$DN?$DN?$DN?$DN?$DN?$DN?$DN?$DN?$DN?$DN?$DN?$DN?$DN?$DN?$DN?$DN?$DN?$DN?$DN?6?$AA@ 006fb51c     DlgReport.obj
 0003:0000b538       ??_C@_0BH@EHNDGFEP@?6Gerber?5file?5settings?6?$AA@ 006fb538     DlgReport.obj
 0003:0000b554       ??_C@_0BD@MLKBENFG@No?5selected?5parts?6?$AA@ 006fb554     DlgReport.obj
 0003:0000b56c       ??_C@_07JGEAAKKP@?9?9?9?9?9?9?9?$AA@ 006fb56c     DlgReport.obj
 0003:0000b578       ??_C@_09NJPFFACE@?9?9?9?9?9?9?9?9?9?$AA@ 006fb578     DlgReport.obj
 0003:0000b584       ??_C@_04ECGLBLOI@?9?9?9?9?$AA@ 006fb584     DlgReport.obj
 0003:0000b58c       ??_C@_05IOLJFLLO@?9?9?9?9?9?$AA@ 006fb58c     DlgReport.obj
 0003:0000b594       ??_C@_06MHNHNDP@?9?9?9?9?9?9?$AA@ 006fb594     DlgReport.obj
 0003:0000b59c       ??_C@_06CPDFHPF@GLUE?9W?$AA@ 006fb59c     DlgReport.obj
 0003:0000b5a4       ??_C@_06IFGLELDK@GLUE?9X?$AA@ 006fb5a4     DlgReport.obj
 0003:0000b5ac       ??_C@_06JMHAHKHL@GLUE?9Y?$AA@ 006fb5ac     DlgReport.obj
 0003:0000b5b4       ??_C@_03GPMNEAGC@REF?$AA@  006fb5b4     DlgReport.obj
 0003:0000b5b8       ??_C@_07FABLKDFK@PACKAGE?$AA@ 006fb5b8     DlgReport.obj
 0003:0000b5c4       ??_C@_05MHMCHENB@VALUE?$AA@ 006fb5c4     DlgReport.obj
 0003:0000b5cc       ??_C@_09KFEPIKCM@FOOTPRINT?$AA@ 006fb5cc     DlgReport.obj
 0003:0000b5d8       ??_C@_04MEAHOMD@PINS?$AA@  006fb5d8     DlgReport.obj
 0003:0000b5e0       ??_C@_05EBJALPPM@HOLES?$AA@ 006fb5e0     DlgReport.obj
 0003:0000b5e8       ??_C@_04FKOPDEBC@SIDE?$AA@ 006fb5e8     DlgReport.obj
 0003:0000b5f0       ??_C@_05JPLHMONN@ANGLE?$AA@ 006fb5f0     DlgReport.obj
 0003:0000b5f8       ??_C@_06KJLOKIII@CENT?9X?$AA@ 006fb5f8     DlgReport.obj
 0003:0000b600       ??_C@_06LAKFJJMJ@CENT?9Y?$AA@ 006fb600     DlgReport.obj
 0003:0000b608       ??_C@_06IELCOJJB@PIN1?9X?$AA@ 006fb608     DlgReport.obj
 0003:0000b610       ??_C@_06JNKJNINA@PIN1?9Y?$AA@ 006fb610     DlgReport.obj
 0003:0000b618       ??_C@_0BG@BHCGDPHK@?5?5?$CF?$CF?$CFds?5?5?$CF?$CF?$CFds?5?5?$CF?$CF?$CFds?$AA@ 006fb618     DlgReport.obj
 0003:0000b638       ??_C@_0FD@EDFDHGGM@?$CF?$CF?$CFds?5?5?$CF?$CF?$CFds?5?5?$CF?$CF?$CFds?5?5?$CF?$CF?$CFds?5?5?$CF?$CF?$CFd@ 006fb638     DlgReport.obj
 0003:0000b6a0       __real@4076800000000000    006fb6a0     DlgReport.obj
 0003:0000b6ac       ??_C@_06ODKKPBAP@?5?5?5top?$AA@ 006fb6ac     DlgReport.obj
 0003:0000b6b4       ??_C@_1DC@DFCJBLEA@?$AAc?$AA?3?$AA?2?$AAf?$AAr?$AAe?$AAe?$AAs?$AAc?$AAh?$AA?2?$AAd?$AAl?$AAg?$AAr?$AAe?$AAp?$AAo?$AAr?$AAt?$AA?4?$AAc?$AAp?$AAp?$AA?$AA@ 006fb6b4     DlgReport.obj
 0003:0000b6f0       ??_C@_0DG@ODBCCAP@All?5centroid?5coordinates?5are?5as?5@ 006fb6f0     DlgReport.obj
 0003:0000b730       ??_C@_0GP@EJABIAJE@For?5parts?5on?5the?5bottom?3?5the?5ang@ 006fb730     DlgReport.obj
 0003:0000b7b8       ??_C@_0EN@PODMAIIE@For?5parts?5on?5the?5bottom?3?5the?5ang@ 006fb7b8     DlgReport.obj
 0003:0000b818       ??_C@_0EG@FKDAJLMN@For?5parts?5on?5top?3?5the?5angle?5is?5i@ 006fb818     DlgReport.obj
 0003:0000b86c       ??_C@_02IHJINOOH@CW?$AA@   006fb86c     DlgReport.obj
 0003:0000b870       ??_C@_03NADMCPDK@CCW?$AA@  006fb870     DlgReport.obj
 0003:0000b874       ??_C@_0L@NHMBDCEK@?$DN?$DN?$DN?$DN?$DN?$DN?$DN?$DN?$DN?6?$AA@ 006fb874     DlgReport.obj
 0003:0000b884       ??_C@_0M@CKPNNDFH@?6Part?5list?6?$AA@ 006fb884     DlgReport.obj
 0003:0000b894       ??_C@_0P@NAICGEFI@?$CF5d?5?5?5?$CFs?5?$CI?$CFs?$CJ?6?$AA@ 006fb894     DlgReport.obj
 0003:0000b8a8       ??_C@_09LHGCAGOA@?$CF5d?5?5?5?$CFs?6?$AA@ 006fb8a8     DlgReport.obj
 0003:0000b8b4       ??_C@_0BC@GPIOKBNI@?9?9?9?9?9?9?5?5?9?9?9?9?9?9?9?9?6?$AA@ 006fb8b4     DlgReport.obj
 0003:0000b8cc       ??_C@_0BC@HMEFPPFL@NUMBER?5?5DIAMETER?6?$AA@ 006fb8cc     DlgReport.obj
 0003:0000b8e4       ??_C@_0M@ENBFHCCD@?$DN?$DN?$DN?$DN?$DN?$DN?$DN?$DN?$DN?$DN?6?$AA@ 006fb8e4     DlgReport.obj
 0003:0000b8f4       ??_C@_0N@LLCKJEON@?6Drill?5list?6?$AA@ 006fb8f4     DlgReport.obj
 0003:0000b904       ??_C@_0BF@ILNJEOOM@Number?5of?5holes?3?5?$CFd?6?$AA@ 006fb904     DlgReport.obj
 0003:0000b920       ??_C@_0BE@ONKKBONL@Number?5of?5vias?3?5?$CFd?6?$AA@ 006fb920     DlgReport.obj
 0003:0000b938       ??_C@_0CO@IBCKNJFD@Number?5of?5pins?3?5?$CFd?5?$CI?$CFd?5through?9h@ 006fb938     DlgReport.obj
 0003:0000b970       ??_C@_0BF@FFDGPDIH@Number?5of?5parts?3?5?$CFd?6?$AA@ 006fb970     DlgReport.obj
 0003:0000b98c       ??_C@_0CP@NGABAIMC@Number?5of?5parts?3?5?$CFd?5?$CIwithout?5foo@ 006fb98c     DlgReport.obj
 0003:0000b9c4       ??_C@_0BJ@KLKMPAIB@Default?5library?5folder?3?5?$AA@ 006fb9c4     DlgReport.obj
 0003:0000b9e4       ??_C@_0P@CCOHGPJC@Project?5file?3?5?$AA@ 006fb9e4     DlgReport.obj
 0003:0000b9f8       ??_C@_0P@MADLIKCI@Project?5name?3?5?$AA@ 006fb9f8     DlgReport.obj
 0003:0000ba0c       ??_C@_0CO@EHDLHOBC@?$DN?$DN?$DN?$DN?$DN?$DN?$DN?$DN?$DN?$DN?$DN?$DN?$DN?$DN?$DN?$DN?$DN?$DN?$DN?$DN?$DN?$DN?$DN?$DN?$DN?$DN?$DN?$DN?$DN?$DN?$DN?$DN@ 006fba0c     DlgReport.obj
 0003:0000ba44       ??_C@_0CJ@GOPAAOEA@FreePCB?5project?5report?5?$CIdefault?5@ 006fba44     DlgReport.obj
 0003:0000ba78       ??_C@_02MNMNLDAI@?$CJ?6?$AA@ 006fba78     DlgReport.obj
 0003:0000ba7c       ??_C@_0BH@LNGEDDIN@Unable?5to?5open?5file?5?$CC?5?$AA@ 006fba7c     DlgReport.obj
 0003:0000ba98       ??_C@_0L@JMMJLGLG@report?4txt?$AA@ 006fba98     DlgReport.obj
 0003:0000baac       ??_7?$CMap@HHHH@@6B@       006fbaac     DlgReport.obj
 0003:0000bac4       ??_C@_04OAFLPOMH@?$FN?5?$DN?5?$AA@ 006fbac4     DlgReport.obj
 0003:0000bacc       ??_C@_03OHJIHPJH@?6?7?$FL?$AA@ 006fbacc     DlgReport.obj
 0003:0000bad4       ??_7?$CArray@V?$CArray@V?$CStringT@DV?$StrTraitMFC_DLL@DV?$ChTraitsCRT@D@ATL@@@@@ATL@@ABV12@@@ABV1@@@6B@ 006fbad4     DlgReport.obj
 0003:0000baec       ??_C@_0BC@FJABLEM@CDlgSaveFootprint?$AA@ 006fbaec     DlgSaveFootprint.obj
 0003:0000bb04       ?classCDlgSaveFootprint@CDlgSaveFootprint@@2UCRuntimeClass@@B 006fbb04     DlgSaveFootprint.obj
 0003:0000bbac       ??_7CDlgSaveFootprint@@6B@ 006fbbac     DlgSaveFootprint.obj
 0003:0000bd8c       ??_C@_04LPBONMDM@?5mil?$AA@ 006fbd8c     DlgSaveFootprint.obj
 0003:0000bd94       ??_C@_03OONFMCEE@?5mm?$AA@ 006fbd94     DlgSaveFootprint.obj
 0003:0000bd98       ??_C@_0DL@GCADDPBF@The?5original?5file?5has?5been?5delet@ 006fbd98     DlgSaveFootprint.obj
 0003:0000bde0       ??_C@_0CP@IMMNGLBA@The?5modified?5file?5has?5been?5saved@ 006fbde0     DlgSaveFootprint.obj
 0003:0000be18       ??_C@_0ED@JHAPMGHK@File?5could?5be?5read?9only?5or?5you?5d@ 006fbe18     DlgSaveFootprint.obj
 0003:0000be68       ??_C@_0DC@NIGDJHND@File?5system?5error?3?5Unable?5to?5mod@ 006fbe68     DlgSaveFootprint.obj
 0003:0000bea4       ??_C@_05HKGIJGOH@name?3?$AA@ 006fbea4     DlgSaveFootprint.obj
 0003:0000beac       ??_C@_01OHGJGJJP@?$FL?$AA@ 006fbeac     DlgSaveFootprint.obj
 0003:0000beb0       ??_C@_08EGOMNEAH@temp?4txt?$AA@ 006fbeb0     DlgSaveFootprint.obj
 0003:0000bebc       ??_C@_0BF@MCKLGNCN@Unable?5to?5open?5file?5?$AA@ 006fbebc     DlgSaveFootprint.obj
 0003:0000bed8       ??_C@_0FL@GJEEGGFK@Footprint?5?$CC?$CFs?$CC?5already?5exists?5in@ 006fbed8     DlgSaveFootprint.obj
 0003:0000bf48       ??_C@_0DH@JFCLFIHO@Footprint?5?$CC?$CFs?$CC?5already?5exists?5in@ 006fbf48     DlgSaveFootprint.obj
 0003:0000bf8c       ??_C@_0CK@NPNKPNP@Name?5too?5long?0?5can?8t?5exceed?5?$CFd?5c@ 006fbf8c     DlgSaveFootprint.obj
 0003:0000bfc0       ??_C@_0BP@LDHHGMNL@Indexing?5library?5folder?5?$CC?$CFs?$CC?$AN?6?$AA@ 006fbfc0     DlgSaveFootprint.obj
 0003:0000bfe8       ??_C@_0CA@IPDOIGDF@c?3?2freesch?2dlgsavefootprint?4cpp?$AA@ 006fbfe8     DlgSaveFootprint.obj
 0003:0000c010       ??_C@_0BK@CLCDALKP@Unable?5to?5create?5folder?5?$CC?$AA@ 006fc010     DlgSaveFootprint.obj
 0003:0000c030       ??_C@_0M@PPJLFKEE@Create?5it?5?$DP?$AA@ 006fc030     DlgSaveFootprint.obj
 0003:0000c040       ??_C@_08GNNNNIPM@Folder?5?$CC?$AA@ 006fc040     DlgSaveFootprint.obj
 0003:0000c04c       ??_C@_0BB@IOJHNKK@?$CC?5doesn?8t?5exist?6?$AA@ 006fc04c     DlgSaveFootprint.obj
 0003:0000c060       ??_C@_0BB@BOEGIOKO@user_created?4fpl?$AA@ 006fc060     DlgSaveFootprint.obj
 0003:0000c078       ??_7?$CArray@VCFootLib@@ABV1@@@6B@ 006fc078     DlgSaveFootprint.obj
 0003:0000c094       ??_7?$CArray@VCFootLibEntry@@ABV1@@@6B@ 006fc094     DlgSaveFootprint.obj
 0003:0000c0ac       ??_C@_0M@ONFBIFPE@CDlgSaveLib?$AA@ 006fc0ac     DlgSaveLib.obj
 0003:0000c0bc       ?classCDlgSaveLib@CDlgSaveLib@@2UCRuntimeClass@@B 006fc0bc     DlgSaveLib.obj
 0003:0000c19c       ??_7CDlgSaveLib@@6B@       006fc19c     DlgSaveLib.obj
 0003:0000c37c       ??_C@_0BK@HENCCIOJ@c?3?2freesch?2dlgsavelib?4cpp?$AA@ 006fc37c     DlgSaveLib.obj
 0003:0000c39c       ??_C@_0BB@DIEEDJNF@CDlgSetAreaHatch?$AA@ 006fc39c     DlgSetAreaHatch.obj
 0003:0000c3b0       ?classCDlgSetAreaHatch@CDlgSetAreaHatch@@2UCRuntimeClass@@B 006fc3b0     DlgSetAreaHatch.obj
 0003:0000c404       ??_7CDlgSetAreaHatch@@6B@  006fc404     DlgSetAreaHatch.obj
 0003:0000c5e4       ??_C@_0BD@BHPNFEGH@DlgSetSegmentWidth?$AA@ 006fc5e4     DlgSetSegmentWidth.obj
 0003:0000c5fc       ?classDlgSetSegmentWidth@DlgSetSegmentWidth@@2UCRuntimeClass@@B 006fc5fc     DlgSetSegmentWidth.obj
 0003:0000c78c       ??_7DlgSetSegmentWidth@@6B@ 006fc78c     DlgSetSegmentWidth.obj
 0003:0000c96c       ??_C@_0BD@OMFNOBDG@CDlgSetTraceWidths?$AA@ 006fc96c     DlgSetTraceWidths.obj
 0003:0000c984       ?classCDlgSetTraceWidths@CDlgSetTraceWidths@@2UCRuntimeClass@@B 006fc984     DlgSetTraceWidths.obj
 0003:0000caf4       ??_7CDlgSetTraceWidths@@6B@ 006fcaf4     DlgSetTraceWidths.obj
 0003:0000ccd4       ??_C@_0O@LIJBJIKC@CDlgShortcuts?$AA@ 006fccd4     DlgShortcuts.obj
 0003:0000cce4       ?classCDlgShortcuts@CDlgShortcuts@@2UCRuntimeClass@@B 006fcce4     DlgShortcuts.obj
 0003:0000cd34       ??_7CDlgShortcuts@@6B@     006fcd34     DlgShortcuts.obj
 0003:0000cf14       ??_C@_0O@NMOLLEEM@CDlgSideStyle?$AA@ 006fcf14     DlgSideStyle.obj
 0003:0000cf24       ?classCDlgSideStyle@CDlgSideStyle@@2UCRuntimeClass@@B 006fcf24     DlgSideStyle.obj
 0003:0000cf74       ??_7CDlgSideStyle@@6B@     006fcf74     DlgSideStyle.obj
 0003:0000d154       ??_C@_08MECMMLI@CDlgSlot?$AA@ 006fd154     DlgSlot.obj
 0003:0000d160       ?classCDlgSlot@CDlgSlot@@2UCRuntimeClass@@B 006fd160     DlgSlot.obj
 0003:0000d244       ??_7CDlgSlot@@6B@          006fd244     DlgSlot.obj
 0003:0000d424       ??_C@_02NAHCJHOC@UP?$AA@   006fd424     DlgSlot.obj
 0003:0000d428       ??_C@_04KCNEHMIH@LEFT?$AA@ 006fd428     DlgSlot.obj
 0003:0000d430       ??_C@_04FANAOELO@DOWN?$AA@ 006fd430     DlgSlot.obj
 0003:0000d438       ??_C@_05PMAFOJDE@RIGHT?$AA@ 006fd438     DlgSlot.obj
 0003:0000d440       ??_C@_0O@HEPKFBEE@CDlgValueText?$AA@ 006fd440     DlgValueText.obj
 0003:0000d450       ?classCDlgValueText@CDlgValueText@@2UCRuntimeClass@@B 006fd450     DlgValueText.obj
 0003:0000d51c       ??_7CDlgValueText@@6B@     006fd51c     DlgValueText.obj
 0003:0000d6fc       ??_C@_07MCJCKLJ@CDlgVia?$AA@ 006fd6fc     DlgVia.obj
 0003:0000d708       ?classCDlgVia@CDlgVia@@2UCRuntimeClass@@B 006fd708     DlgVia.obj
 0003:0000d774       ??_7CDlgVia@@6B@           006fd774     DlgVia.obj
 0003:0000d954       ??_C@_0BH@BONHADCK@Illegal?5via?5hole?5width?$AA@ 006fd954     DlgVia.obj
 0003:0000d970       ??_C@_0BC@FCAKHIIA@Illegal?5via?5width?$AA@ 006fd970     DlgVia.obj
 0003:0000d988       ??_C@_0M@KMPNFKEB@CDlgWizQuad?$AA@ 006fd988     DlgWizQuad.obj
 0003:0000d998       ?classCDlgWizQuad@CDlgWizQuad@@2UCRuntimeClass@@B 006fd998     DlgWizQuad.obj
 0003:0000dcdc       ??_7CDlgWizQuad@@6B@       006fdcdc     DlgWizQuad.obj
 0003:0000debc       ??_C@_05CBDJEANE@EDGE2?$AA@ 006fdebc     DlgWizQuad.obj
 0003:0000dec4       ??_C@_04EFGDDALE@EDGE?$AA@ 006fdec4     DlgWizQuad.obj
 0003:0000decc       ??_C@_07GEGIIMAM@PGA?1BGA?$AA@ 006fdecc     DlgWizQuad.obj
 0003:0000ded8       ??_C@_07DBGDICPA@HEADER2?$AA@ 006fded8     DlgWizQuad.obj
 0003:0000dee4       ??_C@_06MFNLEOCO@HEADER?$AA@ 006fdee4     DlgWizQuad.obj
 0003:0000deec       ??_C@_04CFDAHMPP@QUAD?$AA@ 006fdeec     DlgWizQuad.obj
 0003:0000def4       ??_C@_03PDNAEJC@DIP?$AA@   006fdef4     DlgWizQuad.obj
 0003:0000def8       ??_C@_03MCPDGLLE@SIP?$AA@  006fdef8     DlgWizQuad.obj
 0003:0000defc       ??_C@_0BH@DPIFPKIB@top?5row?0?5left?9most?5pin?$AA@ 006fdefc     DlgWizQuad.obj
 0003:0000df18       ??_C@_0BK@HIIGDPCC@bottom?5row?0?5left?9most?5pin?$AA@ 006fdf18     DlgWizQuad.obj
 0003:0000df38       ??_C@_0BE@IFFLFCOD@top?5row?0?5center?5pin?$AA@ 006fdf38     DlgWizQuad.obj
 0003:0000df50       ??_C@_0N@CNPIEDOK@Rounded?5Rect?$AA@ 006fdf50     DlgWizQuad.obj
 0003:0000df60       ??_C@_0M@CEJBNPML@Rectangular?$AA@ 006fdf60     DlgWizQuad.obj
 0003:0000df70       ??_C@_0BL@KEOIOBLO@Pin?51?5square?0?5others?5round?$AA@ 006fdf70     DlgWizQuad.obj
 0003:0000df90       ??_C@_06FMBNCPDL@Cancel?$AA@ 006fdf90     DlgWizQuad.obj
 0003:0000df98       ??_C@_04KNCIGIPG@Done?$AA@ 006fdf98     DlgWizQuad.obj
 0003:0000dfa0       ??_C@_01FDFGLJHB@2?$AA@    006fdfa0     DlgWizQuad.obj
 0003:0000dfa4       ??_C@_1DE@CALFPMLG@?$AAc?$AA?3?$AA?2?$AAf?$AAr?$AAe?$AAe?$AAs?$AAc?$AAh?$AA?2?$AAd?$AAl?$AAg?$AAw?$AAi?$AAz?$AAq?$AAu?$AAa?$AAd?$AA?4?$AAc?$AAp?$AAp?$AA?$AA@ 006fdfa4     DlgWizQuad.obj
 0003:0000dfe4       ??_C@_05GCFKMIBK@?$CF6?43f?$AA@ 006fdfe4     DlgWizQuad.obj
 0003:0000dfec       ??_C@_0DK@JBIILKLM@CShape?3?3MakeFromString?$CI?$CJ?5failed?5@ 006fdfec     DlgWizQuad.obj
 0003:0000e034       ??_C@_02ILMNDBAG@HW?$AA@   006fe034     DlgWizQuad.obj
 0003:0000e038       ??_C@_02OEIPDHIL@PR?$AA@   006fe038     DlgWizQuad.obj
 0003:0000e03c       ??_C@_02OBAMLDBN@PE?$AA@   006fe03c     DlgWizQuad.obj
 0003:0000e040       ??_C@_03NCOFOL@_PI?$AA@    006fe040     DlgWizQuad.obj
 0003:0000e044       ??_C@_02JJPIMDMO@PW?$AA@   006fe044     DlgWizQuad.obj
 0003:0000e048       ??_C@_02FEKCMNFA@PH?$AA@   006fe048     DlgWizQuad.obj
 0003:0000e04c       ??_C@_05JBHFNLGG@NONE_?$AA@ 006fe04c     DlgWizQuad.obj
 0003:0000e054       ??_C@_05GAGLNGOJ@OVAL_?$AA@ 006fe054     DlgWizQuad.obj
 0003:0000e05c       ??_C@_08MHGDENPF@RNDRECT_?$AA@ 006fe05c     DlgWizQuad.obj
 0003:0000e068       ??_C@_08MCNCNLIH@OCTAGON_?$AA@ 006fe068     DlgWizQuad.obj
 0003:0000e074       ??_C@_06OJFPGLJE@ROUND_?$AA@ 006fe074     DlgWizQuad.obj
 0003:0000e07c       ??_C@_07NHHABHJE@SQUARE_?$AA@ 006fe07c     DlgWizQuad.obj
 0003:0000e088       ??_C@_07BJKLIBJD@RNDSQ1_?$AA@ 006fe088     DlgWizQuad.obj
 0003:0000e094       ??_C@_05EAFPBALN@RECT_?$AA@ 006fe094     DlgWizQuad.obj
 0003:0000e09c       ??_C@_05BAKCHJGI@UMIL_?$AA@ 006fe09c     DlgWizQuad.obj
 0003:0000e0a4       ??_C@_04OFDBJHLB@UMM_?$AA@ 006fe0a4     DlgWizQuad.obj
 0003:0000e0ac       ??_C@_0M@MIBAEOOM@SIP_?$CFd_H?$CFd_?$AA@ 006fe0ac     DlgWizQuad.obj
 0003:0000e0bc       ??_C@_0BB@MOIEBGLJ@DIP_?$CFd_H?$CFd_RT?$CFs_?$AA@ 006fe0bc     DlgWizQuad.obj
 0003:0000e0d0       ??_C@_0BG@CBJHIEMP@HDR_?$CFd_H?$CFd_LRBT_PV?$CFs_?$AA@ 006fe0d0     DlgWizQuad.obj
 0003:0000e0ec       ??_C@_0BG@HAFCANJL@HDR_?$CFd_H?$CFd_BTLR_PV?$CFs_?$AA@ 006fe0ec     DlgWizQuad.obj
 0003:0000e108       ??_C@_02KNMJPBLE@RB?$AA@   006fe108     DlgWizQuad.obj
 0003:0000e10c       ??_C@_02DDEKNMDK@RL?$AA@   006fe10c     DlgWizQuad.obj
 0003:0000e110       ??_C@_01IDAFKMJL@_?$AA@    006fe110     DlgWizQuad.obj
 0003:0000e114       ??_C@_05NODOGKFH@P1TL_?$AA@ 006fe114     DlgWizQuad.obj
 0003:0000e11c       ??_C@_05KLEMGCBE@P1BL_?$AA@ 006fe11c     DlgWizQuad.obj
 0003:0000e124       ??_C@_05NFGCCNGK@P1TC_?$AA@ 006fe124     DlgWizQuad.obj
 0003:0000e12c       ??_C@_0M@LHNDCELF@QFP_?$CFd_H?$CFd_?$AA@ 006fe12c     DlgWizQuad.obj
 0003:0000e140       ??_C@_0EJ@FKFKFONF@Illegal?5pad?5shape?5for?5edge?5conne@ 006fe140     DlgWizQuad.obj
 0003:0000e198       ??_C@_0CN@HCOCFNAB@Illegal?5distance?5between?5left?5an@ 006fe198     DlgWizQuad.obj
 0003:0000e1d0       ??_C@_0CN@BGBDIBCC@Illegal?5distance?5between?5top?5and@ 006fe1d0     DlgWizQuad.obj
 0003:0000e208       ??_C@_0BI@KDJLDLHO@Illegal?5pad?5spacing?5?$CIE?$CJ?$AA@ 006fe208     DlgWizQuad.obj
 0003:0000e224       ??_C@_0DA@EJPGJCBA@Pad?5shape?5?$CCNone?$CC?5requires?5a?5non?9@ 006fe224     DlgWizQuad.obj
 0003:0000e260       ??_C@_0BM@DDHAKHBJ@Pad?5corner?5radius?5too?5large?$AA@ 006fe260     DlgWizQuad.obj
 0003:0000e284       ??_C@_0BK@JLHAMEGN@Illegal?5pad?5corner?5radius?$AA@ 006fe284     DlgWizQuad.obj
 0003:0000e2a4       ??_C@_0BH@KBLPLNON@Illegal?5pad?5length?5?$CIY?$CJ?$AA@ 006fe2a4     DlgWizQuad.obj
 0003:0000e2c0       ??_C@_0BG@HAPNPAHM@Illegal?5pad?5width?5?$CIX?$CJ?$AA@ 006fe2c0     DlgWizQuad.obj
 0003:0000e2dc       ??_C@_0O@IEPNIJAB@Too?5many?5rows?$AA@ 006fe2dc     DlgWizQuad.obj
 0003:0000e2ec       ??_C@_0CI@IJHHPJG@Illegal?5number?5of?5pins?5per?5verti@ 006fe2ec     DlgWizQuad.obj
 0003:0000e31c       ??_C@_0CK@EGNHBOLO@Illegal?5number?5of?5pins?5per?5horiz@ 006fe31c     DlgWizQuad.obj
 0003:0000e350       ??_C@_0O@MIKBBNEC@Too?5many?5pins?$AA@ 006fe350     DlgWizQuad.obj
 0003:0000e360       ??_C@_0BH@DOHGHOKN@Illegal?5number?5of?5pins?$AA@ 006fe360     DlgWizQuad.obj
 0003:0000e37c       ??_C@_0N@BICPDJEI@Illegal?5name?$AA@ 006fe37c     DlgWizQuad.obj
 0003:0000e38c       ??_C@_0CF@FAMJCBNH@Warning?3?5error?5of?5ParseKeyString@ 006fe38c     file_io.obj
 0003:0000e3b8       ??_C@_04MOKNAJPP@?5?0?6?7?$AA@ 006fe3b8     file_io.obj
 0003:0000e3c0       ??_C@_05JELBNFFE@?5?3?0?6?7?$AA@ 006fe3c0     file_io.obj
 0003:0000e3c8       ??_C@_0CF@BGFFMOCN@Unable?5to?5convert?5string?5?$CC?$CFs?$CC?5to@ 006fe3c8     file_io.obj
 0003:0000e3f4       ??_C@_0BH@BOGBLBJP@c?3?2freesch?2file_io?4cpp?$AA@ 006fe3f4     file_io.obj
 0003:0000e410       __real@c1cdcd64ff800000    006fe410     file_io.obj
 0003:0000e420       __real@41cdcd64ff800000    006fe420     file_io.obj
 0003:0000e42c       ??_C@_0CI@CBGOIDOF@Unable?5to?5convert?5string?5?$CC?$CFs?$CC?5to@ 006fe42c     file_io.obj
 0003:0000e45c       ??_C@_08EEGPGHLF@package?3?$AA@ 006fe45c     FootprintLib.obj
 0003:0000e468       ??_C@_0CA@MHBLHLML@Unable?5to?5open?5library?5file?6?6?5?$CC?$AA@ 006fe468     FootprintLib.obj
 0003:0000e490       ??_C@_0BJ@JEDJBKAG@Indexing?5library?3?5?$CC?$CFs?$CC?$AN?6?$AA@ 006fe490     FootprintLib.obj
 0003:0000e4b0       ??_C@_05BFAPANEN@?$CK?4fpl?$AA@ 006fe4b0     FootprintLib.obj
 0003:0000e4b8       ??_C@_0CD@JEDPCNMJ@Unable?5to?5open?5library?5folder?5?$CC?$CF@ 006fe4b8     FootprintLib.obj
 0003:0000e4e4       ??_C@_1DI@KHKMHMED@?$AAc?$AA?3?$AA?2?$AAf?$AAr?$AAe?$AAe?$AAs?$AAc?$AAh?$AA?2?$AAf?$AAo?$AAo?$AAt?$AAp?$AAr?$AAi?$AAn?$AAt?$AAl?$AAi?$AAb?$AA?4?$AAc?$AAp?$AAp?$AA?$AA@ 006fe4e4     FootprintLib.obj
 0003:0000e528       ??_C@_0BM@DFHFGHBO@c?3?2freesch?2footprintlib?4cpp?$AA@ 006fe528     FootprintLib.obj
 0003:0000e54c       ??_C@_0P@EPCEFBE@CFootprintView?$AA@ 006fe54c     FootprintView.obj
 0003:0000e560       ?classCFootprintView@CFootprintView@@2UCRuntimeClass@@B 006fe560     FootprintView.obj
 0003:0000ebe0       ??_C@_05MPFIAJAP@Arial?$AA@ 006febe0     FootprintView.obj
 0003:0000ebec       ??_7CFootprintView@@6B@    006febec     FootprintView.obj
 0003:0000edfc       ??_C@_08GDFANMDE@untitled?$AA@ 006fedfc     FootprintView.obj
 0003:0000ee08       ??_C@_1DK@IIJBMPPD@?$AAc?$AA?3?$AA?2?$AAf?$AAr?$AAe?$AAe?$AAs?$AAc?$AAh?$AA?2?$AAf?$AAo?$AAo?$AAt?$AAp?$AAr?$AAi?$AAn?$AAt?$AAv?$AAi?$AAe?$AAw?$AA?4?$AAc?$AAp?$AAp?$AA?$AA@ 006fee08     FootprintView.obj
 0003:0000ee50       __real@c14360f000000000    006fee50     FootprintView.obj
 0003:0000ee60       __real@40ff018000000000    006fee60     FootprintView.obj
 0003:0000ee6c       ??_C@_0N@EEJPGPPK@layer?5on?5top?$AA@ 006fee6c     FootprintView.obj
 0003:0000ee7c       ??_C@_0BA@EOEEIBKE@keys?5to?5display?$AA@ 006fee7c     FootprintView.obj
 0003:0000ee90       ??_C@_0O@KCCHDCJH@?$CK?5Use?5numeric?$AA@ 006fee90     FootprintView.obj
 0003:0000eea0       ??_C@_05KPNOIGGH@?$FL?$CFd?$CK?$FN?$AA@ 006feea0     FootprintView.obj
 0003:0000eea8       ??_C@_1GK@EFBHHBH@?$AAm?$AA_?$AAp?$AAD?$AAo?$AAc?$AAu?$AAm?$AAe?$AAn?$AAt?$AA?9?$AA?$DO?$AAI?$AAs?$AAK?$AAi?$AAn?$AAd?$AAO?$AAf?$AA?$CI?$AA?$CI?$AAC?$AAF?$AAr?$AAe?$AAe?$AAP?$AAc?$AAb?$AAD@ 006feea8     FootprintView.obj
 0003:0000ef28       ??_C@_0II@HDPDMHGF@Flip?5group?5with?5layers?$DP?5When?5you@ 006fef28     FootprintView.obj
 0003:0000efd0       ??_C@_0IF@PBBNOGKC@Attention?$CB?5The?5names?5of?5the?5pins@ 006fefd0     FootprintView.obj
 0003:0000f070       __real@406fc00000000000    006ff070     FootprintView.obj
 0003:0000f07c       ??_C@_0P@DMIIILEE@Shift?5Position?$AA@ 006ff07c     FootprintView.obj
 0003:0000f090       ??_C@_02LCPENACN@F1?$AA@   006ff090     FootprintView.obj
 0003:0000f094       ??_C@_0CA@BKNAFOIG@Moving?5corner?5?$CFd?5of?5polyline?5?$CFd?$AA@ 006ff094     FootprintView.obj
 0003:0000f0bc       ??_C@_0CF@OICIFFML@Adhesive?5spot?5?$CFd?3?5w?5?$CFs?5at?5?$DMcentr@ 006ff0bc     FootprintView.obj
 0003:0000f0e8       ??_C@_0CD@IDPBMMDB@Adhesive?5spot?5?$CFd?3?5w?5?$CFs?0?5x?5?$CFs?0?5y?5@ 006ff0e8     FootprintView.obj
 0003:0000f114       ??_C@_0BC@CONFPEOD@?$DMproject?5default?$DO?$AA@ 006ff114     FootprintView.obj
 0003:0000f12c       ??_C@_0CE@LCLJLCIH@Centroid?5?$CI?$CFs?$CJ?0?5x?5?$CFs?0?5y?5?$CFs?0?5angle@ 006ff12c     FootprintView.obj
 0003:0000f158       ??_C@_07MJAJDDLG@defined?$AA@ 006ff158     FootprintView.obj
 0003:0000f164       ??_C@_0BB@HGEMMMLH@default?5position?$AA@ 006ff164     FootprintView.obj
 0003:0000f178       ??_C@_0DB@FBADGGP@Polyline?5?$CFd?0?5side?5?$CFd?0?5Length?$DN?$CFs?0@ 006ff178     FootprintView.obj
 0003:0000f1b4       ??_C@_0DP@FBHANOFJ@Polyline?5?$CFd?0?5side?5?$CFd?0?5Length?$DN?$CFs?0@ 006ff1b4     FootprintView.obj
 0003:0000f200       ??_C@_0BH@MNLDOCIK@Polyline?5?$CFd?0?5corner?5?$CFd?$AA@ 006ff200     FootprintView.obj
 0003:0000f21c       ??_C@_0N@GCBIHOIG@Moving?5group?$AA@ 006ff21c     FootprintView.obj
 0003:0000f22c       ??_C@_0O@GAAHHODN@Moving?5pin?5?$CFs?$AA@ 006ff22c     FootprintView.obj
 0003:0000f23c       ??_C@_0BB@NADCJCHH@Pin?5?$CFs?5Ang?5?$CFd?5?$CFs?$AA@ 006ff23c     FootprintView.obj
 0003:0000f250       ??_C@_0N@ECBDDNEI@No?5selection?$AA@ 006ff250     FootprintView.obj
 0003:0000f260       ??_C@_08IPOAECHC@Y?3?5?$CF8?43f?$AA@ 006ff260     FootprintView.obj
 0003:0000f26c       ??_C@_08JIJLFGDB@X?3?5?$CF8?43f?$AA@ 006ff26c     FootprintView.obj
 0003:0000f278       ??_C@_05BBAICCNC@Y?3?5?$CFd?$AA@ 006ff278     FootprintView.obj
 0003:0000f280       ??_C@_05NKFEPBHH@X?3?5?$CFd?$AA@ 006ff280     FootprintView.obj
 0003:0000f288       __real@4039000000000000    006ff288     FootprintView.obj
 0003:0000f298       __real@408f380000000000    006ff298     FootprintView.obj
 0003:0000f2a4       ??_C@_1BI@BMKEOGLI@?$AAp?$AAP?$AAo?$AAp?$AAu?$AAp?$AA?5?$AA?$CB?$AA?$DN?$AA?5?$AA0?$AA?$AA@ 006ff2a4     FootprintView.obj
 0003:0000f2c0       ??_C@_1CI@JHHLFELN@?$AAm?$AAe?$AAn?$AAu?$AA?4?$AAL?$AAo?$AAa?$AAd?$AAM?$AAe?$AAn?$AAu?$AAA?$AA?$CI?$AA2?$AA5?$AA0?$AA?$CJ?$AA?$AA@ 006ff2c0     FootprintView.obj
 0003:0000f2f0       ??_C@_0BA@NPNJHBNH@Corner?5Position?$AA@ 006ff2f0     FootprintView.obj
 0003:0000f304       ??_C@_0BN@IAEAOJLP@Polyline?5has?5too?5few?5corners?$AA@ 006ff304     FootprintView.obj
 0003:0000f328       ??_C@_0CA@PMLFKNG@Unable?5to?5save?3?5empty?5footprint?$AA@ 006ff328     FootprintView.obj
 0003:0000f350       ??_C@_0CA@JGEOFOOC@Save?5footprint?5before?5exiting?5?$DP?$AA@ 006ff350     FootprintView.obj
 0003:0000f378       ??_C@_0BB@PEGCOLLP@Save?5footprint?5?$DP?$AA@ 006ff378     FootprintView.obj
 0003:0000f38c       ??_C@_01NBENCBCI@?$CK?$AA@ 006ff38c     FootprintView.obj
 0003:0000f390       ??_C@_0CJ@CHOCAFII@Save?5footprint?5before?5launching?5@ 006ff390     FootprintView.obj
 0003:0000f3c4       ??_C@_0BE@LIBEJIND@Footprint?5Editor?5?9?5?$AA@ 006ff3c4     FootprintView.obj
 0003:0000f3dc       ??_C@_06DDHCBBGN@Bottom?$AA@ 006ff3dc     FootprintView.obj
 0003:0000f3e4       ??_C@_05MIIEFOFL@Inner?$AA@ 006ff3e4     FootprintView.obj
 0003:0000f3ec       ??_C@_03PGGAENPN@Top?$AA@  006ff3ec     FootprintView.obj
 0003:0000f3f4       ??_7?$CArray@PAVCShape@@ABQAV1@@@6B@ 006ff3f4     FootprintView.obj
 0003:0000f40c       ??_C@_0M@NGADHLNA@CFreePcbDoc?$AA@ 006ff40c     FreePcbDoc.obj
 0003:0000f41c       ?classCFreePcbDoc@CFreePcbDoc@@2UCRuntimeClass@@B 006ff41c     FreePcbDoc.obj
 0003:0000f9f0       __real@40004395810624dd    006ff9f0     FreePcbDoc.obj
 0003:0000f9fc       ??_C@_1DE@NEKNCJKH@?$AAc?$AA?3?$AA?2?$AAf?$AAr?$AAe?$AAe?$AAs?$AAc?$AAh?$AA?2?$AAf?$AAr?$AAe?$AAe?$AAp?$AAc?$AAb?$AAd?$AAo?$AAc?$AA?4?$AAc?$AAp?$AAp?$AA?$AA@ 006ff9fc     FreePcbDoc.obj
 0003:0000fa44       ??_7CFreePcbDoc@@6B@       006ffa44     FreePcbDoc.obj
 0003:0000fb94       ??_C@_07NFFOPFGM@?4?4?2lib?2?$AA@ 006ffb94     FreePcbDoc.obj
 0003:0000fba0       ??_C@_0N@BGOJBGKE@?4?4?2projects?2?$AA@ 006ffba0     FreePcbDoc.obj
 0003:0000fbb0       ??_C@_0BA@DEBNDJNH@no?5project?5open?$AA@ 006ffbb0     FreePcbDoc.obj
 0003:0000fbc4       ??_C@_0L@CAJHGEGB@FreeSCH?5?9?5?$AA@ 006ffbc4     FreePcbDoc.obj
 0003:0000fbd4       ??_C@_04EDEAGBGM@?4fpc?$AA@ 006ffbd4     FreePcbDoc.obj
 0003:0000fbdc       ??_C@_0CG@KCMHIKDD@FreePcb?5file?5dialog?5is?5not?5conne@ 006ffbdc     FreePcbDoc.obj
 0003:0000fc10       ??_C@_0MC@PNLEEHJ@Unable?5to?5open?5global?5configurat@ 006ffc10     FreePcbDoc.obj
 0003:0000fcf8       ??_C@_0BM@JNMANDHG@?2VCL_Dialog?2file_dialog?4pth?$AA@ 006ffcf8     FreePcbDoc.obj
 0003:0000fd1c       ??_C@_07IHALICFI@Infobox?$AA@ 006ffd1c     FreePcbDoc.obj
 0003:0000fd28       ??_C@_04PMOCAHAA@open?$AA@ 006ffd28     FreePcbDoc.obj
 0003:0000fd30       ??_C@_0CF@GGOPCPKL@FreePcb?5file?5dialog?5already?5runn@ 006ffd30     FreePcbDoc.obj
 0003:0000fd5c       ??_C@_0BE@KIBOHJIF@FreePcb?5file?5dialog?$AA@ 006ffd5c     FreePcbDoc.obj
 0003:0000fd74       ??_C@_0BM@NJICKMBH@?2VCL_Dialog?2VCL_Dialogs?4exe?$AA@ 006ffd74     FreePcbDoc.obj
 0003:0000fd98       ??_C@_07NMGBIJJF@fpl_exp?$AA@ 006ffd98     FreePcbDoc.obj
 0003:0000fda4       ??_C@_03FNEPMEMH@fpl?$AA@  006ffda4     FreePcbDoc.obj
 0003:0000fda8       ??_C@_07NFOHKBLP@net_exp?$AA@ 006ffda8     FreePcbDoc.obj
 0003:0000fdb4       ??_C@_07OCGEDFHO@dsn_exp?$AA@ 006ffdb4     FreePcbDoc.obj
 0003:0000fdc0       ??_C@_03MHDGNAJH@dsn?$AA@  006ffdc0     FreePcbDoc.obj
 0003:0000fdc4       ??_C@_07CNDHDLEA@fpc_exp?$AA@ 006ffdc4     FreePcbDoc.obj
 0003:0000fdd0       ??_C@_03NKNHNIAI@fpc?$AA@  006ffdd0     FreePcbDoc.obj
 0003:0000fdd4       ??_C@_07KMPFCFKK@mod_imp?$AA@ 006ffdd4     FreePcbDoc.obj
 0003:0000fde0       ??_C@_03CLFHJCDC@txt?$AA@  006ffde0     FreePcbDoc.obj
 0003:0000fde4       ??_C@_07IFNMHPJM@net_imp?$AA@ 006ffde4     FreePcbDoc.obj
 0003:0000fdf0       ??_C@_03NBFOK@net?$AA@     006ffdf0     FreePcbDoc.obj
 0003:0000fdf4       ??_C@_07HPGHGLNO@ses_imp?$AA@ 006ffdf4     FreePcbDoc.obj
 0003:0000fe00       ??_C@_07HNAMOFGD@fpc_imp?$AA@ 006ffe00     FreePcbDoc.obj
 0003:0000fe0c       ??_C@_02GDNLOIIJ@fp?$AA@   006ffe0c     FreePcbDoc.obj
 0003:0000fe10       ??_C@_08NCJIEHD@Complete?$AA@ 006ffe10     FreePcbDoc.obj
 0003:0000fe1c       ??_C@_0P@GAKOCDB@Reading?5merges?$AA@ 006ffe1c     FreePcbDoc.obj
 0003:0000fe30       ??_C@_0O@DMMHBFAK@Reading?5texts?$AA@ 006ffe30     FreePcbDoc.obj
 0003:0000fe40       ??_C@_0BB@KKFLKIDG@Reading?5graphics?$AA@ 006ffe40     FreePcbDoc.obj
 0003:0000fe54       ??_C@_0BA@DACDBJMC@Reading?5options?$AA@ 006ffe54     FreePcbDoc.obj
 0003:0000fe68       ??_C@_0BK@DIMCENCJ@FreeSCH?5?9?5no?5project?5open?$AA@ 006ffe68     FreePcbDoc.obj
 0003:0000fe88       ??_C@_0BN@ENLDEPKK@Project?5modified?0?5save?5it?5?$DP?5?$AA@ 006ffe88     FreePcbDoc.obj
 0003:0000feac       ??_C@_0CO@KGDBLBPE@Unable?5to?5save?5file?4?5Remove?5writ@ 006ffeac     FreePcbDoc.obj
 0003:0000fee8       ??_C@_0MH@OJFHOKJO@This?5project?5file?5was?5created?5in@ 006ffee8     FreePcbDoc.obj
 0003:0000ffd8       ??_C@_07OMCJPEOG@?2?$CFd?4fpc?$AA@ 006fffd8     FreePcbDoc.obj
 0003:0000ffe4       ??_C@_08HMCADILH@?20?$CFd?4fpc?$AA@ 006fffe4     FreePcbDoc.obj
 0003:0000fff0       ??_C@_07EJMOMPFC@?2?$DP?$DP?4fpc?$AA@ 006ffff0     FreePcbDoc.obj
 0003:0000fffc       ??_C@_0CE@LDHCIOKG@Unable?5to?5open?5autosave?5folder?5?$CC@ 006ffffc     FreePcbDoc.obj
 0003:00010028       ??_C@_0CG@HMBBENF@Unable?5to?5create?5autosave?5folder@ 00700028     FreePcbDoc.obj
 0003:00010058       ??_C@_09GJPLBDB@?2Autosave?$AA@ 00700058     FreePcbDoc.obj
 0003:00010064       ??_C@_04JJJKKMIO@?4net?$AA@ 00700064     FreePcbDoc.obj
 0003:0001006c       ??_C@_06BHLFPPDE@?$FLend?$FN?6?$AA@ 0070006c     FreePcbDoc.obj
 0003:00010074       ??_C@_02GFKGEECC@?4b?$AA@  00700074     FreePcbDoc.obj
 0003:00010078       ??_C@_08LFGKKCMD@?2cookies?$AA@ 00700078     FreePcbDoc.obj
 0003:00010084       ??_C@_05OCJEJOIA@?$FLend?$FN?$AA@ 00700084     FreePcbDoc.obj
 0003:0001008c       ??_C@_05DPKBJALF@merge?$AA@ 0070008c     FreePcbDoc.obj
 0003:00010094       ??_C@_0CF@LLPICMJM@Unable?5to?5find?5?$FLend?$FN?5section?5in?5@ 00700094     FreePcbDoc.obj
 0003:000100c0       ??_C@_08EDDDBHGE@?$FLmerges?$FN?$AA@ 007000c0     FreePcbDoc.obj
 0003:000100d0       ??_C@_0EC@GDDAEPBK@This?5project?5file?5was?5created?5in@ 007000d0     FreePcbDoc.obj
 0003:00010120       ??_C@_0BJ@EGBKFBMP@File?5error?3?5?$CFd?5?$CFld?5?$CI?$CFs?$CJ?6?$AA@ 00700120     FreePcbDoc.obj
 0003:00010140       ??_C@_0BA@MOIJPNKF@File?5error?3?5?$CFd?6?$AA@ 00700140     FreePcbDoc.obj
 0003:00010154       ??_C@_0BC@IODCHNJC@?5?5merge?3?5?$CC?$CFs?$CC?5?$CFd?6?$AA@ 00700154     FreePcbDoc.obj
 0003:0001016c       ??_C@_0L@HFDKAFAL@?$FLmerges?$FN?6?6?$AA@ 0070016c     FreePcbDoc.obj
 0003:0001017c       ??_C@_0BB@MDFJAPAA@File?5save?5failed?$AA@ 0070017c     FreePcbDoc.obj
 0003:00010190       ??_C@_06IDNCAFL@?$CFs?4fpc?$AA@ 00700190     FreePcbDoc.obj
 0003:00010198       ??_C@_0CC@GHJHFHIJ@CFreePcbDoc?3?3WriteOutlinesPoly?$CI?$CJ@ 00700198     FreePcbDoc.obj
 0003:000101c0       ??_C@_0BK@HLNMBKLF@?5?5corner?3?5?$CFd?5?$CFd?5?$CFd?5?$CFd?5?$CFd?6?$AA@ 007001c0     FreePcbDoc.obj
 0003:000101e0       ??_C@_0BN@NAKHKDIF@polyline?3?5?$CFd?5?$CFd?5?$CFd?5?$CFd?5?$CFd?5?$CFd?6?$AA@ 007001e0     FreePcbDoc.obj
 0003:00010204       ??_C@_0BH@LILMCBMK@?5?5corner?3?5?$CFd?5?$CFd?5?$CFd?5?$CFd?6?$AA@ 00700204     FreePcbDoc.obj
 0003:00010220       ??_C@_0BJ@KICDHPFP@line?3?5?$CFd?5?$CFd?5?$CFd?5?$CFd?5?$CFd?5?$CFd?6?$AA@ 00700220     FreePcbDoc.obj
 0003:00010240       ??_C@_0N@MJOHBMHB@?$FLgraphics?$FN?6?6?$AA@ 00700240     FreePcbDoc.obj
 0003:00010250       ??_C@_0BN@BKHDGJMF@CFreePcbDoc?3?3ReadGraphics?$CI?$CJ?6?$AA@ 00700250     FreePcbDoc.obj
 0003:00010274       ??_C@_06CKJBOKFG@corner?$AA@ 00700274     FreePcbDoc.obj
 0003:00010280       __real@400028c154c985f0    00700280     FreePcbDoc.obj
 0003:0001028c       ??_C@_0DB@DMNLDGOC@error?5parsing?5?$FLgraphics?$FN?5section@ 0070028c     FreePcbDoc.obj
 0003:000102c8       ??_C@_08MAIKLLAG@polyline?$AA@ 007002c8     FreePcbDoc.obj
 0003:000102d4       ??_C@_04HJPCFDOP@line?$AA@ 007002d4     FreePcbDoc.obj
 0003:000102dc       ??_C@_0BP@NCAAIDEN@unexpected?5EOF?5in?5project?5file?$AA@ 007002dc     FreePcbDoc.obj
 0003:00010304       ??_C@_0L@NCBEKFNB@?$FLgraphics?$FN?$AA@ 00700304     FreePcbDoc.obj
 0003:00010314       ??_C@_0CK@BLNIFLAJ@Unable?5to?5find?5?$FLgraphics?$FN?5sectio@ 00700314     FreePcbDoc.obj
 0003:00010348       ??_C@_0BN@KJIHECLG@CFreePcbDoc?3?3WriteOptions?$CI?$CJ?6?$AA@ 00700348     FreePcbDoc.obj
 0003:0001036c       ??_C@_0L@FDFDNACF@layer_info?$AA@ 0070036c     FreePcbDoc.obj
 0003:0001037c       ??_C@_0DA@IKFACHGB@error?5parsing?5?$FLoptions?$FN?5section?5@ 0070037c     FreePcbDoc.obj
 0003:000103b8       ??_C@_0BA@HFIHAKKE@width_menu_item?$AA@ 007003b8     FreePcbDoc.obj
 0003:000103cc       ??_C@_0N@KBNFOKBC@n_width_menu?$AA@ 007003cc     FreePcbDoc.obj
 0003:000103dc       ??_C@_0BH@NOHKOING@default_via_hole_width?$AA@ 007003dc     FreePcbDoc.obj
 0003:000103f8       ??_C@_0BG@JNEGIJOI@default_via_pad_width?$AA@ 007003f8     FreePcbDoc.obj
 0003:00010414       ??_C@_0BE@PJDOABBP@default_trace_width?$AA@ 00700414     FreePcbDoc.obj
 0003:0001042c       ??_C@_0BC@OKFJGFAC@drc_copper_copper?$AA@ 0070042c     FreePcbDoc.obj
 0003:00010444       ??_C@_0O@KEKPMIMF@drc_hole_hole?$AA@ 00700444     FreePcbDoc.obj
 0003:00010454       ??_C@_0BE@OECHOMCB@drc_board_edge_hole?$AA@ 00700454     FreePcbDoc.obj
 0003:0001046c       ??_C@_0BG@LGOGMEPM@drc_board_edge_copper?$AA@ 0070046c     FreePcbDoc.obj
 0003:00010488       ??_C@_0BG@FBICDALC@drc_annular_ring_vias?$AA@ 00700488     FreePcbDoc.obj
 0003:000104a4       ??_C@_0BG@NFJOICCP@drc_annular_ring_pins?$AA@ 007004a4     FreePcbDoc.obj
 0003:000104c0       ??_C@_0BA@LAPHFGEN@drc_hole_copper?$AA@ 007004c0     FreePcbDoc.obj
 0003:000104d4       ??_C@_0BA@NLNHGELD@drc_trace_trace?$AA@ 007004d4     FreePcbDoc.obj
 0003:000104e8       ??_C@_0O@CLFKHJDK@drc_pad_trace?$AA@ 007004e8     FreePcbDoc.obj
 0003:000104f8       ??_C@_0M@BFAHNILO@drc_pad_pad?$AA@ 007004f8     FreePcbDoc.obj
 0003:00010508       ??_C@_0BA@NBGKILAE@drc_trace_width?$AA@ 00700508     FreePcbDoc.obj
 0003:0001051c       ??_C@_0BD@PBLMOPFK@drc_check_unrouted?$AA@ 0070051c     FreePcbDoc.obj
 0003:00010534       ??_C@_0P@FOJBKKHG@report_options?$AA@ 00700534     FreePcbDoc.obj
 0003:00010548       ??_C@_0M@IFCGPEMO@cam_space_y?$AA@ 00700548     FreePcbDoc.obj
 0003:00010558       ??_C@_0M@JMDNMFIP@cam_space_x?$AA@ 00700558     FreePcbDoc.obj
 0003:00010568       ??_C@_07KFLFKPAD@cam_n_y?$AA@ 00700568     FreePcbDoc.obj
 0003:00010574       ??_C@_07LMKOJOEC@cam_n_x?$AA@ 00700574     FreePcbDoc.obj
 0003:00010580       ??_C@_09JPOHJGEH@cam_units?$AA@ 00700580     FreePcbDoc.obj
 0003:0001058c       ??_C@_0P@LAGNPLOF@cam_drill_file?$AA@ 0070058c     FreePcbDoc.obj
 0003:000105a0       ??_C@_0L@GGKCLPBH@cam_layers?$AA@ 007005a0     FreePcbDoc.obj
 0003:000105b0       ??_C@_09LLLBIANE@cam_flags?$AA@ 007005b0     FreePcbDoc.obj
 0003:000105bc       ??_C@_0BC@JFAFBMIP@shrink_paste_mask?$AA@ 007005bc     FreePcbDoc.obj
 0003:000105d4       ??_C@_0BG@OAAFKFJN@annular_ring_for_vias?$AA@ 007005d4     FreePcbDoc.obj
 0003:000105f0       ??_C@_0BG@GEBJBHAA@annular_ring_for_pins?$AA@ 007005f0     FreePcbDoc.obj
 0003:0001060c       ??_C@_0P@OODLKDCN@hole_clearance?$AA@ 0070060c     FreePcbDoc.obj
 0003:00010620       ??_C@_0P@HFIKNHBB@pilot_diameter?$AA@ 00700620     FreePcbDoc.obj
 0003:00010634       ??_C@_0BA@DHOBACLD@highlight_width?$AA@ 00700634     FreePcbDoc.obj
 0003:00010648       ??_C@_0BF@CPMGIHIK@min_silkscreen_width?$AA@ 00700648     FreePcbDoc.obj
 0003:00010664       ??_C@_0BC@FCFIBIND@thermal_clearance?$AA@ 00700664     FreePcbDoc.obj
 0003:0001067c       ??_C@_0O@GKINBMMA@thermal_width?$AA@ 0070067c     FreePcbDoc.obj
 0003:0001068c       ??_C@_0P@GMGBOINH@mask_clearance?$AA@ 0070068c     FreePcbDoc.obj
 0003:000106a0       ??_C@_0P@GGCDMKHP@fill_clearance?$AA@ 007006a0     FreePcbDoc.obj
 0003:000106b4       ??_C@_0BA@JFBHLDLM@m_seg_clearance?$AA@ 007006b4     FreePcbDoc.obj
 0003:000106c8       ??_C@_0O@COGHBBIJ@fp_snap_angle?$AA@ 007006c8     FreePcbDoc.obj
 0003:000106d8       ??_C@_0BH@JAHPFEDC@fp_placement_grid_item?$AA@ 007006d8     FreePcbDoc.obj
 0003:000106f4       ??_C@_0BK@CKMMJDNH@fp_placement_grid_spacing?$AA@ 007006f4     FreePcbDoc.obj
 0003:00010714       ??_C@_0BF@CMLFKCF@fp_visible_grid_item?$AA@ 00700714     FreePcbDoc.obj
 0003:00010730       ??_C@_0BI@GBCKHMKL@fp_visible_grid_spacing?$AA@ 00700730     FreePcbDoc.obj
 0003:0001074c       ??_C@_0L@BEFPKEME@snap_angle?$AA@ 0070074c     FreePcbDoc.obj
 0003:0001075c       ??_C@_0BC@OHOJNDEI@routing_grid_item?$AA@ 0070075c     FreePcbDoc.obj
 0003:00010774       ??_C@_0BF@BOAEEGNL@routing_grid_spacing?$AA@ 00700774     FreePcbDoc.obj
 0003:00010790       ??_C@_0BE@BPNJKHFP@placement_grid_item?$AA@ 00700790     FreePcbDoc.obj
 0003:000107a8       ??_C@_0BH@GKOHHPII@placement_grid_spacing?$AA@ 007007a8     FreePcbDoc.obj
 0003:000107c4       ??_C@_0BC@GDNHCHNI@visible_grid_item?$AA@ 007007c4     FreePcbDoc.obj
 0003:000107dc       ??_C@_0BF@FCKGMHLN@visible_grid_spacing?$AA@ 007007dc     FreePcbDoc.obj
 0003:000107f8       ??_C@_0L@JFEKMCGK@m_sel_mask?$AA@ 007007f8     FreePcbDoc.obj
 0003:00010808       ??_C@_0BB@NIGCGKII@m_visible_layers?$AA@ 00700808     FreePcbDoc.obj
 0003:0001081c       ??_C@_0M@ECGCHCLI@m_top_layer?$AA@ 0070081c     FreePcbDoc.obj
 0003:0001082c       ??_C@_0N@MDIAGLAO@m_grid_style?$AA@ 0070082c     FreePcbDoc.obj
 0003:0001083c       ??_C@_05CCBEFJDC@units?$AA@ 0070083c     FreePcbDoc.obj
 0003:00010844       ??_C@_0BC@BMGOMOKE@part_line_visible?$AA@ 00700844     FreePcbDoc.obj
 0003:0001085c       ??_C@_0BA@HGOGIGBE@m_system_colors?$AA@ 0070085c     FreePcbDoc.obj
 0003:00010870       ??_C@_0P@DAIBJKLG@m_scale_factor?$AA@ 00700870     FreePcbDoc.obj
 0003:00010884       ??_C@_07EBPCGGAK@m_org_y?$AA@ 00700884     FreePcbDoc.obj
 0003:00010890       ??_C@_07FIOJFHEL@m_org_x?$AA@ 00700890     FreePcbDoc.obj
 0003:0001089c       ??_C@_0BF@KAECOLLM@m_client_rect_bottom?$AA@ 0070089c     FreePcbDoc.obj
 0003:000108b8       ??_C@_0BE@JDKEHMB@m_client_rect_right?$AA@ 007008b8     FreePcbDoc.obj
 0003:000108d0       ??_C@_0BD@KJNAPOBI@m_client_rect_left?$AA@ 007008d0     FreePcbDoc.obj
 0003:000108e8       ??_C@_0BC@LPJKLBLI@m_client_rect_top?$AA@ 007008e8     FreePcbDoc.obj
 0003:00010900       ??_C@_0BC@JPNCICMC@netlist_completed?$AA@ 00700900     FreePcbDoc.obj
 0003:00010918       ??_C@_0BO@BFLBHLGE@auto_ratline_disable_min_pins?$AA@ 00700918     FreePcbDoc.obj
 0003:0001093c       ??_C@_0BF@OIDBLMCB@auto_ratline_disable?$AA@ 0070093c     FreePcbDoc.obj
 0003:00010958       ??_C@_0BC@MCKCGFAG@autosave_interval?$AA@ 00700958     FreePcbDoc.obj
 0003:00010970       ??_C@_0BA@JCLPLCFA@n_copper_layers?$AA@ 00700970     FreePcbDoc.obj
 0003:00010984       ??_C@_0BD@MNIAOCMJ@default_glue_width?$AA@ 00700984     FreePcbDoc.obj
 0003:0001099c       ??_C@_0BD@OKADJOJE@SMT_connect_copper?$AA@ 0070099c     FreePcbDoc.obj
 0003:000109b4       ??_C@_0M@OFKHCBOJ@part_search?$AA@ 007009b4     FreePcbDoc.obj
 0003:000109c4       ??_C@_0BC@PNFMPOM@netlist_file_path?$AA@ 007009c4     FreePcbDoc.obj
 0003:000109dc       ??_C@_0L@KDCGHEKO@CAM_folder?$AA@ 007009dc     FreePcbDoc.obj
 0003:000109ec       ??_C@_0BE@NMBMEMDD@full_library_folder?$AA@ 007009ec     FreePcbDoc.obj
 0003:00010a04       ??_C@_0P@LCAFLEEG@library_folder?$AA@ 00700a04     FreePcbDoc.obj
 0003:00010a18       ??_C@_0O@LKIMHIDA@parent_folder?$AA@ 00700a18     FreePcbDoc.obj
 0003:00010a28       ??_C@_0CP@BPFFIDMH@Reading?5project?5file?5failed?3?5Can@ 00700a28     FreePcbDoc.obj
 0003:00010a60       ??_C@_0EI@OJEJJFHN@?6?6Errors?5may?5occur?6?6Click?5on?5OK?5@ 00700a60     FreePcbDoc.obj
 0003:00010ab8       ??_C@_0FF@HCJOBJGJ@Warning?3?5the?5file?5version?5is?5?$CF5?4@ 00700ab8     FreePcbDoc.obj
 0003:00010b20       ??_C@_0N@JOHPBADG@file_version?$AA@ 00700b20     FreePcbDoc.obj
 0003:00010b30       ??_C@_07CPCPJPKL@version?$AA@ 00700b30     FreePcbDoc.obj
 0003:00010b3c       ??_C@_0N@NHJFJPKH@project_name?$AA@ 00700b3c     FreePcbDoc.obj
 0003:00010b4c       ??_C@_09NMOOAKMF@?$FLoptions?$FN?$AA@ 00700b4c     FreePcbDoc.obj
 0003:00010b58       ??_C@_0CJ@IOIGKAAF@Unable?5to?5find?5?$FLoptions?$FN?5section@ 00700b58     FreePcbDoc.obj
 0003:00010b90       __real@3ff3333333333333    00700b90     FreePcbDoc.obj
 0003:00010b9c       ??_C@_0CC@CCFIBKLK@CFreePcbDoc?3?3WriteBoardOutline?$CI?$CJ@ 00700b9c     FreePcbDoc.obj
 0003:00010bc4       ??_C@_0CD@DAGLIIAM@?5?5layer_info?3?5?$CC?$CFs?$CC?5?$CFd?5?$CFd?5?$CFd?5?$CFd?5?$CF@ 00700bc4     FreePcbDoc.obj
 0003:00010bf0       ??_C@_0BJ@EAHKHJPF@n_additional_layers?3?5?$CFd?6?$AA@ 00700bf0     FreePcbDoc.obj
 0003:00010c10       ??_C@_0BH@MMGADFIN@?5?5width_menu_item?3?5?$CFd?5?$AA@ 00700c10     FreePcbDoc.obj
 0003:00010c2c       ??_C@_0BC@NJEBMAHI@n_width_menu?3?5?$CFd?6?$AA@ 00700c2c     FreePcbDoc.obj
 0003:00010c44       ??_C@_0BI@EKMHNDHA@default_via_hole_width?3?$AA@ 00700c44     FreePcbDoc.obj
 0003:00010c60       ??_C@_0BH@ILOFPCLK@default_via_pad_width?3?$AA@ 00700c60     FreePcbDoc.obj
 0003:00010c7c       ??_C@_0BF@KIFIONIN@default_trace_width?3?$AA@ 00700c7c     FreePcbDoc.obj
 0003:00010c98       ??_C@_0BH@PHDJIFLN@drc_copper_copper?3?5?$CFd?6?$AA@ 00700c98     FreePcbDoc.obj
 0003:00010cb4       ??_C@_0BD@MMLOBNEH@drc_hole_hole?3?5?$CFd?6?$AA@ 00700cb4     FreePcbDoc.obj
 0003:00010ccc       ??_C@_0BJ@CBOFEBAM@drc_board_edge_hole?3?5?$CFd?6?$AA@ 00700ccc     FreePcbDoc.obj
 0003:00010cec       ??_C@_0BL@CNOGLOJE@drc_board_edge_copper?3?5?$CFd?6?$AA@ 00700cec     FreePcbDoc.obj
 0003:00010d0c       ??_C@_0BL@JNMANPJL@drc_annular_ring_vias?3?5?$CFd?6?$AA@ 00700d0c     FreePcbDoc.obj
 0003:00010d2c       ??_C@_0BL@EJPOLNHA@drc_annular_ring_pins?3?5?$CFd?6?$AA@ 00700d2c     FreePcbDoc.obj
 0003:00010d4c       ??_C@_0BF@FMLGNINO@drc_hole_copper?3?5?$CFd?6?$AA@ 00700d4c     FreePcbDoc.obj
 0003:00010d68       ??_C@_0BF@EPNEPCEE@drc_trace_trace?3?5?$CFd?6?$AA@ 00700d68     FreePcbDoc.obj
 0003:00010d84       ??_C@_0BD@KMAAMGIL@drc_pad_trace?3?5?$CFd?6?$AA@ 00700d84     FreePcbDoc.obj
 0003:00010d9c       ??_C@_0BB@DIBAAICH@drc_pad_pad?3?5?$CFd?6?$AA@ 00700d9c     FreePcbDoc.obj
 0003:00010db0       ??_C@_0BF@FEEGPCOH@drc_trace_width?3?5?$CFd?6?$AA@ 00700db0     FreePcbDoc.obj
 0003:00010dcc       ??_C@_0BI@HLKBIODJ@drc_check_unrouted?3?5?$CFd?6?$AA@ 00700dcc     FreePcbDoc.obj
 0003:00010de8       ??_C@_0BE@MKFAJBKG@report_options?3?5?$CFd?6?$AA@ 00700de8     FreePcbDoc.obj
 0003:00010e00       ??_C@_0BB@GDOIFOKD@cam_space_y?3?5?$CFd?6?$AA@ 00700e00     FreePcbDoc.obj
 0003:00010e14       ??_C@_0BB@MFJPFFBH@cam_space_x?3?5?$CFd?6?$AA@ 00700e14     FreePcbDoc.obj
 0003:00010e28       ??_C@_0N@ELANIGB@cam_n_y?3?5?$CFd?6?$AA@ 00700e28     FreePcbDoc.obj
 0003:00010e38       ??_C@_0N@KCMHNDNF@cam_n_x?3?5?$CFd?6?$AA@ 00700e38     FreePcbDoc.obj
 0003:00010e48       ??_C@_0P@GOHBLFGE@cam_units?3?5?$CFd?6?$AA@ 00700e48     FreePcbDoc.obj
 0003:00010e5c       ??_C@_0BE@FDGEPAHH@cam_drill_file?3?5?$CFd?6?$AA@ 00700e5c     FreePcbDoc.obj
 0003:00010e74       ??_C@_0BA@DIHHIPME@cam_layers?3?5?$CFd?6?$AA@ 00700e74     FreePcbDoc.obj
 0003:00010e88       ??_C@_0P@BEHMFDED@cam_flags?3?5?$CFd?6?$AA@ 00700e88     FreePcbDoc.obj
 0003:00010e9c       ??_C@_0BH@GFHJKMGF@shrink_paste_mask?3?5?$CFd?6?$AA@ 00700e9c     FreePcbDoc.obj
 0003:00010eb8       ??_C@_0BL@ENGLOECE@annular_ring_for_vias?3?5?$CFd?6?$AA@ 00700eb8     FreePcbDoc.obj
 0003:00010ed8       ??_C@_0BL@JJFFIGMP@annular_ring_for_pins?3?5?$CFd?6?$AA@ 00700ed8     FreePcbDoc.obj
 0003:00010ef8       ??_C@_0BE@BOBEPDEC@pilot_diameter?3?5?$CFd?6?$AA@ 00700ef8     FreePcbDoc.obj
 0003:00010f10       ??_C@_0BE@MILBFGPI@hole_clearance?3?5?$CFd?6?$AA@ 00700f10     FreePcbDoc.obj
 0003:00010f28       ??_C@_0BF@IDLEHPFJ@highlight_width?3?5?$CFd?6?$AA@ 00700f28     FreePcbDoc.obj
 0003:00010f44       ??_C@_0BK@EKBLCLJL@min_silkscreen_width?3?5?$CFd?6?$AA@ 00700f44     FreePcbDoc.obj
 0003:00010f64       ??_C@_0BH@PHCHOFJC@thermal_clearance?3?5?$CFd?6?$AA@ 00700f64     FreePcbDoc.obj
 0003:00010f80       ??_C@_0BD@MDNINELH@thermal_width?3?5?$CFd?6?$AA@ 00700f80     FreePcbDoc.obj
 0003:00010f98       ??_C@_0BE@OOLOJAJH@mask_clearance?3?5?$CFd?6?$AA@ 00700f98     FreePcbDoc.obj
 0003:00010fb0       ??_C@_0BE@CNCDJCFB@fill_clearance?3?5?$CFd?6?$AA@ 00700fb0     FreePcbDoc.obj
 0003:00010fc8       ??_C@_0BF@IJFCBAHO@m_seg_clearance?3?5?$CFd?6?$AA@ 00700fc8     FreePcbDoc.obj
 0003:00010fe4       ??_C@_0BD@FEDBOJCF@fp_snap_angle?3?5?$CFd?6?$AA@ 00700fe4     FreePcbDoc.obj
 0003:00010ffc       ??_C@_0BL@PNIHKPCA@?5?5fp_placement_grid_item?3?5?$AA@ 00700ffc     FreePcbDoc.obj
 0003:0001101c       ??_C@_0BP@CGIHEFNE@fp_placement_grid_spacing?3?5?$CFf?6?$AA@ 0070101c     FreePcbDoc.obj
 0003:00011044       ??_C@_0BJ@KKCLEEP@?5?5fp_visible_grid_item?3?5?$AA@ 00701044     FreePcbDoc.obj
 0003:00011064       ??_C@_0BN@CKFLCDKI@fp_visible_grid_spacing?3?5?$CFf?6?$AA@ 00701064     FreePcbDoc.obj
 0003:00011088       ??_C@_0BA@NBCPKBCE@snap_angle?3?5?$CFd?6?$AA@ 00701088     FreePcbDoc.obj
 0003:0001109c       ??_C@_0BG@CDKJHIBI@?5?5routing_grid_item?3?5?$AA@ 0070109c     FreePcbDoc.obj
 0003:000110b8       ??_C@_0BK@NGGLNFHB@routing_grid_spacing?3?5?$CFf?6?$AA@ 007010b8     FreePcbDoc.obj
 0003:000110d8       ??_C@_0BI@DODCKFMP@?5?5placement_grid_item?3?5?$AA@ 007010d8     FreePcbDoc.obj
 0003:000110f4       ??_C@_0BM@MEAMAFEK@placement_grid_spacing?3?5?$CFf?6?$AA@ 007010f4     FreePcbDoc.obj
 0003:00011118       ??_C@_0BG@OIDIEADJ@?5?5visible_grid_item?3?5?$AA@ 00701118     FreePcbDoc.obj
 0003:00011134       ??_C@_0BK@BDMMAPMF@visible_grid_spacing?3?5?$CFf?6?$AA@ 00701134     FreePcbDoc.obj
 0003:00011154       ??_C@_0BC@BEAIIONL@m_grid_style?3?5?$CFd?6?$AA@ 00701154     FreePcbDoc.obj
 0003:0001116c       ??_C@_0BB@COGAMGLO@m_top_layer?3?5?$CFd?6?$AA@ 0070116c     FreePcbDoc.obj
 0003:00011180       ??_C@_0BG@JBECGDNI@m_visible_layers?3?5?$CFd?6?$AA@ 00701180     FreePcbDoc.obj
 0003:0001119c       ??_C@_0BA@DIAAOAJN@m_sel_mask?3?5?$CFd?6?$AA@ 0070119c     FreePcbDoc.obj
 0003:000111b0       ??_C@_0M@KNNJNHDE@units?3?5MM?6?6?$AA@ 007011b0     FreePcbDoc.obj
 0003:000111c0       ??_C@_0N@JAAJGEMJ@units?3?5MIL?6?6?$AA@ 007011c0     FreePcbDoc.obj
 0003:000111d0       ??_C@_0BF@MPKFHFHC@m_system_colors?3?5?$CFd?6?$AA@ 007011d0     FreePcbDoc.obj
 0003:000111ec       ??_C@_0BH@PBPGMEKB@part_line_visible?3?5?$CFd?6?$AA@ 007011ec     FreePcbDoc.obj
 0003:00011208       ??_C@_0BE@DEDGGEIF@m_scale_factor?3?5?$CFd?6?$AA@ 00701208     FreePcbDoc.obj
 0003:00011220       ??_C@_0N@ENCCLGDB@m_org_y?3?5?$CFd?6?$AA@ 00701220     FreePcbDoc.obj
 0003:00011230       ??_C@_0N@OLFFLNIF@m_org_x?3?5?$CFd?6?$AA@ 00701230     FreePcbDoc.obj
 0003:00011240       ??_C@_0BH@FAFNDKMO@m_client_rect_top?3?5?$CFd?6?$AA@ 00701240     FreePcbDoc.obj
 0003:0001125c       ??_C@_0BK@EPKNBJNO@m_client_rect_bottom?3?5?$CFd?6?$AA@ 0070125c     FreePcbDoc.obj
 0003:0001127c       ??_C@_0BJ@GMHFKFFF@m_client_rect_right?3?5?$CFd?6?$AA@ 0070127c     FreePcbDoc.obj
 0003:0001129c       ??_C@_0BI@ICJIFAPC@m_client_rect_left?3?5?$CFd?6?$AA@ 0070129c     FreePcbDoc.obj
 0003:000112b8       ??_C@_0CF@LJOLHLMN@auto_ratline_disable_min_pins?3?5?$CC@ 007012b8     FreePcbDoc.obj
 0003:000112e4       ??_C@_0BM@GGNPHBPH@auto_ratline_disable?3?5?$CC?$CFd?$CC?6?$AA@ 007012e4     FreePcbDoc.obj
 0003:00011308       ??_C@_0BH@OGHFBBOG@autosave_interval?3?5?$CFd?6?$AA@ 00701308     FreePcbDoc.obj
 0003:00011324       ??_C@_0BK@NKFPIOKI@default_glue_width?3?5?$CC?$CFd?$CC?6?$AA@ 00701324     FreePcbDoc.obj
 0003:00011344       ??_C@_0BK@CPBOJGKA@SMT_connect_copper?3?5?$CC?$CFd?$CC?6?$AA@ 00701344     FreePcbDoc.obj
 0003:00011364       ??_C@_0BJ@BNJBIHGL@netlist_file_path?3?5?$CC?$CFs?$CC?6?$AA@ 00701364     FreePcbDoc.obj
 0003:00011384       ??_C@_0BH@GAONCJOE@netlist_file_path?3?5?$CC?$CC?6?$AA@ 00701384     FreePcbDoc.obj
 0003:000113a0       ??_C@_0BD@FJDHMAMN@part_search?3?5?$CC?$CFs?$CC?6?$AA@ 007013a0     FreePcbDoc.obj
 0003:000113b8       ??_C@_0BB@GNEJDHMH@part_search?3?5?$CC?$CC?6?$AA@ 007013b8     FreePcbDoc.obj
 0003:000113cc       ??_C@_0BJ@PDHLIOIK@netlist_completed?3?5?$CC?$CFd?$CC?6?$AA@ 007013cc     FreePcbDoc.obj
 0003:000113ec       ??_C@_0BC@LGCBIMLN@CAM_folder?3?5?$CC?$CFs?$CC?6?$AA@ 007013ec     FreePcbDoc.obj
 0003:00011404       ??_C@_0BF@GJJCNOIF@parent_folder?3?5?$CC?$CFs?$CC?6?$AA@ 00701404     FreePcbDoc.obj
 0003:00011420       ??_C@_0BL@INKAOGM@full_library_folder?3?5?$CC?$CFs?$CC?6?$AA@ 00701420     FreePcbDoc.obj
 0003:00011440       ??_C@_0BG@PJECBPFH@library_folder?3?5?$CC?$CFs?$CC?6?$AA@ 00701440     FreePcbDoc.obj
 0003:0001145c       ??_C@_0BE@OMAAGHCA@project_name?3?5?$CC?$CFs?$CC?6?$AA@ 0070145c     FreePcbDoc.obj
 0003:00011474       ??_C@_0BF@BBLPNBFM@file_version?3?5?$CF5?43f?6?$AA@ 00701474     FreePcbDoc.obj
 0003:00011490       ??_C@_0BA@PKENMDDE@version?3?5?$CF5?43f?6?$AA@ 00701490     FreePcbDoc.obj
 0003:000114a4       ??_C@_0M@KBCAHLKH@?$FLoptions?$FN?6?6?$AA@ 007014a4     FreePcbDoc.obj
 0003:000114b4       ??_C@_0CF@JJPJHHIA@CFreePcbDoc?3?3InitializeNewProjec@ 007014b4     FreePcbDoc.obj
 0003:000114e0       ??_C@_0FC@CJIHHGON@Unable?5to?5open?5global?5configurat@ 007014e0     FreePcbDoc.obj
 0003:00011544       ??_C@_0N@PHBMMOOC@?2default?4cfg?$AA@ 00701544     FreePcbDoc.obj
 0003:00011558       __real@4119d695555549f8    00701558     FreePcbDoc.obj
 0003:00011568       __real@4109d69555555432    00701568     FreePcbDoc.obj
 0003:00011578       __real@40f8ce0000000000    00701578     FreePcbDoc.obj
 0003:00011588       __real@40f4abaaaaaaa865    00701588     FreePcbDoc.obj
 0003:00011598       __real@40ef018000000000    00701598     FreePcbDoc.obj
 0003:000115a8       __real@40e8ce0000000000    007015a8     FreePcbDoc.obj
 0003:000115b8       __real@412f018000000000    007015b8     FreePcbDoc.obj
 0003:000115c8       __real@412360f000000000    007015c8     FreePcbDoc.obj
 0003:000115d8       __real@411f018000000000    007015d8     FreePcbDoc.obj
 0003:000115e8       __real@410f018000000000    007015e8     FreePcbDoc.obj
 0003:000115f8       __real@4178392c00000000    007015f8     FreePcbDoc.obj
 0003:00011608       __real@4168392c00000000    00701608     FreePcbDoc.obj
 0003:00011618       __real@416360f000000000    00701618     FreePcbDoc.obj
 0003:00011628       __real@4158392c00000000    00701628     FreePcbDoc.obj
 0003:00011638       __real@415360f000000000    00701638     FreePcbDoc.obj
 0003:00011648       __real@4148392c00000000    00701648     FreePcbDoc.obj
 0003:00011658       __real@414360f000000000    00701658     FreePcbDoc.obj
 0003:00011664       ??_C@_0BM@JLFOPJBD@CFreePcbDoc?3?3SaveOptions?$CI?$CJ?6?$AA@ 00701664     FreePcbDoc.obj
 0003:00011688       ??_C@_0BJ@PHCGFKGP@Unable?5to?5open?5file?5?$CC?$CFs?$CC?$AA@ 00701688     FreePcbDoc.obj
 0003:000116a8       ??_C@_0M@BAINMAIF@default?4cfg?$AA@ 007016a8     FreePcbDoc.obj
 0003:000116b8       ??_C@_06MBFCENLJ@Inner_?$AA@ 007016b8     FreePcbDoc.obj
 0003:000116c0       ??_C@_06GKELNPHC@?$CKEND?$CK?6?$AA@ 007016c0     FreePcbDoc.obj
 0003:000116c8       ??_C@_06FIIOHFBH@?$CFs?4?$CFs?5?$AA@ 007016c8     FreePcbDoc.obj
 0003:000116d0       ??_C@_0N@MPKCEKNB@?$CKSIGNAL?$CK?5?$CFs?6?$AA@ 007016d0     FreePcbDoc.obj
 0003:000116e0       ??_C@_06CHEFEJDP@?$CKNET?$CK?6?$AA@ 007016e0     FreePcbDoc.obj
 0003:000116e8       ??_C@_06IINFAHFO@?$CFs?5?$CFs?6?$AA@ 007016e8     FreePcbDoc.obj
 0003:000116f0       ??_C@_07NMDDEBJE@?$CKPART?$CK?6?$AA@ 007016f0     FreePcbDoc.obj
 0003:000116fc       ??_C@_0M@GEKCNEKF@?$CKPADS?9PCB?$CK?6?$AA@ 007016fc     FreePcbDoc.obj
 0003:0001170c       ??_C@_0DC@PCCIJCHA@A?5outline?5must?5be?5present?5for?5CA@ 0070170c     FreePcbDoc.obj
 0003:00011748       ??_C@_0DB@JPHOEMGE@?$CK?$CK?$CK?$CK?$CK?$CK?$CK?$CK?$CK?5NO?5UNROUTED?5CONNECTION@ 00701748     FreePcbDoc.obj
 0003:00011784       ??_C@_0BK@CFBJKLJI@?$AN?6?$CK?$CK?$CK?$CK?$CK?$CK?$CK?5?5DONE?5?$CK?$CK?$CK?$CK?$CK?$CK?$CK?$AN?6?$AA@ 00701784     FreePcbDoc.obj
 0003:000117a4       ??_C@_0DI@KCIGDGDK@Checking?5traces?5for?5zero?9length?5@ 007017a4     FreePcbDoc.obj
 0003:000117e8       ??_C@_0FA@BFHEBPKL@You?5can?5reduce?5the?5number?5of?5lay@ 007017e8     FreePcbDoc.obj
 0003:00011848       ??_C@_0BH@IGKKBMNC@This?5is?5not?5allowed?4?6?6?$AA@ 00701848     FreePcbDoc.obj
 0003:00011868       ??_C@_0FA@NHJOGGAP@The?5group?5file?5that?5you?5are?5past@ 00701868     FreePcbDoc.obj
 0003:000118c8       ??_C@_0MA@JCNFNBFM@You?5are?5trying?5to?5insert?5data?5fr@ 007018c8     FreePcbDoc.obj
 0003:000119b0       __real@40002d0e56041893    007019b0     FreePcbDoc.obj
 0003:000119bc       ??_C@_0O@OKINDEPA@file_version?3?$AA@ 007019bc     FreePcbDoc.obj
 0003:000119cc       ??_C@_0BB@EOFADADP@n_copper_layers?3?$AA@ 007019cc     FreePcbDoc.obj
 0003:000119e0       ??_C@_02FDPACLJN@?$FLf?$AA@ 007019e0     FreePcbDoc.obj
 0003:000119e4       __real@40021cac            007019e4     FreePcbDoc.obj
 0003:000119e8       ??_C@_0CI@LBFIEIH@Currently?5only?5FPC?5files?5are?5sup@ 007019e8     FreePcbDoc.obj
 0003:00011a18       ??_C@_0KB@EJNNLAJB@There?5is?5a?5?8Shortcut?8?5folder?5in?5@ 00701a18     FreePcbDoc.obj
 0003:00011adc       ??_C@_08HADIGFPG@ViewMate?$AA@ 00701adc     FreePcbDoc.obj
 0003:00011ae8       ??_C@_04OEDFLLKD@?$CC?$CFs?$CC?$AA@ 00701ae8     FreePcbDoc.obj
 0003:00011af0       ??_C@_02KOPDJAMB@?$CC?5?$AA@ 00701af0     FreePcbDoc.obj
 0003:00011af4       ??_C@_04FGAJMCLA@?2?$CK?4?$CK?$AA@ 00701af4     FreePcbDoc.obj
 0003:00011afc       ??_C@_0DC@ODCKPHLA@If?5they?5are?5complex?0?5this?5may?5ta@ 00701afc     FreePcbDoc.obj
 0003:00011b38       ??_C@_0DF@COJBDJJH@Polylines?5?$CFd?5and?5?$CFd?5intersect?5an@ 00701b38     FreePcbDoc.obj
 0003:00011b78       ??_C@_04PCJMIFHK@?4lnk?$AA@ 00701b78     FreePcbDoc.obj
 0003:00011b80       ??_C@_0BI@NIADKJOL@Shortcut?5path?5not?5found?$AA@ 00701b80     FreePcbDoc.obj
 0003:00011b9c       ??_C@_09PADAKPJP@?2Shortcut?$AA@ 00701b9c     FreePcbDoc.obj
 0003:00011bac       ??_7?$CArray@VCPolyLine@@ABV1@@@6B@ 00701bac     FreePcbDoc.obj
 0003:00011bc8       ??_7?$CArray@NABN@@6B@     00701bc8     FreePcbDoc.obj
 0003:00011be4       ??_7?$CArray@VCArc@@ABV1@@@6B@ 00701be4     FreePcbDoc.obj
 0003:00011c00       ??_7?$CArray@PAVCPolyLine@@ABQAV1@@@6B@ 00701c00     FreePcbDoc.obj
 0003:00011c1c       ??_7CDocumentAdapter@CDocument@@6B@ 00701c1c     FreePcbDoc.obj
 0003:00011c60       ??_7IDocument@ATL@@6B@     00701c60     FreePcbDoc.obj
 0003:00011ca0       ??_C@_0FD@MMFFHGDC@c?3?2program?5files?5?$CIx86?$CJ?2microsoft@ 00701ca0     FreePcbDoc.obj
 0003:00011d04       ??_C@_02DKCKIIND@?$CFs?$AA@ 00701d04     FreePcbDoc.obj
 0003:00011d08       ??_C@_0EH@JMHNMKFO@CDocumentAdapter?3?3LoadFromStream@ 00701d08     FreePcbDoc.obj
 0003:00011d60       ??_C@_0EP@OBDLBAMC@c?3?2program?5files?5?$CIx86?$CJ?2microsoft@ 00701d60     FreePcbDoc.obj
 0003:00011dc0       ??_C@_0FA@LMOECOHI@CDocumentAdapter?3?3InitializeSear@ 00701dc0     FreePcbDoc.obj
 0003:00011e20       ??_C@_0EH@DLNJCMOG@CDocumentAdapter?3?3ClearChunkList@ 00701e20     FreePcbDoc.obj
 0003:00011e78       ??_C@_0EG@KJPNJGOD@CDocumentAdapter?3?3SetChunkValue?5@ 00701e78     FreePcbDoc.obj
 0003:00011ed0       ??_C@_0EI@OACGLLFN@CDocumentAdapter?3?3BeginReadChunk@ 00701ed0     FreePcbDoc.obj
 0003:00011f28       ??_C@_0EL@JFJHODOO@CDocumentAdapter?3?3ReadNextChunkV@ 00701f28     FreePcbDoc.obj
 0003:00011f88       ??_C@_0EE@DGBLNKAJ@CDocumentAdapter?3?3RemoveChunk?5is@ 00701f88     FreePcbDoc.obj
 0003:00011fe0       ??_C@_0EC@LNKAMCLD@CDocumentAdapter?3?3FindChunk?5is?5c@ 00701fe0     FreePcbDoc.obj
 0003:00012030       ??_C@_0EF@JFFEAAHE@CDocumentAdapter?3?3GetThumbnail?5i@ 00702030     FreePcbDoc.obj
 0003:00012088       ??_C@_0FE@IDJJLJDH@Override?5this?5method?5in?5a?5derive@ 00702088     FreePcbDoc.obj
 0003:000120f0       ??_7Merge@@6B@             007020f0     FreePcbDoc.obj
 0003:000120f8       ??_C@_0N@NNLNNJBC@CFreePcbView?$AA@ 007020f8     FreePcbView.obj
 0003:00012108       ?classCFreePcbView@CFreePcbView@@2UCRuntimeClass@@B 00702108     FreePcbView.obj
 0003:00013c64       ??_7CFreePcbView@@6B@      00703c64     FreePcbView.obj
 0003:00013e74       __real@bf800000            00703e74     FreePcbView.obj
 0003:00013e78       ??_C@_1DG@HAENAJPP@?$AAc?$AA?3?$AA?2?$AAf?$AAr?$AAe?$AAe?$AAs?$AAc?$AAh?$AA?2?$AAf?$AAr?$AAe?$AAe?$AAp?$AAc?$AAb?$AAv?$AAi?$AAe?$AAw?$AA?4?$AAc?$AAp?$AAp?$AA?$AA@ 00703e78     FreePcbView.obj
 0003:00013eb8       ??_C@_0N@FFGCELPM@active?5layer?$AA@ 00703eb8     FreePcbView.obj
 0003:00013ec8       ??_C@_0P@KFPPBKPK@keys?5to?5change?$AA@ 00703ec8     FreePcbView.obj
 0003:00013edc       ??_C@_0M@EKCBJNAA@?$CK?5Use?5these?$AA@ 00703edc     FreePcbView.obj
 0003:00013eec       ??_C@_0P@GNNIJBCL@SELECTION?5MASK?$AA@ 00703eec     FreePcbView.obj
 0003:00013f00       ??_C@_0L@CDEPKPII@part_list?5?$AA@ 00703f00     FreePcbView.obj
 0003:00013f10       ??_C@_0BF@CGLINOIF@Move?5entire?5contour?$DP?$AA@ 00703f10     FreePcbView.obj
 0003:00013f30       ??_C@_0GM@JACKCINF@This?5polyline?5is?5connected?5to?5ot@ 00703f30     FreePcbView.obj
 0003:00013fb4       ??_C@_0CG@PLOAIJNC@To?5Right?5?9?5SELECT?5?5To?5Left?5?9?5UNS@ 00703fb4     FreePcbView.obj
 0003:00013fe4       ??_C@_0BP@OKEHFGFN@dx?5?$DN?5?$CF?43f?0?5dy?5?$DN?5?$CF?43f?0?5d?5?$DN?5?$CF?43f?$AA@ 00703fe4     FreePcbView.obj
 0003:0001400c       ??_C@_0BP@FCOCEFCO@dx?5?$DN?5?$CF?41f?0?5dy?5?$DN?5?$CF?41f?0?5d?5?$DN?5?$CF?42f?$AA@ 0070400c     FreePcbView.obj
 0003:00014034       ??_C@_0DD@CEODGNKI@x?5?$DN?5?$CF?43f?0?5y?5?$DN?5?$CF?43f?0?5dx?5?$DN?5?$CF?43f?0?5d@ 00704034     FreePcbView.obj
 0003:00014074       ??_C@_0DD@EEFGABND@x?5?$DN?5?$CF?41f?0?5y?5?$DN?5?$CF?41f?0?5dx?5?$DN?5?$CF?41f?0?5d@ 00704074     FreePcbView.obj
 0003:000140b4       ??_C@_0CG@EGBKOPKF@Measurement?5mode?3?5left?9click?5to?5@ 007040b4     FreePcbView.obj
 0003:000140e4       ??_C@_0BB@LCKNKJPD@Moving?5text?5?$CC?$CFs?$CC?$AA@ 007040e4     FreePcbView.obj
 0003:000140f8       ??_C@_0BM@ICPEAFGH@Moving?5corner?5?$CFd?5of?5outline?$AA@ 007040f8     FreePcbView.obj
 0003:0001411c       ??_C@_0BP@GLJAFLNA@Inserting?5corner?5?$CFd?5of?5outline?$AA@ 0070411c     FreePcbView.obj
 0003:00014144       ??_C@_0BN@NHKDLKLL@Placing?5corner?5?$CFd?5of?5outline?$AA@ 00704144     FreePcbView.obj
 0003:00014168       ??_C@_0CB@KHKIGPJL@Placing?5second?5corner?5of?5outline@ 00704168     FreePcbView.obj
 0003:00014190       ??_C@_0CA@KEMNJNEE@Placing?5first?5corner?5of?5outline?$AA@ 00704190     FreePcbView.obj
 0003:000141b8       ??_C@_0BC@EKLLCGPD@Clearance?5value?3?5?$AA@ 007041b8     FreePcbView.obj
 0003:000141d0       ??_C@_0BE@GNOMMLDL@Group?5selected?5?$CI?$CFd?$CJ?$AA@ 007041d0     FreePcbView.obj
 0003:000141e8       ??_C@_0N@DKDMJKGO@Text?5?$CC?$CFs?$CC?5?$CFs?$AA@ 007041e8     FreePcbView.obj
 0003:000141f8       ??_C@_05NPFIJDIO@?$CINEG?$CJ?$AA@ 007041f8     FreePcbView.obj
 0003:00014200       ??_C@_0DJ@GPHLIHEM@?$CFs?3?5outline?5?$CFd?0?5side?5?$CFd?5of?5?$CFd?0?5?$CF@ 00704200     FreePcbView.obj
 0003:00014244       ??_C@_0DK@POEILHDJ@?$CFs?3?5polyline?5?$CFd?0?5side?5?$CFd?5of?5?$CFd?0?5@ 00704244     FreePcbView.obj
 0003:0001428c       ??_C@_08PMDINDG@arc?$CIccw?$CJ?$AA@ 0070428c     FreePcbView.obj
 0003:00014298       ??_C@_07LONBOBFD@arc?$CIcw?$CJ?$AA@ 00704298     FreePcbView.obj
 0003:000142a4       ??_C@_08HPNJGKDK@straight?$AA@ 007042a4     FreePcbView.obj
 0003:000142b0       ??_C@_0CC@BLJFIAMA@outline?5?$CFd?0?5corner?5?$CFd?0?5x?$DN?$CFs?0?5y?$DN?$CF@ 007042b0     FreePcbView.obj
 0003:000142d8       ??_C@_0CD@IHBCFJCB@polyline?5?$CFd?0?5corner?5?$CFd?0?5x?$DN?$CFs?0?5y?$DN@ 007042d8     FreePcbView.obj
 0003:00014304       ??_C@_06JJCEAOCO@DRE?5?$CFs?$AA@ 00704304     FreePcbView.obj
 0003:0001430c       ??_C@_0BC@NMIEMBLC@No?5selection?5?$CI?$CFd?$CJ?$AA@ 0070430c     FreePcbView.obj
 0003:00014324       ??_C@_08IMGEJGBM@Y?3?5?$CF8?41f?$AA@ 00704324     FreePcbView.obj
 0003:00014330       ??_C@_08JLBPICFP@X?3?5?$CF8?41f?$AA@ 00704330     FreePcbView.obj
 0003:0001433c       ??_C@_0P@JOFFHEHE@Successfully?$CB?6?$AA@ 0070433c     FreePcbView.obj
 0003:00014350       ??_C@_08OPNBKLNK@Failed?$CB?6?$AA@ 00704350     FreePcbView.obj
 0003:0001435c       ??_C@_0CL@NOMEJPJP@?2FPC_EXE?2FreePCB_InfoBox?2ObjectM@ 0070435c     FreePcbView.obj
 0003:00014390       ??_C@_1CI@CLHHKNDG@?$AAm?$AAe?$AAn?$AAu?$AA?4?$AAL?$AAo?$AAa?$AAd?$AAM?$AAe?$AAn?$AAu?$AAA?$AA?$CI?$AA1?$AA4?$AA4?$AA?$CJ?$AA?$AA@ 00704390     FreePcbView.obj
 0003:000143c0       ??_C@_0BM@KHHIDAGJ@Outline?5has?5too?5few?5corners?$AA@ 007043c0     FreePcbView.obj
 0003:000143e8       __real@54b249ad2594c37d    007043e8     FreePcbView.obj
 0003:000143f8       __real@4012e26c22844b21    007043f8     FreePcbView.obj
 0003:00014408       __real@4012d08cdbe1f883    00704408     FreePcbView.obj
 0003:00014418       __real@3ff945b9e188d252    00704418     FreePcbView.obj
 0003:00014428       __real@3ff8fe3cc6ff87de    00704428     FreePcbView.obj
 0003:00014438       __real@400933da9ae67fb5    00704438     FreePcbView.obj
 0003:00014448       __real@4009101c0da1da7b    00704448     FreePcbView.obj
 0003:00014458       __real@40192aeaf7955667    00704458     FreePcbView.obj
 0003:00014468       __real@4019190bb0f303c9    00704468     FreePcbView.obj
 0003:00014478       __real@3f81df46a2529d39    00704478     FreePcbView.obj
 0003:00014488       __real@bf81df46a2529d39    00704488     FreePcbView.obj
 0003:00014494       ??_C@_0BD@JMGAEPOJ@grid_spacing?3?5?$CFd?$AN?6?$AA@ 00704494     FreePcbView.obj
 0003:000144ac       ??_C@_0BC@DMHDBCJD@point_angle?3?5?$CFf?$AN?6?$AA@ 007044ac     FreePcbView.obj
 0003:000144c8       __real@401921fb54442d18    007044c8     FreePcbView.obj
 0003:000144d8       __real@400921fb54442d18    007044d8     FreePcbView.obj
 0003:000144e8       __real@41dfffffffc00000    007044e8     FreePcbView.obj
 0003:000144f8       __real@3ff199999999999a    007044f8     FreePcbView.obj
 0003:00014504       ??_C@_0BP@FPEDPIOP@Sorry?0?5this?5part?5doesn?8t?5exist?$AA@ 00704504     FreePcbView.obj
 0003:0001452c       ??_C@_0CK@OKECPPL@Sorry?0?5this?5part?5doesn?8t?5have?5a?5@ 0070452c     FreePcbView.obj
 0003:00014560       ??_C@_0BA@NBLJDFDP@Mirror?5Lines?4?4?4?$AA@ 00704560     FreePcbView.obj
 0003:00014574       ??_C@_0BA@FNIKLIND@Mirror?5Texts?4?4?4?$AA@ 00704574     FreePcbView.obj
 0003:00014588       ??_C@_0FM@MAEBHDKB@Nothing?5copied?5?$CB?6Remember?5that?5t@ 00704588     FreePcbView.obj
 0003:000145f8       ??_C@_0BB@GFIBBONK@No?5items?5to?5drag?$AA@ 007045f8     FreePcbView.obj
 0003:00014610       __real@43cfffffff800000    00704610     FreePcbView.obj
 0003:0001461c       ??_C@_0BH@FPEJMMBA@Unable?5to?5save?5file?5?$CFs?$AA@ 0070461c     FreePcbView.obj
 0003:00014638       ??_C@_0BG@ENBCHBDG@Rotation?5Completed?4?4?4?$AA@ 00704638     FreePcbView.obj
 0003:00014654       ??_C@_0BN@CBHEBHCD@Rotation?5Mechanical?5lines?4?4?4?$AA@ 00704654     FreePcbView.obj
 0003:00014678       ??_C@_0BC@BOLNJMJC@Rotation?5Texts?4?4?4?$AA@ 00704678     FreePcbView.obj
 0003:00014690       ??_C@_0KN@MNBNELKM@This?5group?5contains?5arc?5elements@ 00704690     FreePcbView.obj
 0003:00014760       ??_C@_0BG@DPIFNCHF@Rotation?5Polylines?4?4?4?$AA@ 00704760     FreePcbView.obj
 0003:0001477c       ??_C@_0CD@DMDLIBHH@Unable?5to?5align?5colinear?5segment@ 0070477c     FreePcbView.obj
 0003:000147a8       __real@41bdcd6500000000    007047a8     FreePcbView.obj
 0003:000147b8       __real@417312d000000000    007047b8     FreePcbView.obj
 0003:000147c8       __real@4056800000000000    007047c8     FreePcbView.obj
 0003:000147d8       __real@4065400000000000    007047d8     FreePcbView.obj
 0003:000147e4       ??_C@_0CA@HMCGPCML@?5?$CIcopper?5area?5fill?5clearance?5?$DN?5?$AA@ 007047e4     FreePcbView.obj
 0003:0001480c       ??_C@_02KCKGHPCA@?$CJ?5?$AA@ 0070480c     FreePcbView.obj
 0003:00014810       ??_C@_0CG@EGIJCDKD@Some?5parts?5already?5have?5a?5Merge?5@ 00704810     FreePcbView.obj
 0003:00014840       ??_C@_0BF@NABNGNHO@?5Delete?5this?5merger?$DP?$AA@ 00704840     FreePcbView.obj
 0003:00014860       ??_7?$CArray@Vid@@ABV1@@@6B@ 00704860     FreePcbView.obj
 0003:00014b2c       ??_7CFreePcbApp@@6B@       00704b2c     FreeSch.obj
 0003:00014c7c       ??_C@_08EEOHOBEO@Settings?$AA@ 00704c7c     FreeSch.obj
 0003:00014c88       ??_C@_07IDECFGGC@ShowCmd?$AA@ 00704c88     FreeSch.obj
 0003:00014c94       ??_C@_1DK@BDKBEOKE@?$AAm?$AA_?$AAf?$AAo?$AAo?$AAt?$AA_?$AAd?$AAr?$AAa?$AAg?$AA?4?$AAL?$AAo?$AAa?$AAd?$AAM?$AAe?$AAn?$AAu?$AAA?$AA?$CI?$AA?5?$AA2?$AA5?$AA2?$AA?5?$AA?$CJ?$AA?$AA@ 00704c94     FreeSch.obj
 0003:00014cdc       ??_C@_1DA@FCNGFPNI@?$AAm?$AA_?$AAf?$AAo?$AAo?$AAt?$AA?4?$AAL?$AAo?$AAa?$AAd?$AAM?$AAe?$AAn?$AAu?$AAA?$AA?$CI?$AA?5?$AA2?$AA4?$AA9?$AA?5?$AA?$CJ?$AA?$AA@ 00704cdc     FreeSch.obj
 0003:00014d18       ??_C@_1DK@ELJGDMFH@?$AAm?$AA_?$AAm?$AAa?$AAi?$AAn?$AA_?$AAd?$AAr?$AAa?$AAg?$AA?4?$AAL?$AAo?$AAa?$AAd?$AAM?$AAe?$AAn?$AAu?$AAA?$AA?$CI?$AA?5?$AA2?$AA5?$AA1?$AA?5?$AA?$CJ?$AA?$AA@ 00704d18     FreeSch.obj
 0003:00014d60       ??_C@_1DA@POJCMHDJ@?$AAm?$AA_?$AAm?$AAa?$AAi?$AAn?$AA?4?$AAL?$AAo?$AAa?$AAd?$AAM?$AAe?$AAn?$AAu?$AAA?$AA?$CI?$AA?5?$AA1?$AA2?$AA8?$AA?5?$AA?$CJ?$AA?$AA@ 00704d60     FreeSch.obj
 0003:00014d9c       ??_C@_1CO@FKNFNCKM@?$AAc?$AA?3?$AA?2?$AAf?$AAr?$AAe?$AAe?$AAs?$AAc?$AAh?$AA?2?$AAf?$AAr?$AAe?$AAe?$AAs?$AAc?$AAh?$AA?4?$AAc?$AAp?$AAp?$AA?$AA@ 00704d9c     FreeSch.obj
 0003:00014dd8       ??_C@_0GC@EGPAHLBE@NOTE?3?5The?5recent?5file?5list?5is?5di@ 00704dd8     FreeSch.obj
 0003:00014e50       ??_C@_06PIHANFHD@eebit2?$AA@ 00704e50     FreeSch.obj
 0003:00014e5c       ??_7CAboutDlg@@6B@         00704e5c     FreeSch.obj
 0003:0001503c       ??_C@_0N@EALJBGJC@2?5Debug?3?5033?$AA@ 0070503c     FreeSch.obj
 0003:0001504c       ??_C@_0BE@MJDKIMMA@https?3?1?1freepcb?4dev?$AA@ 0070504c     FreeSch.obj
 0003:00015064       ??_C@_1DG@KIAAJHKM@?$AAC?$AAW?$AAi?$AAn?$AAA?$AAp?$AAp?$AA?3?$AA?3?$AAm?$AA_?$AAp?$AAR?$AAe?$AAc?$AAe?$AAn?$AAt?$AAF?$AAi?$AAl?$AAe?$AAL?$AAi?$AAs?$AAt?$AA?$AA@ 00705064     FreeSch.obj
 0003:000150a4       ??_C@_0BA@CCPKDFPP@?2freeroute?4jnlp?$AA@ 007050a4     FreeSch.obj
 0003:000150b8       ??_C@_0BI@KMKJFCNF@https?3?1?1freerouting?4org?$AA@ 007050b8     FreeSch.obj
 0003:000150d4       ??_C@_0BM@KNHHPADI@?2doc?2freepcb_user_guide?4pdf?$AA@ 007050d4     FreeSch.obj
 0003:000150f8       ??_C@_0CH@PGKDPCDF@?2doc?2freepcb_user_guide_suppleme@ 007050f8     FreeSch.obj
 0003:00015128       ??_C@_0BN@HHHBLCAO@?2doc?2fpcroute_user_guide?4pdf?$AA@ 00705128     FreeSch.obj
 0003:00015150       ??_C@_0EP@FJIJEKIF@c?3?2program?5files?5?$CIx86?$CJ?2microsoft@ 00705150     FreeSch.obj
 0003:000151b0       ??_C@_1CM@MLPDLBML@?$AAc?$AA?3?$AA?2?$AAf?$AAr?$AAe?$AAe?$AAs?$AAc?$AAh?$AA?2?$AAg?$AAe?$AAr?$AAb?$AAe?$AAr?$AA?4?$AAc?$AAp?$AAp?$AA?$AA@ 007051b0     Gerber.obj
 0003:000151e4       ??_C@_0BG@DPMDHILK@G01X?$CFI64dY?$CFI64dD0?$CFd?$CK?6?$AA@ 007051e4     Gerber.obj
 0003:00015200       __real@401921fb54442eea    00705200     Gerber.obj
 0003:00015210       __real@4012d97c7f332330    00705210     Gerber.obj
 0003:00015220       __real@3ff921fb54442eea    00705220     Gerber.obj
 0003:0001522c       ??_C@_09ECIHDGKL@G54D?$CF2d?$CK?6?$AA@ 0070522c     Gerber.obj
 0003:00015238       ??_C@_05BICIENHK@G37?$CK?6?$AA@ 00705238     Gerber.obj
 0003:00015240       __real@3ff8000000000000    00705240     Gerber.obj
 0003:0001524c       ??_C@_05KAJECKBP@G36?$CK?6?$AA@ 0070524c     Gerber.obj
 0003:00015258       __real@4036800000000000    00705258     Gerber.obj
 0003:00015268       __real@3fe69fbe76c8b439    00705268     Gerber.obj
 0003:00015274       ??_C@_0CM@BIHIFDKD@?5?5?5?5isWarning?3?5no?5connect?$DP?5x?$DN?$CFdn@ 00705274     Gerber.obj
 0003:000152a8       ??_C@_0BG@PCLMMNGO@c?3?2freesch?2gerber?4cpp?$AA@ 007052a8     Gerber.obj
 0003:000152c4       ??_C@_0CB@DBICDFFD@?6G04?5Draw?5pilot?5holes?5for?5vias?$CK?6@ 007052c4     Gerber.obj
 0003:000152ec       ??_C@_0DK@FALCJOHH@?6G04?5?9?9?9?9?9?9?9?9?9?9?9?9?9?9?9?9?9?9?9?9?9?9?9?5Dra@ 007052ec     Gerber.obj
 0003:00015334       ??_C@_0BF@DAMAOKM@?6G04?5Draw?5polyline?$CK?6?$AA@ 00705334     Gerber.obj
 0003:00015350       ??_C@_0BB@LBMLNOJC@?6G04?5Draw?5Text?$CK?6?$AA@ 00705350     Gerber.obj
 0003:00015364       ??_C@_0BD@DJKHPMBN@?6G04?5Draw?5traces?$CK?6?$AA@ 00705364     Gerber.obj
 0003:00015380       ??_C@_0EJ@JEANKICE@?6G04?5?9?9?9?9?9?9?9?9?9?9?9?9?9?9?5Draw?5Parts?0?5@ 00705380     Gerber.obj
 0003:000153d8       ??_C@_0BE@LGMCLCPN@G04?5driwing?5hatch?$CK?6?$AA@ 007053d8     Gerber.obj
 0003:000153f0       ??_C@_0CA@FILICOBH@?6G04?5Draw?5clearances?5for?5text?$CK?6?$AA@ 007053f0     Gerber.obj
 0003:00015418       ??_C@_0CC@EABPAJNP@?6G04?5Draw?5clearances?5for?5traces?$CK@ 00705418     Gerber.obj
 0003:00015440       __real@4000666666666666    00705440     Gerber.obj
 0003:0001544c       ??_C@_0CA@PKBAKCI@?6G04?5Draw?5clearances?5for?5pads?$CK?6?$AA@ 0070544c     Gerber.obj
 0003:00015478       ??_C@_0ED@HNGPPKFN@?6G04?5?9?9?9?9?9?9?9?9?9?9?9?9?9?9?9?9?9?9?9?9?5Draw?5c@ 00705478     Gerber.obj
 0003:000154c8       ??_C@_0DB@FBAJLLKN@?6G04?5?9?9?9?9?9?9?9?9?9?9?9?9?9?9?9?9?9?9?9?9?9?9?9?5Dra@ 007054c8     Gerber.obj
 0003:00015504       ??_C@_05GDMECMHF@M00?$CK?6?$AA@ 00705504     Gerber.obj
 0003:0001550c       ??_C@_07LANLFKBM@?$CFLPC?$CK?$CF?6?$AA@ 0070550c     Gerber.obj
 0003:00015518       ??_C@_0DN@MOIFOFEA@?6G04?5?9?9?9?9?9?9?9?9?9?9?9?9?9?9?9?9?9?9?9?9?9?9?9?5Dra@ 00705518     Gerber.obj
 0003:00015564       ??_C@_0BA@DNPBFLNM@SRX?$CFdY?$CFdI?$CFfJ?$CFf?$CK?$AA@ 00705564     Gerber.obj
 0003:00015578       __real@408f400000000000    00705578     Gerber.obj
 0003:00015584       ??_C@_0CJ@BBANNNAG@?6G04?5Step?5and?5Repeat?5for?5paneliz@ 00705584     Gerber.obj
 0003:000155b8       ??_C@_0BG@JGIMAPNB@Inner?5?$CFd?5Copper?5Layer?$AA@ 007055b8     Gerber.obj
 0003:000155d4       ??_C@_0P@BFLFOEPP@Scribing?5Layer?$AA@ 007055d4     Gerber.obj
 0003:000155e8       ??_C@_0BD@BAGKGOOH@Bottom?5notes?5Layer?$AA@ 007055e8     Gerber.obj
 0003:00015600       ??_C@_0BA@NPBKLEMK@Top?5notes?5Layer?$AA@ 00705600     Gerber.obj
 0003:00015614       ??_C@_0BA@GLIJNJHN@Highlight?5Layer?$AA@ 00705614     Gerber.obj
 0003:00015628       ??_C@_0BE@MKLAGKMM@Bottom?5Copper?5Layer?$AA@ 00705628     Gerber.obj
 0003:00015640       ??_C@_0BB@IPKAEGGD@Top?5Copper?5Layer?$AA@ 00705640     Gerber.obj
 0003:00015654       ??_C@_0BC@MBKEDCA@Bottom?5Silkscreen?$AA@ 00705654     Gerber.obj
 0003:0001566c       ??_C@_0P@MGFFPHBG@Top?5Silkscreen?$AA@ 0070566c     Gerber.obj
 0003:00015680       ??_C@_0BJ@PKMMLKKB@Bottom?5Solder?5Paste?5Mask?$AA@ 00705680     Gerber.obj
 0003:000156a0       ??_C@_0BG@HDHHLKFA@Top?5Solder?5Paste?5Mask?$AA@ 007056a0     Gerber.obj
 0003:000156bc       ??_C@_0BD@NKHBEIOO@Bottom?5Solder?5Mask?$AA@ 007056bc     Gerber.obj
 0003:000156d4       ??_C@_0BA@BFABJCMD@Top?5Solder?5Mask?$AA@ 007056d4     Gerber.obj
 0003:000156e8       ??_C@_09JGEDLHJP@Free?5Line?$AA@ 007056e8     Gerber.obj
 0003:000156f4       ??_C@_0BH@DDJECANE@?6G04?5Draw?5Layer?5Name?$CK?6?$AA@ 007056f4     Gerber.obj
 0003:00015710       __real@407f400000000000    00705710     Gerber.obj
 0003:0001571c       ??_C@_0DG@ENJIFCCP@?6G04?5?9?9?9?9?9?9?9?9?9?9?9?9?9?9?9?9?9?9?9?9?9?9?9?5Dra@ 0070571c     Gerber.obj
 0003:0001575c       ??_C@_07CPLIGAM@?$CFLPD?$CK?$CF?6?$AA@ 0070575c     Gerber.obj
 0003:00015768       ??_C@_0BL@LAHLDMCO@G04?5begin?5color?3?5clBlack?$CK?6?$AA@ 00705768     Gerber.obj
 0003:00015788       ??_C@_08CEJBJBMD@G70D02?$CK?6?$AA@ 00705788     Gerber.obj
 0003:00015794       ??_C@_05MPEPGNGC@G90?$CK?6?$AA@ 00705794     Gerber.obj
 0003:0001579c       ??_C@_0BM@FHLGENF@ADD?$CFdRNDREC?0?$CF?46fX?$CF?46fX?$CF?46f?$CK?$AA@ 0070579c     Gerber.obj
 0003:000157c0       __real@4188392c00000000    007057c0     Gerber.obj
 0003:000157cc       ??_C@_0BC@JCOECCNA@ADD?$CFdO?0?$CF?46fX?$CF?46f?$CK?$AA@ 007057cc     Gerber.obj
 0003:000157e4       ??_C@_0BE@LIBPNMDP@ADD?$CFdP?0?$CF?46fX8X22?45?$CK?$AA@ 007057e4     Gerber.obj
 0003:000157fc       ??_C@_0O@PLJLOKDE@ADD?$CFdMOIRE?$CFd?$CK?$AA@ 007057fc     Gerber.obj
 0003:0001580c       ??_C@_0DD@JNPKBCAL@AMMOIRE?$CFd?$CK6?00?00?0?$CF?46f?00?4005?00?4050@ 0070580c     Gerber.obj
 0003:0001584c       ??_C@_0CG@CPKFIMPI@ADD?$CFdRECTHERM_45?0?$CF?46fX?$CF?46fX?$CF?46fX@ 0070584c     Gerber.obj
 0003:00015880       __real@418113d380000000    00705880     Gerber.obj
 0003:0001588c       ??_C@_0CD@OELALIFP@ADD?$CFdRECTHERM?0?$CF?46fX?$CF?46fX?$CF?46fX?$CF?46@ 0070588c     Gerber.obj
 0003:000158b8       __real@4198392c00000000    007058b8     Gerber.obj
 0003:000158c4       ??_C@_0O@GONDGLC@ADD?$CFdTHERM?$CFd?$CK?$AA@ 007058c4     Gerber.obj
 0003:000158d4       ??_C@_0CD@PAFCHNJK@AMTHERM?$CFd?$CK7?00?00?0?$CF?46f?0?$CF?46f?0?$CF?46f?0?$CF@ 007058d4     Gerber.obj
 0003:00015900       ??_C@_0BC@GBMPOEHE@ADD?$CFdR?0?$CF?46fX?$CF?46f?$CK?$AA@ 00705900     Gerber.obj
 0003:00015918       ??_C@_01FGNFDNOH@?$CF?$AA@ 00705918     Gerber.obj
 0003:0001591c       ??_C@_02MENHEKGM@?$CF?6?$AA@ 0070591c     Gerber.obj
 0003:00015920       ??_C@_0N@BNHBEAEM@ADD?$CFdC?0?$CF?46f?$CK?$AA@ 00705920     Gerber.obj
 0003:00015930       ??_C@_0DL@POLBNGFL@1?01?0$4?$CL$4?$CL$4?$CL$4?00?9$1?9$1?$CL$4?$CL$4?$CL$4@ 00705930     Gerber.obj
 0003:00015978       ??_C@_0DI@FJHMODHG@1?01?0$4?$CL$4?$CL$4?$CL$4?0$1?$CL$1?9$4?9$4?9$4?9$@ 00705978     Gerber.obj
 0003:000159bc       ??_C@_0DK@CLOHIHAG@1?01?0$4?$CL$4?$CL$4?$CL$4?00?9$1?9$1?$CL$4?$CL$4?00?9@ 007059bc     Gerber.obj
 0003:00015a04       ??_C@_0DI@NOCKMOB@1?01?0$4?$CL$4?$CL$4?$CL$4?00?9$1?9$1?$CL$4?$CL$4?0$2@ 00705a04     Gerber.obj
 0003:00015a48       ??_C@_0DI@KFEPHEFM@1?01?0$4?$CL$4?$CL$4?$CL$4?00?9$1?9$1?$CL$4?$CL$4?$CL$4@ 00705a48     Gerber.obj
 0003:00015a8c       ??_C@_0DG@DCHLHCMK@1?01?0$4?$CL$4?$CL$4?$CL$4?0$1?$CL$1?9$4?9$4?9$4?9$@ 00705a8c     Gerber.obj
 0003:00015acc       ??_C@_0DI@CCMJHKBM@1?01?0$4?$CL$4?$CL$4?$CL$4?0$1?$CL$1?9$4?9$4?00?9$2@ 00705acc     Gerber.obj
 0003:00015b10       ??_C@_0DG@GOPDBMKD@1?01?0$4?$CL$4?$CL$4?$CL$4?0$1?$CL$1?9$4?9$4?0$2?$CL$@ 00705b10     Gerber.obj
 0003:00015b50       ??_C@_0EJ@KOOMNGA@21?01?0$1?$CL$1?$CL$1?$CL$1?9$4?9$4?9$4?9$4?9$4?9@ 00705b50     Gerber.obj
 0003:00015ba8       ??_C@_0EJ@GNPNOKLA@21?01?0$1?$CL$1?$CL$1?$CL$1?0$2?$CL$2?$CL$2?$CL$2?9$4?9@ 00705ba8     Gerber.obj
 0003:00015c00       ??_C@_0BB@DJKNDOFF@?$CFAMRECTHERM_45?$CK?6?$AA@ 00705c00     Gerber.obj
 0003:00015c14       ??_C@_0CL@IMFCBDCM@1?01?0$4?$CL$4?$CL$4?$CL$4?0$3?$CL$3?$CL$4?$CL$4?0$2?$CL$@ 00705c14     Gerber.obj
 0003:00015c48       ??_C@_0CK@KCMGHAJP@1?01?0$4?$CL$4?$CL$4?$CL$4?0$1?$CL$1?9$4?9$4?0$3?$CL$@ 00705c48     Gerber.obj
 0003:00015c7c       ??_C@_0CK@DFNBFILD@1?01?0$4?$CL$4?$CL$4?$CL$4?0$1?$CL$1?9$4?9$4?0$2?$CL$@ 00705c7c     Gerber.obj
 0003:00015cb0       ??_C@_0EC@KFLFIJIH@21?01?0$1?$CL$1?9$3?9$3?9$4?9$4?9$4?9$4?0$2?$CL@ 00705cb0     Gerber.obj
 0003:00015d00       ??_C@_0EC@LCNAODKA@21?01?0$1?$CL$1?9$3?9$3?9$4?9$4?0$2?$CL$2?9$3?9@ 00705d00     Gerber.obj
 0003:00015d50       ??_C@_0CM@BBPAPKJH@1?01?0$4?$CL$4?$CL$4?$CL$4?0$3?$CL$3?$CL$4?$CL$4?00?9$2@ 00705d50     Gerber.obj
 0003:00015d84       ??_C@_0CM@OLCNMHJJ@1?01?0$4?$CL$4?$CL$4?$CL$4?0$1?$CL$1?9$4?9$4?00?9$3@ 00705d84     Gerber.obj
 0003:00015db8       ??_C@_0CM@HMDKOPLF@1?01?0$4?$CL$4?$CL$4?$CL$4?0$1?$CL$1?9$4?9$4?00?9$2@ 00705db8     Gerber.obj
 0003:00015df0       ??_C@_0EE@LIIAEHC@21?01?0$1?$CL$1?9$3?9$3?9$4?9$4?9$4?9$4?0$2?$CL@ 00705df0     Gerber.obj
 0003:00015e48       ??_C@_0EE@IIGMOCAK@21?01?0$1?$CL$1?9$3?9$3?9$4?9$4?0$2?$CL$2?9$3?9@ 00705e48     Gerber.obj
 0003:00015e9c       ??_C@_0CM@BJBKLMHB@1?01?0$4?$CL$4?$CL$4?$CL$4?00?9$3?9$3?9$4?9$4?0$2@ 00705e9c     Gerber.obj
 0003:00015ed0       ??_C@_0CM@MIHKMCMD@1?01?0$4?$CL$4?$CL$4?$CL$4?00?9$1?9$1?$CL$4?$CL$4?0$3@ 00705ed0     Gerber.obj
 0003:00015f04       ??_C@_0CM@FPGNOKOP@1?01?0$4?$CL$4?$CL$4?$CL$4?00?9$1?9$1?$CL$4?$CL$4?0$2@ 00705f04     Gerber.obj
 0003:00015f38       ??_C@_0EE@GPGNJJLF@21?01?0$1?$CL$1?9$3?9$3?9$4?9$4?9$4?9$4?0$2?$CL@ 00705f38     Gerber.obj
 0003:00015f90       ??_C@_0EE@PKLLKCFP@21?01?0$1?$CL$1?9$3?9$3?9$4?9$4?0$2?$CL$2?9$3?9@ 00705f90     Gerber.obj
 0003:00015fe4       ??_C@_0CO@CCJBFAND@1?01?0$4?$CL$4?$CL$4?$CL$4?00?9$3?9$3?9$4?9$4?00?9@ 00705fe4     Gerber.obj
 0003:0001601c       ??_C@_0CO@NIEMGNNN@1?01?0$4?$CL$4?$CL$4?$CL$4?00?9$1?9$1?$CL$4?$CL$4?00?9@ 0070601c     Gerber.obj
 0003:00016054       ??_C@_0CO@EPFLEFPB@1?01?0$4?$CL$4?$CL$4?$CL$4?00?9$1?9$1?$CL$4?$CL$4?00?9@ 00706054     Gerber.obj
 0003:00016090       ??_C@_0EG@PLEPIKLP@21?01?0$1?$CL$1?9$3?9$3?9$4?9$4?9$4?9$4?0$2?$CL@ 00706090     Gerber.obj
 0003:000160e8       ??_C@_0EG@BKJDCGBF@21?01?0$1?$CL$1?9$3?9$3?9$4?9$4?0$2?$CL$2?9$3?9@ 007060e8     Gerber.obj
 0003:0001613c       ??_C@_0O@LIPJDHE@?$CFAMRECTHERM?$CK?6?$AA@ 0070613c     Gerber.obj
 0003:0001614c       ??_C@_0DP@PPALEEKI@G04?5Rectangular?5Thermal?5Macro?0?5p@ 0070614c     Gerber.obj
 0003:00016198       ??_C@_0BJ@ILGNIIMH@1?01?0$3?$CL$3?0$3?9$1?0$3?9$2?$CK?$CF?6?$AA@ 00706198     Gerber.obj
 0003:000161b8       ??_C@_0BI@EFFAJJFP@1?01?0$3?$CL$3?0$1?9$3?0$3?9$2?$CK?6?$AA@ 007061b8     Gerber.obj
 0003:000161d4       ??_C@_0BI@DPDCJAPI@1?01?0$3?$CL$3?0$3?9$1?0$2?9$3?$CK?6?$AA@ 007061d4     Gerber.obj
 0003:000161f0       ??_C@_0BI@FLJLPFIO@1?01?0$3?$CL$3?0$1?9$3?0$2?9$3?$CK?6?$AA@ 007061f0     Gerber.obj
 0003:0001620c       ??_C@_0BP@DGAOAIKJ@21?01?0$1?$CL$1?9$3?9$3?0$2?$CL$2?00?00?00?$CK?6?$AA@ 0070620c     Gerber.obj
 0003:00016234       ??_C@_0BP@LKLAOKMI@21?01?0$1?$CL$1?0$2?$CL$2?9$3?9$3?00?00?00?$CK?6?$AA@ 00706234     Gerber.obj
 0003:0001625c       ??_C@_0M@DPAMJFKI@?$CFAMRNDREC?$CK?6?$AA@ 0070625c     Gerber.obj
 0003:0001626c       ??_C@_0DE@NJBBKCIH@G04?5Rounded?5Rectangle?5Macro?0?5par@ 0070626c     Gerber.obj
 0003:000162ac       ??_C@_04OLOMLHL@?$CFLN?5?$AA@ 007062ac     Gerber.obj
 0003:000162b4       ??_C@_04PDPKAEDN@?5?$CK?$CF?6?$AA@ 007062b4     Gerber.obj
 0003:000162bc       ??_C@_08BFDJGAEG@?$CFMOIN?$CK?$CF?6?$AA@ 007062bc     Gerber.obj
 0003:000162c8       ??_C@_0P@LHMBODJL@?$CFFSLAX24Y24?$CK?$CF?6?$AA@ 007062c8     Gerber.obj
 0003:000162dc       ??_C@_0DG@MFGIABEO@G04?5Scale?3?5100?5percent?0?5Rotated?3@ 007062dc     Gerber.obj
 0003:0001631c       ??_C@_0BA@MOKFOOMN@G04?5?$CFs?5layer?5?$CK?6?$AA@ 0070631c     Gerber.obj
 0003:00016330       ??_C@_0BC@ONLJBKA@bottom?5paste?5mask?$AA@ 00706330     Gerber.obj
 0003:00016348       ??_C@_0P@BBBHKDDI@top?5paste?5mask?$AA@ 00706348     Gerber.obj
 0003:0001635c       ??_C@_04EHBMEDCO@45?40?$AA@ 0070635c     Gerber.obj
 0003:00016368       __real@3fd921fb54442eea    00706368     Gerber.obj
 0003:00016374       ??_C@_04KFKEMOEP@M30?6?$AA@ 00706374     Gerber.obj
 0003:0001637c       ??_C@_0M@OOCEJHAC@X?$CF?46dY?$CF?46d?6?$AA@ 0070637c     Gerber.obj
 0003:0001638c       ??_C@_06KMFKHKHK@T?$CF02d?6?$AA@ 0070638c     Gerber.obj
 0003:00016394       ??_C@_04IAKJDGIK@G90?6?$AA@ 00706394     Gerber.obj
 0003:0001639c       ??_C@_04PLGKLLOL@G05?6?$AA@ 0070639c     Gerber.obj
 0003:000163a4       ??_C@_0N@LIDDFNNK@T?$CF02dC?$CF5?43f?6?$AA@ 007063a4     Gerber.obj
 0003:000163b4       ??_C@_0O@EHFNPGJI@INCH?000?40000?6?$AA@ 007063b4     Gerber.obj
 0003:000163c4       ??_C@_04DGGAKHEO@M48?6?$AA@ 007063c4     Gerber.obj
 0003:000163cc       ??_C@_0BL@CINOPLJB@?$DLHolesize?5?$CFd?5?$DN?5?$CF6?41f?5MILS?6?$AA@ 007063cc     Gerber.obj
 0003:000163f0       ??_7?$CArray@PAVcnet@@ABQAV1@@@6B@ 007063f0     Gerber.obj
 0003:0001640c       ??_7?$CArray@VCAperture@@V1@@@6B@ 0070640c     Gerber.obj
 0003:00016428       ??_7?$CArray@PAVcarea@@ABQAV1@@@6B@ 00706428     Gerber.obj
 0003:00016498       ??_C@_07JNLHAIBP@?$CFlf?5?$CFlf?$AA@ 00706498     gpc_232.obj
 0003:000164a4       ??_C@_0BA@EHDPPPDI@vertex?5creation?$AA@ 007064a4     gpc_232.obj
 0003:000164b8       ??_C@_0BB@OCAHDIFD@contour?5creation?$AA@ 007064b8     gpc_232.obj
 0003:000164cc       ??_C@_0BI@GBJAADOD@gpc?5malloc?5failure?3?5?$CFs?6?$AA@ 007064cc     gpc_232.obj
 0003:000164e8       ??_C@_0BJ@MPFDCKJB@hole?5flag?5array?5creation?$AA@ 007064e8     gpc_232.obj
 0003:00016508       ??_C@_0P@OOOLJDIM@?$CF?5?4?$CKlf?5?$CF?5?4?$CKlf?6?$AA@ 00706508     gpc_232.obj
 0003:0001651c       ??_C@_03PMGGPEJJ@?$CFd?6?$AA@ 0070651c     gpc_232.obj
 0003:00016520       ??_C@_0BB@DMABKBKA@contour?5addition?$AA@ 00706520     gpc_232.obj
 0003:00016534       ??_C@_0BG@JNAHPLPG@contour?5hole?5addition?$AA@ 00706534     gpc_232.obj
 0003:00016550       ??_C@_0BJ@CMCBODNK@hole?5flag?5table?5creation?$AA@ 00706550     gpc_232.obj
 0003:00016570       __real@3cb0000000000000    00706570     gpc_232.obj
 0003:00016580       __real@ffefffffffffffff    00706580     gpc_232.obj
 0003:0001658c       ??_C@_0N@FBEONJIC@sbt?5creation?$AA@ 0070658c     gpc_232.obj
 0003:0001659c       ??_C@_0BE@DDDONHEA@edge?5table?5creation?$AA@ 0070659c     gpc_232.obj
 0003:000165b4       ??_C@_0O@PACJOHFA@LMT?5insertion?$AA@ 007065b4     gpc_232.obj
 0003:000165c4       ??_C@_0BI@KNFEDHGK@scanbeam?5tree?5insertion?$AA@ 007065c4     gpc_232.obj
 0003:000165e0       ??_C@_0N@LELBEKD@ST?5insertion?$AA@ 007065e0     gpc_232.obj
 0003:000165f0       ??_C@_0N@IFBDNEFP@IT?5insertion?$AA@ 007065f0     gpc_232.obj
 0003:00016600       ??_C@_0BF@EBLPDDCK@vertex?5node?5creation?$AA@ 00706600     gpc_232.obj
 0003:0001661c       ??_C@_0BG@KDIMFLIB@polygon?5node?5creation?$AA@ 0070661c     gpc_232.obj
 0003:00016638       ??_C@_0BH@KNBJDBCH@overlap?5table?5creation?$AA@ 00706638     gpc_232.obj
 0003:00016658       __real@7fefffffffffffff    00706658     gpc_232.obj
 0003:00016664       ??_C@_0BG@CIAEENND@Bounding?5box?5creation?$AA@ 00706664     gpc_232.obj
 0003:00016680       ??_C@_0BC@FHGMEMGM@tristrip?5creation?$AA@ 00706680     gpc_232.obj
 0003:00016698       ??_C@_0BH@PBKADNOF@tristrip?5list?5creation?$AA@ 00706698     gpc_232.obj
 0003:000166b4       ??_C@_0BJ@LHDPKNGJ@tristrip?5vertex?5creation?$AA@ 007066b4     gpc_232.obj
 0003:000166d4       ??_C@_0BH@KHNDDJON@tristrip?5node?5creation?$AA@ 007066d4     gpc_232.obj
 0003:000166f0       ??_C@_0CJ@GLPEPJM@?5?5?5?5illegal?5pin?5?$CC?$CFs?$CC?0?5abort?5conv@ 007066f0     ivex_mod_file.obj
 0003:00016724       ??_C@_02EDPJGJDN@Y?9?$AA@  00706724     ivex_mod_file.obj
 0003:00016728       ??_C@_02BFKDMOLL@Y?$CL?$AA@ 00706728     ivex_mod_file.obj
 0003:0001672c       ??_C@_02ECDLADAK@X?9?$AA@  0070672c     ivex_mod_file.obj
 0003:00016730       ??_C@_02BEGBKEIM@X?$CL?$AA@ 00706730     ivex_mod_file.obj
 0003:00016734       ??_C@_04MOOLDHHD@STEP?$AA@ 00706734     ivex_mod_file.obj
 0003:0001673c       ??_C@_03BKLPEICB@DEF?$AA@  0070673c     ivex_mod_file.obj
 0003:00016740       ??_C@_04OEPMCOLO@TEXT?$AA@ 00706740     ivex_mod_file.obj
 0003:00016748       ??_C@_05MHBKONGD@ROUND?$AA@ 00706748     ivex_mod_file.obj
 0003:00016750       ??_C@_06IGBBDGIE@SQUARE?$AA@ 00706750     ivex_mod_file.obj
 0003:00016758       ??_C@_05HKAKDGKI@EMPTY?$AA@ 00706758     ivex_mod_file.obj
 0003:00016760       ??_C@_08GMJKHFPI@MOUNTING?$AA@ 00706760     ivex_mod_file.obj
 0003:0001676c       ??_C@_06NLLAFN@CIRCLE?$AA@ 0070676c     ivex_mod_file.obj
 0003:00016774       ??_C@_03EJHPPJKD@ARC?$AA@  00706774     ivex_mod_file.obj
 0003:00016778       ??_C@_04LFMILBJH@LINE?$AA@ 00706778     ivex_mod_file.obj
 0003:00016780       ??_C@_03OGACKNPE@BOX?$AA@  00706780     ivex_mod_file.obj
 0003:00016784       ??_C@_07IHMFFD@OUTLINE?$AA@ 00706784     ivex_mod_file.obj
 0003:00016790       ??_C@_0BJ@IJPJIADE@?5?5converting?5part?5?$CC?$CFs?$CC?$AN?6?$AA@ 00706790     ivex_mod_file.obj
 0003:000167b0       ??_C@_04IPKHEEB@NAME?$AA@  007067b0     ivex_mod_file.obj
 0003:000167b8       ??_C@_0CI@EIGEBML@?5?5?5?5missing?5pins?0?5aborting?5conve@ 007067b8     ivex_mod_file.obj
 0003:000167e8       ??_C@_04PIAJMOGA@MH?$CFd?$AA@ 007067e8     ivex_mod_file.obj
 0003:000167f0       ??_C@_03JMGAKCCH@END?$AA@  007067f0     ivex_mod_file.obj
 0003:000167f4       ??_C@_05ILMMJGEC@BEGIN?$AA@ 007067f4     ivex_mod_file.obj
 0003:000167fc       ??_C@_01CELHOKLL@?$HN?$AA@ 007067fc     ivex_mod_file.obj
 0003:00016800       ??_C@_04HLMPJHIP@RECT?$AA@ 00706800     ivex_mod_file.obj
 0003:00016808       ??_C@_04CAIMHAPK@OVAL?$AA@ 00706808     ivex_mod_file.obj
 0003:00016810       ??_C@_0BN@BEDCEOJF@c?3?2freesch?2ivex_mod_file?4cpp?$AA@ 00706810     ivex_mod_file.obj
 0003:00016834       ??_C@_01HCONENDN@?$HL?$AA@ 00706834     ivex_mod_file.obj
 0003:00016838       ??_C@_05ELENNHAB@STACK?$AA@ 00706838     ivex_mod_file.obj
 0003:00016840       ??_C@_1DK@DPCFCCNB@?$AAc?$AA?3?$AA?2?$AAf?$AAr?$AAe?$AAe?$AAs?$AAc?$AAh?$AA?2?$AAi?$AAv?$AAe?$AAx?$AA_?$AAm?$AAo?$AAd?$AA_?$AAf?$AAi?$AAl?$AAe?$AA?4?$AAc?$AAp?$AAp?$AA?$AA@ 00706840     ivex_mod_file.obj
 0003:00016888       ??_C@_06EHDCCFK@MICRON?$AA@ 00706888     ivex_mod_file.obj
 0003:00016890       ??_C@_02DPGNLHGP@NM?$AA@   00706890     ivex_mod_file.obj
 0003:00016894       ??_C@_05OJICLOHM@UNITS?$AA@ 00706894     ivex_mod_file.obj
 0003:0001689c       ??_C@_0L@HHHNGMDA@?1?1?5PACKAGE?$AA@ 0070689c     ivex_mod_file.obj
 0003:000168b0       __real@3ff2d97c7f332330    007068b0     ivex_mod_file.obj
 0003:000168c0       __real@3fe921fb54442eea    007068c0     ivex_mod_file.obj
 0003:000168cc       ??_C@_04ILJADHKP@Ivex?$AA@ 007068cc     ivex_mod_file.obj
 0003:000168d8       ??_7?$CArray@Upad_stack_entry@@ABU1@@@6B@ 007068d8     ivex_mod_file.obj
 0003:000168f4       ??_7?$CArray@Umtg_hole@@ABU1@@@6B@ 007068f4     ivex_mod_file.obj
 0003:0001690c       ??_C@_0L@GOKPKJAL@CMainFrame?$AA@ 0070690c     MainFrm.obj
 0003:0001691c       ?classCMainFrame@CMainFrame@@2UCRuntimeClass@@B 0070691c     MainFrm.obj
 0003:00016b04       ??_7CMainFrame@@6B@        00706b04     MainFrm.obj
 0003:00016d20       ??_C@_09LDKJOEFJ@BottomXXX?$AA@ 00706d20     MainFrm.obj
 0003:00016d2c       ??_C@_05CJBACGMB@hello?$AA@ 00706d2c     MainFrm.obj
 0003:00016d38       ??_C@_0GM@ENJBHNPM@?$CK?$CK?$CK?$CK?$CK?$CK?$CK?$CK?$CK?$CK?$CK?$CK?$CK?$CK?$CK?$CK?$CK?$CK?$CK?$CK?$CK?$CK?$CK?$CK?$CK?$CK?$CK?$CK?$CK?$CK?$CK?$CK@ 00706d38     MainFrm.obj
 0003:00016dbc       ??_C@_04HEEDMNIO@Y?3?50?$AA@ 00706dbc     MainFrm.obj
 0003:00016dc4       ??_C@_0M@FDPOOMHK@Y?3?5?99999999?$AA@ 00706dc4     MainFrm.obj
 0003:00016dd4       ??_C@_04EJCDOEDO@X?3?50?$AA@ 00706dd4     MainFrm.obj
 0003:00016ddc       ??_C@_0M@MIFLKABF@X?3?5?99999999?$AA@ 00706ddc     MainFrm.obj
 0003:00016dec       ??_C@_0BN@PFGMLJKC@Failed?5to?5create?5status?5bar?6?$AA@ 00706dec     MainFrm.obj
 0003:00016e10       ??_C@_0BH@DNPIACE@c?3?2freesch?2mainfrm?4cpp?$AA@ 00706e10     MainFrm.obj
 0003:00016e2c       ??_C@_0BK@CNGJMJO@Failed?5to?5create?5toolbar?6?$AA@ 00706e2c     MainFrm.obj
 0003:00016e4c       ??_C@_09GCIFNGNF@WinHeight?$AA@ 00706e4c     MainFrm.obj
 0003:00016e58       ??_C@_08NENJCHMC@WinWidth?$AA@ 00706e58     MainFrm.obj
 0003:00016e64       ??_C@_0M@CLCDHCIE@TopWinCoord?$AA@ 00706e64     MainFrm.obj
 0003:00016e74       ??_C@_0N@IFJPDOKN@LeftWinCoord?$AA@ 00706e74     MainFrm.obj
 0003:00016e84       ??_C@_0L@CIIAKOJB@invalidate?$AA@ 00706e84     MainFrm.obj
 0003:00016e94       ??_C@_07CABOGMN@enquary?$AA@ 00706e94     MainFrm.obj
 0003:00016ea0       ??_C@_04HDMMNHEL@move?$AA@ 00706ea0     MainFrm.obj
 0003:00016ea8       ??_C@_05HHJBIPMO@parts?$AA@ 00706ea8     MainFrm.obj
 0003:00016eb0       ??_C@_04MAHKJMLL@pins?$AA@ 00706eb0     MainFrm.obj
 0003:00016eb8       ??_C@_04NJIOBGCF@jump?$AA@ 00706eb8     MainFrm.obj
 0003:00016ec0       ??_C@_0L@IAGFAEEF@CMyToolBar?$AA@ 00706ec0     MyToolBar.obj
 0003:00016ed0       ?classCMyToolBar@CMyToolBar@@2UCRuntimeClass@@B 00706ed0     MyToolBar.obj
 0003:0001700c       ??_7CMyToolBar@@6B@        0070700c     MyToolBar.obj
 0003:00017218       ??_C@_07LBKGAJKF@?5?5Angle?$AA@ 00707218     MyToolBar.obj
 0003:00017224       ??_C@_09MCECKHPD@?5?5Routing?$AA@ 00707224     MyToolBar.obj
 0003:00017230       ??_C@_0M@IDKCBPOG@?5?5Placement?$AA@ 00707230     MyToolBar.obj
 0003:00017240       ??_C@_0BC@MCIMOKOB@?5?5?5Grids?3?5Visible?$AA@ 00707240     MyToolBar.obj
 0003:00017258       ??_C@_08MGEJDAGA@?5?5?5Units?$AA@ 00707258     MyToolBar.obj
 0003:00017264       ??_C@_03GCDBBDDL@Off?$AA@  00707264     MyToolBar.obj
 0003:00017268       ??_C@_02IBONKJBH@45?$AA@   00707268     MyToolBar.obj
 0003:0001726c       ??_C@_05OAAKFPML@?$CF9?43f?$AA@ 0070726c     MyToolBar.obj
 0003:00017274       ??_C@_1CO@EEGAAKDO@?$AAc?$AA?3?$AA?2?$AAf?$AAr?$AAe?$AAe?$AAs?$AAc?$AAh?$AA?2?$AAn?$AAe?$AAt?$AAl?$AAi?$AAs?$AAt?$AA?4?$AAc?$AAp?$AAp?$AA?$AA@ 00707274     NetList.obj
 0003:000172b0       ??_C@_0FP@JDALMKIL@?5?5Fatal?5overflow?5?9?5CNetList?3?3Get@ 007072b0     NetList.obj
 0003:00017328       __real@400b4fdf3b645a1d    00707328     NetList.obj
 0003:00017338       ??_C@_0EI@NIIAPHJJ@net?5?$CFs?3?5trace?5?$CFs?4?$CFs?5to?5?$CFs?4?$CFs?3?5re@ 00707338     NetList.obj
 0003:00017390       ??_C@_0EJ@NOKJEGGA@net?5?$CFs?3?5stub?5trace?5from?5?$CFs?4?$CFs?3?5r@ 00707390     NetList.obj
 0003:000173e8       ??_C@_0CJ@COLLMLPC@net?5?$CFs?3?5trace?5?$LJ?5?$CFd?5?9?5no?5via?0?5cor@ 007073e8     NetList.obj
 0003:00017420       ??_C@_0FB@KKKEIGMF@net?5?$CFs?3?5stub?5trace?5from?5?$CFs?4?$CFs?3?5s@ 00707420     NetList.obj
 0003:00017484       ??_C@_0CO@IIGMHGGJ@?5?5tee_id?5?$CFd?5found?5in?5trace?0?5not?5@ 00707484     NetList.obj
 0003:000174bc       ??_C@_0DC@MMAAOLLE@?5?5tee_id?5?$CFd?5found?5in?5branch?$CFs?$CFs?0@ 007074bc     NetList.obj
 0003:000174f8       ??_C@_0BC@GGALIFME@?0?5not?5in?5ID?5array?$AA@ 007074f8     NetList.obj
 0003:00017510       ??_C@_0P@LPDBCOOD@?0?5not?5in?5trace?$AA@ 00707510     NetList.obj
 0003:00017524       ??_C@_0CO@GKEDMKIM@?5?5?5?5tee_id?5?$CFd?5not?5found?5in?5proje@ 00707524     NetList.obj
 0003:0001755c       ??_C@_0BJ@PJJAOMKK@?5?5?$CFd?5tee_IDs?5in?5array?3?$AN?6?$AA@ 0070755c     NetList.obj
 0003:0001757c       ??_C@_0CA@LMPPHNBI@?$AN?6Checking?5tees?5and?5branches?3?$AN?6?$AA@ 0070757c     NetList.obj
 0003:000175a4       ??_C@_0CO@FEPOKGBP@?5Warning?$CB?5This?5pin?5already?5used?5@ 007075a4     NetList.obj
 0003:000175e0       ??_C@_0HP@NJBBDLJH@Detected?5pin?5name?5change?5from?5?$CFs@ 007075e0     NetList.obj
 0003:00017678       ??_C@_06KCGFHPNL@_?$CFs?$CFs_?$AA@ 00707678     NetList.obj
 0003:00017680       ??_C@_1BC@PCMDEOKO@?$AAi?$AAv?$AAt?$AAx?$AA?5?$AA?$DO?$AA?5?$AA0?$AA?$AA@ 00707680     NetList.obj
 0003:00017698       ??_C@_0CD@FPOMKNJN@?5?5?5?5Adding?5pin?5?$CFs?4?$CFs?5to?5net?5?$CC?$CFs?$CC@ 00707698     NetList.obj
 0003:000176c4       ??_C@_0CH@KGHCGMMO@?5?5?5?5Removing?5pin?5?$CFs?4?$CFs?5from?5net?5@ 007076c4     NetList.obj
 0003:000176f4       ??_C@_0CO@KBPGPA@?5?5Keeping?5net?5?$CC?$CFs?$CC?0?5not?5in?5impor@ 007076f4     NetList.obj
 0003:0001772c       ??_C@_0BG@BPFEBNLN@?5?5Removing?5net?5?$CC?$CFs?$CC?$AN?6?$AA@ 0070772c     NetList.obj
 0003:00017748       ??_C@_0DD@FKPEBPPI@?$CK?$CK?$CK?$CK?$CK?5?$CFd?5ERROR?$CIS?$CJ?0?5?$CFd?5FIXED?0?5?$CFd?5@ 00707748     NetList.obj
 0003:00017788       ??_C@_0DB@FFEOLENP@ERROR?3?5Net?5?$CC?$CFs?$CC?3?5connection?5from@ 00707788     NetList.obj
 0003:000177c4       ??_C@_0CK@HICDBFDO@?5?5?5?5?5?5?5?5?5?5?5?5?5?5Fixed?3?5Connection?5@ 007077c4     NetList.obj
 0003:000177f8       ??_C@_0CP@PBMPKEKJ@ERROR?3?5Net?5?$CC?$CFs?$CC?3?5connection?5with@ 007077f8     NetList.obj
 0003:00017830       ??_C@_0EK@ENJEBKIO@ERROR?3?5Net?5?$CC?$CFs?$CC?3?5pin?5?$CC?$CFs?4?$CFs?$CC?5con@ 00707830     NetList.obj
 0003:00017888       ??_C@_0EF@CPDNBPBG@Warning?3?5Net?5?$CC?$CFs?$CC?3?5pin?5?$CC?$CFs?4?$CFs?$CC?5c@ 00707888     NetList.obj
 0003:000178e0       ??_C@_0EL@OHMJMLGN@Warning?3?5Net?5?$CC?$CFs?$CC?3?5pin?5?$CC?$CFs?4?$CFs?$CC?5c@ 007078e0     NetList.obj
 0003:00017940       ??_C@_0FD@MLHCKHA@ERROR?3?5Net?5?$CC?$CFs?$CC?3?5pin?5?$CC?$CFs?4?$CFs?$CC?5con@ 00707940     NetList.obj
 0003:000179a8       ??_C@_0EC@KBOIJPJO@ERROR?3?5Net?5?$CC?$CFs?$CC?3?5pin?5?$CC?$CFs?4?$CFs?$CC?5con@ 007079a8     NetList.obj
 0003:000179f8       ??_C@_0DK@CACFMPLF@ERROR?3?5Net?5?$CC?$CFs?$CC?3?5pin?5?$CC?$CFs?4?$CFs?$CC?5con@ 007079f8     NetList.obj
 0003:00017a40       ??_C@_0EF@MGAPFNCN@ERROR?3?5Net?5?$CC?$CFs?$CC?3?5pin?5?$CC?$CFs?4?$CFs?$CC?5not@ 00707a40     NetList.obj
 0003:00017a98       ??_C@_0EM@JPLODHPF@?5?5?5?5?$CD?$CD?$CD?5?5?5To?5fix?5this?0?5fix?5any?5o@ 00707a98     NetList.obj
 0003:00017af8       ??_C@_0FD@ECECKDHH@ERROR?3?5Net?5?$CC?$CFs?$CC?3?5pin?5?$CC?$CFs?4?$CFs?$CC?5not@ 00707af8     NetList.obj
 0003:00017b60       ??_C@_0EI@NCLHPHGA@Warning?3?5Net?5?$CC?$CFs?$CC?3?5pin?5?$CC?$CFs?4?$CFs?$CC?5c@ 00707b60     NetList.obj
 0003:00017bb8       ??_C@_0ED@KMBJMBFL@Warning?3?5Net?5?$CC?$CFs?$CC?3?5pin?5?$CC?$CFs?4?$CFs?$CC?5n@ 00707bb8     NetList.obj
 0003:00017c08       ??_C@_0FK@PODJELBD@?5?5?5?5?$CD?$CD?$CD?5?5?5To?5fix?5this?0?5delete?5pi@ 00707c08     NetList.obj
 0003:00017c74       ??_C@_0DJ@HKJKFKDP@ERROR?3?5Net?5?$CC?$CFs?$CC?3?5pin?5?$CC?$CFs?$CC?5alread@ 00707c74     NetList.obj
 0003:00017cb8       ??_C@_0CM@ELKGHACA@?5?5?5?5?5?5?5?5?5?5?5?5?5?5Fixed?3?5Connections@ 00707cb8     NetList.obj
 0003:00017cec       ??_C@_0DF@CGHJKIGJ@ERROR?3?5Net?5?$CC?$CFs?$CC?3?5pin?5?$CC?$CFs?$CC?5is?5dup@ 00707cec     NetList.obj
 0003:00017d2c       ??_C@_0CE@INKPAPDL@Warning?3?5Net?5?$CC?$CFs?$CC?3?5has?5single?5pi@ 00707d2c     NetList.obj
 0003:00017d58       ??_C@_0CB@CBNFKGMO@Warning?3?5Net?5?$CC?$CFs?$CC?3?5has?5no?5pins?$AN?6@ 00707d58     NetList.obj
 0003:00017d80       ??_C@_0FH@NIMPCFGC@?5?5?5?5?$CD?$CD?$CD?5?5?5To?5fix?5this?0?5delete?5on@ 00707d80     NetList.obj
 0003:00017de8       ??_C@_0BP@FJMNJELF@ERROR?3?5Net?5?$CC?$CFs?$CC?5is?5duplicate?$AN?6?$AA@ 00707de8     NetList.obj
 0003:00017e10       ??_C@_0BM@JJHCHEBO@?$CK?$CK?$CK?$CK?$CK?5Checking?5Nets?5?$CK?$CK?$CK?$CK?$CK?$AN?6?$AA@ 00707e10     NetList.obj
 0003:00017e34       ??_C@_0DG@OMBNGJLN@Net?5?$CC?$CFs?$CC?3?5partially?5routed?5conne@ 00707e34     NetList.obj
 0003:00017e74       ??_C@_0CO@BIDGKDEB@Net?5?$CC?$CFs?$CC?3?5unrouted?5connection?5fr@ 00707e74     NetList.obj
 0003:00017eac       ??_C@_0DA@LMFBBHKJ@Net?5?$CC?$CFs?$CC?3?5partially?5routed?5stub?5@ 00707eac     NetList.obj
 0003:00017ee8       ??_C@_0BM@BBGHKMKO@Combine?5these?5copper?5areas?$DP?$AA@ 00707ee8     NetList.obj
 0003:00017f0c       ??_C@_0DD@DBGNHBPB@If?5they?5are?5complex?0?5this?5may?5ta@ 00707f0c     NetList.obj
 0003:00017f4c       ??_C@_0DM@KHHHFDFG@Areas?5?$CFd?5and?5?$CFd?5of?5net?5?$CC?$CFs?$CC?5inte@ 00707f4c     NetList.obj
 0003:00017f94       ??_C@_0BM@FDOAMDCK@success?3?5all?5paths?5routed?$AN?6?$AA@ 00707f94     NetList.obj
 0003:00017fb8       ??_C@_0CA@DFAEHFDH@?5to?5?$CFs?5at?5x?$DN?$CFd?5y?$DN?$CFd?0?5layer?5?$CFd?$AN?6?$AA@ 00707fb8     NetList.obj
 0003:00017fe0       ??_C@_0BC@INJPAOC@?0?5?$CFs?5at?5x?$DN?$CFd?5y?$DN?$CFd?$AA@ 00707fe0     NetList.obj
 0003:00017ff8       ??_C@_0BP@LDDFMMIN@error?3?5path?5?$CFd?5failed?5to?5route?$AA@ 00707ff8     NetList.obj
 0003:00018020       ??_C@_04OEGCEJMP@?9n?$CFd?$AA@ 00708020     NetList.obj
 0003:00018028       ??_C@_03DKFFIKHL@n?$CFd?$AA@ 00708028     NetList.obj
 0003:0001802c       ??_C@_08GFBGLHA@branch?3?5?$AA@ 0070802c     NetList.obj
 0003:00018038       ??_C@_09IJHGBDBC@pin?9pin?3?5?$AA@ 00708038     NetList.obj
 0003:00018044       ??_C@_06DDMFLBDD@stub?3?5?$AA@ 00708044     NetList.obj
 0003:0001804c       ??_C@_0CN@HPKLHHCP@?5?5node?5?$CFd?3?5?$CFs?5x?$DN?$CFd?5y?$DN?$CFd?5layer?$DN?$CFd@ 0070804c     NetList.obj
 0003:00018084       ??_C@_08JDGLABGB@junction?$AA@ 00708084     NetList.obj
 0003:00018090       ??_C@_03KLAPHFOK@via?$AA@  00708090     NetList.obj
 0003:00018094       ??_C@_03JPMDGPJ@pin?$AA@   00708094     NetList.obj
 0003:00018098       ??_C@_0BB@BKLIGIOA@num?5nodes?5?$DN?5?$CFd?$AN?6?$AA@ 00708098     NetList.obj
 0003:000180ac       ??_C@_0BF@PHGPDFJK@?$AN?6routing?5net?5?$CC?$CFs?$CC?$AN?6?$AA@ 007080ac     NetList.obj
 0003:000180cc       ??_7?$CArray@PAVdl_element@@ABQAV1@@@6B@ 007080cc     NetList.obj
 0003:000180e8       ??_7?$CArray@UtagRECT@@ABU1@@@6B@ 007080e8     NetList.obj
 0003:00018104       ??_7?$CArray@Vcconnect@@ABV1@@@6B@ 00708104     NetList.obj
 0003:00018120       ??_7?$CArray@Vcpin@@ABV1@@@6B@ 00708120     NetList.obj
 0003:0001813c       ??_7?$CArray@Vcarea@@V1@@@6B@ 0070813c     NetList.obj
 0003:00018158       ??_7?$CArray@Vcseg@@ABV1@@@6B@ 00708158     NetList.obj
 0003:00018174       ??_7?$CArray@Vcvertex@@ABV1@@@6B@ 00708174     NetList.obj
 0003:0001818c       ??_C@_1CG@DONHGCLF@?$AAm?$AA_?$AAp?$AAC?$AAu?$AAr?$AAr?$AAe?$AAn?$AAt?$AAN?$AAe?$AAt?$AA?5?$AA?$CB?$AA?$DN?$AA?5?$AA0?$AA?$AA@ 0070818c     Net_iter.obj
 0003:000181bc       ??_C@_1DA@DJPJCIEB@?$AAc?$AA?3?$AA?2?$AAf?$AAr?$AAe?$AAe?$AAs?$AAc?$AAh?$AA?2?$AAn?$AAe?$AAt?$AA_?$AAi?$AAt?$AAe?$AAr?$AA?4?$AAc?$AAp?$AAp?$AA?$AA@ 007081bc     Net_iter.obj
 0003:000181f8       ??_C@_0BG@ILOHEINO@c?3?2freesch?2linklist?4h?$AA@ 007081f8     Net_iter.obj
 0003:00018214       ??_C@_0BI@JBILNJMF@c?3?2freesch?2partlist?4cpp?$AA@ 00708214     PartList.obj
 0003:00018230       ??_C@_0CB@CJDFCELI@Maximum?5number?5of?5parts?5exceeded@ 00708230     PartList.obj
 0003:00018258       ??_C@_1DA@LAPPEDIC@?$AAc?$AA?3?$AA?2?$AAf?$AAr?$AAe?$AAe?$AAs?$AAc?$AAh?$AA?2?$AAp?$AAa?$AAr?$AAt?$AAl?$AAi?$AAs?$AAt?$AA?4?$AAc?$AAp?$AAp?$AA?$AA@ 00708258     PartList.obj
 0003:00018298       __real@4022000000000000    00708298     PartList.obj
 0003:000182a8       __real@4036000000000000    007082a8     PartList.obj
 0003:000182b4       ??_C@_03PCBNCGFH@pos?$AA@  007082b4     PartList.obj
 0003:000182b8       ??_C@_05KFCIHKGL@shape?$AA@ 007082b8     PartList.obj
 0003:000182c0       ??_C@_07KNEGBPNO@package?$AA@ 007082c0     PartList.obj
 0003:000182cc       ??_C@_05MFEJDJP@value?$AA@ 007082cc     PartList.obj
 0003:000182d4       ??_C@_08FLANKJAE@ref_text?$AA@ 007082d4     PartList.obj
 0003:000182e0       ??_C@_04FPLDHIIH@part?$AA@ 007082e0     PartList.obj
 0003:000182e8       ??_C@_03GCDGINBO@ref?$AA@  007082e8     PartList.obj
 0003:000182ec       ??_C@_0BH@DPIAIPMN@?5?5pos?3?5?$CFd?5?$CFd?5?$CFd?5?$CFd?5?$CFd?6?$AA@ 007082ec     PartList.obj
 0003:00018308       ??_C@_0CB@KJNNEL@?5?5value?3?5?$CC?$CFs?$CC?5?$CFd?5?$CFd?5?$CFd?5?$CFd?5?$CFd?5?$CFd?6@ 00708308     PartList.obj
 0003:00018330       ??_C@_0BA@INIALMIB@?5?5merge?3?5?$CFd?5?$CFd?6?$AA@ 00708330     PartList.obj
 0003:00018344       ??_C@_0P@BFFDLPHP@?5?5shape?3?5?$CC?$CFs?$CC?6?$AA@ 00708344     PartList.obj
 0003:00018358       ??_C@_0BP@KOIEEPGL@?5?5ref_text?3?5?$CFd?5?$CFd?5?$CFd?5?$CFd?5?$CFd?5?$CFd?6?$AA@ 00708358     PartList.obj
 0003:00018380       ??_C@_09IOCIPGD@part?3?5?$CFs?6?$AA@ 00708380     PartList.obj
 0003:0001838c       ??_C@_0CG@IMMJLPKC@?5?5Adding?5footprint?5for?5part?5?$CFs?5?$CC@ 0070838c     PartList.obj
 0003:000183bc       ??_C@_0DE@LBOEJCLH@?5?5Changing?5footprint?5of?5part?5?$CFs?5@ 007083bc     PartList.obj
 0003:000183fc       ??_C@_0BF@CKKNCIKI@?5?5Removing?5part?5?$CFs?$AN?6?$AA@ 007083fc     PartList.obj
 0003:00018418       ??_C@_0CN@FPNINPOF@?5?5Keeping?5part?5?$CFs?5but?5removing?5c@ 00708418     PartList.obj
 0003:00018450       ??_C@_0CE@HNMDGJBJ@?5?5Keeping?5part?5?$CFs?5and?5connection@ 00708450     PartList.obj
 0003:0001847c       ??_C@_0CF@EDIGDJLI@Sorry?3?5Parts?5can?8t?5be?5renumbered@ 0070847c     PartList.obj
 0003:000184a8       ??_C@_0CJ@EHHJKEAG@?$CK?$CK?$CK?$CK?$CK?5?$CFd?5ERROR?$CIS?$CJ?0?5?$CFd?5WARNING?$CIS?$CJ@ 007084a8     PartList.obj
 0003:000184e0       ??_C@_0EE@IFAPCGDA@ERROR?3?5Part?5?$CC?$CFs?$CC?5pin?5?$CC?$CFs?$CC?5connec@ 007084e0     PartList.obj
 0003:00018538       ??_C@_0EO@NCECPFGB@ERROR?3?5Part?5?$CC?$CFs?$CC?5pin?5?$CC?$CFs?$CC?5connec@ 00708538     PartList.obj
 0003:00018598       ??_C@_0FB@IMCMIICC@ERROR?3?5Part?5?$CC?$CFs?$CC?5pin?5?$CC?$CFs?$CC?5connec@ 00708598     PartList.obj
 0003:000185fc       ??_C@_0CG@FLOGMGKK@Warning?3?5Part?5?$CC?$CFs?$CC?5has?5no?5footpr@ 007085fc     PartList.obj
 0003:00018630       ??_C@_0FP@MEJCLLPA@?5?5?5?5?$CD?$CD?$CD?5?5?5To?5fix?5this?0?5delete?5on@ 00708630     PartList.obj
 0003:000186a4       ??_C@_0BO@OKIINKCI@ERROR?3?5Part?5?$CC?$CFs?$CC?5duplicated?$AN?6?$AA@ 007086a4     PartList.obj
 0003:000186c8       ??_C@_0BN@FEEICCFD@?$CK?$CK?$CK?$CK?$CK?5Checking?5Parts?5?$CK?$CK?$CK?$CK?$CK?$AN?6?$AA@ 007086c8     PartList.obj
 0003:000186f0       ??_C@_0PM@EBBGBPAH@WARNING?3?5You?5are?5loading?5footpri@ 007086f0     PartList.obj
 0003:00018820       ??_C@_07BLEMKGEK@HDR?9100?$AA@ 00708820     PartList.obj
 0003:00018830       ??_7?$CArray@Vpart_pin@@ABV1@@@6B@ 00708830     PartList.obj
 0003:00018984       ??_7CPathDialog@@6B@       00708984     PathDialog.obj
 0003:00018994       ??_7CPathDialogSub@@6B@    00708994     PathDialog.obj
 0003:00018b44       ??_C@_04BMCEDOKO@EDIT?$AA@ 00708b44     PathDialog.obj
 0003:00018b50       ??_C@_1FG@BPOMMOH@?$AAp?$AAD?$AAl?$AAg?$AA?9?$AA?$DO?$AAm?$AA_?$AAP?$AAa?$AAt?$AAh?$AAD?$AAi?$AAa?$AAl?$AAo?$AAg?$AAS?$AAu?$AAb?$AA?4?$AAS?$AAu?$AAb?$AAc?$AAl?$AAa?$AAs?$AAs?$AAW?$AAi@ 00708b50     PathDialog.obj
 0003:00018bb8       ??_C@_1DE@HLDDLDGG@?$AAc?$AA?3?$AA?2?$AAf?$AAr?$AAe?$AAe?$AAs?$AAc?$AAh?$AA?2?$AAp?$AAa?$AAt?$AAh?$AAd?$AAi?$AAa?$AAl?$AAo?$AAg?$AA?4?$AAc?$AAp?$AAp?$AA?$AA@ 00708bb8     PathDialog.obj
 0003:00018c0c       ??_C@_0BL@KFMCOIOE@c?3?2freesch?2php_polygon?4cpp?$AA@ 00708c0c     php_polygon.obj
 0003:00018c30       ??_C@_0HD@NAMDABKE@?5?5?5?5?5?5perturb?3?6?5?5?5?5?5?5new?5s?5?$DN?5?$CI?$CFf@ 00708c30     php_polygon.obj
 0003:00018cbc       ??_C@_1DG@ELIGAML@?$AAc?$AA?3?$AA?2?$AAf?$AAr?$AAe?$AAe?$AAs?$AAc?$AAh?$AA?2?$AAp?$AAh?$AAp?$AA_?$AAp?$AAo?$AAl?$AAy?$AAg?$AAo?$AAn?$AA?4?$AAc?$AAp?$AAp?$AA?$AA@ 00708cbc     php_polygon.obj
 0003:00018cfc       ??_C@_0CC@HHKEAFBF@?5?5?5?5ints?3?5ua?5?$DN?5?$CF?417f?0?5ub?5?$DN?5?$CF?417f@ 00708cfc     php_polygon.obj
 0003:00018d28       __real@c1bdcd6500000000    00708d28     php_polygon.obj
 0003:00018d38       __real@41cdcd6500000000    00708d38     php_polygon.obj
 0003:00018d48       __real@4187d78400000000    00708d48     php_polygon.obj
 0003:00018d58       __real@c1cdcd6500000000    00708d58     php_polygon.obj
 0003:00018d68       __real@c187d78400000000    00708d68     php_polygon.obj
 0003:00018d74       ??_C@_0BL@IIEACNFL@boolean?4?4?4phase?51?5testing?6?$AA@ 00708d74     php_polygon.obj
 0003:00018d94       ??_C@_0CN@DMIFPBO@?5?5?5?5?5?5int?5at?5?$CI?$CFf?0?$CFf?$CJ?5aS?5?$DN?5?$CF?417f?0@ 00708d94     php_polygon.obj
 0003:00018dcc       ??_C@_0BN@NCONFDBL@?5?5c?$DN?$CI?$CFf?0?$CFf?$CJ?5to?5?$CI?$CFf?0?$CFf?$CJ?5I?$DN?$CFd?6?$AA@ 00708dcc     php_polygon.obj
 0003:00018df0       ??_C@_0BL@HNOINADA@s?$DN?$CI?$CFf?0?$CFf?$CJ?5to?5?$CI?$CFf?0?$CFf?$CJ?5I?$DN?$CFd?6?$AA@ 00708df0     php_polygon.obj
 0003:00018e10       ??_C@_0BD@JNADFALH@boolean?4?4?4phase?51?6?$AA@ 00708e10     php_polygon.obj
 0003:00018e28       ??_C@_0CC@FBOOCFPF@c?3?2freesch?2php_polygon_vertex?4cp@ 00708e28     php_polygon_vertex.obj
 0003:00018e50       ??_C@_0BI@LPEHECJG@c?3?2freesch?2polyline?4cpp?$AA@ 00708e50     PolyLine.obj
 0003:00018e6c       ??_C@_1DA@EACOPAKE@?$AAc?$AA?3?$AA?2?$AAf?$AAr?$AAe?$AAe?$AAs?$AAc?$AAh?$AA?2?$AAp?$AAo?$AAl?$AAy?$AAl?$AAi?$AAn?$AAe?$AA?4?$AAc?$AAp?$AAp?$AA?$AA@ 00708e6c     PolyLine.obj
 0003:00018ea8       __real@c11f018000000000    00708ea8     PolyLine.obj
 0003:00018eb8       __real@3fe6a09cc319c5a4    00708eb8     PolyLine.obj
 0003:00018ec8       __real@c066800000000000    00708ec8     PolyLine.obj
 0003:00018ed8       ??_7?$CArray@VCPolyPt@@ABV1@@@6B@ 00708ed8     PolyLine.obj
 0003:00018ef4       ??_7?$CArray@VCContourData@@ABV1@@@6B@ 00708ef4     PolyLine.obj
 0003:00018f0c       ??_C@_0BB@IHMEONLD@SHGetFolderPathA?$AA@ 00708f0c     QAFDebug.obj
 0003:00018f20       ??_C@_0N@HCMEEEOA@shfolder?4dll?$AA@ 00708f20     QAFDebug.obj
 0003:00018f30       ??_C@_0M@KFDNOLCO@shell32?4dll?$AA@ 00708f30     QAFDebug.obj
 0003:00018f40       ??_C@_0P@KFPBMHHB@FAILED?$CI0x?$CF08X?$CJ?$AA@ 00708f40     QAFDebug.obj
 0003:00018f54       ??_C@_0BA@PDMOOHID@QAFDbgMemFile01?$AA@ 00708f54     QAFDebug.obj
 0003:00018f68       ??_C@_0O@PPMOKONL@error?4old?4log?$AA@ 00708f68     QAFDebug.obj
 0003:00018f78       ??_C@_09EGLJBNGG@error?4log?$AA@ 00708f78     QAFDebug.obj
 0003:00018f84       ??_C@_0BA@EKKJBNIK@QAFERRORLOGPATH?$AA@ 00708f84     QAFDebug.obj
 0003:00018f98       ??_C@_0N@OLJHKIGK@FreePCB?2Log?2?$AA@ 00708f98     QAFDebug.obj
 0003:00018fa8       ??_C@_0BC@PNJDLGFI@QAFDebugMutex001A?$AA@ 00708fa8     QAFDebug.obj
 0003:00018ff0       ??_C@_0FN@MJFECDCD@QAFD_FreePCB?5Debug?5System?5Error?5@ 00708ff0     QAFDebug.obj
 0003:00019060       ??_C@_0EI@CAEOKKOE@QAFD_FreePCB?5Debug?5System?5Error?5@ 00709060     QAFDebug.obj
 0003:000190b8       ??_C@_0DL@LLGAKMB@QAFD_FreePCB?5Debug?5System?5Error?5@ 007090b8     QAFDebug.obj
 0003:00019100       ??_C@_0JF@MDLEMIFJ@QAFD_FreePCB?5?$FL?$CF04d?9?$CF02d?9?$CF02d?5?$CF02@ 00709100     QAFDebug.obj
 0003:000191b8       ??_C@_0EH@IDGJMEBJ@QAFD_FreePCB?5Debug?5System?5Error?5@ 007091b8     QAFDebug.obj
 0003:00019210       ??_C@_0M@IPILFDFN@?$CFs?$CI?$CFd?$CJ?5?3?5?$CFs?$AA@ 00709210     QAFDebug.obj
 0003:00019220       ??_C@_0FP@CGGIFKFJ@QAFD_FreePCB?5Debug?5System?5Error?5@ 00709220     QAFDebug.obj
 0003:00019294       ??_C@_0DB@BLHIBGBF@?$FLCould?5not?5find?5any?5description?5@ 00709294     QAFDebug.obj
 0003:000192d0       ??_C@_09JJEJBEGO@Failed?$CB?$AN?6?$AA@ 007092d0     RTcall.obj
 0003:000192dc       ??_C@_0BF@NJEKJDIG@c?3?2freesch?2shape?4cpp?$AA@ 007092dc     Shape.obj
 0003:000192f8       ??_C@_1CK@HOLHGOMP@?$AAc?$AA?3?$AA?2?$AAf?$AAr?$AAe?$AAe?$AAs?$AAc?$AAh?$AA?2?$AAs?$AAh?$AAa?$AAp?$AAe?$AA?4?$AAc?$AAp?$AAp?$AA?$AA@ 007092f8     Shape.obj
 0003:0001932c       ??_C@_04OKGDLNCL@NONE?$AA@ 0070932c     Shape.obj
 0003:00019334       ??_C@_07POPAGMNJ@OCTAGON?$AA@ 00709334     Shape.obj
 0003:00019340       ??_C@_07EPDBANBO@RNDRECT?$AA@ 00709340     Shape.obj
 0003:0001934c       ??_C@_06DMGDKOPD@RNDSQ1?$AA@ 0070934c     Shape.obj
 0003:00019354       ??_C@_04PGKHALII@TBRL?$AA@ 00709354     Shape.obj
 0003:0001935c       ??_C@_04GMHFGBOJ@BTRL?$AA@ 0070935c     Shape.obj
 0003:00019364       ??_C@_04DEFOLKCN@TBLR?$AA@ 00709364     Shape.obj
 0003:0001936c       ??_C@_04KOIMNAEM@BTLR?$AA@ 0070936c     Shape.obj
 0003:00019374       ??_C@_04DDGNICH@RLTB?$AA@  00709374     Shape.obj
 0003:0001937c       ??_C@_04HAFLCDC@RLBT?$AA@  0070937c     Shape.obj
 0003:00019384       ??_C@_04GMCANBGI@LRTB?$AA@ 00709384     Shape.obj
 0003:0001938c       ??_C@_04GIBDLLHN@LRBT?$AA@ 0070938c     Shape.obj
 0003:00019394       ??_C@_04PNDFLOPF@P1RC?$AA@ 00709394     Shape.obj
 0003:0001939c       ??_C@_04OLINDAIP@P1LC?$AA@ 0070939c     Shape.obj
 0003:000193a4       ??_C@_04OBBDBNIF@P1BC?$AA@ 007093a4     Shape.obj
 0003:000193ac       ??_C@_04PJLIMCEH@P1TC?$AA@ 007093ac     Shape.obj
 0003:000193b4       ??_C@_04HOCANOII@P1TL?$AA@ 007093b4     Shape.obj
 0003:000193bc       ??_C@_04KKGBOBFH@P1TR?$AA@ 007093bc     Shape.obj
 0003:000193c4       ??_C@_04LCMKDOJF@P1BR?$AA@ 007093c4     Shape.obj
 0003:000193cc       ??_C@_04GGILABEK@P1BL?$AA@ 007093cc     Shape.obj
 0003:000193d4       ??_C@_04FJFEHHNM@GRID?$AA@ 007093d4     Shape.obj
 0003:000193dc       ??_C@_04LNNOLBLC@CHIP?$AA@ 007093dc     Shape.obj
 0003:000193e4       ??_C@_03HPAFEKPL@HDR?$AA@  007093e4     Shape.obj
 0003:000193e8       ??_C@_03GDKGOEAC@QFP?$AA@  007093e8     Shape.obj
 0003:000193ec       ??_C@_04HJIEAPPD@PLCC?$AA@ 007093ec     Shape.obj
 0003:000193f4       ??_C@_04CBAGFPBL@SOIC?$AA@ 007093f4     Shape.obj
 0003:000193fc       ??_C@_0N@PFJKEAOD@bottom_paste?$AA@ 007093fc     Shape.obj
 0003:0001940c       ??_C@_0M@PNHGHMCN@bottom_mask?$AA@ 0070940c     Shape.obj
 0003:0001941c       ??_C@_0L@GJBFOEBO@bottom_pad?$AA@ 0070941c     Shape.obj
 0003:0001942c       ??_C@_09GGNLGIDG@inner_pad?$AA@ 0070942c     Shape.obj
 0003:00019438       ??_C@_09IEEIPHPA@top_paste?$AA@ 00709438     Shape.obj
 0003:00019444       ??_C@_08JOEEOGGJ@top_mask?$AA@ 00709444     Shape.obj
 0003:00019450       ??_C@_07FNODHJAD@top_pad?$AA@ 00709450     Shape.obj
 0003:0001945c       ??_C@_0DJ@HCGOHKCF@Footprint?5?$CC?$CFs?$CC?3?5pin?5name?5?$CC?$CFs?$CC?5to@ 0070945c     Shape.obj
 0003:000194a0       ??_C@_06LNGFDJEC@n_pins?$AA@ 007094a0     Shape.obj
 0003:000194a8       ??_C@_0P@BHPACGAB@close_polyline?$AA@ 007094a8     Shape.obj
 0003:000194bc       ??_C@_0M@OIBPMAPE@next_corner?$AA@ 007094bc     Shape.obj
 0003:000194cc       ??_C@_0BB@PEKFHNBF@outline_polyline?$AA@ 007094cc     Shape.obj
 0003:000194e0       ??_C@_0BA@JPJMCKHC@outline_polygon?$AA@ 007094e0     Shape.obj
 0003:000194f4       ??_C@_04CIMGMMMG@text?$AA@ 007094f4     Shape.obj
 0003:000194fc       ??_C@_08FGIFOFAK@adhesive?$AA@ 007094fc     Shape.obj
 0003:00019508       ??_C@_08JOJIKHG@centroid?$AA@ 00709508     Shape.obj
 0003:00019514       ??_C@_0L@NHGAEJON@value_text?$AA@ 00709514     Shape.obj
 0003:00019524       ??_C@_08HHDFFLDI@sel_rect?$AA@ 00709524     Shape.obj
 0003:00019530       ??_C@_0M@PPJNHBMP@description?$AA@ 00709530     Shape.obj
 0003:00019540       ??_C@_06LIPPPFCI@author?$AA@ 00709540     Shape.obj
 0003:00019548       ??_C@_03OJMAPEGJ@str?$AA@  00709548     Shape.obj
 0003:0001954c       ??_C@_03JBJLGPFL@end?$AA@  0070954c     Shape.obj
 0003:00019550       ??_C@_0CP@FBFDDJJC@Footprint?5name?5?$CC?$CFs?$CC?5too?5long?6Tru@ 00709550     Shape.obj
 0003:00019588       ??_C@_04MEMAJGDJ@name?$AA@ 00709588     Shape.obj
 0003:00019590       ??_C@_0CE@OJCIJPDJ@?5?5?5?5?5?5bottom_paste?3?5?$CFd?5?$CFs?5?$CFs?5?$CFs?5@ 00709590     Shape.obj
 0003:000195bc       ??_C@_0CD@PDNMPJJO@?5?5?5?5?5?5bottom_mask?3?5?$CFd?5?$CFs?5?$CFs?5?$CFs?5?$CF@ 007095bc     Shape.obj
 0003:000195e8       ??_C@_0CC@HFOKCLLI@?5?5?5?5?5?5bottom_pad?3?5?$CFd?5?$CFs?5?$CFs?5?$CFs?5?$CFs@ 007095e8     Shape.obj
 0003:00019610       ??_C@_0CF@FEEOLKAN@?5?5?5?5?5?5bottom_pad?3?5?$CFd?5?$CFs?5?$CFs?5?$CFs?5?$CFs@ 00709610     Shape.obj
 0003:0001963c       ??_C@_0CE@IGGGLJJB@?5?5?5?5?5?5inner_pad?3?5?$CFd?5?$CFs?5?$CFs?5?$CFs?5?$CFs?5@ 0070963c     Shape.obj
 0003:00019668       ??_C@_0CB@CEFPKABB@?5?5?5?5?5?5top_paste?3?5?$CFd?5?$CFs?5?$CFs?5?$CFs?5?$CFs?6@ 00709668     Shape.obj
 0003:00019690       ??_C@_0CA@FDOFECGL@?5?5?5?5?5?5top_mask?3?5?$CFd?5?$CFs?5?$CFs?5?$CFs?5?$CFs?6?$AA@ 00709690     Shape.obj
 0003:000196b8       ??_C@_0BP@EGLDKGFI@?5?5?5?5?5?5top_pad?3?5?$CFd?5?$CFs?5?$CFs?5?$CFs?5?$CFs?6?$AA@ 007096b8     Shape.obj
 0003:000196e0       ??_C@_0CC@GBDGGFMI@?5?5?5?5?5?5top_pad?3?5?$CFd?5?$CFs?5?$CFs?5?$CFs?5?$CFs?5?$CFd@ 007096e0     Shape.obj
 0003:00019708       ??_C@_0DC@LKACDBGH@Error?3?5Trying?5to?5write?5bad?5pad?5s@ 00709708     Shape.obj
 0003:00019744       ??_C@_0CA@BLFBMNHH@?5?5?5?5pin?3?5?$CC?$CFs?$CC?5?$CFs?5?$CFs?5?$CFs?5?$CFd?5?$CC?$CFs?$CC?6?$AA@ 00709744     Shape.obj
 0003:0001976c       ??_C@_0O@CCOODGAM@?5?5n_pins?3?5?$CFd?6?$AA@ 0070976c     Shape.obj
 0003:0001977c       ??_C@_0BI@BPDOFPF@?5?5?5?5close_polyline?3?5?$CFd?6?$AA@ 0070977c     Shape.obj
 0003:00019798       ??_C@_0BL@GFHGBPDL@?5?5?5?5next_corner?3?5?$CFs?5?$CFs?5?$CFd?6?$AA@ 00709798     Shape.obj
 0003:000197b8       ??_C@_0CH@CPPKBNLI@?5?5outline_polyline?3?5?$CFs?5?$CFs?5?$CFs?5?$CFd?5@ 007097b8     Shape.obj
 0003:000197e8       ??_C@_0CD@IOJLNBCB@?5?5text?3?5?$CC?$CFs?$CC?5?$CFs?5?$CFs?5?$CFs?5?$CFd?5?$CFs?5?$CFd?5?$CF@ 007097e8     Shape.obj
 0003:00019814       ??_C@_0BJ@MKEGPFGP@?5?5adhesive?3?5?$CFd?5?$CFs?5?$CFs?5?$CFs?6?$AA@ 00709814     Shape.obj
 0003:00019834       ??_C@_0BJ@PMCIGFPC@?5?5centroid?3?5?$CFd?5?$CFs?5?$CFs?5?$CFd?6?$AA@ 00709834     Shape.obj
 0003:00019854       ??_C@_0BO@PCFFDILP@?5?5value_text?3?5?$CFs?5?$CFs?5?$CFs?5?$CFd?5?$CFs?6?$AA@ 00709854     Shape.obj
 0003:00019878       ??_C@_0BM@DKAGBIBF@?5?5ref_text?3?5?$CFs?5?$CFs?5?$CFs?5?$CFd?5?$CFs?6?$AA@ 00709878     Shape.obj
 0003:0001989c       ??_C@_0BJ@JGHHLMHO@?5?5sel_rect?3?5?$CFs?5?$CFs?5?$CFs?5?$CFs?6?$AA@ 0070989c     Shape.obj
 0003:000198bc       ??_C@_0N@JBDGPMBH@?5?5units?3?5MM?6?$AA@ 007098bc     Shape.obj
 0003:000198cc       ??_C@_0O@ICNIDNJE@?5?5units?3?5MIL?6?$AA@ 007098cc     Shape.obj
 0003:000198dc       ??_C@_0N@IDIDFDPJ@?5?5units?3?5NM?6?$AA@ 007098dc     Shape.obj
 0003:000198ec       ??_C@_0BD@CNOBNDEA@description?3?5?$CC?$CFs?$CC?6?$AA@ 007098ec     Shape.obj
 0003:00019904       ??_C@_0P@EBJHKDHB@package?3?5?$CC?$CFs?$CC?6?$AA@ 00709904     Shape.obj
 0003:00019918       ??_C@_0O@ILPGFJLO@author?3?5?$CC?$CFs?$CC?6?$AA@ 00709918     Shape.obj
 0003:00019928       ??_C@_0M@MGKHIDED@name?3?5?$CC?$CFs?$CC?6?$AA@ 00709928     Shape.obj
 0003:00019938       __real@4059000000000000    00709938     Shape.obj
 0003:00019948       ??_7?$CArray@Vpadstack@@ABV1@@@6B@ 00709948     Shape.obj
 0003:00019964       ??_7?$CArray@Uglue@@ABU1@@@6B@ 00709964     Shape.obj
 0003:0001997c       ??_C@_0BL@MDMLNADL@c?3?2freesch?2smcharacter?4cpp?$AA@ 0070997c     smcharacter.obj
 0003:0001999c       ??_C@_07FIEHOFBO@?$CFlf?0?$CFlf?$AA@ 0070999c     smcharacter.obj
 0003:000199a8       __real@c04fc00000000000    007099a8     smcharacter.obj
 0003:000199b4       ??_C@_1DE@ECABCKPN@?$AAc?$AA?3?$AA?2?$AAf?$AAr?$AAe?$AAe?$AAs?$AAc?$AAh?$AA?2?$AAs?$AAm?$AAf?$AAo?$AAn?$AAt?$AAu?$AAt?$AAi?$AAl?$AA?4?$AAc?$AAp?$AAp?$AA?$AA@ 007099b4     smfontutil.obj
 0003:000199f8       ??_7?$CTypedPtrArray@VCPtrArray@@PAVSMCharacter@@@@6B@ 007099f8     smfontutil.obj
 0003:00019a10       ??_C@_0BK@EMKDANFG@c?3?2freesch?2smfontutil?4cpp?$AA@ 00709a10     smfontutil.obj
 0003:00019a30       ??_C@_0BP@BAOGLLJJ@Font?5stroke?5file?5was?5not?5found?$AA@ 00709a30     smfontutil.obj
 0003:00019a58       ??_C@_02JDPG@rb?$AA@       00709a58     smfontutil.obj
 0003:00019a5c       ??_C@_0CE@CKFLMBFL@Font?5translation?5file?5was?5not?5fo@ 00709a5c     smfontutil.obj
 0003:00019a88       ??_C@_02GMLFBBN@wb?$AA@    00709a88     smfontutil.obj
 0003:00019a8c       ??_C@_0DG@FLLLFILM@Translation?5file?5did?5not?5open?6Lo@ 00709a8c     smfontutil.obj
 0003:00019acc       ??_C@_05NAOIJFC@Error?$AA@ 00709acc     smfontutil.obj
 0003:00019ad4       ??_C@_0BN@CNLEEIDP@Select?5Font?5Translation?5File?$AA@ 00709ad4     smfontutil.obj
 0003:00019af8       ??_C@_05JALKLJPN@?$CK?4csv?$AA@ 00709af8     smfontutil.obj
 0003:00019b00       ??_C@_0CG@OCEJMGKH@Font?5Translation?5File?5?$CI?$CK?4csv?$CJ?$HM?$CK?4@ 00709b00     smfontutil.obj
 0003:00019b30       ??_C@_0CI@HPBDFLEJ@Font?5file?5did?5not?5open?6LoadOldSt@ 00709b30     smfontutil.obj
 0003:00019b60       ??_C@_0BI@IJMLMHNF@Select?5Font?5Stroke?5File?$AA@ 00709b60     smfontutil.obj
 0003:00019b7c       ??_C@_0CB@PFANHDHB@Font?5Stroke?5File?5?$CI?$CK?4csv?$CJ?$HM?$CK?4csv?$HM?$HM@ 00709b7c     smfontutil.obj
 0003:00019ba8       __real@4030000000000000    00709ba8     smfontutil.obj
 0003:00019bb4       ??_C@_0M@CKCKOGFB@Hershey?4smf?$AA@ 00709bb4     smfontutil.obj
 0003:00019bc4       ??_C@_0M@IKLADMKL@Hershey?4xtb?$AA@ 00709bc4     smfontutil.obj
 0003:00019bd4       ??_C@_07KJLOKDKB@TypeLib?$AA@ 00709bd4     StdAfx.obj
 0003:00019be0       ??_C@_08KEKAJNJI@Software?$AA@ 00709be0     StdAfx.obj
 0003:00019bec       ??_C@_06FDHFNJBJ@SYSTEM?$AA@ 00709bec     StdAfx.obj
 0003:00019bf4       ??_C@_08LOPHEHKG@SECURITY?$AA@ 00709bf4     StdAfx.obj
 0003:00019c00       ??_C@_03DDIMFGBA@SAM?$AA@  00709c00     StdAfx.obj
 0003:00019c04       ??_C@_04IHBFOLAC@Mime?$AA@ 00709c04     StdAfx.obj
 0003:00019c0c       ??_C@_08PPIOJEA@Hardware?$AA@ 00709c0c     StdAfx.obj
 0003:00019c18       ??_C@_09JKPGEJCH@Interface?$AA@ 00709c18     StdAfx.obj
 0003:00019c24       ??_C@_08PICKODJL@FileType?$AA@ 00709c24     StdAfx.obj
 0003:00019c30       ??_C@_0BF@HDDNNDFH@Component?5Categories?$AA@ 00709c30     StdAfx.obj
 0003:00019c4c       ??_C@_05GIBEAPNE@CLSID?$AA@ 00709c4c     StdAfx.obj
 0003:00019c54       ??_C@_05PDIKPLII@AppID?$AA@ 00709c54     StdAfx.obj
 0003:00019c5c       ??_C@_06JBKGCNBB@Delete?$AA@ 00709c5c     StdAfx.obj
 0003:00019c64       ??_C@_08KAAPDIAN@NoRemove?$AA@ 00709c64     StdAfx.obj
 0003:00019c70       ??_C@_0M@DBGDLGLL@ForceRemove?$AA@ 00709c70     StdAfx.obj
 0003:00019c80       ??_C@_03LAIAPFCB@Val?$AA@  00709c80     StdAfx.obj
 0003:00019c84       ??_C@_01HMGJMAIH@B?$AA@    00709c84     StdAfx.obj
 0003:00019c88       ??_C@_01CKDDGHAB@D?$AA@    00709c88     StdAfx.obj
 0003:00019c8c       ??_C@_01PLPBNMEI@M?$AA@    00709c8c     StdAfx.obj
 0003:00019c90       ??_C@_01CPLAODJH@S?$AA@    00709c90     StdAfx.obj
 0003:00019c94       ??_C@_0BF@GPPHKJFN@Invalid?5DateTimeSpan?$AA@ 00709c94     StdAfx.obj
 0003:00019cb0       ??_C@_0BB@KEKMKJPM@Invalid?5DateTime?$AA@ 00709cb0     StdAfx.obj
 0003:00019cc4       ?_Min@?$AtlLimits@H@ATL@@2HB 00709cc4     StdAfx.obj
 0003:00019cc8       ?_Max@?$AtlLimits@H@ATL@@2HB 00709cc8     StdAfx.obj
 0003:00019ccc       ?_Min@?$AtlLimits@I@ATL@@2IB 00709ccc     StdAfx.obj
 0003:00019cd0       ?_Max@?$AtlLimits@I@ATL@@2IB 00709cd0     StdAfx.obj
 0003:00019cd4       ?_Min@?$AtlLimits@J@ATL@@2JB 00709cd4     StdAfx.obj
 0003:00019cd8       ?_Max@?$AtlLimits@J@ATL@@2JB 00709cd8     StdAfx.obj
 0003:00019cdc       ?_Min@?$AtlLimits@K@ATL@@2KB 00709cdc     StdAfx.obj
 0003:00019ce0       ?_Max@?$AtlLimits@K@ATL@@2KB 00709ce0     StdAfx.obj
 0003:00019ce8       ?_Min@?$AtlLimits@_J@ATL@@2_JB 00709ce8     StdAfx.obj
 0003:00019cf8       ?_Max@?$AtlLimits@_J@ATL@@2_JB 00709cf8     StdAfx.obj
 0003:00019d08       ?_Min@?$AtlLimits@_K@ATL@@2_KB 00709d08     StdAfx.obj
 0003:00019d18       ?_Max@?$AtlLimits@_K@ATL@@2_KB 00709d18     StdAfx.obj
 0003:00019d24       ?VT@?$CVarTypeInfo@D@ATL@@2GB 00709d24     StdAfx.obj
 0003:00019d28       ?pmField@?$CVarTypeInfo@D@ATL@@2QQtagVARIANT@@DQ3@ 00709d28     StdAfx.obj
 0003:00019d2c       ?VT@?$CVarTypeInfo@E@ATL@@2GB 00709d2c     StdAfx.obj
 0003:00019d30       ?pmField@?$CVarTypeInfo@E@ATL@@2QQtagVARIANT@@EQ3@ 00709d30     StdAfx.obj
 0003:00019d34       ?VT@?$CVarTypeInfo@PAD@ATL@@2GB 00709d34     StdAfx.obj
 0003:00019d38       ?pmField@?$CVarTypeInfo@PAD@ATL@@2QQtagVARIANT@@PADQ3@ 00709d38     StdAfx.obj
 0003:00019d3c       ?VT@?$CVarTypeInfo@PAE@ATL@@2GB 00709d3c     StdAfx.obj
 0003:00019d40       ?pmField@?$CVarTypeInfo@PAE@ATL@@2QQtagVARIANT@@PAEQ3@ 00709d40     StdAfx.obj
 0003:00019d44       ?VT@?$CVarTypeInfo@F@ATL@@2GB 00709d44     StdAfx.obj
 0003:00019d48       ?pmField@?$CVarTypeInfo@F@ATL@@2QQtagVARIANT@@FQ3@ 00709d48     StdAfx.obj
 0003:00019d4c       ?VT@?$CVarTypeInfo@PAF@ATL@@2GB 00709d4c     StdAfx.obj
 0003:00019d50       ?pmField@?$CVarTypeInfo@PAF@ATL@@2QQtagVARIANT@@PAFQ3@ 00709d50     StdAfx.obj
 0003:00019d54       ?VT@?$CVarTypeInfo@G@ATL@@2GB 00709d54     StdAfx.obj
 0003:00019d58       ?pmField@?$CVarTypeInfo@G@ATL@@2QQtagVARIANT@@GQ3@ 00709d58     StdAfx.obj
 0003:00019d5c       ?VT@?$CVarTypeInfo@PAG@ATL@@2GB 00709d5c     StdAfx.obj
 0003:00019d60       ?pmField@?$CVarTypeInfo@PAG@ATL@@2QQtagVARIANT@@PAGQ3@ 00709d60     StdAfx.obj
 0003:00019d64       ?VT@?$CVarTypeInfo@H@ATL@@2GB 00709d64     StdAfx.obj
 0003:00019d68       ?pmField@?$CVarTypeInfo@H@ATL@@2QQtagVARIANT@@HQ3@ 00709d68     StdAfx.obj
 0003:00019d6c       ?VT@?$CVarTypeInfo@PAH@ATL@@2GB 00709d6c     StdAfx.obj
 0003:00019d70       ?pmField@?$CVarTypeInfo@PAH@ATL@@2QQtagVARIANT@@PAHQ3@ 00709d70     StdAfx.obj
 0003:00019d74       ?VT@?$CVarTypeInfo@I@ATL@@2GB 00709d74     StdAfx.obj
 0003:00019d78       ?pmField@?$CVarTypeInfo@I@ATL@@2QQtagVARIANT@@IQ3@ 00709d78     StdAfx.obj
 0003:00019d7c       ?VT@?$CVarTypeInfo@PAI@ATL@@2GB 00709d7c     StdAfx.obj
 0003:00019d80       ?pmField@?$CVarTypeInfo@PAI@ATL@@2QQtagVARIANT@@PAIQ3@ 00709d80     StdAfx.obj
 0003:00019d84       ?VT@?$CVarTypeInfo@J@ATL@@2GB 00709d84     StdAfx.obj
 0003:00019d88       ?pmField@?$CVarTypeInfo@J@ATL@@2QQtagVARIANT@@JQ3@ 00709d88     StdAfx.obj
 0003:00019d8c       ?VT@?$CVarTypeInfo@PAJ@ATL@@2GB 00709d8c     StdAfx.obj
 0003:00019d90       ?pmField@?$CVarTypeInfo@PAJ@ATL@@2QQtagVARIANT@@PAJQ3@ 00709d90     StdAfx.obj
 0003:00019d94       ?VT@?$CVarTypeInfo@K@ATL@@2GB 00709d94     StdAfx.obj
 0003:00019d98       ?pmField@?$CVarTypeInfo@K@ATL@@2QQtagVARIANT@@KQ3@ 00709d98     StdAfx.obj
 0003:00019d9c       ?VT@?$CVarTypeInfo@PAK@ATL@@2GB 00709d9c     StdAfx.obj
 0003:00019da0       ?pmField@?$CVarTypeInfo@PAK@ATL@@2QQtagVARIANT@@PAKQ3@ 00709da0     StdAfx.obj
 0003:00019da4       ?VT@?$CVarTypeInfo@_J@ATL@@2GB 00709da4     StdAfx.obj
 0003:00019da8       ?pmField@?$CVarTypeInfo@_J@ATL@@2QQtagVARIANT@@_JQ3@ 00709da8     StdAfx.obj
 0003:00019dac       ?VT@?$CVarTypeInfo@PA_J@ATL@@2GB 00709dac     StdAfx.obj
 0003:00019db0       ?pmField@?$CVarTypeInfo@PA_J@ATL@@2QQtagVARIANT@@PA_JQ3@ 00709db0     StdAfx.obj
 0003:00019db4       ?VT@?$CVarTypeInfo@_K@ATL@@2GB 00709db4     StdAfx.obj
 0003:00019db8       ?pmField@?$CVarTypeInfo@_K@ATL@@2QQtagVARIANT@@_KQ3@ 00709db8     StdAfx.obj
 0003:00019dbc       ?VT@?$CVarTypeInfo@PA_K@ATL@@2GB 00709dbc     StdAfx.obj
 0003:00019dc0       ?pmField@?$CVarTypeInfo@PA_K@ATL@@2QQtagVARIANT@@PA_KQ3@ 00709dc0     StdAfx.obj
 0003:00019dc4       ?VT@?$CVarTypeInfo@M@ATL@@2GB 00709dc4     StdAfx.obj
 0003:00019dc8       ?pmField@?$CVarTypeInfo@M@ATL@@2QQtagVARIANT@@MQ3@ 00709dc8     StdAfx.obj
 0003:00019dcc       ?VT@?$CVarTypeInfo@PAM@ATL@@2GB 00709dcc     StdAfx.obj
 0003:00019dd0       ?pmField@?$CVarTypeInfo@PAM@ATL@@2QQtagVARIANT@@PAMQ3@ 00709dd0     StdAfx.obj
 0003:00019dd4       ?VT@?$CVarTypeInfo@N@ATL@@2GB 00709dd4     StdAfx.obj
 0003:00019dd8       ?pmField@?$CVarTypeInfo@N@ATL@@2QQtagVARIANT@@NQ3@ 00709dd8     StdAfx.obj
 0003:00019ddc       ?VT@?$CVarTypeInfo@PAN@ATL@@2GB 00709ddc     StdAfx.obj
 0003:00019de0       ?pmField@?$CVarTypeInfo@PAN@ATL@@2QQtagVARIANT@@PANQ3@ 00709de0     StdAfx.obj
 0003:00019de4       ?VT@?$CVarTypeInfo@PAUtagVARIANT@@@ATL@@2GB 00709de4     StdAfx.obj
 0003:00019de8       ?VT@?$CVarTypeInfo@PA_W@ATL@@2GB 00709de8     StdAfx.obj
 0003:00019dec       ?pmField@?$CVarTypeInfo@PA_W@ATL@@2QQtagVARIANT@@PA_WQ3@ 00709dec     StdAfx.obj
 0003:00019df0       ?VT@?$CVarTypeInfo@PAPA_W@ATL@@2GB 00709df0     StdAfx.obj
 0003:00019df4       ?pmField@?$CVarTypeInfo@PAPA_W@ATL@@2QQtagVARIANT@@PAPA_WQ3@ 00709df4     StdAfx.obj
 0003:00019df8       ?VT@?$CVarTypeInfo@PAUIUnknown@@@ATL@@2GB 00709df8     StdAfx.obj
 0003:00019dfc       ?pmField@?$CVarTypeInfo@PAUIUnknown@@@ATL@@2QQtagVARIANT@@PAUIUnknown@@Q3@ 00709dfc     StdAfx.obj
 0003:00019e00       ?VT@?$CVarTypeInfo@PAPAUIUnknown@@@ATL@@2GB 00709e00     StdAfx.obj
 0003:00019e04       ?pmField@?$CVarTypeInfo@PAPAUIUnknown@@@ATL@@2QQtagVARIANT@@PAPAUIUnknown@@Q3@ 00709e04     StdAfx.obj
 0003:00019e08       ?VT@?$CVarTypeInfo@PAUIDispatch@@@ATL@@2GB 00709e08     StdAfx.obj
 0003:00019e0c       ?pmField@?$CVarTypeInfo@PAUIDispatch@@@ATL@@2QQtagVARIANT@@PAUIDispatch@@Q3@ 00709e0c     StdAfx.obj
 0003:00019e10       ?VT@?$CVarTypeInfo@PAPAUIDispatch@@@ATL@@2GB 00709e10     StdAfx.obj
 0003:00019e14       ?pmField@?$CVarTypeInfo@PAPAUIDispatch@@@ATL@@2QQtagVARIANT@@PAPAUIDispatch@@Q3@ 00709e14     StdAfx.obj
 0003:00019e18       ?VT@?$CVarTypeInfo@TtagCY@@@ATL@@2GB 00709e18     StdAfx.obj
 0003:00019e1c       ?pmField@?$CVarTypeInfo@TtagCY@@@ATL@@2QQtagVARIANT@@TtagCY@@Q3@ 00709e1c     StdAfx.obj
 0003:00019e20       ?VT@?$CVarTypeInfo@PATtagCY@@@ATL@@2GB 00709e20     StdAfx.obj
 0003:00019e24       ?pmField@?$CVarTypeInfo@PATtagCY@@@ATL@@2QQtagVARIANT@@PATtagCY@@Q3@ 00709e24     StdAfx.obj
 0003:00019e28       ?c_bIsMFCDLLTraits@?$_MFCDLLTraitsCheck@DV?$StrTraitMFC_DLL@DV?$ChTraitsCRT@D@ATL@@@@@_CSTRING_IMPL_@ATL@@2_NB 00709e28     StdAfx.obj
 0003:00019e29       ?c_bIsMFCDLLTraits@?$_MFCDLLTraitsCheck@_WV?$StrTraitMFC_DLL@_WV?$ChTraitsCRT@_W@ATL@@@@@_CSTRING_IMPL_@ATL@@2_NB 00709e29     StdAfx.obj
 0003:00019e2c       ?generic@CArchiveException@@2HB 00709e2c     StdAfx.obj
 0003:00019e30       ?generic@CFileException@@2HB 00709e30     StdAfx.obj
 0003:00019e38       ?Millisecond@CFileTime@ATL@@2_KB 00709e38     StdAfx.obj
 0003:00019e48       ?Second@CFileTime@ATL@@2_KB 00709e48     StdAfx.obj
 0003:00019e58       ?Minute@CFileTime@ATL@@2_KB 00709e58     StdAfx.obj
 0003:00019e68       ?Hour@CFileTime@ATL@@2_KB  00709e68     StdAfx.obj
 0003:00019e78       ?Day@CFileTime@ATL@@2_KB   00709e78     StdAfx.obj
 0003:00019e88       ?Week@CFileTime@ATL@@2_KB  00709e88     StdAfx.obj
 0003:00019e94       ?szInvalidDateTime@ATL@@3QBDB 00709e94     StdAfx.obj
 0003:00019e98       ?szInvalidDateTimeSpan@ATL@@3QBDB 00709e98     StdAfx.obj
 0003:00019e9c       _LIBID_ATLLib              00709e9c     StdAfx.obj
 0003:00019eb0       _CLSID_Registrar           00709eb0     StdAfx.obj
 0003:00019ec4       _IID_IRegistrar            00709ec4     StdAfx.obj
 0003:00019ed8       _IID_IAxWinHostWindow      00709ed8     StdAfx.obj
 0003:00019eec       _IID_IAxWinAmbientDispatch 00709eec     StdAfx.obj
 0003:00019f00       _IID_IInternalConnection   00709f00     StdAfx.obj
 0003:00019f14       _IID_IDocHostUIHandlerDispatch 00709f14     StdAfx.obj
 0003:00019f28       _IID_IAxWinHostWindowLic   00709f28     StdAfx.obj
 0003:00019f3c       _IID_IAxWinAmbientDispatchEx 00709f3c     StdAfx.obj
 0003:00019f78       ?MAX_VALUE@CRegParser@ATL@@1HB 00709f78     StdAfx.obj
 0003:00019f7c       ?MAX_TYPE@CRegParser@ATL@@1HB 00709f7c     StdAfx.obj
 0003:00019f80       ?rgszNeverDelete@CRegParser@ATL@@1QBQBDB 00709f80     StdAfx.obj
 0003:00019fbc       ?cbNeverDelete@CRegParser@ATL@@1HB 00709fbc     StdAfx.obj
 0003:00019fc0       ?c_bIsMFCDLLTraits@?$_MFCDLLTraitsCheck@DV?$StrTraitATL@DV?$ChTraitsCRT@D@ATL@@@ATL@@@_CSTRING_IMPL_@ATL@@2_NB 00709fc0     StdAfx.obj
 0003:00019fc1       ?c_bIsMFCDLLTraits@?$_MFCDLLTraitsCheck@_WV?$StrTraitATL@_WV?$ChTraitsCRT@_W@ATL@@@ATL@@@_CSTRING_IMPL_@ATL@@2_NB 00709fc1     StdAfx.obj
 0003:00019fc4       ?CLSID_WinFormsControl@@3U_GUID@@B 00709fc4     StdAfx.obj
 0003:00019fdc       ??_7Thank_you@Define_the_symbol__ATL_MIXED@@6B@ 00709fdc     StdAfx.obj
 0003:00019fe4       ??_C@_1DA@GEHOKEID@?$AAc?$AA?3?$AA?2?$AAf?$AAr?$AAe?$AAe?$AAs?$AAc?$AAh?$AA?2?$AAt?$AAe?$AAx?$AAt?$AAl?$AAi?$AAs?$AAt?$AA?4?$AAc?$AAp?$AAp?$AA?$AA@ 00709fe4     TextList.obj
 0003:0001a020       ??_C@_0BI@LAJLNAKI@c?3?2freesch?2textlist?4cpp?$AA@ 0070a020     TextList.obj
 0003:0001a03c       ??_C@_0CE@GBKOFJPH@selection?3?5?$CFd?5?$CFd?5?$CFd?5?$CFd?5?$CFd?5?$CFd?5?$CFd?5@ 0070a03c     TextList.obj
 0003:0001a068       ??_C@_0BI@PDNJKNGB@text_line?3?5?$CFd?5?$CFd?5?$CFd?5?$CFd?6?$AA@ 0070a068     TextList.obj
 0003:0001a084       ??_C@_0CK@CLMDHPKO@text?3?5?$CC?$CFs?$CC?5?$CFd?5?$CFd?5?$CFd?5?$CFd?5?$CFd?5?$CFd?5?$CFd?5@ 0070a084     TextList.obj
 0003:0001a0b8       ??_C@_09FHJMCHJH@?$FLtexts?$FN?6?6?$AA@ 0070a0b8     TextList.obj
 0003:0001a0c4       ??_C@_05FHIGHPDA@text?3?$AA@ 0070a0c4     TextList.obj
 0003:0001a0cc       ??_C@_07KGNCMMAC@?$FLtexts?$FN?$AA@ 0070a0cc     TextList.obj
 0003:0001a0d8       ??_C@_0CH@FAIOJNGK@Unable?5to?5find?5?$FLtexts?$FN?5section?5i@ 0070a0d8     TextList.obj
 0003:0001a10c       ??_7?$CArray@PAVCText@@ABQAV1@@@6B@ 0070a10c     TextList.obj
 0003:0001a124       ??_C@_0BI@GHDNIBDA@c?3?2freesch?2undolist?4cpp?$AA@ 0070a124     UndoList.obj
 0003:0001a140       ??_C@_1DA@JHNBFIJO@?$AAc?$AA?3?$AA?2?$AAf?$AAr?$AAe?$AAe?$AAs?$AAc?$AAh?$AA?2?$AAu?$AAn?$AAd?$AAo?$AAl?$AAi?$AAs?$AAt?$AA?4?$AAc?$AAp?$AAp?$AA?$AA@ 0070a140     UndoList.obj
 0003:0001a17c       ??_C@_1CO@KCDCMILC@?$AAc?$AA?3?$AA?2?$AAf?$AAr?$AAe?$AAe?$AAs?$AAc?$AAh?$AA?2?$AAu?$AAt?$AAi?$AAl?$AAi?$AAt?$AAy?$AA?4?$AAc?$AAp?$AAp?$AA?$AA@ 0070a17c     utility.obj
 0003:0001a1b8       __real@bf50624dd2f1a9fc    0070a1b8     utility.obj
 0003:0001a1c8       __real@4046000000000000    0070a1c8     utility.obj
 0003:0001a1d8       __real@4060e00000000000    0070a1d8     utility.obj
 0003:0001a1e8       __real@4046800000000000    0070a1e8     utility.obj
 0003:0001a1f8       __real@4066500000000000    0070a1f8     utility.obj
 0003:0001a208       __real@40667ccccccccccd    0070a208     utility.obj
 0003:0001a218       __real@405679999999999a    0070a218     utility.obj
 0003:0001a224       __real@42340000            0070a224     utility.obj
 0003:0001a228       __real@40f00000            0070a228     utility.obj
 0003:0001a230       __real@401e000000000000    0070a230     utility.obj
 0003:0001a240       __real@401c000000000000    0070a240     utility.obj
 0003:0001a250       __real@4067600000000000    0070a250     utility.obj
 0003:0001a260       __real@4065a00000000000    0070a260     utility.obj
 0003:0001a270       __real@4076100000000000    0070a270     utility.obj
 0003:0001a27c       __real@4e6e6b28            0070a27c     utility.obj
 0003:0001a280       __real@4055400000000000    0070a280     utility.obj
 0003:0001a290       __real@4060400000000000    0070a290     utility.obj
 0003:0001a2a0       __real@4064a00000000000    0070a2a0     utility.obj
 0003:0001a2ac       ??_C@_0BH@NKCLDMDC@c?3?2freesch?2utility?4cpp?$AA@ 0070a2ac     utility.obj
 0003:0001a2c8       __real@4076700000000000    0070a2c8     utility.obj
 0003:0001a2d8       __real@c076700000000000    0070a2d8     utility.obj
 0003:0001a2e8       __real@bff0000000000000    0070a2e8     utility.obj
 0003:0001a2f4       ??_C@_03EBFKBOFP@?5NM?$AA@ 0070a2f4     utility.obj
 0003:0001a2f8       ??_C@_04LCOFBBEA@?5MIL?$AA@ 0070a2f8     utility.obj
 0003:0001a300       ??_C@_03EDBMKAAG@?5MM?$AA@ 0070a300     utility.obj
 0003:0001a304       ??_C@_06DGMFDLNL@11?4?$CFdf?$AA@ 0070a304     utility.obj
 0003:0001a30c       ??_C@_06LKDLDKAD@?$CF12?45f?$AA@ 0070a30c     utility.obj
 0003:0001a314       ??_C@_0L@FPFMPDDA@0123456789?$AA@ 0070a314     utility.obj
 0003:0001a324       ??_C@_0BN@CNEPENAJ@?5?4?0?$DL?3?1?$CB?$EA?$CD$?$CF?$FO?$CG?$CK?$CI?$CJ?$HL?$HN?$FL?$FN?$HM?$DM?$DO?$DP?2?$HO?8?$CC?$AA@ 0070a324     utility.obj
 0003:0001a348       __real@c00921fb54442d18    0070a348     utility.obj
 0003:0001a358       __real@bff921fb54442d18    0070a358     utility.obj
 0003:0001a368       __real@3ff921fb54442d18    0070a368     utility.obj
 0003:0001a378       __real@7fdfffffffffffff    0070a378     utility.obj
 0003:0001a388       __real@3d719799812dea11    0070a388     utility.obj
 0003:0001a398       __real@7fb9999999999999    0070a398     utility.obj
 0003:0001a3a8       __real@3fe921fb54442d18    0070a3a8     utility.obj
 0003:0001a3b8       __real@400bd70a3d70a3d7    0070a3b8     utility.obj
 0003:0001a3c8       __real@c1e0000000000000    0070a3c8     utility.obj
 0003:0001a3d8       __real@3fa9f18790ca8121    0070a3d8     utility.obj
 0003:0001a3e4       ??_C@_07JCCMBLHB@?$FL2?53?$FN?50?$AA@ 0070a3e4     clibpdf:cpdfDomain.obj
 0003:0001a3f0       __real@3ff00068db8bac71    0070a3f0     clibpdf:cpdfDomain.obj
 0003:0001a3fc       ??_C@_07KHGNHLIL@ClibPDF?$AA@ 0070a3fc     clibpdf:cpdfDomain.obj
 0003:0001a408       ??_C@_0DH@IEDLHHMP@Plot?5domain?5has?5not?5been?5set?4?5Se@ 0070a408     clibpdf:cpdfDomain.obj
 0003:0001a44c       ??_C@_0O@JLGADPPE@?$FL1?50?51?50?51?50?$FN?$AA@ 0070a44c     clibpdf:cpdfInit.obj
 0003:0001a45c       ??_C@_05DPHJFOOJ@?$FL1?50?$FN?$AA@ 0070a45c     clibpdf:cpdfInit.obj
 0003:0001a464       ??_C@_0L@GNJAADJM@DeviceCMYK?$AA@ 0070a464     clibpdf:cpdfInit.obj
 0003:0001a474       ??_C@_09OAONJBLL@DeviceRGB?$AA@ 0070a474     clibpdf:cpdfInit.obj
 0003:0001a480       ??_C@_0L@PHFAKNPC@DeviceGray?$AA@ 0070a480     clibpdf:cpdfInit.obj
 0003:0001a490       ??_C@_0P@JBLDNJPP@TwoColumnRight?$AA@ 0070a490     clibpdf:cpdfInit.obj
 0003:0001a4a4       ??_C@_0O@PCGOHMFK@TwoColumnLeft?$AA@ 0070a4a4     clibpdf:cpdfInit.obj
 0003:0001a4b4       ??_C@_09EIHNDJJO@OneColumn?$AA@ 0070a4b4     clibpdf:cpdfInit.obj
 0003:0001a4c0       ??_C@_0L@OMONIMIK@SinglePage?$AA@ 0070a4c0     clibpdf:cpdfInit.obj
 0003:0001a4d0       ??_C@_0L@CBCDGBIF@FullScreen?$AA@ 0070a4d0     clibpdf:cpdfInit.obj
 0003:0001a4e0       ??_C@_09JGGPLOMD@UseThumbs?$AA@ 0070a4e0     clibpdf:cpdfInit.obj
 0003:0001a4ec       ??_C@_0M@PHKDDBID@UseOutlines?$AA@ 0070a4ec     clibpdf:cpdfInit.obj
 0003:0001a4fc       ??_C@_07NMOHPBNO@UseNone?$AA@ 0070a4fc     clibpdf:cpdfInit.obj
 0003:0001a508       ??_C@_0BI@FDEOJAPP@zG_?U?y?$NPJ?$KE?$BI?$LH?$LA?$CDs6?$BP?$KGdR?5L?$IEs?$BP?$AA@ 0070a508     clibpdf:cpdfInit.obj
 0003:0001a524       ??_C@_03MKABNOCG@Dec?$AA@  0070a524     clibpdf:cpdfInit.obj
 0003:0001a528       ??_C@_03JPJOFNIA@Nov?$AA@  0070a528     clibpdf:cpdfInit.obj
 0003:0001a52c       ??_C@_03BMAOKBAD@Oct?$AA@  0070a52c     clibpdf:cpdfInit.obj
 0003:0001a530       ??_C@_03GGCAPAJC@Sep?$AA@  0070a530     clibpdf:cpdfInit.obj
 0003:0001a534       ??_C@_03IFJFEIGA@Aug?$AA@  0070a534     clibpdf:cpdfInit.obj
 0003:0001a538       ??_C@_03LBGABGKK@Jul?$AA@  0070a538     clibpdf:cpdfInit.obj
 0003:0001a53c       ??_C@_03IDFGHECI@Jun?$AA@  0070a53c     clibpdf:cpdfInit.obj
 0003:0001a540       ??_C@_03CNMDKL@May?$AA@    0070a540     clibpdf:cpdfInit.obj
 0003:0001a544       ??_C@_03LEOLGMJP@Apr?$AA@  0070a544     clibpdf:cpdfInit.obj
 0003:0001a548       ??_C@_03ODNJBKGA@Mar?$AA@  0070a548     clibpdf:cpdfInit.obj
 0003:0001a54c       ??_C@_03HJBDCHOM@Feb?$AA@  0070a54c     clibpdf:cpdfInit.obj
 0003:0001a550       ??_C@_03JIHJHPIE@Jan?$AA@  0070a550     clibpdf:cpdfInit.obj
 0003:0001a554       ??_C@_0N@EAOGMIFF@UniKS?9UCS2?9V?$AA@ 0070a554     clibpdf:cpdfInit.obj
 0003:0001a564       ??_C@_0N@JEKHPHIK@UniKS?9UCS2?9H?$AA@ 0070a564     clibpdf:cpdfInit.obj
 0003:0001a574       ??_C@_0M@HPFFCNDA@KSCpc?9EUC?9H?$AA@ 0070a574     clibpdf:cpdfInit.obj
 0003:0001a584       ??_C@_0P@OCNBEMFD@KSCms?9UHC?9HW?9V?$AA@ 0070a584     clibpdf:cpdfInit.obj
 0003:0001a598       ??_C@_0P@DGJAHDIM@KSCms?9UHC?9HW?9H?$AA@ 0070a598     clibpdf:cpdfInit.obj
 0003:0001a5ac       ??_C@_0M@BBIGNHEK@KSCms?9UHC?9V?$AA@ 0070a5ac     clibpdf:cpdfInit.obj
 0003:0001a5bc       ??_C@_0M@MFMHOIJF@KSCms?9UHC?9H?$AA@ 0070a5bc     clibpdf:cpdfInit.obj
 0003:0001a5cc       ??_C@_09MCDLIIOJ@KSC?9EUC?9V?$AA@ 0070a5cc     clibpdf:cpdfInit.obj
 0003:0001a5d8       ??_C@_09BGHKLHDG@KSC?9EUC?9H?$AA@ 0070a5d8     clibpdf:cpdfInit.obj
 0003:0001a5e4       ??_C@_0P@OEHELPAJ@UniCNS?9UCS?92?9V?$AA@ 0070a5e4     clibpdf:cpdfInit.obj
 0003:0001a5f8       ??_C@_0P@DADFIANG@UniCNS?9UCS?92?9H?$AA@ 0070a5f8     clibpdf:cpdfInit.obj
 0003:0001a60c       ??_C@_09PANIFMBA@CNS?9EUC?9V?$AA@ 0070a60c     clibpdf:cpdfInit.obj
 0003:0001a618       ??_C@_09CEJJGDMP@CNS?9EUC?9H?$AA@ 0070a618     clibpdf:cpdfInit.obj
 0003:0001a624       ??_C@_0M@FDAMIHDL@ETenms?9B5?9V?$AA@ 0070a624     clibpdf:cpdfInit.obj
 0003:0001a634       ??_C@_0M@IHENLIOE@ETenms?9B5?9H?$AA@ 0070a634     clibpdf:cpdfInit.obj
 0003:0001a644       ??_C@_09IKFKOIED@ETen?9B5?9V?$AA@ 0070a644     clibpdf:cpdfInit.obj
 0003:0001a650       ??_C@_09FOBLNHJM@ETen?9B5?9H?$AA@ 0070a650     clibpdf:cpdfInit.obj
 0003:0001a65c       ??_C@_06OJIFEFIM@B5pc?9V?$AA@ 0070a65c     clibpdf:cpdfInit.obj
 0003:0001a664       ??_C@_06DNMEHKFD@B5pc?9H?$AA@ 0070a664     clibpdf:cpdfInit.obj
 0003:0001a66c       ??_C@_0N@OBGBHOOJ@UniGB?9UCS2?9V?$AA@ 0070a66c     clibpdf:cpdfInit.obj
 0003:0001a67c       ??_C@_0N@DFCAEBDG@UniGB?9UCS2?9H?$AA@ 0070a67c     clibpdf:cpdfInit.obj
 0003:0001a68c       ??_C@_09LAFJCFOA@GBK?9EUC?9V?$AA@ 0070a68c     clibpdf:cpdfInit.obj
 0003:0001a698       ??_C@_09GEBIBKDP@GBK?9EUC?9H?$AA@ 0070a698     clibpdf:cpdfInit.obj
 0003:0001a6a4       ??_C@_0L@LFKKKOF@GBpc?9EUC?9V?$AA@ 0070a6a4     clibpdf:cpdfInit.obj
 0003:0001a6b4       ??_C@_0L@NPBLJFDK@GBpc?9EUC?9H?$AA@ 0070a6b4     clibpdf:cpdfInit.obj
 0003:0001a6c4       ??_C@_08JMGEBLIF@GB?9EUC?9V?$AA@ 0070a6c4     clibpdf:cpdfInit.obj
 0003:0001a6d0       ??_C@_08EICFCEFK@GB?9EUC?9H?$AA@ 0070a6d0     clibpdf:cpdfInit.obj
 0003:0001a6dc       ??_C@_0BB@PDFOEGI@UniJIS?9UCS2?9HW?9V?$AA@ 0070a6dc     clibpdf:cpdfInit.obj
 0003:0001a6f0       ??_C@_0BB@NLHENLLH@UniJIS?9UCS2?9HW?9H?$AA@ 0070a6f0     clibpdf:cpdfInit.obj
 0003:0001a704       ??_C@_0O@LCCCNAAI@UniJIS?9UCS2?9V?$AA@ 0070a704     clibpdf:cpdfInit.obj
 0003:0001a714       ??_C@_0O@GGGDOPNH@UniJIS?9UCS2?9H?$AA@ 0070a714     clibpdf:cpdfInit.obj
 0003:0001a724       ??_C@_01FCMHBHNC@V?$AA@    0070a724     clibpdf:cpdfInit.obj
 0003:0001a728       ??_C@_01IGIGCIAN@H?$AA@    0070a728     clibpdf:cpdfInit.obj
 0003:0001a72c       ??_C@_0L@JPHOPLJO@Ext?9RKSJ?9V?$AA@ 0070a72c     clibpdf:cpdfInit.obj
 0003:0001a73c       ??_C@_0L@ELDPMEEB@Ext?9RKSJ?9H?$AA@ 0070a73c     clibpdf:cpdfInit.obj
 0003:0001a74c       ??_C@_05LEIOFNIK@EUC?9V?$AA@ 0070a74c     clibpdf:cpdfInit.obj
 0003:0001a754       ??_C@_05GAMPGCFF@EUC?9H?$AA@ 0070a754     clibpdf:cpdfInit.obj
 0003:0001a75c       ??_C@_0L@LOPFKLAL@Add?9RKSJ?9V?$AA@ 0070a75c     clibpdf:cpdfInit.obj
 0003:0001a76c       ??_C@_0L@GKLEJENE@Add?9RKSJ?9H?$AA@ 0070a76c     clibpdf:cpdfInit.obj
 0003:0001a77c       ??_C@_0M@GALJCJJE@90pv?9RKSJ?9H?$AA@ 0070a77c     clibpdf:cpdfInit.obj
 0003:0001a78c       ??_C@_0N@PGBLBJFK@90msp?9RKSJ?9V?$AA@ 0070a78c     clibpdf:cpdfInit.obj
 0003:0001a79c       ??_C@_0N@CCFKCGIF@90msp?9RKSJ?9H?$AA@ 0070a79c     clibpdf:cpdfInit.obj
 0003:0001a7ac       ??_C@_0M@CMDPFJFM@90ms?9RKSJ?9V?$AA@ 0070a7ac     clibpdf:cpdfInit.obj
 0003:0001a7bc       ??_C@_0M@PIHOGGID@90ms?9RKSJ?9H?$AA@ 0070a7bc     clibpdf:cpdfInit.obj
 0003:0001a7cc       ??_C@_0M@GCPOADPK@83pv?9RKSJ?9H?$AA@ 0070a7cc     clibpdf:cpdfInit.obj
 0003:0001a7dc       ??_C@_0L@MDCJJHMD@Identity?9V?$AA@ 0070a7dc     clibpdf:cpdfInit.obj
 0003:0001a7ec       ??_C@_0L@BHGIKIBM@Identity?9H?$AA@ 0070a7ec     clibpdf:cpdfInit.obj
 0003:0001a7fc       ??_C@_0BB@MLEHKAJM@StandardEncoding?$AA@ 0070a7fc     clibpdf:cpdfInit.obj
 0003:0001a810       ??_C@_0BC@BGFKIGLA@MacExpertEncoding?$AA@ 0070a810     clibpdf:cpdfInit.obj
 0003:0001a828       ??_C@_0BA@OOFFINJG@WinAnsiEncoding?$AA@ 0070a828     clibpdf:cpdfInit.obj
 0003:0001a83c       ??_C@_0N@BNDNPKFK@STSong?9Light?$AA@ 0070a83c     clibpdf:cpdfInit.obj
 0003:0001a84c       ??_C@_0M@HMOBOHEE@MSung?9Light?$AA@ 0070a84c     clibpdf:cpdfInit.obj
 0003:0001a85c       ??_C@_0M@DGAAKEGN@MHei?9Medium?$AA@ 0070a85c     clibpdf:cpdfInit.obj
 0003:0001a86c       ??_C@_0BD@GHLEANNJ@HYSMyeongJo?9Medium?$AA@ 0070a86c     clibpdf:cpdfInit.obj
 0003:0001a884       ??_C@_0BA@JBCANDEP@HYGoThic?9Medium?$AA@ 0070a884     clibpdf:cpdfInit.obj
 0003:0001a898       ??_C@_0N@KLKGKABP@HeiseiMin?9W3?$AA@ 0070a898     clibpdf:cpdfInit.obj
 0003:0001a8a8       ??_C@_0BA@PHLIIAI@HeiseiKakuGo?9W5?$AA@ 0070a8a8     clibpdf:cpdfInit.obj
 0003:0001a8bc       ??_C@_0O@EMKCEBPH@CPDF?9SmallCap?$AA@ 0070a8bc     clibpdf:cpdfInit.obj
 0003:0001a8cc       ??_C@_0P@MOCHKEMB@CPDF?9Monospace?$AA@ 0070a8cc     clibpdf:cpdfInit.obj
 0003:0001a8e0       ??_C@_0BM@MOABDIEH@Helvetica?9Condensed?9BoldObl?$AA@ 0070a8e0     clibpdf:cpdfInit.obj
 0003:0001a904       ??_C@_0BM@BEBMAJMJ@Helvetica?9Condensed?9Oblique?$AA@ 0070a904     clibpdf:cpdfInit.obj
 0003:0001a928       ??_C@_0BJ@LGFEECDH@Helvetica?9Condensed?9Bold?$AA@ 0070a928     clibpdf:cpdfInit.obj
 0003:0001a948       ??_C@_0BE@JBDLNBBH@Helvetica?9Condensed?$AA@ 0070a948     clibpdf:cpdfInit.obj
 0003:0001a960       ??_C@_0BK@KONKKFCA@ZapfChancery?9MediumItalic?$AA@ 0070a960     clibpdf:cpdfInit.obj
 0003:0001a980       ??_C@_0BE@JMCBHICG@Palatino?9BoldItalic?$AA@ 0070a980     clibpdf:cpdfInit.obj
 0003:0001a998       ??_C@_0O@GLMNNMOE@Palatino?9Bold?$AA@ 0070a998     clibpdf:cpdfInit.obj
 0003:0001a9a8       ??_C@_0BA@OKJDEBON@Palatino?9Italic?$AA@ 0070a9a8     clibpdf:cpdfInit.obj
 0003:0001a9bc       ??_C@_0P@OBNDAKIB@Palatino?9Roman?$AA@ 0070a9bc     clibpdf:cpdfInit.obj
 0003:0001a9d0       ??_C@_0BM@BLJEFEHG@NewCenturySchlbk?9BoldItalic?$AA@ 0070a9d0     clibpdf:cpdfInit.obj
 0003:0001a9f4       ??_C@_0BG@BKDHGCDH@NewCenturySchlbk?9Bold?$AA@ 0070a9f4     clibpdf:cpdfInit.obj
 0003:0001aa10       ??_C@_0BI@GMFPDIEA@NewCenturySchlbk?9Italic?$AA@ 0070aa10     clibpdf:cpdfInit.obj
 0003:0001aa2c       ??_C@_0BH@POHIHDFB@NewCenturySchlbk?9Roman?$AA@ 0070aa2c     clibpdf:cpdfInit.obj
 0003:0001aa48       ??_C@_0BN@CAFJOIDK@Helvetica?9Narrow?9BoldOblique?$AA@ 0070aa48     clibpdf:cpdfInit.obj
 0003:0001aa6c       ??_C@_0BG@GLHIMDDK@Helvetica?9Narrow?9Bold?$AA@ 0070aa6c     clibpdf:cpdfInit.obj
 0003:0001aa88       ??_C@_0BJ@MIEFPKO@Helvetica?9Narrow?9Oblique?$AA@ 0070aa88     clibpdf:cpdfInit.obj
 0003:0001aaa8       ??_C@_0BB@GBMHCMGK@Helvetica?9Narrow?$AA@ 0070aaa8     clibpdf:cpdfInit.obj
 0003:0001aabc       ??_C@_0BE@PHDAGBCC@Bookman?9LightItalic?$AA@ 0070aabc     clibpdf:cpdfInit.obj
 0003:0001aad4       ??_C@_0O@MNPHJOAD@Bookman?9Light?$AA@ 0070aad4     clibpdf:cpdfInit.obj
 0003:0001aae4       ??_C@_0BD@KIOIPOBC@Bookman?9DemiItalic?$AA@ 0070aae4     clibpdf:cpdfInit.obj
 0003:0001aafc       ??_C@_0N@BJNKGFDO@Bookman?9Demi?$AA@ 0070aafc     clibpdf:cpdfInit.obj
 0003:0001ab0c       ??_C@_0BH@EKFMEEAF@AvantGarde?9DemiOblique?$AA@ 0070ab0c     clibpdf:cpdfInit.obj
 0003:0001ab28       ??_C@_0BA@JNKPNBK@AvantGarde?9Demi?$AA@ 0070ab28     clibpdf:cpdfInit.obj
 0003:0001ab3c       ??_C@_0BH@GNMNEBNK@AvantGarde?9BookOblique?$AA@ 0070ab3c     clibpdf:cpdfInit.obj
 0003:0001ab58       ??_C@_0BA@NIJFFODC@AvantGarde?9Book?$AA@ 0070ab58     clibpdf:cpdfInit.obj
 0003:0001ab6c       ??_C@_0N@OHFCFBLK@ZapfDingbats?$AA@ 0070ab6c     clibpdf:cpdfInit.obj
 0003:0001ab7c       ??_C@_06CGMNKLGA@Symbol?$AA@ 0070ab7c     clibpdf:cpdfInit.obj
 0003:0001ab84       ??_C@_0BE@PODBNAOC@Courier?9BoldOblique?$AA@ 0070ab84     clibpdf:cpdfInit.obj
 0003:0001ab9c       ??_C@_0BA@DNOJJNLJ@Courier?9Oblique?$AA@ 0070ab9c     clibpdf:cpdfInit.obj
 0003:0001abb0       ??_C@_0N@HOOHCCCE@Courier?9Bold?$AA@ 0070abb0     clibpdf:cpdfInit.obj
 0003:0001abc0       ??_C@_07INPHFMHP@Courier?$AA@ 0070abc0     clibpdf:cpdfInit.obj
 0003:0001abcc       ??_C@_0BB@BLBMIHI@Times?9BoldItalic?$AA@ 0070abcc     clibpdf:cpdfInit.obj
 0003:0001abe0       ??_C@_0BG@NOBGLAOM@Helvetica?9BoldOblique?$AA@ 0070abe0     clibpdf:cpdfInit.obj
 0003:0001abfc       ??_C@_0BC@NFGAPLDB@Helvetica?9Oblique?$AA@ 0070abfc     clibpdf:cpdfInit.obj
 0003:0001ac14       ??_C@_0P@JNECEDAK@Helvetica?9Bold?$AA@ 0070ac14     clibpdf:cpdfInit.obj
 0003:0001ac28       ??_C@_09KLCCALCD@Helvetica?$AA@ 0070ac28     clibpdf:cpdfInit.obj
 0003:0001ac34       ??_C@_0O@IBCGOFJM@?2Bin?2zlibcomp?$AA@ 0070ac34     clibpdf:cpdfInit.obj
 0003:0001ac44       ??_C@_0N@OIIKLLEP@?1FlateDecode?$AA@ 0070ac44     clibpdf:cpdfInit.obj
 0003:0001ac54       ??_C@_0BE@PIMEDHK@?2usr?2local?2font?2pfm?$AA@ 0070ac54     clibpdf:cpdfInit.obj
 0003:0001ac6c       ??_C@_0BE@IIBEFPLF@?2usr?2local?2font?2pfb?$AA@ 0070ac6c     clibpdf:cpdfInit.obj
 0003:0001ac84       ??_C@_0M@JNOAHIED@fontmap?4lst?$AA@ 0070ac84     clibpdf:cpdfInit.obj
 0003:0001ac94       ??_C@_08HHPHHNPP@No?5Title?$AA@ 0070ac94     clibpdf:cpdfInit.obj
 0003:0001aca0       ??_C@_0BC@LJBJCKDF@A?5ClibPDF?5program?$AA@ 0070aca0     clibpdf:cpdfInit.obj
 0003:0001acb8       ??_C@_0M@ICFKFGC@FlateDecode?$AA@ 0070acb8     clibpdf:cpdfInit.obj
 0003:0001acc8       ??_C@_0CB@NLPMEFPI@cpdf_open?$CI?$CJ?5has?5not?5been?5called?4@ 0070acc8     clibpdf:cpdfInit.obj
 0003:0001acf0       ??_C@_0BG@GCJJABGC@Windows?5NT?195?198?5User?$AA@ 0070acf0     clibpdf:cpdfInit.obj
 0003:0001ad0c       ??_C@_0CJ@PLLCJNC@Cannot?5open?5?$CFs?5as?5temporary?5cont@ 0070ad0c     clibpdf:cpdfInit.obj
 0003:0001ad40       ??_C@_05HKDBOGKC@_cpdf?$AA@ 0070ad40     clibpdf:cpdfInit.obj
 0003:0001ad48       ??_C@_06MLJIEEEI@?2Temp?2?$AA@ 0070ad48     clibpdf:cpdfInit.obj
 0003:0001ad50       ??_C@_0M@ONLGMOD@?$CFf?5?$CFf?5?$CFf?5?$CFf?$AA@ 0070ad50     clibpdf:cpdfInit.obj
 0003:0001ad60       ??_C@_0BP@MCLFJMKG@Page?5?$CFd?5is?5already?5initialized?$AA@ 0070ad60     clibpdf:cpdfInit.obj
 0003:0001ad88       ??_C@_0DC@BDMCMBJD@Too?5many?5pages?3?5?$CFd?4?5Increase?5lim@ 0070ad88     clibpdf:cpdfInit.obj
 0003:0001adc4       ??_C@_0CB@HHBHBDGK@Page?5number?5must?5be?51?5or?5greater@ 0070adc4     clibpdf:cpdfInit.obj
 0003:0001adec       ??_C@_0BN@FMKHPIPA@?1S?5?1Glitter?5?1D?5?$CF?43f?5?1Di?5?$CF?42f?$AA@ 0070adec     clibpdf:cpdfInit.obj
 0003:0001ae10       ??_C@_0BF@LFNMGLOM@?1S?5?1Dissolve?5?1D?5?$CF?43f?$AA@ 0070ae10     clibpdf:cpdfInit.obj
 0003:0001ae2c       ??_C@_0BK@KMMNKCGB@?1S?5?1Wipe?5?1D?5?$CF?43f?5?1Di?5?$CF?42f?$AA@ 0070ae2c     clibpdf:cpdfInit.obj
 0003:0001ae4c       ??_C@_0BG@MMLBHOPC@?1S?5?1Box?5?1D?5?$CF?43f?5?1M?5?$CFs?$AA@ 0070ae4c     clibpdf:cpdfInit.obj
 0003:0001ae68       ??_C@_0BK@DKGCLNOB@?1S?5?1Blinds?5?1D?5?$CF?43f?5?1Dm?5?$CFs?$AA@ 0070ae68     clibpdf:cpdfInit.obj
 0003:0001ae88       ??_C@_0BP@MDNKJMAG@?1S?5?1Split?5?1D?5?$CF?43f?5?1Dm?5?$CFs?5?1M?5?$CFs?$AA@ 0070ae88     clibpdf:cpdfInit.obj
 0003:0001aeb0       ??_C@_05NMNKMNJB@?1S?5?1R?$AA@ 0070aeb0     clibpdf:cpdfInit.obj
 0003:0001aeb8       ??_C@_02EEEOHEPK@?1O?$AA@  0070aeb8     clibpdf:cpdfInit.obj
 0003:0001aebc       ??_C@_02BCBENDHM@?1I?$AA@  0070aebc     clibpdf:cpdfInit.obj
 0003:0001aec0       ??_C@_02NPEONNOC@?1V?$AA@  0070aec0     clibpdf:cpdfInit.obj
 0003:0001aec4       ??_C@_02LAPOCDN@?1H?$AA@   0070aec4     clibpdf:cpdfInit.obj
 0003:0001aec8       ??_C@_0DP@BAIOOIKH@Cannot?5switch?5to?5page?5?$CFd?5because@ 0070aec8     clibpdf:cpdfInit.obj
 0003:0001af14       ??_C@_0DN@COOEDNCF@Cannot?5switch?5to?5page?5?$CFd?5because@ 0070af14     clibpdf:cpdfInit.obj
 0003:0001af60       ??_C@_0BA@DGOKDILF@?$CF?$CFPDF?9?$CFd?4?$CFd?6?$CFs?6?$AA@ 0070af60     clibpdf:cpdfInit.obj
 0003:0001af74       ??_C@_0M@FMGEODLN@?$CFd?5?$CFd?5?$CFd?5?$CFd?$AA@ 0070af74     clibpdf:cpdfInit.obj
 0003:0001af84       ??_C@_0O@MANFPGMB@ZLIB?5compress?$AA@ 0070af84     clibpdf:cpdfInit.obj
 0003:0001af94       ??_C@_07EGKGAEGH@code?$DN?$CFd?$AA@ 0070af94     clibpdf:cpdfInit.obj
 0003:0001afa0       ??_C@_0BO@KFNDPAPH@Cannot?5open?5?$CFs?5for?5PDF?5output?$AA@ 0070afa0     clibpdf:cpdfInit.obj
 0003:0001afc4       ??_C@_07HPNIINNF@endobj?6?$AA@ 0070afc4     clibpdf:cpdfInit.obj
 0003:0001afd0       ??_C@_03BKFFIPGB@?$DO?$DO?6?$AA@ 0070afd0     clibpdf:cpdfInit.obj
 0003:0001afd4       ??_C@_0BM@GIKKBNFM@?1NonFullScreenPageMode?5?1?$CFs?6?$AA@ 0070afd4     clibpdf:cpdfInit.obj
 0003:0001aff8       ??_C@_0BE@DCOFIHJL@?1CenterWindow?5true?6?$AA@ 0070aff8     clibpdf:cpdfInit.obj
 0003:0001b010       ??_C@_0BB@GOLMCCNC@?1FitWindow?5true?6?$AA@ 0070b010     clibpdf:cpdfInit.obj
 0003:0001b024       ??_C@_0BE@ILCPAKCL@?1HideWindowUI?5true?6?$AA@ 0070b024     clibpdf:cpdfInit.obj
 0003:0001b03c       ??_C@_0BD@IMFCONJB@?1HideMenubar?5true?6?$AA@ 0070b03c     clibpdf:cpdfInit.obj
 0003:0001b054       ??_C@_0BD@DAPHPOLK@?1HideToolbar?5true?6?$AA@ 0070b054     clibpdf:cpdfInit.obj
 0003:0001b06c       ??_C@_0BH@GHPBCFLA@?1ViewerPreferences?5?$DM?$DM?6?$AA@ 0070b06c     clibpdf:cpdfInit.obj
 0003:0001b088       ??_C@_0BB@LJMKPBKI@?1PageLayout?5?1?$CFs?6?$AA@ 0070b088     clibpdf:cpdfInit.obj
 0003:0001b09c       ??_C@_0P@GHHOKFKK@?1PageMode?5?1?$CFs?6?$AA@ 0070b09c     clibpdf:cpdfInit.obj
 0003:0001b0b0       ??_C@_0BC@IMCAFIPD@?1Outlines?5?$CFd?50?5R?6?$AA@ 0070b0b0     clibpdf:cpdfInit.obj
 0003:0001b0c8       ??_C@_0P@LPMOMOIG@?1Pages?5?$CFd?50?5R?6?$AA@ 0070b0c8     clibpdf:cpdfInit.obj
 0003:0001b0dc       ??_C@_0BA@FAKDCKLJ@?1Type?5?1Catalog?6?$AA@ 0070b0dc     clibpdf:cpdfInit.obj
 0003:0001b0f0       ??_C@_03LDNIJDIE@?$DM?$DM?6?$AA@ 0070b0f0     clibpdf:cpdfInit.obj
 0003:0001b0f4       ??_C@_09NHNFDEOP@?$CFd?50?5obj?6?$AA@ 0070b0f4     clibpdf:cpdfInit.obj
 0003:0001b100       ??_C@_0O@GGOANFIM@?1Last?5?$CFd?50?5R?6?$AA@ 0070b100     clibpdf:cpdfInit.obj
 0003:0001b110       ??_C@_0P@ELJJOFCM@?1First?5?$CFd?50?5R?6?$AA@ 0070b110     clibpdf:cpdfInit.obj
 0003:0001b124       ??_C@_0L@DLNNNLDB@?1Count?5?$CFd?6?$AA@ 0070b124     clibpdf:cpdfInit.obj
 0003:0001b134       ??_C@_0BB@FOEBPBOM@?1Type?5?1Outlines?6?$AA@ 0070b134     clibpdf:cpdfInit.obj
 0003:0001b148       ??_C@_05HAHDPCFG@?$FN?6?$DO?$DO?6?$AA@ 0070b148     clibpdf:cpdfInit.obj
 0003:0001b150       ??_C@_07KILBOIKA@?$CFd?50?5R?5?$AA@ 0070b150     clibpdf:cpdfInit.obj
 0003:0001b15c       ??_C@_08FGCPOMDA@?1Kids?5?$FL?5?$AA@ 0070b15c     clibpdf:cpdfInit.obj
 0003:0001b168       ??_C@_0O@MFOAGEKN@?1Type?5?1Pages?6?$AA@ 0070b168     clibpdf:cpdfInit.obj
 0003:0001b178       ??_C@_0BB@KKMFOCF@?1Trans?5?$DM?$DM?5?$CFs?5?$DO?$DO?6?$AA@ 0070b178     clibpdf:cpdfInit.obj
 0003:0001b18c       ??_C@_0L@PAAKLGIE@?1Dur?5?$CF?43f?6?$AA@ 0070b18c     clibpdf:cpdfInit.obj
 0003:0001b19c       ??_C@_02JODFHDIE@?$FN?6?$AA@ 0070b19c     clibpdf:cpdfInit.obj
 0003:0001b1a0       ??_C@_0L@KHMEBCCK@?1Annots?5?$FL?5?$AA@ 0070b1a0     clibpdf:cpdfInit.obj
 0003:0001b1b0       ??_C@_0BC@IIOINGOD@?1Contents?5?$CFd?50?5R?6?$AA@ 0070b1b0     clibpdf:cpdfInit.obj
 0003:0001b1c8       ??_C@_0M@PMLNOFFC@?1Rotate?5?$CFd?6?$AA@ 0070b1c8     clibpdf:cpdfInit.obj
 0003:0001b1d8       ??_C@_0P@JGABJDHO@?1CropBox?5?$FL?$CFs?$FN?6?$AA@ 0070b1d8     clibpdf:cpdfInit.obj
 0003:0001b1ec       ??_C@_0BA@HPAFMHHL@?1MediaBox?5?$FL?$CFs?$FN?6?$AA@ 0070b1ec     clibpdf:cpdfInit.obj
 0003:0001b200       ??_C@_0BE@PHJINFFN@?1ProcSet?5?$CFd?50?5R?5?$DO?$DO?6?$AA@ 0070b200     clibpdf:cpdfInit.obj
 0003:0001b218       ??_C@_0N@BJFJBCAC@?1XObject?5?$DM?$DM?6?$AA@ 0070b218     clibpdf:cpdfInit.obj
 0003:0001b228       ??_C@_0M@NLMMOGKK@?1?$CFs?5?$CFd?50?5R?6?$AA@ 0070b228     clibpdf:cpdfInit.obj
 0003:0001b238       ??_C@_09OBPIODEC@?1Font?5?$DM?$DM?6?$AA@ 0070b238     clibpdf:cpdfInit.obj
 0003:0001b244       ??_C@_0P@NJOLNEAF@?1Resources?5?$DM?$DM?6?$AA@ 0070b244     clibpdf:cpdfInit.obj
 0003:0001b258       ??_C@_0BA@FNHFOODG@?1Parent?5?$CFd?50?5R?6?$AA@ 0070b258     clibpdf:cpdfInit.obj
 0003:0001b26c       ??_C@_0N@EEHHDIBJ@?1Type?5?1Page?6?$AA@ 0070b26c     clibpdf:cpdfInit.obj
 0003:0001b27c       ??_C@_0M@JFIFBJMD@?6endstream?6?$AA@ 0070b27c     clibpdf:cpdfInit.obj
 0003:0001b28c       ??_C@_0BI@KBMMHDJK@?$DM?$DM?1Length?5?$CFld?$DO?$DO?6stream?6?$AA@ 0070b28c     clibpdf:cpdfInit.obj
 0003:0001b2a8       ??_C@_0CH@CGPKILHO@?$DM?$DM?6?1Length?5?$CFld?6?1Filter?5?$FL?$CFs?$FN?6?$DO?$DO?6s@ 0070b2a8     clibpdf:cpdfInit.obj
 0003:0001b2d8       ??_C@_0BH@MMBAOANG@?$DM?$DM?1Length?5?$CFd?$DO?$DO?6stream?6?$AA@ 0070b2d8     clibpdf:cpdfInit.obj
 0003:0001b2f4       ??_C@_0O@IFEHMHLG@?$FL?1PDF?5?1Text?$FN?6?$AA@ 0070b2f4     clibpdf:cpdfInit.obj
 0003:0001b304       ??_C@_08JGIALALO@?1ImageI?5?$AA@ 0070b304     clibpdf:cpdfInit.obj
 0003:0001b310       ??_C@_08JLBHDFGI@?1ImageC?5?$AA@ 0070b310     clibpdf:cpdfInit.obj
 0003:0001b31c       ??_C@_08JKNFFPFP@?1ImageB?5?$AA@ 0070b31c     clibpdf:cpdfInit.obj
 0003:0001b328       ??_C@_0N@FILDIAPH@?$FL?1PDF?5?1Text?5?$AA@ 0070b328     clibpdf:cpdfInit.obj
 0003:0001b338       ??_C@_0BN@EOMOKPKJ@?1DescendantFonts?5?$FL?5?$CFd?50?5R?5?$FN?6?$AA@ 0070b338     clibpdf:cpdfInit.obj
 0003:0001b35c       ??_C@_0BI@HJAGFONI@?1FontDescriptor?5?$CFd?50?5R?6?$AA@ 0070b35c     clibpdf:cpdfInit.obj
 0003:0001b378       ??_C@_03JDANDILB@?$CFd?5?$AA@ 0070b378     clibpdf:cpdfInit.obj
 0003:0001b37c       ??_C@_0L@GHDFEHI@?1Widths?5?$FL?6?$AA@ 0070b37c     clibpdf:cpdfInit.obj
 0003:0001b38c       ??_C@_0O@NFDAMHBI@?1LastChar?5?$CFd?6?$AA@ 0070b38c     clibpdf:cpdfInit.obj
 0003:0001b39c       ??_C@_0P@PIEJPHLI@?1FirstChar?5?$CFd?6?$AA@ 0070b39c     clibpdf:cpdfInit.obj
 0003:0001b3b0       ??_C@_0P@IFLLBNBE@?1Encoding?5?1?$CFs?6?$AA@ 0070b3b0     clibpdf:cpdfInit.obj
 0003:0001b3c4       ??_C@_0P@EHDFPLKN@?1BaseFont?5?1?$CFs?6?$AA@ 0070b3c4     clibpdf:cpdfInit.obj
 0003:0001b3d8       ??_C@_0L@KHJOJNLC@?1Name?5?1?$CFs?6?$AA@ 0070b3d8     clibpdf:cpdfInit.obj
 0003:0001b3e8       ??_C@_0BB@BPDEOFPI@?1Subtype?5?1Type0?6?$AA@ 0070b3e8     clibpdf:cpdfInit.obj
 0003:0001b3fc       ??_C@_0BB@BOPGIPMP@?1Subtype?5?1Type1?6?$AA@ 0070b3fc     clibpdf:cpdfInit.obj
 0003:0001b410       ??_C@_0N@EOCEOBDD@?1Type?5?1Font?6?$AA@ 0070b410     clibpdf:cpdfInit.obj
 0003:0001b420       ??_C@_0BC@DIOPCAPK@?1FontFile?5?$CFd?50?5R?6?$AA@ 0070b420     clibpdf:cpdfInit.obj
 0003:0001b438       ??_C@_0BB@DDNKNKP@?1Style?5?$DM?$DM?5?$CFs?5?$DO?$DO?6?$AA@ 0070b438     clibpdf:cpdfInit.obj
 0003:0001b44c       ??_C@_0O@IHACCDGJ@?1AvgWidth?5?$CFd?6?$AA@ 0070b44c     clibpdf:cpdfInit.obj
 0003:0001b45c       ??_C@_0O@FIDGKOOM@?1MaxWidth?5?$CFd?6?$AA@ 0070b45c     clibpdf:cpdfInit.obj
 0003:0001b46c       ??_C@_0N@KNAFBAOE@?1Leading?5?$CFd?6?$AA@ 0070b46c     clibpdf:cpdfInit.obj
 0003:0001b47c       ??_C@_0BC@MIOPCFPL@?1MissingWidth?5?$CFd?6?$AA@ 0070b47c     clibpdf:cpdfInit.obj
 0003:0001b494       ??_C@_0L@MANGKBF@?1StemH?5?$CFd?6?$AA@ 0070b494     clibpdf:cpdfInit.obj
 0003:0001b4a4       ??_C@_0N@OEKPBEKH@?1XHeight?5?$CFd?6?$AA@ 0070b4a4     clibpdf:cpdfInit.obj
 0003:0001b4b4       ??_C@_0L@DFNBAJPO@?1StemV?5?$CFd?6?$AA@ 0070b4b4     clibpdf:cpdfInit.obj
 0003:0001b4c4       ??_C@_0BB@JCMAIBIJ@?1ItalicAngle?5?$CFg?6?$AA@ 0070b4c4     clibpdf:cpdfInit.obj
 0003:0001b4d8       ??_C@_0P@MNIDIEOA@?1FontName?5?1?$CFs?6?$AA@ 0070b4d8     clibpdf:cpdfInit.obj
 0003:0001b4ec       ??_C@_0BJ@NKLDABKJ@?1FontBBox?5?$FL?$CFd?5?$CFd?5?$CFd?5?$CFd?$FN?6?$AA@ 0070b4ec     clibpdf:cpdfInit.obj
 0003:0001b50c       ??_C@_0M@JNFDNKDH@?1Flags?5?$CFld?6?$AA@ 0070b50c     clibpdf:cpdfInit.obj
 0003:0001b51c       ??_C@_0N@DONODPHM@?1Descent?5?$CFd?6?$AA@ 0070b51c     clibpdf:cpdfInit.obj
 0003:0001b52c       ??_C@_0P@IEMLEOPG@?1CapHeight?5?$CFd?6?$AA@ 0070b52c     clibpdf:cpdfInit.obj
 0003:0001b540       ??_C@_0M@LBPEBFAC@?1Ascent?5?$CFd?6?$AA@ 0070b540     clibpdf:cpdfInit.obj
 0003:0001b550       ??_C@_0BH@HODEHEIB@?1Type?5?1FontDescriptor?6?$AA@ 0070b550     clibpdf:cpdfInit.obj
 0003:0001b56c       ??_C@_06LAJIBPDA@?1W?5?$CFs?6?$AA@ 0070b56c     clibpdf:cpdfInit.obj
 0003:0001b574       ??_C@_07PIFIMCDH@?1DW?5?$CFd?6?$AA@ 0070b574     clibpdf:cpdfInit.obj
 0003:0001b580       ??_C@_0BJ@LADGONPG@?1CIDSystemInfo?5?$DM?$DM?5?$CFs?5?$DO?$DO?6?$AA@ 0070b580     clibpdf:cpdfInit.obj
 0003:0001b5a0       ??_C@_0BI@PDIDAFAO@?1Subtype?5?1CIDFontType2?6?$AA@ 0070b5a0     clibpdf:cpdfInit.obj
 0003:0001b5bc       ??_C@_0BD@MPLBFFHC@?6endstream?6endobj?6?$AA@ 0070b5bc     clibpdf:cpdfInit.obj
 0003:0001b5d4       ??_C@_0L@BJMKAADP@?$DO?$DO?6stream?6?$AA@ 0070b5d4     clibpdf:cpdfInit.obj
 0003:0001b5e4       ??_C@_0O@OOGNCLPO@?1Length3?5?$CFld?6?$AA@ 0070b5e4     clibpdf:cpdfInit.obj
 0003:0001b5f4       ??_C@_0O@EIBKCAEK@?1Length2?5?$CFld?6?$AA@ 0070b5f4     clibpdf:cpdfInit.obj
 0003:0001b604       ??_C@_0O@HJPCDKNH@?1Length1?5?$CFld?6?$AA@ 0070b604     clibpdf:cpdfInit.obj
 0003:0001b614       ??_C@_0N@NNEMMEHP@?1Length?5?$CFld?6?$AA@ 0070b614     clibpdf:cpdfInit.obj
 0003:0001b624       ??_C@_07IOGHDGLF@stream?6?$AA@ 0070b624     clibpdf:cpdfInit.obj
 0003:0001b630       ??_C@_0BB@CMIFHGDD@?1ColorSpace?5?1?$CFs?6?$AA@ 0070b630     clibpdf:cpdfInit.obj
 0003:0001b644       ??_C@_0BB@BCPPGFLH@?1ImageMask?5true?6?$AA@ 0070b644     clibpdf:cpdfInit.obj
 0003:0001b658       ??_C@_0BG@JDHHNHD@?1BitsPerComponent?5?$CFd?6?$AA@ 0070b658     clibpdf:cpdfInit.obj
 0003:0001b674       ??_C@_0M@OEAGPKC@?1Decode?5?$CFs?6?$AA@ 0070b674     clibpdf:cpdfInit.obj
 0003:0001b684       ??_C@_0BG@PKFKPDDJ@?1Filter?5?1FlateDecode?6?$AA@ 0070b684     clibpdf:cpdfInit.obj
 0003:0001b6a0       ??_C@_0CG@DKGEJLHN@?1DecodeParms?5?$DM?$DM?5?1K?5?91?5?1Columns?5?$CF@ 0070b6a0     clibpdf:cpdfInit.obj
 0003:0001b6d0       ??_C@_0BJ@BALIJIC@?1Filter?5?1CCITTFaxDecode?6?$AA@ 0070b6d0     clibpdf:cpdfInit.obj
 0003:0001b6f0       ??_C@_0BE@MKNCEFHP@?1Filter?5?1DCTDecode?6?$AA@ 0070b6f0     clibpdf:cpdfInit.obj
 0003:0001b708       ??_C@_0M@FENCGCPB@?1Height?5?$CFd?6?$AA@ 0070b708     clibpdf:cpdfInit.obj
 0003:0001b718       ??_C@_0L@GBCJLDPM@?1Width?5?$CFd?6?$AA@ 0070b718     clibpdf:cpdfInit.obj
 0003:0001b728       ??_C@_0BB@BMIEMCJJ@?1Subtype?5?1Image?6?$AA@ 0070b728     clibpdf:cpdfInit.obj
 0003:0001b73c       ??_C@_0BA@KFKFBPKG@?1Type?5?1XObject?6?$AA@ 0070b73c     clibpdf:cpdfInit.obj
 0003:0001b750       ??_C@_06GBHLHLPL@?1F?5?$CFd?6?$AA@ 0070b750     clibpdf:cpdfInit.obj
 0003:0001b758       ??_C@_0BF@ELCLGNKK@?1C?5?$FL?$CF?44f?5?$CF?44f?5?$CF?44f?$FN?6?$AA@ 0070b758     clibpdf:cpdfInit.obj
 0003:0001b774       ??_C@_0BB@FECADJBO@?1Border?5?$FL0?50?51?$FN?6?$AA@ 0070b774     clibpdf:cpdfInit.obj
 0003:0001b788       ??_C@_0M@KPKCEGNL@?1Border?5?$CFs?6?$AA@ 0070b788     clibpdf:cpdfInit.obj
 0003:0001b798       ??_C@_0O@BAHLPKBC@?1BS?5?$DM?$DM?6?$CFs?6?$DO?$DO?6?$AA@ 0070b798     clibpdf:cpdfInit.obj
 0003:0001b7a8       ??_C@_0N@PMLIMADK@?1A?5?$DM?$DM?6?$CFs?6?$DO?$DO?6?$AA@ 0070b7a8     clibpdf:cpdfInit.obj
 0003:0001b7b8       ??_C@_0BD@IKGIGNEB@?1Dest?5?$FL?$CFd?50?5R?5?$CFs?$FN?6?$AA@ 0070b7b8     clibpdf:cpdfInit.obj
 0003:0001b7d0       ??_C@_0BM@NHDDCBOA@?1A?5?$DM?$DM?5?1S?5?1URI?6?1URI?5?$CI?$CFs?$CJ?6?$DO?$DO?6?$AA@ 0070b7d0     clibpdf:cpdfInit.obj
 0003:0001b7f4       ??_C@_0BA@BOCHLLGG@?1Subtype?5?1Link?6?$AA@ 0070b7f4     clibpdf:cpdfInit.obj
 0003:0001b808       ??_C@_0M@MGMKDEAJ@?1Contents?5?$CI?$AA@ 0070b808     clibpdf:cpdfInit.obj
 0003:0001b818       ??_C@_04FLDDMAII@?1T?5?$CI?$AA@ 0070b818     clibpdf:cpdfInit.obj
 0003:0001b820       ??_C@_0BN@NMPFFGCO@?1Rect?5?$FL?$CF?40f?5?$CF?40f?5?$CF?40f?5?$CF?40f?$FN?6?$AA@ 0070b820     clibpdf:cpdfInit.obj
 0003:0001b844       ??_C@_0BA@FGFKDKJP@?1Subtype?5?1Text?6?$AA@ 0070b844     clibpdf:cpdfInit.obj
 0003:0001b858       ??_C@_0O@JCPNNFJC@?1Type?5?1Annot?6?$AA@ 0070b858     clibpdf:cpdfInit.obj
 0003:0001b868       ??_C@_0BA@HAAJHPJJ@?1Keywords?5?$CI?$CFs?$CJ?6?$AA@ 0070b868     clibpdf:cpdfInit.obj
 0003:0001b87c       ??_C@_0P@JNGCHFPK@?1Subject?5?$CI?$CFs?$CJ?6?$AA@ 0070b87c     clibpdf:cpdfInit.obj
 0003:0001b890       ??_C@_0N@DEAFJDNK@?1Title?5?$CI?$CFs?$CJ?6?$AA@ 0070b890     clibpdf:cpdfInit.obj
 0003:0001b8a0       ??_C@_0BE@JGFKOJKE@?1Author?5?$CIUser?3?5?$CFs?$CJ?6?$AA@ 0070b8a0     clibpdf:cpdfInit.obj
 0003:0001b8b8       ??_C@_0BI@HIBJCIIF@?1Producer?5?$CI?$FL?$CFs?5?$CFs?$FN?5?$CFs?$CJ?6?$AA@ 0070b8b8     clibpdf:cpdfInit.obj
 0003:0001b8d4       ??_C@_0BA@JIICONHB@ClibPDF?5Library?$AA@ 0070b8d4     clibpdf:cpdfInit.obj
 0003:0001b8e8       ??_C@_09CNCDMAPK@2?402?9r1?92?$AA@ 0070b8e8     clibpdf:cpdfInit.obj
 0003:0001b8f4       ??_C@_0O@CLJDEJOI@Windows?59x?1NT?$AA@ 0070b8f4     clibpdf:cpdfInit.obj
 0003:0001b904       ??_C@_0BG@MBCAPICC@?1CreationDate?5?$CID?3?$CFs?$CJ?6?$AA@ 0070b904     clibpdf:cpdfInit.obj
 0003:0001b920       ??_C@_0P@DJCNDBEA@?1Creator?5?$CI?$CFs?$CJ?6?$AA@ 0070b920     clibpdf:cpdfInit.obj
 0003:0001b934       ??_C@_08HHHOEEJL@?$CF?$CF?$CF?$CFEOF?6?$AA@ 0070b934     clibpdf:cpdfInit.obj
 0003:0001b940       ??_C@_04PEDNGLFL@?$CFld?6?$AA@ 0070b940     clibpdf:cpdfInit.obj
 0003:0001b948       ??_C@_0L@GPHOMMBL@startxref?6?$AA@ 0070b948     clibpdf:cpdfInit.obj
 0003:0001b958       ??_C@_0O@JLEOLHI@?1Info?5?$CFd?50?5R?6?$AA@ 0070b958     clibpdf:cpdfInit.obj
 0003:0001b968       ??_C@_0O@GFNMPKPE@?1Root?5?$CFd?50?5R?6?$AA@ 0070b968     clibpdf:cpdfInit.obj
 0003:0001b978       ??_C@_09NFGFODAF@?1Size?5?$CFd?6?$AA@ 0070b978     clibpdf:cpdfInit.obj
 0003:0001b984       ??_C@_08KFFGDPGP@trailer?6?$AA@ 0070b984     clibpdf:cpdfInit.obj
 0003:0001b990       ??_C@_0BB@ENICKCGJ@?$CF010ld?500000?5n?5?6?$AA@ 0070b990     clibpdf:cpdfInit.obj
 0003:0001b9a4       ??_C@_0BF@PIONCKDO@0000000000?565535?5f?5?6?$AA@ 0070b9a4     clibpdf:cpdfInit.obj
 0003:0001b9c0       ??_C@_05KJFLKCIP@0?5?$CFd?6?$AA@ 0070b9c0     clibpdf:cpdfInit.obj
 0003:0001b9c8       ??_C@_05JABDDKHG@xref?6?$AA@ 0070b9c8     clibpdf:cpdfInit.obj
 0003:0001b9d0       ??_C@_09GHBFFHAA@?1Standard?$AA@ 0070b9d0     clibpdf:cpdfInit.obj
 0003:0001b9e0       __real@4008000000000000    0070b9e0     clibpdf:cpdfArc.obj
 0003:0001b9f0       __real@400921fb54524550    0070b9f0     clibpdf:cpdfArc.obj
 0003:0001ba00       __real@3f91df46a25ca311    0070ba00     clibpdf:cpdfArc.obj
 0003:0001ba0c       ??_C@_0N@OAAAFECO@?$CF?43f?5?$CF?43f?5m?6?$AA@ 0070ba0c     clibpdf:cpdfRawPlot.obj
 0003:0001ba1c       ??_C@_0N@OBMCDOBJ@?$CF?43f?5?$CF?43f?5l?6?$AA@ 0070ba1c     clibpdf:cpdfRawPlot.obj
 0003:0001ba2c       ??_C@_0CB@DPMNGDKO@?$CF?43f?5?$CF?43f?5?$CF?43f?5?$CF?43f?5?$CF?43f?5?$CF?43f?5c?6@ 0070ba2c     clibpdf:cpdfRawPlot.obj
 0003:0001ba54       ??_C@_0BI@KFNBJGCL@?$CF?43f?5?$CF?43f?5?$CF?43f?5?$CF?43f?5re?6?$AA@ 0070ba54     clibpdf:cpdfRawPlot.obj
 0003:0001ba70       ??_C@_02LMJFFEPP@h?6?$AA@  0070ba70     clibpdf:cpdfRawPlot.obj
 0003:0001ba74       ??_C@_02JEKLFOIO@S?6?$AA@  0070ba74     clibpdf:cpdfRawPlot.obj
 0003:0001ba78       ??_C@_02LGALHJPF@f?6?$AA@  0070ba78     clibpdf:cpdfRawPlot.obj
 0003:0001ba7c       ??_C@_03PMDKDIA@f?$CK?6?$AA@ 0070ba7c     clibpdf:cpdfRawPlot.obj
 0003:0001ba80       ??_C@_02IJEPJHMJ@B?6?$AA@  0070ba80     clibpdf:cpdfRawPlot.obj
 0003:0001ba84       ??_C@_03CAJDJLOJ@B?$CK?6?$AA@ 0070ba84     clibpdf:cpdfRawPlot.obj
 0003:0001ba88       ??_C@_02JDKCPGFC@W?6?$AA@  0070ba88     clibpdf:cpdfRawPlot.obj
 0003:0001ba8c       ??_C@_03EHFEDMEE@W?$CK?6?$AA@ 0070ba8c     clibpdf:cpdfRawPlot.obj
 0003:0001ba90       ??_C@_02LIBICIEN@n?6?$AA@  0070ba90     clibpdf:cpdfRawPlot.obj
 0003:0001ba94       ??_C@_07CKBFFDCC@?$CF?44f?5g?6?$AA@ 0070ba94     clibpdf:cpdfColor.obj
 0003:0001baa0       ??_C@_07BCFIBFMC@?$CF?44f?5G?6?$AA@ 0070baa0     clibpdf:cpdfColor.obj
 0003:0001baac       ??_C@_0BD@CAKKJKKA@?$CF?44f?5?$CF?44f?5?$CF?44f?5rg?6?$AA@ 0070baac     clibpdf:cpdfColor.obj
 0003:0001bac4       ??_C@_0BD@LINFHDHO@?$CF?44f?5?$CF?44f?5?$CF?44f?5RG?6?$AA@ 0070bac4     clibpdf:cpdfColor.obj
 0003:0001badc       ??_C@_0BH@GKEEBNLI@?$CF?44f?5?$CF?44f?5?$CF?44f?5?$CF?44f?5k?6?$AA@ 0070badc     clibpdf:cpdfColor.obj
 0003:0001baf8       ??_C@_0BH@FCAJFLFI@?$CF?44f?5?$CF?44f?5?$CF?44f?5?$CF?44f?5K?6?$AA@ 0070baf8     clibpdf:cpdfColor.obj
 0003:0001bb14       ??_C@_03BONKCKGK@?6q?6?$AA@ 0070bb14     clibpdf:cpdfGstate.obj
 0003:0001bb18       ??_C@_02JHCPIKOA@Q?6?$AA@  0070bb18     clibpdf:cpdfGstate.obj
 0003:0001bb1c       ??_C@_05LCCNHEIO@?$CFs?5d?6?$AA@ 0070bb1c     clibpdf:cpdfGstate.obj
 0003:0001bb24       ??_C@_04KIHCFBFE@?$FL?$FN?50?$AA@ 0070bb24     clibpdf:cpdfGstate.obj
 0003:0001bb2c       ??_C@_0CC@BIBCLHLK@?$CF?44f?5?$CF?44f?5?$CF?44f?5?$CF?44f?5?$CF?44f?5?$CF?44f?5cm@ 0070bb2c     clibpdf:cpdfGstate.obj
 0003:0001bb54       ??_C@_05GIDFKMEP@?$CFd?5i?6?$AA@ 0070bb54     clibpdf:cpdfGstate.obj
 0003:0001bb5c       ??_C@_05GKHDBCBG@?$CFd?5j?6?$AA@ 0070bb5c     clibpdf:cpdfGstate.obj
 0003:0001bb64       ??_C@_05FCDOFEPG@?$CFd?5J?6?$AA@ 0070bb64     clibpdf:cpdfGstate.obj
 0003:0001bb6c       ??_C@_07BPMPJABE@?$CF?44f?5M?6?$AA@ 0070bb6c     clibpdf:cpdfGstate.obj
 0003:0001bb78       ??_C@_07DGDDPAFC@?$CF?44f?5w?6?$AA@ 0070bb78     clibpdf:cpdfGstate.obj
 0003:0001bb84       ??_C@_03HOPMNOLD@BT?6?$AA@ 0070bb84     clibpdf:cpdfText.obj
 0003:0001bb88       ??_C@_02KPGCMMAA@q?6?$AA@  0070bb88     clibpdf:cpdfText.obj
 0003:0001bb8c       ??_C@_03ODCLOGAK@ET?6?$AA@ 0070bb8c     clibpdf:cpdfText.obj
 0003:0001bb90       ??_C@_08FELFCOPP@?$CF?43f?5Tw?6?$AA@ 0070bb90     clibpdf:cpdfText.obj
 0003:0001bb9c       ??_C@_08EPJKCFFD@?$CF?43f?5Tc?6?$AA@ 0070bb9c     clibpdf:cpdfText.obj
 0003:0001bba8       ??_C@_08PKBKLGBI@?$CF?42f?5Tz?6?$AA@ 0070bba8     clibpdf:cpdfText.obj
 0003:0001bbb4       ??_C@_08NKPMCPDK@?$CF?42f?5TL?6?$AA@ 0070bbb4     clibpdf:cpdfText.obj
 0003:0001bbc0       ??_C@_0CC@HFOOHHKC@?$CF?44f?5?$CF?44f?5?$CF?44f?5?$CF?44f?5?$CF?44f?5?$CF?44f?5Tm@ 0070bbc0     clibpdf:cpdfText.obj
 0003:0001bbe8       ??_C@_06EEEHJILD@?$CFd?5Tr?6?$AA@ 0070bbe8     clibpdf:cpdfText.obj
 0003:0001bbf0       ??_C@_08FDLMIGCD@?$CF?43f?5Ts?6?$AA@ 0070bbf0     clibpdf:cpdfText.obj
 0003:0001bbfc       ??_C@_0O@OJLDLEBA@?$CF?43f?5?$CF?43f?5Td?6?$AA@ 0070bbfc     clibpdf:cpdfText.obj
 0003:0001bc0c       ??_C@_03FFOBJDKK@T?$CK?6?$AA@ 0070bc0c     clibpdf:cpdfText.obj
 0003:0001bc10       ??_C@_08FGGLCIBN@?$CI?$CFs?$CJ?5Tj?6?$AA@ 0070bc10     clibpdf:cpdfText.obj
 0003:0001bc1c       ??_C@_05FEJPBLCP@?$CJ?5Tj?6?$AA@ 0070bc1c     clibpdf:cpdfText.obj
 0003:0001bc24       ??_C@_07LHDGKIF@?$CI?$CFs?$CJ?5?8?6?$AA@ 0070bc24     clibpdf:cpdfText.obj
 0003:0001bc30       ??_C@_04JCNDFCEG@?$CJ?5?8?6?$AA@ 0070bc30     clibpdf:cpdfText.obj
 0003:0001bc38       ??_C@_0CD@BMFBAJCE@?1Panose?5?$DM01050202040000000000000@ 0070bc38     clibpdf:cpdfFont.obj
 0003:0001bc64       ??_C@_0CD@BPPLOMOL@?1Panose?5?$DM0801020b060000000000000@ 0070bc64     clibpdf:cpdfFont.obj
 0003:0001bc90       ??_C@_0DA@NMLHPOOP@?1Registry?5?$CIAdobe?$CJ?5?1Ordering?5?$CIGB1@ 0070bc90     clibpdf:cpdfFont.obj
 0003:0001bccc       ??_C@_0DB@PKGFOOBN@?1Registry?5?$CIAdobe?$CJ?5?1Ordering?5?$CICNS@ 0070bccc     clibpdf:cpdfFont.obj
 0003:0001bd08       ??_C@_0DD@FNFBNHND@?1Registry?5?$CIAdobe?$CJ?5?1Ordering?5?$CIKor@ 0070bd08     clibpdf:cpdfFont.obj
 0003:0001bd48       ??_C@_0DD@GHECDDGG@?1Registry?5?$CIAdobe?$CJ?5?1Ordering?5?$CIJap@ 0070bd48     clibpdf:cpdfFont.obj
 0003:0001bd88       ??_C@_0DD@EBGBDMGO@?$FL?51?595?5500?5814?5939?5500?57712?5?$FL?550@ 0070bd88     clibpdf:cpdfFont.obj
 0003:0001bdc8       ??_C@_0BN@JOPGIBDH@?$FL?51?595?5500?513648?513742?5500?5?$FN?$AA@ 0070bdc8     clibpdf:cpdfFont.obj
 0003:0001bdec       ??_C@_0BL@PDPDAIEM@?$FL?51?595?5500?58094?58190?5500?5?$FN?$AA@ 0070bdec     clibpdf:cpdfFont.obj
 0003:0001be0c       ??_C@_0BJ@PFLLPFAG@?$FL?51?595?5500?5231?5632?5500?5?$FN?$AA@ 0070be0c     clibpdf:cpdfFont.obj
 0003:0001be2c       ??_C@_0N@JMCNLAJO@?1?$CFs?5?$CF?43f?5Tf?6?$AA@ 0070be2c     clibpdf:cpdfFont.obj
 0003:0001be3c       ??_C@_07IJLLODLP@Fcpdf?$CFd?$AA@ 0070be3c     clibpdf:cpdfFont.obj
 0003:0001be48       ??_C@_0DO@FANPEFMM@Too?5many?5fonts?5in?5this?5PDF?3?5?$CFd?4?5@ 0070be48     clibpdf:cpdfFont.obj
 0003:0001be94       ??_C@_0DA@KOOLPAOJ@Font?5not?5found?3?5?$CFs?5?$DO?$DO?5substituti@ 0070be94     clibpdf:cpdfFont.obj
 0003:0001bed0       ??_C@_0L@PGKDNFLD@?$CFs?$CFc?$CFs?4pfb?$AA@ 0070bed0     clibpdf:cpdfFont.obj
 0003:0001bee0       ??_C@_04DHICIHKM@?4pfb?$AA@ 0070bee0     clibpdf:cpdfFont.obj
 0003:0001bee8       ??_C@_0EL@NDELDFKD@_cpdf_loadExternalFont?$CI?$CJ?5Fontmap@ 0070bee8     clibpdf:cpdfFont.obj
 0003:0001bf44       ??_C@_0DK@BBKEPHKG@_cpdf_loadExternalFont?$CI?$CJ?5Syntax?5@ 0070bf44     clibpdf:cpdfFont.obj
 0003:0001bf8c       ??_C@_0DE@NGGBLCPJ@_cpdf_loadExternalFont?$CI?$CJ?5Fontmap@ 0070bf8c     clibpdf:cpdfFont.obj
 0003:0001bfcc       ??_C@_0CM@KCJJBDDF@_cpdf_loadExternalFont?$CI?$CJ?5Font?5no@ 0070bfcc     clibpdf:cpdfFont.obj
 0003:0001c000       ??_C@_0L@HBDLMJHM@?$CFs?$CFc?$CFs?4pfm?$AA@ 0070c000     clibpdf:cpdfFont.obj
 0003:0001c010       ??_C@_04LABKJLGD@?4pfm?$AA@ 0070c010     clibpdf:cpdfFont.obj
 0003:0001c018       ??_C@_0BB@KJPBOLK@$Abs_Path_Prefix?$AA@ 0070c018     clibpdf:cpdfFont.obj
 0003:0001c02c       ??_C@_05EFMEBCOE@?$CF?$FL?$FO?$CJ?$FN?$AA@ 0070c02c     clibpdf:cpdfFont.obj
 0003:0001c034       ??_C@_0BC@DNMAJHAC@$Font_Directories?$AA@ 0070c034     clibpdf:cpdfFont.obj
 0003:0001c04c       ??_C@_01KDCPPGHE@r?$AA@    0070c04c     clibpdf:cpdfFont.obj
 0003:0001c050       ??_C@_0BD@IHGOBFFO@0123456789ABCDEF00?$AA@ 0070c050     clibpdf:cpdfUtil.obj
 0003:0001c068       ??_C@_02MIICKFIN@?4?6?$AA@ 0070c068     clibpdf:cpdfUtil.obj
 0003:0001c06c       ??_C@_04PFAOODAA@?$CFs?3?5?$AA@ 0070c06c     clibpdf:cpdfUtil.obj
 0003:0001c074       ??_C@_0P@KKDMCEEI@ClibPDF?5malloc?$AA@ 0070c074     clibpdf:cpdfUtil.obj
 0003:0001c088       ??_C@_0BK@MJIEFJMM@Memory?5allocation?5failure?$AA@ 0070c088     clibpdf:cpdfUtil.obj
 0003:0001c0a8       ??_C@_0BO@NGNOHJIK@?$CF04d?9?$CF02d?9?$CF02d?5?$CF02d?3?$CF02d?3?$CF02d?$AA@ 0070c0a8     clibpdf:cpdfTime.obj
 0003:0001c0cc       ??_C@_0BJ@NPJPFJML@?$CF04d?$CF02d?$CF02d?$CF02d?$CF02d?$CF02d?$AA@ 0070c0cc     clibpdf:cpdfTime.obj
 0003:0001c0f0       __real@40f5180000000000    0070c0f0     clibpdf:cpdfTime.obj
 0003:0001c100       __real@4096800000000000    0070c100     clibpdf:cpdfTime.obj
 0003:0001c110       __real@4038000000000000    0070c110     clibpdf:cpdfTime.obj
 0003:0001c11c       ??_C@_0BP@PHFEFMMN@?$CF04d?9?$CF02d?9?$CF02d?5?$CF02d?3?$CF02d?3?$CF02d?6?$AA@ 0070c11c     clibpdf:cpdfTime.obj
 0003:0001c144       ??_C@_02BEIEFPIG@?$CFg?$AA@ 0070c144     clibpdf:cpdfAxis.obj
 0003:0001c148       __real@405e000000000000    0070c148     clibpdf:cpdfAxis.obj
 0003:0001c158       __real@404e000000000000    0070c158     clibpdf:cpdfAxis.obj
 0003:0001c168       __real@bfe0000000000000    0070c168     clibpdf:cpdfAxis.obj
 0003:0001c174       ??_C@_0BG@HDBBJKBJ@?6?$CF?5Axis?5starts?5here?5?6?$AA@ 0070c174     clibpdf:cpdfAxis.obj
 0003:0001c190       ??_C@_0CG@JKPHOICF@Axis?5is?5not?5attached?5to?5a?5plot?5d@ 0070c190     clibpdf:cpdfAxis.obj
 0003:0001c1c0       __real@3fd3333333333333    0070c1c0     clibpdf:cpdfAxis.obj
 0003:0001c1d0       __real@4004000000000000    0070c1d0     clibpdf:cpdfAxis.obj
 0003:0001c1e0       __real@3fe3333333333333    0070c1e0     clibpdf:cpdfAxis.obj
 0003:0001c1ec       ??_C@_04OGKJMPGK@?$CF02d?$AA@ 0070c1ec     clibpdf:cpdfAxis.obj
 0003:0001c1f4       ??_C@_05LHCLAKAC@?$CFd?1?$CFs?$AA@ 0070c1f4     clibpdf:cpdfAxis.obj
 0003:0001c1fc       ??_C@_05DNIIFBMG@?$CFs?5?$CFs?$AA@ 0070c1fc     clibpdf:cpdfAxis.obj
 0003:0001c204       ??_C@_05LCKIIOJE@?$CFd?1?$CFd?$AA@ 0070c204     clibpdf:cpdfAxis.obj
 0003:0001c20c       ??_C@_05DIALNFFA@?$CFs?5?$CFd?$AA@ 0070c20c     clibpdf:cpdfAxis.obj
 0003:0001c214       ??_C@_07MLPKMAFH@?$CFd?5?$FL?$CFd?$FN?$AA@ 0070c214     clibpdf:cpdfAxis.obj
 0003:0001c220       ??_C@_05NFGPCJDJ@?$CFd?3?$CFd?$AA@ 0070c220     clibpdf:cpdfAxis.obj
 0003:0001c228       ??_C@_0CF@ODKMPEBI@Corrupted?5memory?5stream?3?50x?$CFlx?5?$CI@ 0070c228     clibpdf:cpdfMemBuf.obj
 0003:0001c254       ??_C@_0BM@CODCIPOI@Cannot?5open?5output?5file?3?5?$CFs?$AA@ 0070c254     clibpdf:cpdfMemBuf.obj
 0003:0001c278       ??_C@_0DL@CINFNCCK@stream?$DN?$CFlu?0?5magic?$DN?5?$CFlu?0?5buffer?$DN?5@ 0070c278     clibpdf:cpdfMemBuf.obj
 0003:0001c2c0       ??_C@_0DK@ECMGGAMH@Page?5?$CFd?5has?5not?5yet?5been?5created@ 0070c2c0     clibpdf:cpdfOutline.obj
 0003:0001c308       ??_C@_0BE@EHKBJONO@?1XYZ?5null?5?$CF?40f?5null?$AA@ 0070c308     clibpdf:cpdfOutline.obj
 0003:0001c320       ??_C@_0M@CCNOFODF@?1FitBV?5?$CF?40f?$AA@ 0070c320     clibpdf:cpdfOutline.obj
 0003:0001c330       ??_C@_0M@BFDPLJKG@?1FitBH?5?$CF?40f?$AA@ 0070c330     clibpdf:cpdfOutline.obj
 0003:0001c340       ??_C@_05LIONBBNE@?1FitB?$AA@ 0070c340     clibpdf:cpdfOutline.obj
 0003:0001c348       ??_C@_0BK@MKCLMMCH@?1FitR?5?$CF?40f?5?$CF?40f?5?$CF?40f?5?$CF?40f?$AA@ 0070c348     clibpdf:cpdfOutline.obj
 0003:0001c368       ??_C@_0L@NDMLGCAD@?1FitV?5?$CF?40f?$AA@ 0070c368     clibpdf:cpdfOutline.obj
 0003:0001c378       ??_C@_0L@OECKIFJA@?1FitH?5?$CF?40f?$AA@ 0070c378     clibpdf:cpdfOutline.obj
 0003:0001c388       ??_C@_04MIGGPLIL@?1Fit?$AA@ 0070c388     clibpdf:cpdfOutline.obj
 0003:0001c390       ??_C@_0BE@OMLKLFDK@?1XYZ?5?$CF?40f?5?$CF?40f?5?$CF?43f?$AA@ 0070c390     clibpdf:cpdfOutline.obj
 0003:0001c3a8       ??_C@_0BE@HHAFAEOF@?1XYZ?5null?5null?5null?$AA@ 0070c3a8     clibpdf:cpdfOutline.obj
 0003:0001c3c0       ??_C@_0M@PKJLKHNI@?1Count?5?9?$CFd?6?$AA@ 0070c3c0     clibpdf:cpdfOutline.obj
 0003:0001c3d0       ??_C@_0O@HBGNCLBE@?1Prev?5?$CFd?50?5R?6?$AA@ 0070c3d0     clibpdf:cpdfOutline.obj
 0003:0001c3e0       ??_C@_0O@CGJLNMPM@?1Next?5?$CFd?50?5R?6?$AA@ 0070c3e0     clibpdf:cpdfOutline.obj
 0003:0001c3f0       ??_C@_08COGFGIMJ@?1Title?5?$CI?$AA@ 0070c3f0     clibpdf:cpdfOutline.obj
 0003:0001c3fc       ??_C@_0CF@HKKPEGCP@too?5many?5annotations?5in?5this?5PDF@ 0070c3fc     clibpdf:cpdfAnnot.obj
 0003:0001c428       ??_C@_07BHDDLOFD@?$FL0?50?50?$FN?$AA@ 0070c428     clibpdf:cpdfAnnot.obj
 0003:0001c434       ??_C@_0CF@EBJLMKPC@cannot?5open?5annotation?5text?5file@ 0070c434     clibpdf:cpdfAnnot.obj
 0003:0001c460       ??_C@_07MGGLLNMB@?1?$CFs?5Do?6?$AA@ 0070c460     clibpdf:cpdfImage.obj
 0003:0001c470       __real@3ee4f8b588e368f1    0070c470     clibpdf:cpdfImage.obj
 0003:0001c47c       ??_C@_08CFMLIBHC@IMcpdf?$CFd?$AA@ 0070c47c     clibpdf:cpdfImage.obj
 0003:0001c488       ??_C@_0BF@PLAALHBK@Not?5a?5JPEG?5file?$DP?3?5?$CFs?$AA@ 0070c488     clibpdf:cpdfImage.obj
 0003:0001c4a8       ??_C@_0EA@HEBELNMH@Too?5many?5images?5in?5this?5PDF?3?5?$CFd?4@ 0070c4a8     clibpdf:cpdfImage.obj
 0003:0001c4f4       ??_C@_0CM@PKNKECJI@LIBTIFF?5library?5support?5is?5not?5c@ 0070c4f4     clibpdf:cpdfImage.obj
 0003:0001c528       ??_C@_0CD@MCLCOCBP@PDFIMG?5support?5is?5not?5compiled?5i@ 0070c528     clibpdf:cpdfImage.obj
 0003:0001c554       ??_C@_05HBMFIKCP@1?41?43?$AA@ 0070c554     clibpdf:compress.obj
 0003:0001c55c       ??_C@_0CN@LAOMIJNA@ReadPFB?5?9?5ASCII?5section?93?5read?5e@ 0070c55c     clibpdf:cpdfReadPFB.obj
 0003:0001c594       ??_C@_0CK@EBOELCGC@ReadPFB?5?9?5BINARY?5section?92?5read?5@ 0070c594     clibpdf:cpdfReadPFB.obj
 0003:0001c5c8       ??_C@_0CJ@HFGHPOKF@ReadPFB?5?9?5ASCII?5section?91?5read?5e@ 0070c5c8     clibpdf:cpdfReadPFB.obj
 0003:0001c5fc       ??_C@_0CG@BIADFMEK@ReadPFB?5?9?5Unable?5to?5open?5PFB?5fil@ 0070c5fc     clibpdf:cpdfReadPFB.obj
 0003:0001c630       ??_C@_0EF@LNKPBABA@ReadPFB?5?9?5Unexpected?5type?3?5?$CFd?5?$CI?$CF@ 0070c630     clibpdf:cpdfReadPFB.obj
 0003:0001c688       ??_C@_0EH@OJCCEIGF@ReadPFB?5?9?5Bad?5magic?5number?3?5?$CFd?5?$CI@ 0070c688     clibpdf:cpdfReadPFB.obj
 0003:0001c6e0       ??_C@_0CK@JIEPJOPP@ReadPFM?5?9?5Not?5a?5valid?5Type1?5PFM?5@ 0070c6e0     clibpdf:cpdfReadPFM.obj
 0003:0001c714       ??_C@_0BJ@LOCGPGKD@ClibPDF?5read_JPEG_header?$AA@ 0070c714     clibpdf:jpegsize.obj
 0003:0001c734       ??_C@_0BK@EAHKCJAG@Can?8t?5open?5image?5file?3?5?$CFs?$AA@ 0070c734     clibpdf:jpegsize.obj
 0003:0001c754       ??_C@_0BB@KEMNIKAP@ClibPDF?5jpegsize?$AA@ 0070c754     clibpdf:jpegsize.obj
 0003:0001c768       ??_C@_0CJ@MMOCPDBE@Warning?3?5garbage?5data?5found?5in?5J@ 0070c768     clibpdf:jpegsize.obj
 0003:0001c79c       ??_C@_0BL@COABKCIG@Premature?5EOF?5in?5JPEG?5file?$AA@ 0070c79c     clibpdf:jpegsize.obj
 0003:0001c7bc       ??_C@_0BA@GLHECJAL@Not?5a?5JPEG?5file?$AA@ 0070c7bc     clibpdf:jpegsize.obj
 0003:0001c7d0       ??_C@_0BN@DFKDGHJF@Erroneous?5JPEG?5marker?5length?$AA@ 0070c7d0     clibpdf:jpegsize.obj
 0003:0001c7f4       ??_C@_0BI@CPJCPCPO@Bogus?5SOF?5marker?5length?$AA@ 0070c7f4     clibpdf:jpegsize.obj
 0003:0001c810       _deflate_copyright         0070c810     clibpdf:deflate.obj
 0003:0001c8e4       ??_C@_0BF@CJFPCCEG@incompatible?5version?$AA@ 0070c8e4     clibpdf:zutil.obj
 0003:0001c900       ??_C@_0N@DFPGLBGC@buffer?5error?$AA@ 0070c900     clibpdf:zutil.obj
 0003:0001c910       ??_C@_0BE@OGGJBMCE@insufficient?5memory?$AA@ 0070c910     clibpdf:zutil.obj
 0003:0001c928       ??_C@_0L@HAHMBNLP@data?5error?$AA@ 0070c928     clibpdf:zutil.obj
 0003:0001c938       ??_C@_0N@MKKNPMJD@stream?5error?$AA@ 0070c938     clibpdf:zutil.obj
 0003:0001c948       ??_C@_0L@KIJFAKBJ@file?5error?$AA@ 0070c948     clibpdf:zutil.obj
 0003:0001c958       ??_C@_0L@FNAOCBOG@stream?5end?$AA@ 0070c958     clibpdf:zutil.obj
 0003:0001c968       ??_C@_0BA@MOKMMFOD@need?5dictionary?$AA@ 0070c968     clibpdf:zutil.obj
 0003:0001cfc8       __dist_code                0070cfc8     clibpdf:trees.obj
 0003:0001d1c8       __length_code              0070d1c8     clibpdf:trees.obj
 0003:0001d614       ??_C@_0BO@GNIAFIKK@Unknown?5Runtime?5Check?5Error?6?$AN?$AA@ 0070d614     msvcrtd:_error_.obj
 0003:0001d638       ??_C@_0CM@NGINOKPC@Stack?5memory?5around?5_alloca?5was?5@ 0070d638     msvcrtd:_error_.obj
 0003:0001d66c       ??_C@_0DG@HKJMLLLP@A?5local?5variable?5was?5used?5before@ 0070d66c     msvcrtd:_error_.obj
 0003:0001d6ac       ??_C@_0BN@FFOINMNJ@Stack?5memory?5was?5corrupted?6?$AN?$AA@ 0070d6ac     msvcrtd:_error_.obj
 0003:0001d6d0       ??_C@_0BBN@GPMLNJCF@A?5cast?5to?5a?5smaller?5data?5type?5ha@ 0070d6d0     msvcrtd:_error_.obj
 0003:0001d828       ??_C@_0NN@NGPKDKPD@The?5value?5of?5ESP?5was?5not?5properl@ 0070d828     msvcrtd:_error_.obj
 0003:0001d9f0       ??_C@_0CA@IODNCDPG@Run?9Time?5Check?5Failure?5?$CD?$CFd?5?9?5?$CFs?$AA@ 0070d9f0     msvcrtd:_error_.obj
 0003:0001da18       ??_C@_0BE@GNBOBNCK@Unknown?5Module?5Name?$AA@ 0070da18     msvcrtd:_error_.obj
 0003:0001da30       ??_C@_0BB@PFFGGCJP@Unknown?5Filename?$AA@ 0070da30     msvcrtd:_error_.obj
 0003:0001da48       ??_C@_1EA@NFKNIFJP@?$AAR?$AAu?$AAn?$AA?9?$AAT?$AAi?$AAm?$AAe?$AA?5?$AAC?$AAh?$AAe?$AAc?$AAk?$AA?5?$AAF?$AAa?$AAi?$AAl?$AAu?$AAr?$AAe?$AA?5?$AA?$CD?$AA?$CF?$AAd?$AA?5?$AA?9?$AA?5?$AA?$CF?$AAs?$AA?$AA@ 0070da48     msvcrtd:_error_.obj
 0003:0001da98       ??_C@_1GM@OLMCBDMB@?$AAR?$AAu?$AAn?$AAt?$AAi?$AAm?$AAe?$AA?5?$AAC?$AAh?$AAe?$AAc?$AAk?$AA?5?$AAE?$AAr?$AAr?$AAo?$AAr?$AA?4?$AA?6?$AA?$AN?$AA?5?$AAU?$AAn?$AAa?$AAb?$AAl?$AAe?$AA?5?$AAt?$AAo@ 0070da98     msvcrtd:_error_.obj
 0003:0001db1c       ??_C@_0CG@IAFNJNEE@Stack?5corrupted?5near?5unknown?5var@ 0070db1c     msvcrtd:_error_.obj
 0003:0001db50       ??_C@_0EJ@LJKNEOLN@Stack?5area?5around?5_alloca?5memory@ 0070db50     msvcrtd:_error_.obj
 0003:0001dba8       ??_C@_08KJEDNCKC@?$CFs?$CFs?$CFs?$CFs?$AA@ 0070dba8     msvcrtd:_error_.obj
 0003:0001dbb4       ??_C@_02LLMPMKNF@?$DO?5?$AA@ 0070dbb4     msvcrtd:_error_.obj
 0003:0001dbb8       ??_C@_0BC@KIBAILCI@?$CFs?$CFs?$CFp?$CFs?$CFld?$CFs?$CFd?$CFs?$AA@ 0070dbb8     msvcrtd:_error_.obj
 0003:0001dbd0       ??_C@_0EI@CLEPFNGI@Stack?5area?5around?5_alloca?5memory@ 0070dbd0     msvcrtd:_error_.obj
 0003:0001dc28       ??_C@_0N@MHFFIMFG@?6Address?3?50x?$AA@ 0070dc28     msvcrtd:_error_.obj
 0003:0001dc38       ??_C@_07DFDJCKFN@?6Size?3?5?$AA@ 0070dc38     msvcrtd:_error_.obj
 0003:0001dc44       ??_C@_0CK@DKGBICFE@?6Allocation?5number?5within?5this?5f@ 0070dc44     msvcrtd:_error_.obj
 0003:0001dc78       ??_C@_08OMAHNMHJ@?6Data?3?5?$DM?$AA@ 0070dc78     msvcrtd:_error_.obj
 0003:0001dc84       ??_C@_09FOPFMPEJ@wsprintfA?$AA@ 0070dc84     msvcrtd:_error_.obj
 0003:0001dc90       ??_C@_1BG@OILDLIOJ@?$AAu?$AAs?$AAe?$AAr?$AA3?$AA2?$AA?4?$AAd?$AAl?$AAl?$AA?$AA@ 0070dc90     msvcrtd:_error_.obj
 0003:0001dcac       ??_C@_05MKKEDADM@?$CF?42X?5?$AA@ 0070dcac     msvcrtd:_error_.obj
 0003:0001dcb4       ??_C@_0DE@OHJBPMBP@A?5variable?5is?5being?5used?5without@ 0070dcb4     msvcrtd:_error_.obj
 0003:0001dcf8       ??_7type_info@@6B@         0070dcf8     msvcrtd:ti_inst.obj
 0003:0001dd00       ??_C@_1GA@EHAKPACL@?$AAf?$AA?3?$AA?2?$AAd?$AAd?$AA?2?$AAv?$AAc?$AAt?$AAo?$AAo?$AAl?$AAs?$AA?2?$AAc?$AAr?$AAt?$AA_?$AAb?$AAl?$AAd?$AA?2?$AAs?$AAe?$AAl?$AAf?$AA_?$AAx?$AA8?$AA6?$AA?2?$AAc@ 0070dd00     msvcrtd:crtexew.obj
 0003:0001dd78       ??_C@_1FA@DALEHHGL@?$AA_?$AA_?$AAn?$AAa?$AAt?$AAi?$AAv?$AAe?$AA_?$AAs?$AAt?$AAa?$AAr?$AAt?$AAu?$AAp?$AA_?$AAs?$AAt?$AAa?$AAt?$AAe?$AA?5?$AA?$DN?$AA?$DN?$AA?5?$AA_?$AA_?$AAi?$AAn?$AAi?$AAt@ 0070dd78     msvcrtd:crtexew.obj
 0003:0001ddd8       ??_C@_0BP@OGBCLIBO@Stack?5around?5_alloca?5corrupted?$AA@ 0070ddd8     msvcrtd:_userapi_.obj
 0003:0001de00       ??_C@_0CK@CNLNOEPB@Local?5variable?5used?5before?5initi@ 0070de00     msvcrtd:_userapi_.obj
 0003:0001de34       ??_C@_0BI@CIGMDCBH@Stack?5memory?5corruption?$AA@ 0070de34     msvcrtd:_userapi_.obj
 0003:0001de50       ??_C@_0CK@FEGOIOPB@Cast?5to?5smaller?5type?5causing?5los@ 0070de50     msvcrtd:_userapi_.obj
 0003:0001de84       ??_C@_0BJ@HEGAHDFO@Stack?5pointer?5corruption?$AA@ 0070de84     msvcrtd:_userapi_.obj
 0003:0001dedc       ??_C@_0BB@KCIACLNC@PDBOpenValidate5?$AA@ 0070dedc     msvcrtd:_pdblkup_.obj
 0003:0001def0       ??_C@_1CK@HHHCOJPD@?$AAE?$AAn?$AAv?$AAi?$AAr?$AAo?$AAn?$AAm?$AAe?$AAn?$AAt?$AAD?$AAi?$AAr?$AAe?$AAc?$AAt?$AAo?$AAr?$AAy?$AA?$AA@ 0070def0     msvcrtd:_pdblkup_.obj
 0003:0001df28       ??_C@_1FM@DNCABAP@?$AAS?$AAO?$AAF?$AAT?$AAW?$AAA?$AAR?$AAE?$AA?2?$AAM?$AAi?$AAc?$AAr?$AAo?$AAs?$AAo?$AAf?$AAt?$AA?2?$AAV?$AAi?$AAs?$AAu?$AAa?$AAl?$AAS?$AAt?$AAu?$AAd?$AAi?$AAo?$AA?2@ 0070df28     msvcrtd:_pdblkup_.obj
 0003:0001df98       ??_C@_0M@HLOHPNFA@RegCloseKey?$AA@ 0070df98     msvcrtd:_pdblkup_.obj
 0003:0001dfa8       ??_C@_0BB@GLNAEDBD@RegQueryValueExW?$AA@ 0070dfa8     msvcrtd:_pdblkup_.obj
 0003:0001dfbc       ??_C@_0O@COHOBMLB@RegOpenKeyExW?$AA@ 0070dfbc     msvcrtd:_pdblkup_.obj
 0003:0001dfcc       ??_C@_1BK@GAEMIDIL@?$AAA?$AAD?$AAV?$AAA?$AAP?$AAI?$AA3?$AA2?$AA?4?$AAD?$AAL?$AAL?$AA?$AA@ 0070dfcc     msvcrtd:_pdblkup_.obj
 0003:0001dff8       ?ProcessDetach@NativeDll@<CrtImplementationDetails>@@0IB 0070dff8     msvcrtd:unhandld.obj
 0003:0001dffc       ?ProcessAttach@NativeDll@<CrtImplementationDetails>@@0IB 0070dffc     msvcrtd:unhandld.obj
 0003:0001e000       ?ThreadAttach@NativeDll@<CrtImplementationDetails>@@0IB 0070e000     msvcrtd:unhandld.obj
 0003:0001e004       ?ThreadDetach@NativeDll@<CrtImplementationDetails>@@0IB 0070e004     msvcrtd:unhandld.obj
 0003:0001e008       ?ProcessVerifier@NativeDll@<CrtImplementationDetails>@@0IB 0070e008     msvcrtd:unhandld.obj
 0003:0001e010       ??_C@_1GE@KOCFNGPB@?$AA_?$AAc?$AAo?$AAn?$AAt?$AAr?$AAo?$AAl?$AAf?$AAp?$AA_?$AAs?$AA?$CI?$AA?$CI?$AA?$CI?$AAv?$AAo?$AAi?$AAd?$AA?5?$AA?$CK?$AA?$CJ?$AA0?$AA?$CJ?$AA?0?$AA?5?$AA0?$AAx?$AA0?$AA0?$AA0?$AA1@ 0070e010     msvcrtd:fp8.obj
 0003:0001e088       ??_C@_1CK@JMKHCBEI@?$AA_?$AAs?$AAe?$AAt?$AAd?$AAe?$AAf?$AAa?$AAu?$AAl?$AAt?$AAp?$AAr?$AAe?$AAc?$AAi?$AAs?$AAi?$AAo?$AAn?$AA?$AA@ 0070e088     msvcrtd:fp8.obj
 0003:0001e0c0       ??_C@_1GG@PHGJJHBC@?$AAf?$AA?3?$AA?2?$AAd?$AAd?$AA?2?$AAv?$AAc?$AAt?$AAo?$AAo?$AAl?$AAs?$AA?2?$AAc?$AAr?$AAt?$AA_?$AAb?$AAl?$AAd?$AA?2?$AAs?$AAe?$AAl?$AAf?$AA_?$AAx?$AA8?$AA6?$AA?2?$AAc@ 0070e0c0     msvcrtd:fp8.obj
 0003:0001e13c       _GUID_NULL                 0070e13c     uuid:cguid_i.obj
 0003:0001e150       _CATID_MARSHALER           0070e150     uuid:cguid_i.obj
 0003:0001e164       _IID_IRpcChannel           0070e164     uuid:cguid_i.obj
 0003:0001e178       _IID_IRpcStub              0070e178     uuid:cguid_i.obj
 0003:0001e18c       _IID_IStubManager          0070e18c     uuid:cguid_i.obj
 0003:0001e1a0       _IID_IRpcProxy             0070e1a0     uuid:cguid_i.obj
 0003:0001e1b4       _IID_IProxyManager         0070e1b4     uuid:cguid_i.obj
 0003:0001e1c8       _IID_IPSFactory            0070e1c8     uuid:cguid_i.obj
 0003:0001e1dc       _IID_IInternalMoniker      0070e1dc     uuid:cguid_i.obj
 0003:0001e1f0       _IID_IDfReserved1          0070e1f0     uuid:cguid_i.obj
 0003:0001e204       _IID_IDfReserved2          0070e204     uuid:cguid_i.obj
 0003:0001e218       _IID_IDfReserved3          0070e218     uuid:cguid_i.obj
 0003:0001e22c       _CLSID_StdMarshal          0070e22c     uuid:cguid_i.obj
 0003:0001e240       _IID_IStub                 0070e240     uuid:cguid_i.obj
 0003:0001e254       _IID_IProxy                0070e254     uuid:cguid_i.obj
 0003:0001e268       _IID_IEnumGeneric          0070e268     uuid:cguid_i.obj
 0003:0001e27c       _IID_IEnumHolder           0070e27c     uuid:cguid_i.obj
 0003:0001e290       _IID_IEnumCallback         0070e290     uuid:cguid_i.obj
 0003:0001e2a4       _IID_IOleManager           0070e2a4     uuid:cguid_i.obj
 0003:0001e2b8       _IID_IOlePresObj           0070e2b8     uuid:cguid_i.obj
 0003:0001e2cc       _IID_IDebug                0070e2cc     uuid:cguid_i.obj
 0003:0001e2e0       _IID_IDebugStream          0070e2e0     uuid:cguid_i.obj
 0003:0001e2f4       _CLSID_PSGenObject         0070e2f4     uuid:cguid_i.obj
 0003:0001e308       _CLSID_PSClientSite        0070e308     uuid:cguid_i.obj
 0003:0001e31c       _CLSID_PSClassObject       0070e31c     uuid:cguid_i.obj
 0003:0001e330       _CLSID_PSInPlaceActive     0070e330     uuid:cguid_i.obj
 0003:0001e344       _CLSID_PSInPlaceFrame      0070e344     uuid:cguid_i.obj
 0003:0001e358       _CLSID_PSDragDrop          0070e358     uuid:cguid_i.obj
 0003:0001e36c       _CLSID_PSBindCtx           0070e36c     uuid:cguid_i.obj
 0003:0001e380       _CLSID_PSEnumerators       0070e380     uuid:cguid_i.obj
 0003:0001e394       _CLSID_StaticMetafile      0070e394     uuid:cguid_i.obj
 0003:0001e3a8       _CLSID_StaticDib           0070e3a8     uuid:cguid_i.obj
 0003:0001e3bc       _CLSID_Picture_Metafile    0070e3bc     uuid:cguid_i.obj
 0003:0001e3d0       _CLSID_Picture_EnhMetafile 0070e3d0     uuid:cguid_i.obj
 0003:0001e3e4       _CLSID_Picture_Dib         0070e3e4     uuid:cguid_i.obj
 0003:0001e3f8       _CLSID_DCOMAccessControl   0070e3f8     uuid:cguid_i.obj
 0003:0001e40c       _CLSID_StdGlobalInterfaceTable 0070e40c     uuid:cguid_i.obj
 0003:0001e420       _CLSID_ManualResetEvent    0070e420     uuid:cguid_i.obj
 0003:0001e434       _CLSID_StdEvent            0070e434     uuid:cguid_i.obj
 0003:0001e448       _CLSID_SynchronizeContainer 0070e448     uuid:cguid_i.obj
 0003:0001e45c       _CLSID_ComBinding          0070e45c     uuid:cguid_i.obj
 0003:0001e470       _CLSID_StdAsyncActManager  0070e470     uuid:cguid_i.obj
 0003:0001e484       _CLSID_InProcFreeMarshaler 0070e484     uuid:cguid_i.obj
 0003:0001e498       _CLSID_RemoteUnknownPSFactory 0070e498     uuid:cguid_i.obj
 0003:0001e4ac       _IID_IRichEditOle          0070e4ac     uuid:cguid_i.obj
 0003:0001e4c0       _IID_IRichEditOleCallback  0070e4c0     uuid:cguid_i.obj
 0003:0001e4d4       _CLSID_AllClasses          0070e4d4     uuid:cguid_i.obj
 0003:0001e4e8       _CLSID_LocalMachineClasses 0070e4e8     uuid:cguid_i.obj
 0003:0001e4fc       _CLSID_CurrentUserClasses  0070e4fc     uuid:cguid_i.obj
 0003:0001e510       _CLSID_AddrControl         0070e510     uuid:cguid_i.obj
 0003:0001e524       _CLSID_GlobalOptions       0070e524     uuid:cguid_i.obj
 0003:0001e538       _CLSID_SurrogateManager    0070e538     uuid:cguid_i.obj
 0003:0001e54c       _CLSID_ContextSwitcher     0070e54c     uuid:cguid_i.obj
 0003:0001e560       _IID_IPropertyFrame        0070e560     uuid:cguid_i.obj
 0003:0001e574       _CLSID_CFontPropPage       0070e574     uuid:cguid_i.obj
 0003:0001e588       _CLSID_CColorPropPage      0070e588     uuid:cguid_i.obj
 0003:0001e59c       _CLSID_CPicturePropPage    0070e59c     uuid:cguid_i.obj
 0003:0001e5b0       _CLSID_StockFontPage       0070e5b0     uuid:cguid_i.obj
 0003:0001e5c4       _CLSID_StockColorPage      0070e5c4     uuid:cguid_i.obj
 0003:0001e5d8       _CLSID_StockPicturePage    0070e5d8     uuid:cguid_i.obj
 0003:0001e5ec       _CLSID_PersistPropset      0070e5ec     uuid:cguid_i.obj
 0003:0001e600       _CLSID_ConvertVBX          0070e600     uuid:cguid_i.obj
 0003:0001e614       _CLSID_StdFont             0070e614     uuid:cguid_i.obj
 0003:0001e628       _CLSID_StdPicture          0070e628     uuid:cguid_i.obj
 0003:0001e63c       _GUID_HIMETRIC             0070e63c     uuid:cguid_i.obj
 0003:0001e650       _GUID_COLOR                0070e650     uuid:cguid_i.obj
 0003:0001e664       _GUID_XPOSPIXEL            0070e664     uuid:cguid_i.obj
 0003:0001e678       _GUID_YPOSPIXEL            0070e678     uuid:cguid_i.obj
 0003:0001e68c       _GUID_XSIZEPIXEL           0070e68c     uuid:cguid_i.obj
 0003:0001e6a0       _GUID_YSIZEPIXEL           0070e6a0     uuid:cguid_i.obj
 0003:0001e6b4       _GUID_XPOS                 0070e6b4     uuid:cguid_i.obj
 0003:0001e6c8       _GUID_YPOS                 0070e6c8     uuid:cguid_i.obj
 0003:0001e6dc       _GUID_XSIZE                0070e6dc     uuid:cguid_i.obj
 0003:0001e6f0       _GUID_YSIZE                0070e6f0     uuid:cguid_i.obj
 0003:0001e704       _GUID_TRISTATE             0070e704     uuid:cguid_i.obj
 0003:0001e718       _GUID_OPTIONVALUEEXCLUSIVE 0070e718     uuid:cguid_i.obj
 0003:0001e72c       _GUID_CHECKVALUEEXCLUSIVE  0070e72c     uuid:cguid_i.obj
 0003:0001e740       _GUID_FONTNAME             0070e740     uuid:cguid_i.obj
 0003:0001e754       _GUID_FONTSIZE             0070e754     uuid:cguid_i.obj
 0003:0001e768       _GUID_FONTBOLD             0070e768     uuid:cguid_i.obj
 0003:0001e77c       _GUID_FONTITALIC           0070e77c     uuid:cguid_i.obj
 0003:0001e790       _GUID_FONTUNDERSCORE       0070e790     uuid:cguid_i.obj
 0003:0001e7a4       _GUID_FONTSTRIKETHROUGH    0070e7a4     uuid:cguid_i.obj
 0003:0001e7b8       _GUID_HANDLE               0070e7b8     uuid:cguid_i.obj
 0003:0001e7cc       _IID_StdOle                0070e7cc     uuid:cguid_i.obj
 0003:0001e7e0       _IID_ICursor               0070e7e0     uuid:cguid_i.obj
 0003:0001e7f4       _IID_ICursorMove           0070e7f4     uuid:cguid_i.obj
 0003:0001e808       _IID_ICursorScroll         0070e808     uuid:cguid_i.obj
 0003:0001e81c       _IID_ICursorUpdateARow     0070e81c     uuid:cguid_i.obj
 0003:0001e830       _IID_INotifyDBEvents       0070e830     uuid:cguid_i.obj
 0003:0001e844       _IID_ICursorFind           0070e844     uuid:cguid_i.obj
 0003:0001e858       _IID_IEntryID              0070e858     uuid:cguid_i.obj
 0003:0001e86c       __GUID_NAMEONLY            0070e86c     uuid:cguid_i.obj
 0003:0001e880       __DBBMKGUID                0070e880     uuid:cguid_i.obj
 0003:0001e894       __DBCIDGUID                0070e894     uuid:cguid_i.obj
 0003:0001e8a8       _IID_IBoundObject          0070e8a8     uuid:cguid_i.obj
 0003:0001e8bc       _IID_IBoundObjectSite      0070e8bc     uuid:cguid_i.obj
 0003:0001e8d0       _CLSID_GblComponentCategoriesMgr 0070e8d0     uuid:cguid_i.obj
 0003:0001e8e4       _CLSID_ThumbnailFCNHandler 0070e8e4     uuid:cguid_i.obj
 0003:0001e8f8       _CLSID_ThumbnailUpdater    0070e8f8     uuid:cguid_i.obj
 0003:0001e90c       _GUID_DEVCLASS_1394        0070e90c     uuid:cguid_i.obj
 0003:0001e920       _GUID_DEVCLASS_1394DEBUG   0070e920     uuid:cguid_i.obj
 0003:0001e934       _GUID_DEVCLASS_61883       0070e934     uuid:cguid_i.obj
 0003:0001e948       _GUID_DEVCLASS_ADAPTER     0070e948     uuid:cguid_i.obj
 0003:0001e95c       _GUID_DEVCLASS_APMSUPPORT  0070e95c     uuid:cguid_i.obj
 0003:0001e970       _GUID_DEVCLASS_AVC         0070e970     uuid:cguid_i.obj
 0003:0001e984       _GUID_DEVCLASS_BATTERY     0070e984     uuid:cguid_i.obj
 0003:0001e998       _GUID_DEVCLASS_BIOMETRIC   0070e998     uuid:cguid_i.obj
 0003:0001e9ac       _GUID_DEVCLASS_BLUETOOTH   0070e9ac     uuid:cguid_i.obj
 0003:0001e9c0       _GUID_DEVCLASS_CDROM       0070e9c0     uuid:cguid_i.obj
 0003:0001e9d4       _GUID_DEVCLASS_COMPUTER    0070e9d4     uuid:cguid_i.obj
 0003:0001e9e8       _GUID_DEVCLASS_DECODER     0070e9e8     uuid:cguid_i.obj
 0003:0001e9fc       _GUID_DEVCLASS_DISKDRIVE   0070e9fc     uuid:cguid_i.obj
 0003:0001ea10       _GUID_DEVCLASS_DISPLAY     0070ea10     uuid:cguid_i.obj
 0003:0001ea24       _GUID_DEVCLASS_DOT4        0070ea24     uuid:cguid_i.obj
 0003:0001ea38       _GUID_DEVCLASS_DOT4PRINT   0070ea38     uuid:cguid_i.obj
 0003:0001ea4c       _GUID_DEVCLASS_ENUM1394    0070ea4c     uuid:cguid_i.obj
 0003:0001ea60       _GUID_DEVCLASS_FDC         0070ea60     uuid:cguid_i.obj
 0003:0001ea74       _GUID_DEVCLASS_FLOPPYDISK  0070ea74     uuid:cguid_i.obj
 0003:0001ea88       _GUID_DEVCLASS_GPS         0070ea88     uuid:cguid_i.obj
 0003:0001ea9c       _GUID_DEVCLASS_HDC         0070ea9c     uuid:cguid_i.obj
 0003:0001eab0       _GUID_DEVCLASS_HIDCLASS    0070eab0     uuid:cguid_i.obj
 0003:0001eac4       _GUID_DEVCLASS_IMAGE       0070eac4     uuid:cguid_i.obj
 0003:0001ead8       _GUID_DEVCLASS_INFINIBAND  0070ead8     uuid:cguid_i.obj
 0003:0001eaec       _GUID_DEVCLASS_INFRARED    0070eaec     uuid:cguid_i.obj
 0003:0001eb00       _GUID_DEVCLASS_KEYBOARD    0070eb00     uuid:cguid_i.obj
 0003:0001eb14       _GUID_DEVCLASS_LEGACYDRIVER 0070eb14     uuid:cguid_i.obj
 0003:0001eb28       _GUID_DEVCLASS_MEDIA       0070eb28     uuid:cguid_i.obj
 0003:0001eb3c       _GUID_DEVCLASS_MEDIUM_CHANGER 0070eb3c     uuid:cguid_i.obj
 0003:0001eb50       _GUID_DEVCLASS_MODEM       0070eb50     uuid:cguid_i.obj
 0003:0001eb64       _GUID_DEVCLASS_MONITOR     0070eb64     uuid:cguid_i.obj
 0003:0001eb78       _GUID_DEVCLASS_MOUSE       0070eb78     uuid:cguid_i.obj
 0003:0001eb8c       _GUID_DEVCLASS_MTD         0070eb8c     uuid:cguid_i.obj
 0003:0001eba0       _GUID_DEVCLASS_MULTIFUNCTION 0070eba0     uuid:cguid_i.obj
 0003:0001ebb4       _GUID_DEVCLASS_MULTIPORTSERIAL 0070ebb4     uuid:cguid_i.obj
 0003:0001ebc8       _GUID_DEVCLASS_NET         0070ebc8     uuid:cguid_i.obj
 0003:0001ebdc       _GUID_DEVCLASS_NETCLIENT   0070ebdc     uuid:cguid_i.obj
 0003:0001ebf0       _GUID_DEVCLASS_NETSERVICE  0070ebf0     uuid:cguid_i.obj
 0003:0001ec04       _GUID_DEVCLASS_NETTRANS    0070ec04     uuid:cguid_i.obj
 0003:0001ec18       _GUID_DEVCLASS_NODRIVER    0070ec18     uuid:cguid_i.obj
 0003:0001ec2c       _GUID_DEVCLASS_PCMCIA      0070ec2c     uuid:cguid_i.obj
 0003:0001ec40       _GUID_DEVCLASS_PNPPRINTERS 0070ec40     uuid:cguid_i.obj
 0003:0001ec54       _GUID_DEVCLASS_PORTS       0070ec54     uuid:cguid_i.obj
 0003:0001ec68       _GUID_DEVCLASS_PRINTER     0070ec68     uuid:cguid_i.obj
 0003:0001ec7c       _GUID_DEVCLASS_PRINTERUPGRADE 0070ec7c     uuid:cguid_i.obj
 0003:0001ec90       _GUID_DEVCLASS_PROCESSOR   0070ec90     uuid:cguid_i.obj
 0003:0001eca4       _GUID_DEVCLASS_SBP2        0070eca4     uuid:cguid_i.obj
 0003:0001ecb8       _GUID_DEVCLASS_SCSIADAPTER 0070ecb8     uuid:cguid_i.obj
 0003:0001eccc       _GUID_DEVCLASS_SECURITYACCELERATOR 0070eccc     uuid:cguid_i.obj
 0003:0001ece0       _GUID_DEVCLASS_SENSOR      0070ece0     uuid:cguid_i.obj
 0003:0001ecf4       _GUID_DEVCLASS_SIDESHOW    0070ecf4     uuid:cguid_i.obj
 0003:0001ed08       _GUID_DEVCLASS_SMARTCARDREADER 0070ed08     uuid:cguid_i.obj
 0003:0001ed1c       _GUID_DEVCLASS_SOUND       0070ed1c     uuid:cguid_i.obj
 0003:0001ed30       _GUID_DEVCLASS_SYSTEM      0070ed30     uuid:cguid_i.obj
 0003:0001ed44       _GUID_DEVCLASS_TAPEDRIVE   0070ed44     uuid:cguid_i.obj
 0003:0001ed58       _GUID_DEVCLASS_UNKNOWN     0070ed58     uuid:cguid_i.obj
 0003:0001ed6c       _GUID_DEVCLASS_USB         0070ed6c     uuid:cguid_i.obj
 0003:0001ed80       _GUID_DEVCLASS_VOLUME      0070ed80     uuid:cguid_i.obj
 0003:0001ed94       _GUID_DEVCLASS_VOLUMESNAPSHOT 0070ed94     uuid:cguid_i.obj
 0003:0001eda8       _GUID_DEVCLASS_WCEUSBS     0070eda8     uuid:cguid_i.obj
 0003:0001edbc       _GUID_DEVCLASS_WPD         0070edbc     uuid:cguid_i.obj
 0003:0001edd0       _GUID_DEVCLASS_FSFILTER_ACTIVITYMONITOR 0070edd0     uuid:cguid_i.obj
 0003:0001ede4       _GUID_DEVCLASS_FSFILTER_UNDELETE 0070ede4     uuid:cguid_i.obj
 0003:0001edf8       _GUID_DEVCLASS_FSFILTER_ANTIVIRUS 0070edf8     uuid:cguid_i.obj
 0003:0001ee0c       _GUID_DEVCLASS_FSFILTER_REPLICATION 0070ee0c     uuid:cguid_i.obj
 0003:0001ee20       _GUID_DEVCLASS_FSFILTER_CONTINUOUSBACKUP 0070ee20     uuid:cguid_i.obj
 0003:0001ee34       _GUID_DEVCLASS_FSFILTER_CONTENTSCREENER 0070ee34     uuid:cguid_i.obj
 0003:0001ee48       _GUID_DEVCLASS_FSFILTER_QUOTAMANAGEMENT 0070ee48     uuid:cguid_i.obj
 0003:0001ee5c       _GUID_DEVCLASS_FSFILTER_SYSTEMRECOVERY 0070ee5c     uuid:cguid_i.obj
 0003:0001ee70       _GUID_DEVCLASS_FSFILTER_CFSMETADATASERVER 0070ee70     uuid:cguid_i.obj
 0003:0001ee84       _GUID_DEVCLASS_FSFILTER_HSM 0070ee84     uuid:cguid_i.obj
 0003:0001ee98       _GUID_DEVCLASS_FSFILTER_COMPRESSION 0070ee98     uuid:cguid_i.obj
 0003:0001eeac       _GUID_DEVCLASS_FSFILTER_ENCRYPTION 0070eeac     uuid:cguid_i.obj
 0003:0001eec0       _GUID_DEVCLASS_FSFILTER_PHYSICALQUOTAMANAGEMENT 0070eec0     uuid:cguid_i.obj
 0003:0001eed4       _GUID_DEVCLASS_FSFILTER_OPENFILEBACKUP 0070eed4     uuid:cguid_i.obj
 0003:0001eee8       _GUID_DEVCLASS_FSFILTER_SECURITYENHANCER 0070eee8     uuid:cguid_i.obj
 0003:0001eefc       _GUID_DEVCLASS_FSFILTER_COPYPROTECTION 0070eefc     uuid:cguid_i.obj
 0003:0001ef10       _GUID_DEVCLASS_FSFILTER_SYSTEM 0070ef10     uuid:cguid_i.obj
 0003:0001ef24       _GUID_DEVCLASS_FSFILTER_INFRASTRUCTURE 0070ef24     uuid:cguid_i.obj
 0003:0001ef38       _GUID_DEVINTERFACE_DISK    0070ef38     uuid:cguid_i.obj
 0003:0001ef4c       _GUID_DEVINTERFACE_CDROM   0070ef4c     uuid:cguid_i.obj
 0003:0001ef60       _GUID_DEVINTERFACE_PARTITION 0070ef60     uuid:cguid_i.obj
 0003:0001ef74       _GUID_DEVINTERFACE_TAPE    0070ef74     uuid:cguid_i.obj
 0003:0001ef88       _GUID_DEVINTERFACE_WRITEONCEDISK 0070ef88     uuid:cguid_i.obj
 0003:0001ef9c       _GUID_DEVINTERFACE_VOLUME  0070ef9c     uuid:cguid_i.obj
 0003:0001efb0       _GUID_DEVINTERFACE_MEDIUMCHANGER 0070efb0     uuid:cguid_i.obj
 0003:0001efc4       _GUID_DEVINTERFACE_FLOPPY  0070efc4     uuid:cguid_i.obj
 0003:0001efd8       _GUID_DEVINTERFACE_CDCHANGER 0070efd8     uuid:cguid_i.obj
 0003:0001efec       _GUID_DEVINTERFACE_STORAGEPORT 0070efec     uuid:cguid_i.obj
 0003:0001f000       _GUID_DEVINTERFACE_HIDDEN_VOLUME 0070f000     uuid:cguid_i.obj
 0003:0001f014       _GUID_DEVINTERFACE_COMPORT 0070f014     uuid:cguid_i.obj
 0003:0001f028       _GUID_DEVINTERFACE_SERENUM_BUS_ENUMERATOR 0070f028     uuid:cguid_i.obj
 0003:0001f03c       ??_C@_1BK@NHHHCKNA@?$AAm?$AA_?$AAt?$AAi?$AAm?$AAe?$AA?5?$AA?$CB?$AA?$DN?$AA?5?$AA?9?$AA1?$AA?$AA@ 0070f03c     atlsd:atltime.obj
 0003:0001f060       ??_C@_1GM@GOMCALCH@?$AAf?$AA?3?$AA?2?$AAd?$AAd?$AA?2?$AAv?$AAc?$AAt?$AAo?$AAo?$AAl?$AAs?$AA?2?$AAv?$AAc?$AA7?$AAl?$AAi?$AAb?$AAs?$AA?2?$AAs?$AAh?$AAi?$AAp?$AA?2?$AAa?$AAt?$AAl?$AAm?$AAf@ 0070f060     atlsd:atltime.obj
 0003:0001f0e4       ??_C@_1BM@GBBOFEAE@?$AA_?$AA_?$AAa?$AAt?$AAl?$AA_?$AAc?$AAo?$AAn?$AAd?$AAV?$AAa?$AAl?$AA?$AA@ 0070f0e4     atlsd:atltime.obj
 0003:0001f108       ??_C@_1GM@OMLOBEGL@?$AAf?$AA?3?$AA?2?$AAd?$AAd?$AA?2?$AAv?$AAc?$AAt?$AAo?$AAo?$AAl?$AAs?$AA?2?$AAv?$AAc?$AA7?$AAl?$AAi?$AAb?$AAs?$AA?2?$AAs?$AAh?$AAi?$AAp?$AA?2?$AAa?$AAt?$AAl?$AAm?$AAf@ 0070f108     atlsd:atltime.obj
 0003:0001f18c       ??_C@_1M@HLGKFCJM@?$AAf?$AAa?$AAl?$AAs?$AAe?$AA?$AA@ 0070f18c     atlsd:atltime.obj
 0003:0001f19c       ??_C@_0DG@BLHODJEO@f?3?2dd?2vctools?2vc7libs?2ship?2atlmf@ 0070f19c     atlsd:atltime.obj
 0003:0001f1dc       ??_C@_0BF@IAAKIJDJ@AtlThrow?3?5hr?5?$DN?50x?$CFx?6?$AA@ 0070f1dc     atlsd:atltime.obj
 0003:0001f1f8       ??_C@_06JMICFIKN@?$CFs_?$CF0x?$AA@ 0070f1f8     atlsd:Externs.obj
 0003:0001f200       ??_C@_0CM@OGPEFHLG@AtlDebugAllocator_FileMappingNam@ 0070f200     atlsd:Externs.obj
 0003:0001f234       ??_C@_0CN@PLNFEEEE@AtlTraceModuleManager_ProcessAdd@ 0070f234     atlsd:Externs.obj
 0003:0001f26c       ??_C@_0BA@MKMIKKJB@atlTraceGeneral?$AA@ 0070f26c     atlsd:atltrace.obj
 0003:0001f280       ??_C@_0M@DGPFJEBB@atlTraceCOM?$AA@ 0070f280     atlsd:atltrace.obj
 0003:0001f290       ??_C@_0L@LHELAKBP@atlTraceQI?$AA@ 0070f290     atlsd:atltrace.obj
 0003:0001f2a0       ??_C@_0BC@MALHFBAO@atlTraceRegistrar?$AA@ 0070f2a0     atlsd:atltrace.obj
 0003:0001f2b8       ??_C@_0BB@ILPPDKFL@atlTraceRefcount?$AA@ 0070f2b8     atlsd:atltrace.obj
 0003:0001f2cc       ??_C@_0BC@DGHHNKDC@atlTraceWindowing?$AA@ 0070f2cc     atlsd:atltrace.obj
 0003:0001f2e4       ??_C@_0BB@GHKJKKIE@atlTraceControls?$AA@ 0070f2e4     atlsd:atltrace.obj
 0003:0001f2f8       ??_C@_0BA@DKOAAGGM@atlTraceHosting?$AA@ 0070f2f8     atlsd:atltrace.obj
 0003:0001f30c       ??_C@_0BB@BEBMGMDO@atlTraceDBClient?$AA@ 0070f30c     atlsd:atltrace.obj
 0003:0001f320       ??_C@_0BD@KOADKDIA@atlTraceDBProvider?$AA@ 0070f320     atlsd:atltrace.obj
 0003:0001f338       ??_C@_0P@LNEGBOLO@atlTraceSnapin?$AA@ 0070f338     atlsd:atltrace.obj
 0003:0001f34c       ??_C@_0BA@MCBFIDIC@atlTraceNotImpl?$AA@ 0070f34c     atlsd:atltrace.obj
 0003:0001f360       ??_C@_0BD@PJPCCAKP@atlTraceAllocation?$AA@ 0070f360     atlsd:atltrace.obj
 0003:0001f378       ??_C@_0BC@PGMFNIFA@atlTraceException?$AA@ 0070f378     atlsd:atltrace.obj
 0003:0001f390       ??_C@_0N@BNNILHBE@atlTraceTime?$AA@ 0070f390     atlsd:atltrace.obj
 0003:0001f3a0       ??_C@_0O@MEOJAOKK@atlTraceCache?$AA@ 0070f3a0     atlsd:atltrace.obj
 0003:0001f3b0       ??_C@_0BA@IDBKCKK@atlTraceStencil?$AA@ 0070f3b0     atlsd:atltrace.obj
 0003:0001f3c4       ??_C@_0P@MBNHGHMI@atlTraceString?$AA@ 0070f3c4     atlsd:atltrace.obj
 0003:0001f3d8       ??_C@_0M@IOBBMAHG@atlTraceMap?$AA@ 0070f3d8     atlsd:atltrace.obj
 0003:0001f3e8       ??_C@_0N@FEAAACHD@atlTraceUtil?$AA@ 0070f3e8     atlsd:atltrace.obj
 0003:0001f3f8       ??_C@_0BB@DNJDADMG@atlTraceSecurity?$AA@ 0070f3f8     atlsd:atltrace.obj
 0003:0001f40c       ??_C@_0N@KLPNCFEE@atlTraceSync?$AA@ 0070f40c     atlsd:atltrace.obj
 0003:0001f41c       ??_C@_0O@KHOBHOBJ@atlTraceISAPI?$AA@ 0070f41c     atlsd:atltrace.obj
 0003:0001f42c       ??_C@_0N@BEIMPMHB@atlTraceUser?$AA@ 0070f42c     atlsd:atltrace.obj
 0003:0001f43c       ??_C@_0O@MKGGJJCH@atlTraceUser2?$AA@ 0070f43c     atlsd:atltrace.obj
 0003:0001f44c       ??_C@_0O@NDHNKIGG@atlTraceUser3?$AA@ 0070f44c     atlsd:atltrace.obj
 0003:0001f45c       ??_C@_0O@JMDMDOKB@atlTraceUser4?$AA@ 0070f45c     atlsd:atltrace.obj
 0003:0001f470       ??_C@_1HO@MNFHLCLF@?$AAf?$AA?3?$AA?2?$AAd?$AAd?$AA?2?$AAv?$AAc?$AAt?$AAo?$AAo?$AAl?$AAs?$AA?2?$AAv?$AAc?$AA7?$AAl?$AAi?$AAb?$AAs?$AA?2?$AAs?$AAh?$AAi?$AAp?$AA?2?$AAa?$AAt?$AAl?$AAm?$AAf@ 0070f470     atlsd:AtlDebugAPI.obj
 0003:0001f508       ??_C@_1BK@LIHAAANN@?$AAp?$AAM?$AAo?$AAd?$AAu?$AAl?$AAe?$AA?5?$AA?$CB?$AA?$DN?$AA?5?$AA0?$AA?$AA@ 0070f508     atlsd:AtlDebugAPI.obj
 0003:0001f528       ??_C@_1BM@DFEBCPM@?$AAp?$AAP?$AAr?$AAo?$AAc?$AAe?$AAs?$AAs?$AA?5?$AA?$CB?$AA?$DN?$AA?5?$AA0?$AA?$AA@ 0070f528     atlsd:AtlDebugAPI.obj
 0003:0001f54c       ??_C@_04FFDMEMDO@?$CFS?3?5?$AA@ 0070f54c     atlsd:AtlDebugAPI.obj
 0003:0001f554       ??_C@_09IIMHCEDG@?$CFs?$CI?$CFd?$CJ?5?3?5?$AA@ 0070f554     atlsd:AtlDebugAPI.obj
 0003:0001f560       ??_C@_02KPKOKMHB@?$CFS?$AA@ 0070f560     atlsd:AtlDebugAPI.obj
 0003:0001f564       ??_C@_19JCANECJL@?$AA?$CF?$AAs?$AA?3?$AA?5?$AA?$AA@ 0070f564     atlsd:AtlDebugAPI.obj
 0003:0001f570       ??_C@_1BE@PGKGHBDF@?$AA?$CF?$AAS?$AA?$CI?$AA?$CF?$AAd?$AA?$CJ?$AA?5?$AA?3?$AA?5?$AA?$AA@ 0070f570     atlsd:AtlDebugAPI.obj
 0003:0001f588       ??_C@_1DA@NMHCLMEJ@?$AAp?$AAA?$AAl?$AAl?$AAo?$AAc?$AAa?$AAt?$AAo?$AAr?$AA?9?$AA?$DO?$AAm?$AA_?$AAb?$AAS?$AAn?$AAa?$AAp?$AAs?$AAh?$AAo?$AAt?$AA?$AA@ 0070f588     atlsd:AtlDebugAPI.obj
 0003:0001f5c4       ??_C@_1CE@NDBHOLMF@?$AAp?$AAP?$AAr?$AAo?$AAc?$AAe?$AAs?$AAs?$AAI?$AAn?$AAf?$AAo?$AA?5?$AA?$CB?$AA?$DN?$AA?5?$AA0?$AA?$AA@ 0070f5c4     atlsd:AtlDebugAPI.obj
 0003:0001f5f0       ??_C@_1CC@ONKAHKMP@?$AAp?$AAM?$AAo?$AAd?$AAu?$AAl?$AAe?$AAI?$AAn?$AAf?$AAo?$AA?5?$AA?$CB?$AA?$DN?$AA?5?$AA0?$AA?$AA@ 0070f5f0     atlsd:AtlDebugAPI.obj
 0003:0001f618       ??_C@_1CG@BANGGBIE@?$AAp?$AAC?$AAa?$AAt?$AAe?$AAg?$AAo?$AAr?$AAy?$AAI?$AAn?$AAf?$AAo?$AA?5?$AA?$CB?$AA?$DN?$AA?5?$AA0?$AA?$AA@ 0070f618     atlsd:AtlDebugAPI.obj
 0003:0001f648       ??_C@_1BC@JOPFIJLO@?$AAp?$AAP?$AAr?$AAo?$AAc?$AAe?$AAs?$AAs?$AA?$AA@ 0070f648     atlsd:AtlDebugAPI.obj
 0003:0001f660       ??_C@_1DM@CECLCIOA@?$AAp?$AAp?$AAC?$AAa?$AAt?$AAe?$AAg?$AAo?$AAr?$AAy?$AA?5?$AA?$CG?$AA?$CG?$AA?5?$AAp?$AAf?$AAn?$AAC?$AAr?$AAt?$AAD?$AAb?$AAg?$AAR?$AAe?$AAp?$AAo?$AAr?$AAt?$AA?$AA@ 0070f660     atlsd:AtlDebugAPI.obj
 0003:0001f6a8       ??_C@_1HA@EFGOBFOA@?$AAf?$AA?3?$AA?2?$AAd?$AAd?$AA?2?$AAv?$AAc?$AAt?$AAo?$AAo?$AAl?$AAs?$AA?2?$AAv?$AAc?$AA7?$AAl?$AAi?$AAb?$AAs?$AA?2?$AAs?$AAh?$AAi?$AAp?$AA?2?$AAa?$AAt?$AAl?$AAm?$AAf@ 0070f6a8     atlsd:AtlDebugAPI.obj
 0003:0001f730       ??_C@_1EA@JHMKKLFC@?$AAn?$AAI?$AAn?$AAd?$AAe?$AAx?$AA?5?$AA?$DO?$AA?$DN?$AA?5?$AA0?$AA?5?$AA?$CG?$AA?$CG?$AA?5?$AAn?$AAI?$AAn?$AAd?$AAe?$AAx?$AA?5?$AA?$DM?$AA?5?$AAm?$AA_?$AAn?$AAS?$AAi?$AAz?$AAe?$AA?$AA@ 0070f730     atlsd:AtlDebugAPI.obj
 0003:0001f780       ??_C@_1GI@CLJCGCPP@?$AAf?$AA?3?$AA?2?$AAd?$AAd?$AA?2?$AAv?$AAc?$AAt?$AAo?$AAo?$AAl?$AAs?$AA?2?$AAv?$AAc?$AA7?$AAl?$AAi?$AAb?$AAs?$AA?2?$AAs?$AAh?$AAi?$AAp?$AA?2?$AAa?$AAt?$AAl?$AAm?$AAf@ 0070f780     atlsd:AtlDebugAPI.obj
 0003:0001f7fc       ??_C@_1BC@PMINONJG@?$AAb?$AAS?$AAu?$AAc?$AAc?$AAe?$AAs?$AAs?$AA?$AA@ 0070f7fc     atlsd:Allocate.obj
 0003:0001f818       ??_C@_1HI@MDMANKNC@?$AAf?$AA?3?$AA?2?$AAd?$AAd?$AA?2?$AAv?$AAc?$AAt?$AAo?$AAo?$AAl?$AAs?$AA?2?$AAv?$AAc?$AA7?$AAl?$AAi?$AAb?$AAs?$AA?2?$AAs?$AAh?$AAi?$AAp?$AA?2?$AAa?$AAt?$AAl?$AAm?$AAf@ 0070f818     atlsd:Allocate.obj
 0003:0001f8a8       ??_C@_1DG@LHMNHOH@?$AA?$CB?$AAm?$AA_?$AAh?$AAM?$AAa?$AAp?$AA?5?$AA?$CG?$AA?$CG?$AA?5?$AA?$CB?$AAm?$AA_?$AAp?$AAB?$AAu?$AAf?$AAf?$AAe?$AAr?$AAS?$AAt?$AAa?$AAr?$AAt?$AA?$AA@ 0070f8a8     atlsd:Allocate.obj
 0003:0001f8e8       ??_C@_1CC@JCNIBNON@?$AAi?$AAM?$AAo?$AAd?$AAu?$AAl?$AAe?$AA?5?$AA?$DM?$AA?5?$AAm?$AAo?$AAd?$AAc?$AAn?$AAt?$AA?$AA@ 0070f8e8     atlsd:Allocate.obj
 0003:0001f910       ??_C@_1HO@KONLCGL@?$AA?$CI?$AAi?$AAC?$AAa?$AAt?$AAe?$AAg?$AAo?$AAr?$AAy?$AA?5?$AA?$DM?$AA?5?$AAm?$AA_?$AAp?$AAP?$AAr?$AAo?$AAc?$AAe?$AAs?$AAs?$AA?9?$AA?$DO?$AAC?$AAa?$AAt?$AAe?$AAg?$AAo?$AAr@ 0070f910     atlsd:Allocate.obj
 0003:0001f9a8       ??_C@_1BG@EIHNOMMF@?$AAm?$AA_?$AAp?$AAP?$AAr?$AAo?$AAc?$AAe?$AAs?$AAs?$AA?$AA@ 0070f9a8     atlsd:Allocate.obj
 0003:0001f9c8       ??_C@_1IO@GJLKCBCE@?$AAf?$AA?3?$AA?2?$AAd?$AAd?$AA?2?$AAv?$AAc?$AAt?$AAo?$AAo?$AAl?$AAs?$AA?2?$AAv?$AAc?$AA7?$AAl?$AAi?$AAb?$AAs?$AA?2?$AAs?$AAh?$AAi?$AAp?$AA?2?$AAa?$AAt?$AAl?$AAm?$AAf@ 0070f9c8     atlsd:Allocate.obj
 0003:0001fa74       ??_C@_1BK@GFEAMNLJ@?$AAn?$AAC?$AAo?$AAo?$AAk?$AAi?$AAe?$AA?5?$AA?$CB?$AA?$DN?$AA?5?$AA0?$AA?$AA@ 0070fa74     atlsd:Allocate.obj
 0003:0001fa94       ??_C@_1BO@OAGIAJOK@?$AAp?$AAC?$AAa?$AAt?$AAe?$AAg?$AAo?$AAr?$AAy?$AA?5?$AA?$CB?$AA?$DN?$AA?5?$AA0?$AA?$AA@ 0070fa94     atlsd:Allocate.obj
 0003:0001fab8       ??_C@_11LOCGONAA@?$AA?$AA@ 0070fab8     atlsd:AtlTraceModuleManager.obj
 0003:0001fae4       ??_C@_0DH@EMOHNEGB@f?3?2dd?2vctools?2vc7libs?2ship?2atlmf@ 0070fae4     mfcs100d:appmodul.obj
 0003:00020600       ??_R4?$CArray@VCPoint@@ABV1@@@6B@ 00710600     DisplayList.obj
 0003:00020618       ??_R3?$CArray@VCPoint@@ABV1@@@8 00710618     DisplayList.obj
 0003:0002062c       ??_R2?$CArray@VCPoint@@ABV1@@@8 0071062c     DisplayList.obj
 0003:00020638       ??_R1A@?0A@EA@?$CArray@VCPoint@@ABV1@@@8 00710638     DisplayList.obj
 0003:0002065c       ??_R1A@?0A@EA@CObject@@8   0071065c     DisplayList.obj
 0003:00020680       ??_R3CObject@@8            00710680     DisplayList.obj
 0003:00020694       ??_R2CObject@@8            00710694     DisplayList.obj
 0003:0002069c       ??_R4CDlgAddMaskCutout@@6B@ 0071069c     DlgAddMaskCutout.obj
 0003:000206b4       ??_R3CDlgAddMaskCutout@@8  007106b4     DlgAddMaskCutout.obj
 0003:000206c8       ??_R2CDlgAddMaskCutout@@8  007106c8     DlgAddMaskCutout.obj
 0003:000206e4       ??_R1A@?0A@EA@CDlgAddMaskCutout@@8 007106e4     DlgAddMaskCutout.obj
 0003:00020708       ??_R1A@?0A@EA@CDialog@@8   00710708     DlgAddMaskCutout.obj
 0003:0002072c       ??_R3CDialog@@8            0071072c     DlgAddMaskCutout.obj
 0003:00020740       ??_R2CDialog@@8            00710740     DlgAddMaskCutout.obj
 0003:00020754       ??_R1A@?0A@EA@CWnd@@8      00710754     DlgAddMaskCutout.obj
 0003:00020778       ??_R3CWnd@@8               00710778     DlgAddMaskCutout.obj
 0003:0002078c       ??_R2CWnd@@8               0071078c     DlgAddMaskCutout.obj
 0003:0002079c       ??_R1A@?0A@EA@CCmdTarget@@8 0071079c     DlgAddMaskCutout.obj
 0003:000207c0       ??_R3CCmdTarget@@8         007107c0     DlgAddMaskCutout.obj
 0003:000207d4       ??_R2CCmdTarget@@8         007107d4     DlgAddMaskCutout.obj
 0003:000207e0       ??_R4CDlgAddMerge@@6B@     007107e0     DlgAddMerge.obj
 0003:000207f8       ??_R3CDlgAddMerge@@8       007107f8     DlgAddMerge.obj
 0003:0002080c       ??_R2CDlgAddMerge@@8       0071080c     DlgAddMerge.obj
 0003:00020828       ??_R1A@?0A@EA@CDlgAddMerge@@8 00710828     DlgAddMerge.obj
 0003:0002084c       ??_R4CDlgAddNet@@6B@       0071084c     DlgAddNet.obj
 0003:00020864       ??_R3CDlgAddNet@@8         00710864     DlgAddNet.obj
 0003:00020878       ??_R2CDlgAddNet@@8         00710878     DlgAddNet.obj
 0003:00020894       ??_R1A@?0A@EA@CDlgAddNet@@8 00710894     DlgAddNet.obj
 0003:000208b8       ??_R4CDlgAddPart@@6B@      007108b8     DlgAddPart.obj
 0003:000208d0       ??_R3CDlgAddPart@@8        007108d0     DlgAddPart.obj
 0003:000208e4       ??_R2CDlgAddPart@@8        007108e4     DlgAddPart.obj
 0003:00020900       ??_R1A@?0A@EA@CDlgAddPart@@8 00710900     DlgAddPart.obj
 0003:00020924       ??_R4CDlgAddPin@@6B@       00710924     DlgAddPin.obj
 0003:0002093c       ??_R3CDlgAddPin@@8         0071093c     DlgAddPin.obj
 0003:00020950       ??_R2CDlgAddPin@@8         00710950     DlgAddPin.obj
 0003:0002096c       ??_R1A@?0A@EA@CDlgAddPin@@8 0071096c     DlgAddPin.obj
 0003:00020990       ??_R4?$CArray@V?$CStringT@DV?$StrTraitMFC_DLL@DV?$ChTraitsCRT@D@ATL@@@@@ATL@@ABV12@@@6B@ 00710990     DlgAddPin.obj
 0003:000209a8       ??_R3?$CArray@V?$CStringT@DV?$StrTraitMFC_DLL@DV?$ChTraitsCRT@D@ATL@@@@@ATL@@ABV12@@@8 007109a8     DlgAddPin.obj
 0003:000209bc       ??_R2?$CArray@V?$CStringT@DV?$StrTraitMFC_DLL@DV?$ChTraitsCRT@D@ATL@@@@@ATL@@ABV12@@@8 007109bc     DlgAddPin.obj
 0003:000209c8       ??_R1A@?0A@EA@?$CArray@V?$CStringT@DV?$StrTraitMFC_DLL@DV?$ChTraitsCRT@D@ATL@@@@@ATL@@ABV12@@@8 007109c8     DlgAddPin.obj
 0003:000209ec       ??_R4CDlgAddPoly@@6B@      007109ec     DlgAddPoly.obj
 0003:00020a04       ??_R3CDlgAddPoly@@8        00710a04     DlgAddPoly.obj
 0003:00020a18       ??_R2CDlgAddPoly@@8        00710a18     DlgAddPoly.obj
 0003:00020a34       ??_R1A@?0A@EA@CDlgAddPoly@@8 00710a34     DlgAddPoly.obj
 0003:00020a58       ??_R4CDlgAddText@@6B@      00710a58     DlgAddText.obj
 0003:00020a70       ??_R3CDlgAddText@@8        00710a70     DlgAddText.obj
 0003:00020a84       ??_R2CDlgAddText@@8        00710a84     DlgAddText.obj
 0003:00020aa0       ??_R1A@?0A@EA@CDlgAddText@@8 00710aa0     DlgAddText.obj
 0003:00020ac4       ??_R4CDlgAddWidth@@6B@     00710ac4     DlgAddWidth.obj
 0003:00020adc       ??_R3CDlgAddWidth@@8       00710adc     DlgAddWidth.obj
 0003:00020af0       ??_R2CDlgAddWidth@@8       00710af0     DlgAddWidth.obj
 0003:00020b0c       ??_R1A@?0A@EA@CDlgAddWidth@@8 00710b0c     DlgAddWidth.obj
 0003:00020b30       ??_R4DlgAreaLayer@@6B@     00710b30     DlgAreaLayer.obj
 0003:00020b48       ??_R3DlgAreaLayer@@8       00710b48     DlgAreaLayer.obj
 0003:00020b5c       ??_R2DlgAreaLayer@@8       00710b5c     DlgAreaLayer.obj
 0003:00020b78       ??_R1A@?0A@EA@DlgAreaLayer@@8 00710b78     DlgAreaLayer.obj
 0003:00020b9c       ??_R4DlgAssignNet@@6B@     00710b9c     DlgAssignNet.obj
 0003:00020bb4       ??_R3DlgAssignNet@@8       00710bb4     DlgAssignNet.obj
 0003:00020bc8       ??_R2DlgAssignNet@@8       00710bc8     DlgAssignNet.obj
 0003:00020be4       ??_R1A@?0A@EA@DlgAssignNet@@8 00710be4     DlgAssignNet.obj
 0003:00020c08       ??_R4CDlgCAD@@6B@          00710c08     DlgCAD.obj
 0003:00020c20       ??_R3CDlgCAD@@8            00710c20     DlgCAD.obj
 0003:00020c34       ??_R2CDlgCAD@@8            00710c34     DlgCAD.obj
 0003:00020c50       ??_R1A@?0A@EA@CDlgCAD@@8   00710c50     DlgCAD.obj
 0003:00020c74       ??_R4CDlgCentroid@@6B@     00710c74     DlgCentroid.obj
 0003:00020c8c       ??_R3CDlgCentroid@@8       00710c8c     DlgCentroid.obj
 0003:00020ca0       ??_R2CDlgCentroid@@8       00710ca0     DlgCentroid.obj
 0003:00020cbc       ??_R1A@?0A@EA@CDlgCentroid@@8 00710cbc     DlgCentroid.obj
 0003:00020ce0       ??_R4CDlgChangeLayer@@6B@  00710ce0     DlgChangeLayer.obj
 0003:00020cf8       ??_R3CDlgChangeLayer@@8    00710cf8     DlgChangeLayer.obj
 0003:00020d0c       ??_R2CDlgChangeLayer@@8    00710d0c     DlgChangeLayer.obj
 0003:00020d28       ??_R1A@?0A@EA@CDlgChangeLayer@@8 00710d28     DlgChangeLayer.obj
 0003:00020d4c       ??_R4CDlgChooseNetName@@6B@ 00710d4c     DlgChooseNetName.obj
 0003:00020d64       ??_R3CDlgChooseNetName@@8  00710d64     DlgChooseNetName.obj
 0003:00020d78       ??_R2CDlgChooseNetName@@8  00710d78     DlgChooseNetName.obj
 0003:00020d94       ??_R1A@?0A@EA@CDlgChooseNetName@@8 00710d94     DlgChooseNetName.obj
 0003:00020db8       ??_R4DlgDRC@@6B@           00710db8     DlgDRC.obj
 0003:00020dd0       ??_R3DlgDRC@@8             00710dd0     DlgDRC.obj
 0003:00020de4       ??_R2DlgDRC@@8             00710de4     DlgDRC.obj
 0003:00020e00       ??_R1A@?0A@EA@DlgDRC@@8    00710e00     DlgDRC.obj
 0003:00020e24       ??_R4CDlgDupFootprintName@@6B@ 00710e24     DlgDupFootprintName.obj
 0003:00020e3c       ??_R3CDlgDupFootprintName@@8 00710e3c     DlgDupFootprintName.obj
 0003:00020e50       ??_R2CDlgDupFootprintName@@8 00710e50     DlgDupFootprintName.obj
 0003:00020e6c       ??_R1A@?0A@EA@CDlgDupFootprintName@@8 00710e6c     DlgDupFootprintName.obj
 0003:00020e90       ??_R4DlgEditBoardCorner@@6B@ 00710e90     DlgEditBoardCorner.obj
 0003:00020ea8       ??_R3DlgEditBoardCorner@@8 00710ea8     DlgEditBoardCorner.obj
 0003:00020ebc       ??_R2DlgEditBoardCorner@@8 00710ebc     DlgEditBoardCorner.obj
 0003:00020ed8       ??_R1A@?0A@EA@DlgEditBoardCorner@@8 00710ed8     DlgEditBoardCorner.obj
 0003:00020efc       ??_R4CDlgEditNet@@6B@      00710efc     DlgEditNet.obj
 0003:00020f14       ??_R3CDlgEditNet@@8        00710f14     DlgEditNet.obj
 0003:00020f28       ??_R2CDlgEditNet@@8        00710f28     DlgEditNet.obj
 0003:00020f44       ??_R1A@?0A@EA@CDlgEditNet@@8 00710f44     DlgEditNet.obj
 0003:00020f68       ??_R4?$CArray@HH@@6B@      00710f68     DlgEditNet.obj
 0003:00020f80       ??_R3?$CArray@HH@@8        00710f80     DlgEditNet.obj
 0003:00020f94       ??_R2?$CArray@HH@@8        00710f94     DlgEditNet.obj
 0003:00020fa0       ??_R1A@?0A@EA@?$CArray@HH@@8 00710fa0     DlgEditNet.obj
 0003:00020fc4       ??_R4CDlgExportDsn@@6B@    00710fc4     DlgExportDsn.obj
 0003:00020fdc       ??_R3CDlgExportDsn@@8      00710fdc     DlgExportDsn.obj
 0003:00020ff0       ??_R2CDlgExportDsn@@8      00710ff0     DlgExportDsn.obj
 0003:0002100c       ??_R1A@?0A@EA@CDlgExportDsn@@8 0071100c     DlgExportDsn.obj
 0003:00021030       ??_R4CDlgFindPart@@6B@     00711030     DlgFindPart.obj
 0003:00021048       ??_R3CDlgFindPart@@8       00711048     DlgFindPart.obj
 0003:0002105c       ??_R2CDlgFindPart@@8       0071105c     DlgFindPart.obj
 0003:00021078       ??_R1A@?0A@EA@CDlgFindPart@@8 00711078     DlgFindPart.obj
 0003:0002109c       ??_R4CDlgFpRefText@@6B@    0071109c     DlgFpRefText.obj
 0003:000210b4       ??_R3CDlgFpRefText@@8      007110b4     DlgFpRefText.obj
 0003:000210c8       ??_R2CDlgFpRefText@@8      007110c8     DlgFpRefText.obj
 0003:000210e4       ??_R1A@?0A@EA@CDlgFpRefText@@8 007110e4     DlgFpRefText.obj
 0003:00021108       ??_R4CDlgFpText@@6B@       00711108     DlgFpText.obj
 0003:00021120       ??_R3CDlgFpText@@8         00711120     DlgFpText.obj
 0003:00021134       ??_R2CDlgFpText@@8         00711134     DlgFpText.obj
 0003:00021150       ??_R1A@?0A@EA@CDlgFpText@@8 00711150     DlgFpText.obj
 0003:00021174       ??_R4CDlgGlue@@6B@         00711174     DlgGlue.obj
 0003:0002118c       ??_R3CDlgGlue@@8           0071118c     DlgGlue.obj
 0003:000211a0       ??_R2CDlgGlue@@8           007111a0     DlgGlue.obj
 0003:000211bc       ??_R1A@?0A@EA@CDlgGlue@@8  007111bc     DlgGlue.obj
 0003:000211e0       ??_R4CDlgGroupPaste@@6B@   007111e0     DlgGroupPaste.obj
 0003:000211f8       ??_R3CDlgGroupPaste@@8     007111f8     DlgGroupPaste.obj
 0003:0002120c       ??_R2CDlgGroupPaste@@8     0071120c     DlgGroupPaste.obj
 0003:00021228       ??_R1A@?0A@EA@CDlgGroupPaste@@8 00711228     DlgGroupPaste.obj
 0003:0002124c       ??_R4?$CArray@Unet_info@@ABU1@@@6B@ 0071124c     DlgGroupPaste.obj
 0003:00021264       ??_R3?$CArray@Unet_info@@ABU1@@@8 00711264     DlgGroupPaste.obj
 0003:00021278       ??_R2?$CArray@Unet_info@@ABU1@@@8 00711278     DlgGroupPaste.obj
 0003:00021284       ??_R1A@?0A@EA@?$CArray@Unet_info@@ABU1@@@8 00711284     DlgGroupPaste.obj
 0003:000212a8       ??_R4CDlgHole@@6B@         007112a8     DlgHole.obj
 0003:000212c0       ??_R3CDlgHole@@8           007112c0     DlgHole.obj
 0003:000212d4       ??_R2CDlgHole@@8           007112d4     DlgHole.obj
 0003:000212f0       ??_R1A@?0A@EA@CDlgHole@@8  007112f0     DlgHole.obj
 0003:00021314       ??_R4CDlgImportFootprint@@6B@ 00711314     DlgImportFootprint.obj
 0003:0002132c       ??_R3CDlgImportFootprint@@8 0071132c     DlgImportFootprint.obj
 0003:00021340       ??_R2CDlgImportFootprint@@8 00711340     DlgImportFootprint.obj
 0003:0002135c       ??_R1A@?0A@EA@CDlgImportFootprint@@8 0071135c     DlgImportFootprint.obj
 0003:00021380       ??_R4CDlgImportOptions@@6B@ 00711380     DlgImportOptions.obj
 0003:00021398       ??_R3CDlgImportOptions@@8  00711398     DlgImportOptions.obj
 0003:000213ac       ??_R2CDlgImportOptions@@8  007113ac     DlgImportOptions.obj
 0003:000213c8       ??_R1A@?0A@EA@CDlgImportOptions@@8 007113c8     DlgImportOptions.obj
 0003:000213ec       ??_R4CDlgImportSes@@6B@    007113ec     DlgImportSes.obj
 0003:00021404       ??_R3CDlgImportSes@@8      00711404     DlgImportSes.obj
 0003:00021418       ??_R2CDlgImportSes@@8      00711418     DlgImportSes.obj
 0003:00021434       ??_R1A@?0A@EA@CDlgImportSes@@8 00711434     DlgImportSes.obj
 0003:00021458       ??_R4CDlgIndexing@@6B@     00711458     DlgIndexing.obj
 0003:00021470       ??_R3CDlgIndexing@@8       00711470     DlgIndexing.obj
 0003:00021484       ??_R2CDlgIndexing@@8       00711484     DlgIndexing.obj
 0003:000214a0       ??_R1A@?0A@EA@CDlgIndexing@@8 007114a0     DlgIndexing.obj
 0003:000214c4       ??_R4CivexDlg@@6B@         007114c4     DlgIvex.obj
 0003:000214dc       ??_R3CivexDlg@@8           007114dc     DlgIvex.obj
 0003:000214f0       ??_R2CivexDlg@@8           007114f0     DlgIvex.obj
 0003:0002150c       ??_R1A@?0A@EA@CivexDlg@@8  0071150c     DlgIvex.obj
 0003:00021530       ??_R4CDlgLayers@@6B@       00711530     DlgLayers.obj
 0003:00021548       ??_R3CDlgLayers@@8         00711548     DlgLayers.obj
 0003:0002155c       ??_R2CDlgLayers@@8         0071155c     DlgLayers.obj
 0003:00021578       ??_R1A@?0A@EA@CDlgLayers@@8 00711578     DlgLayers.obj
 0003:0002159c       ??_R4CCommonDialog@@6B@    0071159c     DlgLayers.obj
 0003:000215b4       ??_R3CCommonDialog@@8      007115b4     DlgLayers.obj
 0003:000215c8       ??_R2CCommonDialog@@8      007115c8     DlgLayers.obj
 0003:000215e4       ??_R1A@?0A@EA@CCommonDialog@@8 007115e4     DlgLayers.obj
 0003:00021608       ??_R4CDlgLibraryManager@@6B@ 00711608     DlgLibraryManager.obj
 0003:00021620       ??_R3CDlgLibraryManager@@8 00711620     DlgLibraryManager.obj
 0003:00021634       ??_R2CDlgLibraryManager@@8 00711634     DlgLibraryManager.obj
 0003:00021650       ??_R1A@?0A@EA@CDlgLibraryManager@@8 00711650     DlgLibraryManager.obj
 0003:00021674       ??_R4?$CArray@HABH@@6B@    00711674     DlgLibraryManager.obj
 0003:0002168c       ??_R3?$CArray@HABH@@8      0071168c     DlgLibraryManager.obj
 0003:000216a0       ??_R2?$CArray@HABH@@8      007116a0     DlgLibraryManager.obj
 0003:000216ac       ??_R1A@?0A@EA@?$CArray@HABH@@8 007116ac     DlgLibraryManager.obj
 0003:000216d0       ??_R4CDlgLog@@6B@          007116d0     DlgLog.obj
 0003:000216e8       ??_R3CDlgLog@@8            007116e8     DlgLog.obj
 0003:000216fc       ??_R2CDlgLog@@8            007116fc     DlgLog.obj
 0003:00021718       ??_R1A@?0A@EA@CDlgLog@@8   00711718     DlgLog.obj
 0003:0002173c       ??_R4CDlgMoveOrigin@@6B@   0071173c     DlgMoveOrigin.obj
 0003:00021754       ??_R3CDlgMoveOrigin@@8     00711754     DlgMoveOrigin.obj
 0003:00021768       ??_R2CDlgMoveOrigin@@8     00711768     DlgMoveOrigin.obj
 0003:00021784       ??_R1A@?0A@EA@CDlgMoveOrigin@@8 00711784     DlgMoveOrigin.obj
 0003:000217a8       ??_R4CDlgMyMessageBox@@6B@ 007117a8     DlgMyMessageBox.obj
 0003:000217c0       ??_R3CDlgMyMessageBox@@8   007117c0     DlgMyMessageBox.obj
 0003:000217d4       ??_R2CDlgMyMessageBox@@8   007117d4     DlgMyMessageBox.obj
 0003:000217f0       ??_R1A@?0A@EA@CDlgMyMessageBox@@8 007117f0     DlgMyMessageBox.obj
 0003:00021814       ??_R4CDlgMyMessageBox2@@6B@ 00711814     DlgMyMessageBox2.obj
 0003:0002182c       ??_R3CDlgMyMessageBox2@@8  0071182c     DlgMyMessageBox2.obj
 0003:00021840       ??_R2CDlgMyMessageBox2@@8  00711840     DlgMyMessageBox2.obj
 0003:0002185c       ??_R1A@?0A@EA@CDlgMyMessageBox2@@8 0071185c     DlgMyMessageBox2.obj
 0003:00021880       ??_R4CDlgNetCombine@@6B@   00711880     DlgNetCombine.obj
 0003:00021898       ??_R3CDlgNetCombine@@8     00711898     DlgNetCombine.obj
 0003:000218ac       ??_R2CDlgNetCombine@@8     007118ac     DlgNetCombine.obj
 0003:000218c8       ??_R1A@?0A@EA@CDlgNetCombine@@8 007118c8     DlgNetCombine.obj
 0003:000218ec       ??_R4CDlgNetlist@@6B@      007118ec     DlgNetlist.obj
 0003:00021904       ??_R3CDlgNetlist@@8        00711904     DlgNetlist.obj
 0003:00021918       ??_R2CDlgNetlist@@8        00711918     DlgNetlist.obj
 0003:00021934       ??_R1A@?0A@EA@CDlgNetlist@@8 00711934     DlgNetlist.obj
 0003:00021958       ??_R4CDlgPartlist@@6B@     00711958     DlgPartlist.obj
 0003:00021970       ??_R3CDlgPartlist@@8       00711970     DlgPartlist.obj
 0003:00021984       ??_R2CDlgPartlist@@8       00711984     DlgPartlist.obj
 0003:000219a0       ??_R1A@?0A@EA@CDlgPartlist@@8 007119a0     DlgPartlist.obj
 0003:000219c4       ??_R4?$CArray@Upart_info@@ABU1@@@6B@ 007119c4     DlgPartlist.obj
 0003:000219dc       ??_R3?$CArray@Upart_info@@ABU1@@@8 007119dc     DlgPartlist.obj
 0003:000219f0       ??_R2?$CArray@Upart_info@@ABU1@@@8 007119f0     DlgPartlist.obj
 0003:000219fc       ??_R1A@?0A@EA@?$CArray@Upart_info@@ABU1@@@8 007119fc     DlgPartlist.obj
 0003:00021a20       ??_R4CDlgProjectOptions@@6B@ 00711a20     DlgProjectOptions.obj
 0003:00021a38       ??_R3CDlgProjectOptions@@8 00711a38     DlgProjectOptions.obj
 0003:00021a4c       ??_R2CDlgProjectOptions@@8 00711a4c     DlgProjectOptions.obj
 0003:00021a68       ??_R1A@?0A@EA@CDlgProjectOptions@@8 00711a68     DlgProjectOptions.obj
 0003:00021a8c       ??_R4CDlgReassignLayers@@6B@ 00711a8c     DlgReassignLayers.obj
 0003:00021aa4       ??_R3CDlgReassignLayers@@8 00711aa4     DlgReassignLayers.obj
 0003:00021ab8       ??_R2CDlgReassignLayers@@8 00711ab8     DlgReassignLayers.obj
 0003:00021ad4       ??_R1A@?0A@EA@CDlgReassignLayers@@8 00711ad4     DlgReassignLayers.obj
 0003:00021af8       ??_R4CDlgRefText@@6B@      00711af8     DlgRefText.obj
 0003:00021b10       ??_R3CDlgRefText@@8        00711b10     DlgRefText.obj
 0003:00021b24       ??_R2CDlgRefText@@8        00711b24     DlgRefText.obj
 0003:00021b40       ??_R1A@?0A@EA@CDlgRefText@@8 00711b40     DlgRefText.obj
 0003:00021b64       ??_R4CDlgReport@@6B@       00711b64     DlgReport.obj
 0003:00021b7c       ??_R3CDlgReport@@8         00711b7c     DlgReport.obj
 0003:00021b90       ??_R2CDlgReport@@8         00711b90     DlgReport.obj
 0003:00021bac       ??_R1A@?0A@EA@CDlgReport@@8 00711bac     DlgReport.obj
 0003:00021bd0       ??_R4?$CMap@HHHH@@6B@      00711bd0     DlgReport.obj
 0003:00021be8       ??_R3?$CMap@HHHH@@8        00711be8     DlgReport.obj
 0003:00021bfc       ??_R2?$CMap@HHHH@@8        00711bfc     DlgReport.obj
 0003:00021c08       ??_R1A@?0A@EA@?$CMap@HHHH@@8 00711c08     DlgReport.obj
 0003:00021c2c       ??_R4?$CArray@V?$CArray@V?$CStringT@DV?$StrTraitMFC_DLL@DV?$ChTraitsCRT@D@ATL@@@@@ATL@@ABV12@@@ABV1@@@6B@ 00711c2c     DlgReport.obj
 0003:00021c44       ??_R3?$CArray@V?$CArray@V?$CStringT@DV?$StrTraitMFC_DLL@DV?$ChTraitsCRT@D@ATL@@@@@ATL@@ABV12@@@ABV1@@@8 00711c44     DlgReport.obj
 0003:00021c58       ??_R2?$CArray@V?$CArray@V?$CStringT@DV?$StrTraitMFC_DLL@DV?$ChTraitsCRT@D@ATL@@@@@ATL@@ABV12@@@ABV1@@@8 00711c58     DlgReport.obj
 0003:00021c64       ??_R1A@?0A@EA@?$CArray@V?$CArray@V?$CStringT@DV?$StrTraitMFC_DLL@DV?$ChTraitsCRT@D@ATL@@@@@ATL@@ABV12@@@ABV1@@@8 00711c64     DlgReport.obj
 0003:00021c88       ??_R4CDlgSaveFootprint@@6B@ 00711c88     DlgSaveFootprint.obj
 0003:00021ca0       ??_R3CDlgSaveFootprint@@8  00711ca0     DlgSaveFootprint.obj
 0003:00021cb4       ??_R2CDlgSaveFootprint@@8  00711cb4     DlgSaveFootprint.obj
 0003:00021cd0       ??_R1A@?0A@EA@CDlgSaveFootprint@@8 00711cd0     DlgSaveFootprint.obj
 0003:00021cf4       ??_R4?$CArray@VCFootLib@@ABV1@@@6B@ 00711cf4     DlgSaveFootprint.obj
 0003:00021d0c       ??_R3?$CArray@VCFootLib@@ABV1@@@8 00711d0c     DlgSaveFootprint.obj
 0003:00021d20       ??_R2?$CArray@VCFootLib@@ABV1@@@8 00711d20     DlgSaveFootprint.obj
 0003:00021d2c       ??_R1A@?0A@EA@?$CArray@VCFootLib@@ABV1@@@8 00711d2c     DlgSaveFootprint.obj
 0003:00021d50       ??_R4?$CArray@VCFootLibEntry@@ABV1@@@6B@ 00711d50     DlgSaveFootprint.obj
 0003:00021d68       ??_R3?$CArray@VCFootLibEntry@@ABV1@@@8 00711d68     DlgSaveFootprint.obj
 0003:00021d7c       ??_R2?$CArray@VCFootLibEntry@@ABV1@@@8 00711d7c     DlgSaveFootprint.obj
 0003:00021d88       ??_R1A@?0A@EA@?$CArray@VCFootLibEntry@@ABV1@@@8 00711d88     DlgSaveFootprint.obj
 0003:00021dac       ??_R4CDlgSaveLib@@6B@      00711dac     DlgSaveLib.obj
 0003:00021dc4       ??_R3CDlgSaveLib@@8        00711dc4     DlgSaveLib.obj
 0003:00021dd8       ??_R2CDlgSaveLib@@8        00711dd8     DlgSaveLib.obj
 0003:00021df4       ??_R1A@?0A@EA@CDlgSaveLib@@8 00711df4     DlgSaveLib.obj
 0003:00021e18       ??_R4CDlgSetAreaHatch@@6B@ 00711e18     DlgSetAreaHatch.obj
 0003:00021e30       ??_R3CDlgSetAreaHatch@@8   00711e30     DlgSetAreaHatch.obj
 0003:00021e44       ??_R2CDlgSetAreaHatch@@8   00711e44     DlgSetAreaHatch.obj
 0003:00021e60       ??_R1A@?0A@EA@CDlgSetAreaHatch@@8 00711e60     DlgSetAreaHatch.obj
 0003:00021e84       ??_R4DlgSetSegmentWidth@@6B@ 00711e84     DlgSetSegmentWidth.obj
 0003:00021e9c       ??_R3DlgSetSegmentWidth@@8 00711e9c     DlgSetSegmentWidth.obj
 0003:00021eb0       ??_R2DlgSetSegmentWidth@@8 00711eb0     DlgSetSegmentWidth.obj
 0003:00021ecc       ??_R1A@?0A@EA@DlgSetSegmentWidth@@8 00711ecc     DlgSetSegmentWidth.obj
 0003:00021ef0       ??_R4CDlgSetTraceWidths@@6B@ 00711ef0     DlgSetTraceWidths.obj
 0003:00021f08       ??_R3CDlgSetTraceWidths@@8 00711f08     DlgSetTraceWidths.obj
 0003:00021f1c       ??_R2CDlgSetTraceWidths@@8 00711f1c     DlgSetTraceWidths.obj
 0003:00021f38       ??_R1A@?0A@EA@CDlgSetTraceWidths@@8 00711f38     DlgSetTraceWidths.obj
 0003:00021f5c       ??_R4CDlgShortcuts@@6B@    00711f5c     DlgShortcuts.obj
 0003:00021f74       ??_R3CDlgShortcuts@@8      00711f74     DlgShortcuts.obj
 0003:00021f88       ??_R2CDlgShortcuts@@8      00711f88     DlgShortcuts.obj
 0003:00021fa4       ??_R1A@?0A@EA@CDlgShortcuts@@8 00711fa4     DlgShortcuts.obj
 0003:00021fc8       ??_R4CDlgSideStyle@@6B@    00711fc8     DlgSideStyle.obj
 0003:00021fe0       ??_R3CDlgSideStyle@@8      00711fe0     DlgSideStyle.obj
 0003:00021ff4       ??_R2CDlgSideStyle@@8      00711ff4     DlgSideStyle.obj
 0003:00022010       ??_R1A@?0A@EA@CDlgSideStyle@@8 00712010     DlgSideStyle.obj
 0003:00022034       ??_R4CDlgSlot@@6B@         00712034     DlgSlot.obj
 0003:0002204c       ??_R3CDlgSlot@@8           0071204c     DlgSlot.obj
 0003:00022060       ??_R2CDlgSlot@@8           00712060     DlgSlot.obj
 0003:0002207c       ??_R1A@?0A@EA@CDlgSlot@@8  0071207c     DlgSlot.obj
 0003:000220a0       ??_R4CDlgValueText@@6B@    007120a0     DlgValueText.obj
 0003:000220b8       ??_R3CDlgValueText@@8      007120b8     DlgValueText.obj
 0003:000220cc       ??_R2CDlgValueText@@8      007120cc     DlgValueText.obj
 0003:000220e8       ??_R1A@?0A@EA@CDlgValueText@@8 007120e8     DlgValueText.obj
 0003:0002210c       ??_R4CDlgVia@@6B@          0071210c     DlgVia.obj
 0003:00022124       ??_R3CDlgVia@@8            00712124     DlgVia.obj
 0003:00022138       ??_R2CDlgVia@@8            00712138     DlgVia.obj
 0003:00022154       ??_R1A@?0A@EA@CDlgVia@@8   00712154     DlgVia.obj
 0003:00022178       ??_R4CDlgWizQuad@@6B@      00712178     DlgWizQuad.obj
 0003:00022190       ??_R3CDlgWizQuad@@8        00712190     DlgWizQuad.obj
 0003:000221a4       ??_R2CDlgWizQuad@@8        007121a4     DlgWizQuad.obj
 0003:000221c0       ??_R1A@?0A@EA@CDlgWizQuad@@8 007121c0     DlgWizQuad.obj
 0003:000221e4       ??_R4CFootprintView@@6B@   007121e4     FootprintView.obj
 0003:000221fc       ??_R3CFootprintView@@8     007121fc     FootprintView.obj
 0003:00022210       ??_R2CFootprintView@@8     00712210     FootprintView.obj
 0003:0002222c       ??_R1A@?0A@EA@CFootprintView@@8 0071222c     FootprintView.obj
 0003:00022250       ??_R1A@?0A@EA@CView@@8     00712250     FootprintView.obj
 0003:00022274       ??_R3CView@@8              00712274     FootprintView.obj
 0003:00022288       ??_R2CView@@8              00712288     FootprintView.obj
 0003:0002229c       ??_R4?$CArray@PAVCShape@@ABQAV1@@@6B@ 0071229c     FootprintView.obj
 0003:000222b4       ??_R3?$CArray@PAVCShape@@ABQAV1@@@8 007122b4     FootprintView.obj
 0003:000222c8       ??_R2?$CArray@PAVCShape@@ABQAV1@@@8 007122c8     FootprintView.obj
 0003:000222d4       ??_R1A@?0A@EA@?$CArray@PAVCShape@@ABQAV1@@@8 007122d4     FootprintView.obj
 0003:000222f8       ??_R4CFreePcbDoc@@6B@      007122f8     FreePcbDoc.obj
 0003:00022310       ??_R3CFreePcbDoc@@8        00712310     FreePcbDoc.obj
 0003:00022324       ??_R2CFreePcbDoc@@8        00712324     FreePcbDoc.obj
 0003:00022338       ??_R1A@?0A@EA@CFreePcbDoc@@8 00712338     FreePcbDoc.obj
 0003:0002235c       ??_R1A@?0A@EA@CDocument@@8 0071235c     FreePcbDoc.obj
 0003:00022380       ??_R3CDocument@@8          00712380     FreePcbDoc.obj
 0003:00022394       ??_R2CDocument@@8          00712394     FreePcbDoc.obj
 0003:000223a4       ??_R4?$CArray@VCPolyLine@@ABV1@@@6B@ 007123a4     FreePcbDoc.obj
 0003:000223bc       ??_R3?$CArray@VCPolyLine@@ABV1@@@8 007123bc     FreePcbDoc.obj
 0003:000223d0       ??_R2?$CArray@VCPolyLine@@ABV1@@@8 007123d0     FreePcbDoc.obj
 0003:000223dc       ??_R1A@?0A@EA@?$CArray@VCPolyLine@@ABV1@@@8 007123dc     FreePcbDoc.obj
 0003:00022400       ??_R4?$CArray@NABN@@6B@    00712400     FreePcbDoc.obj
 0003:00022418       ??_R3?$CArray@NABN@@8      00712418     FreePcbDoc.obj
 0003:0002242c       ??_R2?$CArray@NABN@@8      0071242c     FreePcbDoc.obj
 0003:00022438       ??_R1A@?0A@EA@?$CArray@NABN@@8 00712438     FreePcbDoc.obj
 0003:0002245c       ??_R4?$CArray@VCArc@@ABV1@@@6B@ 0071245c     FreePcbDoc.obj
 0003:00022474       ??_R3?$CArray@VCArc@@ABV1@@@8 00712474     FreePcbDoc.obj
 0003:00022488       ??_R2?$CArray@VCArc@@ABV1@@@8 00712488     FreePcbDoc.obj
 0003:00022494       ??_R1A@?0A@EA@?$CArray@VCArc@@ABV1@@@8 00712494     FreePcbDoc.obj
 0003:000224b8       ??_R4?$CArray@PAVCPolyLine@@ABQAV1@@@6B@ 007124b8     FreePcbDoc.obj
 0003:000224d0       ??_R3?$CArray@PAVCPolyLine@@ABQAV1@@@8 007124d0     FreePcbDoc.obj
 0003:000224e4       ??_R2?$CArray@PAVCPolyLine@@ABQAV1@@@8 007124e4     FreePcbDoc.obj
 0003:000224f0       ??_R1A@?0A@EA@?$CArray@PAVCPolyLine@@ABQAV1@@@8 007124f0     FreePcbDoc.obj
 0003:00022514       ??_R4CDocumentAdapter@CDocument@@6B@ 00712514     FreePcbDoc.obj
 0003:0002252c       ??_R3CDocumentAdapter@CDocument@@8 0071252c     FreePcbDoc.obj
 0003:00022540       ??_R2CDocumentAdapter@CDocument@@8 00712540     FreePcbDoc.obj
 0003:0002254c       ??_R1A@?0A@EA@CDocumentAdapter@CDocument@@8 0071254c     FreePcbDoc.obj
 0003:00022570       ??_R1A@?0A@EA@IDocument@ATL@@8 00712570     FreePcbDoc.obj
 0003:00022594       ??_R3IDocument@ATL@@8      00712594     FreePcbDoc.obj
 0003:000225a8       ??_R2IDocument@ATL@@8      007125a8     FreePcbDoc.obj
 0003:000225b0       ??_R4IDocument@ATL@@6B@    007125b0     FreePcbDoc.obj
 0003:000225c8       ??_R4Merge@@6B@            007125c8     FreePcbDoc.obj
 0003:000225e0       ??_R3Merge@@8              007125e0     FreePcbDoc.obj
 0003:000225f4       ??_R2Merge@@8              007125f4     FreePcbDoc.obj
 0003:000225fc       ??_R1A@?0A@EA@Merge@@8     007125fc     FreePcbDoc.obj
 0003:00022620       ??_R4CFreePcbView@@6B@     00712620     FreePcbView.obj
 0003:00022638       ??_R3CFreePcbView@@8       00712638     FreePcbView.obj
 0003:0002264c       ??_R2CFreePcbView@@8       0071264c     FreePcbView.obj
 0003:00022668       ??_R1A@?0A@EA@CFreePcbView@@8 00712668     FreePcbView.obj
 0003:0002268c       ??_R4?$CArray@Vid@@ABV1@@@6B@ 0071268c     FreePcbView.obj
 0003:000226a4       ??_R3?$CArray@Vid@@ABV1@@@8 007126a4     FreePcbView.obj
 0003:000226b8       ??_R2?$CArray@Vid@@ABV1@@@8 007126b8     FreePcbView.obj
 0003:000226c4       ??_R1A@?0A@EA@?$CArray@Vid@@ABV1@@@8 007126c4     FreePcbView.obj
 0003:000226e8       ??_R4CFreePcbApp@@6B@      007126e8     FreeSch.obj
 0003:00022700       ??_R3CFreePcbApp@@8        00712700     FreeSch.obj
 0003:00022714       ??_R2CFreePcbApp@@8        00712714     FreeSch.obj
 0003:00022730       ??_R1A@?0A@EA@CFreePcbApp@@8 00712730     FreeSch.obj
 0003:00022754       ??_R1A@?0A@EA@CWinApp@@8   00712754     FreeSch.obj
 0003:00022778       ??_R3CWinApp@@8            00712778     FreeSch.obj
 0003:0002278c       ??_R2CWinApp@@8            0071278c     FreeSch.obj
 0003:000227a0       ??_R1A@?0A@EA@CWinThread@@8 007127a0     FreeSch.obj
 0003:000227c4       ??_R3CWinThread@@8         007127c4     FreeSch.obj
 0003:000227d8       ??_R2CWinThread@@8         007127d8     FreeSch.obj
 0003:000227e8       ??_R4CAboutDlg@@6B@        007127e8     FreeSch.obj
 0003:00022800       ??_R3CAboutDlg@@8          00712800     FreeSch.obj
 0003:00022814       ??_R2CAboutDlg@@8          00712814     FreeSch.obj
 0003:00022830       ??_R1A@?0A@EA@CAboutDlg@@8 00712830     FreeSch.obj
 0003:00022854       ??_R4?$CArray@PAVcnet@@ABQAV1@@@6B@ 00712854     Gerber.obj
 0003:0002286c       ??_R3?$CArray@PAVcnet@@ABQAV1@@@8 0071286c     Gerber.obj
 0003:00022880       ??_R2?$CArray@PAVcnet@@ABQAV1@@@8 00712880     Gerber.obj
 0003:0002288c       ??_R1A@?0A@EA@?$CArray@PAVcnet@@ABQAV1@@@8 0071288c     Gerber.obj
 0003:000228b0       ??_R4?$CArray@VCAperture@@V1@@@6B@ 007128b0     Gerber.obj
 0003:000228c8       ??_R3?$CArray@VCAperture@@V1@@@8 007128c8     Gerber.obj
 0003:000228dc       ??_R2?$CArray@VCAperture@@V1@@@8 007128dc     Gerber.obj
 0003:000228e8       ??_R1A@?0A@EA@?$CArray@VCAperture@@V1@@@8 007128e8     Gerber.obj
 0003:0002290c       ??_R4?$CArray@PAVcarea@@ABQAV1@@@6B@ 0071290c     Gerber.obj
 0003:00022924       ??_R3?$CArray@PAVcarea@@ABQAV1@@@8 00712924     Gerber.obj
 0003:00022938       ??_R2?$CArray@PAVcarea@@ABQAV1@@@8 00712938     Gerber.obj
 0003:00022944       ??_R1A@?0A@EA@?$CArray@PAVcarea@@ABQAV1@@@8 00712944     Gerber.obj
 0003:00022968       ??_R4?$CArray@Upad_stack_entry@@ABU1@@@6B@ 00712968     ivex_mod_file.obj
 0003:00022980       ??_R3?$CArray@Upad_stack_entry@@ABU1@@@8 00712980     ivex_mod_file.obj
 0003:00022994       ??_R2?$CArray@Upad_stack_entry@@ABU1@@@8 00712994     ivex_mod_file.obj
 0003:000229a0       ??_R1A@?0A@EA@?$CArray@Upad_stack_entry@@ABU1@@@8 007129a0     ivex_mod_file.obj
 0003:000229c4       ??_R4?$CArray@Umtg_hole@@ABU1@@@6B@ 007129c4     ivex_mod_file.obj
 0003:000229dc       ??_R3?$CArray@Umtg_hole@@ABU1@@@8 007129dc     ivex_mod_file.obj
 0003:000229f0       ??_R2?$CArray@Umtg_hole@@ABU1@@@8 007129f0     ivex_mod_file.obj
 0003:000229fc       ??_R1A@?0A@EA@?$CArray@Umtg_hole@@ABU1@@@8 007129fc     ivex_mod_file.obj
 0003:00022a20       ??_R4CMainFrame@@6B@       00712a20     MainFrm.obj
 0003:00022a38       ??_R3CMainFrame@@8         00712a38     MainFrm.obj
 0003:00022a4c       ??_R2CMainFrame@@8         00712a4c     MainFrm.obj
 0003:00022a68       ??_R1A@?0A@EA@CMainFrame@@8 00712a68     MainFrm.obj
 0003:00022a8c       ??_R1A@?0A@EA@CFrameWnd@@8 00712a8c     MainFrm.obj
 0003:00022ab0       ??_R3CFrameWnd@@8          00712ab0     MainFrm.obj
 0003:00022ac4       ??_R2CFrameWnd@@8          00712ac4     MainFrm.obj
 0003:00022ad8       ??_R4CMyToolBar@@6B@       00712ad8     MyToolBar.obj
 0003:00022af0       ??_R3CMyToolBar@@8         00712af0     MyToolBar.obj
 0003:00022b04       ??_R2CMyToolBar@@8         00712b04     MyToolBar.obj
 0003:00022b24       ??_R1A@?0A@EA@CMyToolBar@@8 00712b24     MyToolBar.obj
 0003:00022b48       ??_R1A@?0A@EA@CToolBar@@8  00712b48     MyToolBar.obj
 0003:00022b6c       ??_R3CToolBar@@8           00712b6c     MyToolBar.obj
 0003:00022b80       ??_R2CToolBar@@8           00712b80     MyToolBar.obj
 0003:00022b9c       ??_R1A@?0A@EA@CControlBar@@8 00712b9c     MyToolBar.obj
 0003:00022bc0       ??_R3CControlBar@@8        00712bc0     MyToolBar.obj
 0003:00022bd4       ??_R2CControlBar@@8        00712bd4     MyToolBar.obj
 0003:00022be8       ??_R4?$CArray@PAVdl_element@@ABQAV1@@@6B@ 00712be8     NetList.obj
 0003:00022c00       ??_R3?$CArray@PAVdl_element@@ABQAV1@@@8 00712c00     NetList.obj
 0003:00022c14       ??_R2?$CArray@PAVdl_element@@ABQAV1@@@8 00712c14     NetList.obj
 0003:00022c20       ??_R1A@?0A@EA@?$CArray@PAVdl_element@@ABQAV1@@@8 00712c20     NetList.obj
 0003:00022c44       ??_R4?$CArray@UtagRECT@@ABU1@@@6B@ 00712c44     NetList.obj
 0003:00022c5c       ??_R3?$CArray@UtagRECT@@ABU1@@@8 00712c5c     NetList.obj
 0003:00022c70       ??_R2?$CArray@UtagRECT@@ABU1@@@8 00712c70     NetList.obj
 0003:00022c7c       ??_R1A@?0A@EA@?$CArray@UtagRECT@@ABU1@@@8 00712c7c     NetList.obj
 0003:00022ca0       ??_R4?$CArray@Vcconnect@@ABV1@@@6B@ 00712ca0     NetList.obj
 0003:00022cb8       ??_R3?$CArray@Vcconnect@@ABV1@@@8 00712cb8     NetList.obj
 0003:00022ccc       ??_R2?$CArray@Vcconnect@@ABV1@@@8 00712ccc     NetList.obj
 0003:00022cd8       ??_R1A@?0A@EA@?$CArray@Vcconnect@@ABV1@@@8 00712cd8     NetList.obj
 0003:00022cfc       ??_R4?$CArray@Vcpin@@ABV1@@@6B@ 00712cfc     NetList.obj
 0003:00022d14       ??_R3?$CArray@Vcpin@@ABV1@@@8 00712d14     NetList.obj
 0003:00022d28       ??_R2?$CArray@Vcpin@@ABV1@@@8 00712d28     NetList.obj
 0003:00022d34       ??_R1A@?0A@EA@?$CArray@Vcpin@@ABV1@@@8 00712d34     NetList.obj
 0003:00022d58       ??_R4?$CArray@Vcarea@@V1@@@6B@ 00712d58     NetList.obj
 0003:00022d70       ??_R3?$CArray@Vcarea@@V1@@@8 00712d70     NetList.obj
 0003:00022d84       ??_R2?$CArray@Vcarea@@V1@@@8 00712d84     NetList.obj
 0003:00022d90       ??_R1A@?0A@EA@?$CArray@Vcarea@@V1@@@8 00712d90     NetList.obj
 0003:00022db4       ??_R4?$CArray@Vcseg@@ABV1@@@6B@ 00712db4     NetList.obj
 0003:00022dcc       ??_R3?$CArray@Vcseg@@ABV1@@@8 00712dcc     NetList.obj
 0003:00022de0       ??_R2?$CArray@Vcseg@@ABV1@@@8 00712de0     NetList.obj
 0003:00022dec       ??_R1A@?0A@EA@?$CArray@Vcseg@@ABV1@@@8 00712dec     NetList.obj
 0003:00022e10       ??_R4?$CArray@Vcvertex@@ABV1@@@6B@ 00712e10     NetList.obj
 0003:00022e28       ??_R3?$CArray@Vcvertex@@ABV1@@@8 00712e28     NetList.obj
 0003:00022e3c       ??_R2?$CArray@Vcvertex@@ABV1@@@8 00712e3c     NetList.obj
 0003:00022e48       ??_R1A@?0A@EA@?$CArray@Vcvertex@@ABV1@@@8 00712e48     NetList.obj
 0003:00022e6c       ??_R4?$CArray@Vpart_pin@@ABV1@@@6B@ 00712e6c     PartList.obj
 0003:00022e84       ??_R3?$CArray@Vpart_pin@@ABV1@@@8 00712e84     PartList.obj
 0003:00022e98       ??_R2?$CArray@Vpart_pin@@ABV1@@@8 00712e98     PartList.obj
 0003:00022ea4       ??_R1A@?0A@EA@?$CArray@Vpart_pin@@ABV1@@@8 00712ea4     PartList.obj
 0003:00022ec8       ??_R4CPathDialog@@6B@      00712ec8     PathDialog.obj
 0003:00022ee0       ??_R3CPathDialog@@8        00712ee0     PathDialog.obj
 0003:00022ef4       ??_R2CPathDialog@@8        00712ef4     PathDialog.obj
 0003:00022efc       ??_R1A@?0A@EA@CPathDialog@@8 00712efc     PathDialog.obj
 0003:00022f20       ??_R4CPathDialogSub@@6B@   00712f20     PathDialog.obj
 0003:00022f38       ??_R3CPathDialogSub@@8     00712f38     PathDialog.obj
 0003:00022f4c       ??_R2CPathDialogSub@@8     00712f4c     PathDialog.obj
 0003:00022f60       ??_R1A@?0A@EA@CPathDialogSub@@8 00712f60     PathDialog.obj
 0003:00022f84       ??_R4?$CArray@VCPolyPt@@ABV1@@@6B@ 00712f84     PolyLine.obj
 0003:00022f9c       ??_R3?$CArray@VCPolyPt@@ABV1@@@8 00712f9c     PolyLine.obj
 0003:00022fb0       ??_R2?$CArray@VCPolyPt@@ABV1@@@8 00712fb0     PolyLine.obj
 0003:00022fbc       ??_R1A@?0A@EA@?$CArray@VCPolyPt@@ABV1@@@8 00712fbc     PolyLine.obj
 0003:00022fe0       ??_R4?$CArray@VCContourData@@ABV1@@@6B@ 00712fe0     PolyLine.obj
 0003:00022ff8       ??_R3?$CArray@VCContourData@@ABV1@@@8 00712ff8     PolyLine.obj
 0003:0002300c       ??_R2?$CArray@VCContourData@@ABV1@@@8 0071300c     PolyLine.obj
 0003:00023018       ??_R1A@?0A@EA@?$CArray@VCContourData@@ABV1@@@8 00713018     PolyLine.obj
 0003:0002303c       ??_R4?$CArray@Vpadstack@@ABV1@@@6B@ 0071303c     Shape.obj
 0003:00023054       ??_R3?$CArray@Vpadstack@@ABV1@@@8 00713054     Shape.obj
 0003:00023068       ??_R2?$CArray@Vpadstack@@ABV1@@@8 00713068     Shape.obj
 0003:00023074       ??_R1A@?0A@EA@?$CArray@Vpadstack@@ABV1@@@8 00713074     Shape.obj
 0003:00023098       ??_R4?$CArray@Uglue@@ABU1@@@6B@ 00713098     Shape.obj
 0003:000230b0       ??_R3?$CArray@Uglue@@ABU1@@@8 007130b0     Shape.obj
 0003:000230c4       ??_R2?$CArray@Uglue@@ABU1@@@8 007130c4     Shape.obj
 0003:000230d0       ??_R1A@?0A@EA@?$CArray@Uglue@@ABU1@@@8 007130d0     Shape.obj
 0003:000230f4       ??_R4?$CTypedPtrArray@VCPtrArray@@PAVSMCharacter@@@@6B@ 007130f4     smfontutil.obj
 0003:0002310c       ??_R3?$CTypedPtrArray@VCPtrArray@@PAVSMCharacter@@@@8 0071310c     smfontutil.obj
 0003:00023120       ??_R2?$CTypedPtrArray@VCPtrArray@@PAVSMCharacter@@@@8 00713120     smfontutil.obj
 0003:00023130       ??_R1A@?0A@EA@?$CTypedPtrArray@VCPtrArray@@PAVSMCharacter@@@@8 00713130     smfontutil.obj
 0003:00023154       ??_R1A@?0A@EA@CPtrArray@@8 00713154     smfontutil.obj
 0003:00023178       ??_R3CPtrArray@@8          00713178     smfontutil.obj
 0003:0002318c       ??_R2CPtrArray@@8          0071318c     smfontutil.obj
 0003:00023198       ??_R4Thank_you@Define_the_symbol__ATL_MIXED@@6B@ 00713198     StdAfx.obj
 0003:000231b0       ??_R3Thank_you@Define_the_symbol__ATL_MIXED@@8 007131b0     StdAfx.obj
 0003:000231c4       ??_R2Thank_you@Define_the_symbol__ATL_MIXED@@8 007131c4     StdAfx.obj
 0003:000231cc       ??_R1A@?0A@EA@Thank_you@Define_the_symbol__ATL_MIXED@@8 007131cc     StdAfx.obj
 0003:000231f0       ??_R4?$CArray@PAVCText@@ABQAV1@@@6B@ 007131f0     TextList.obj
 0003:00023208       ??_R3?$CArray@PAVCText@@ABQAV1@@@8 00713208     TextList.obj
 0003:0002321c       ??_R2?$CArray@PAVCText@@ABQAV1@@@8 0071321c     TextList.obj
 0003:00023228       ??_R1A@?0A@EA@?$CArray@PAVCText@@ABQAV1@@@8 00713228     TextList.obj
 0003:0002324c       ??_R4type_info@@6B@        0071324c     msvcrtd:ti_inst.obj
 0003:00023264       ??_R3type_info@@8          00713264     msvcrtd:ti_inst.obj
 0003:00023278       ??_R2type_info@@8          00713278     msvcrtd:ti_inst.obj
 0003:00023280       ??_R1A@?0A@EA@type_info@@8 00713280     msvcrtd:ti_inst.obj
 0003:000234c0       ___rtc_iaa                 007134c0     msvcrtd:_initsect_.obj
 0003:000238d4       ___rtc_izz                 007138d4     msvcrtd:_initsect_.obj
 0003:000239d8       ___rtc_taa                 007139d8     msvcrtd:_initsect_.obj
 0003:00023dec       ___rtc_tzz                 00713dec     msvcrtd:_initsect_.obj
 0003:0002b618       __TI3PAV?$CStringT@DV?$StrTraitMFC_DLL@DV?$ChTraitsCRT@D@ATL@@@@@ATL@@ 0071b618     FreePcbDoc.obj
 0003:0002b6a0       __CTA3PAV?$CStringT@DV?$StrTraitMFC_DLL@DV?$ChTraitsCRT@D@ATL@@@@@ATL@@ 0071b6a0     FreePcbDoc.obj
 0003:0002b6b4       __CT??_R0PAV?$CStringT@DV?$StrTraitMFC_DLL@DV?$ChTraitsCRT@D@ATL@@@@@ATL@@@84 0071b6b4     FreePcbDoc.obj
 0003:0002b6d4       __CT??_R0PAV?$CSimpleStringT@D$00@ATL@@@84 0071b6d4     FreePcbDoc.obj
 0003:0002b6f4       __CT??_R0PAX@84            0071b6f4     FreePcbDoc.obj
 0003:0002f4f0       __TI1H                     0071f4f0     PathDialog.obj
 0003:0002f570       __CTA1H                    0071f570     PathDialog.obj
 0003:0002f578       __CT??_R0H@84              0071f578     PathDialog.obj
 0003:000309b8       __TI1?AVCAtlException@ATL@@ 007209b8     atlsd:Externs.obj
 0003:000309cc       __CTA1?AVCAtlException@ATL@@ 007209cc     atlsd:Externs.obj
 0003:000309d4       __CT??_R0?AVCAtlException@ATL@@@84 007209d4     atlsd:Externs.obj
 0003:00031f08       ___pobjMapEntryFirst       00721f08     StdAfx.obj
 0003:0003200c       ___pobjMapEntryLast        0072200c     StdAfx.obj
 0004:00000000       ?__LINE__Var@?1???0Cuid@@QAE@XZ@4JA 00723000     Cuid.obj
 0004:00000004       ?__LINE__Var@?1??GetNewUID@Cuid@@QAEHXZ@4JA 00723004     Cuid.obj
 0004:00000008       ?__LINE__Var@?1??ReleaseUID@Cuid@@QAEXI@Z@4JA 00723008     Cuid.obj
 0004:0000000c       ?__LINE__Var@?1??Add@DRErrorList@@QAEPAVDRError@@JHPAV?$CStringT@DV?$StrTraitMFC_DLL@DV?$ChTraitsCRT@D@ATL@@@@@ATL@@00Vid@@1HHHHHH@Z@4JA 0072300c     DesignRules.obj
 0004:00000010       ?__LINE__Var@?1??Add@CDisplayList@@QAEPAVdl_element@@Vid@@PAXHHHPAUtagRECT@@HPAVCPoint@@HH@Z@4JA 00723010     DisplayList.obj
 0004:00000014       ?__LINE__Var@?1??Draw@CDisplayList@@QAEXPAVCDC@@H@Z@4JA 00723014     DisplayList.obj
 0004:00000018       ?__LINE__Var@?1??Drag@CDisplayList@@QAEXPAVCDC@@HH@Z@4JA 00723018     DisplayList.obj
 0004:0000001c       ??_R0?AV?$CArray@VCPoint@@ABV1@@@@8 0072301c     DisplayList.obj
 0004:0000004c       ??_R0?AVCObject@@@8        0072304c     DisplayList.obj
 0004:00000068       ??_R0?AVCDlgAddMaskCutout@@@8 00723068     DlgAddMaskCutout.obj
 0004:00000090       ??_R0?AVCDialog@@@8        00723090     DlgAddMaskCutout.obj
 0004:000000ac       ??_R0?AVCWnd@@@8           007230ac     DlgAddMaskCutout.obj
 0004:000000c4       ??_R0?AVCCmdTarget@@@8     007230c4     DlgAddMaskCutout.obj
 0004:000000e4       ?__LINE__Var@?1??DoDataExchange@CDlgAddMaskCutout@@MAEXPAVCDataExchange@@@Z@4JA 007230e4     DlgAddMaskCutout.obj
 0004:000000e8       ??_R0?AVCDlgAddMerge@@@8   007230e8     DlgAddMerge.obj
 0004:00000108       ??_R0?AVCDlgAddNet@@@8     00723108     DlgAddNet.obj
 0004:00000128       ??_R0?AVCDlgAddPart@@@8    00723128     DlgAddPart.obj
 0004:00000148       ?__LINE__Var@?1??DoDataExchange@CDlgAddPart@@MAEXPAVCDataExchange@@@Z@4JA 00723148     DlgAddPart.obj
 0004:0000014c       ?__LINE__Var@?1??OnBnClickedButtonBrowse@CDlgAddPart@@AAEXXZ@4JA 0072314c     DlgAddPart.obj
 0004:00000150       ??_R0?AVCDlgAddPin@@@8     00723150     DlgAddPin.obj
 0004:00000170       ?__LINE__Var@?1??InitDialog@CDlgAddPin@@QAEXPAVCShape@@HHH@Z@4JA 00723170     DlgAddPin.obj
 0004:00000178       ??_R0?AV?$CArray@V?$CStringT@DV?$StrTraitMFC_DLL@DV?$ChTraitsCRT@D@ATL@@@@@ATL@@ABV12@@@@8 00723178     DlgAddPin.obj
 0004:000001e8       ??_R0?AVCDlgAddPoly@@@8    007231e8     DlgAddPoly.obj
 0004:00000208       ?gLastHeight@@3HA          00723208     DlgAddText.obj
 0004:0000020c       ?gLastWidth@@3HA           0072320c     DlgAddText.obj
 0004:00000210       ?gUseDefaultWidth@@3HA     00723210     DlgAddText.obj
 0004:00000214       ?gLastLayer@@3HA           00723214     DlgAddText.obj
 0004:00001084       ??_R0?AVCDlgAddText@@@8    00724084     DlgAddText.obj
 0004:000010a4       ??_R0?AVCDlgAddWidth@@@8   007240a4     DlgAddWidth.obj
 0004:00001a64       ??_R0?AVDlgAreaLayer@@@8   00724a64     DlgAreaLayer.obj
 0004:00001a84       ??_R0?AVDlgAssignNet@@@8   00724a84     DlgAssignNet.obj
 0004:00001aa4       ??_R0?AVCDlgCAD@@@8        00724aa4     DlgCAD.obj
 0004:00001ac0       ?__LINE__Var@?1??OnBnClickedGo@CDlgCAD@@QAEXXZ@4JA 00724ac0     DlgCAD.obj
 0004:00001ac4       ?__LINE__Var@?1??GetFields@CDlgCAD@@QAEXXZ@4JA 00724ac4     DlgCAD.obj
 0004:00001ac8       ??_R0?AVCDlgCentroid@@@8   00724ac8     DlgCentroid.obj
 0004:00001ae8       ??_R0?AVCDlgChangeLayer@@@8 00724ae8     DlgChangeLayer.obj
 0004:00001b0c       ??_R0?AVCDlgChooseNetName@@@8 00724b0c     DlgChooseNetName.obj
 0004:00001b34       ??_R0?AVDlgDRC@@@8         00724b34     DlgDRC.obj
 0004:00001b50       ??_R0?AVCDlgDupFootprintName@@@8 00724b50     DlgDupFootprintName.obj
 0004:00001b7c       ??_R0?AVDlgEditBoardCorner@@@8 00724b7c     DlgEditBoardCorner.obj
 0004:00001ba4       ??_R0?AVCDlgEditNet@@@8    00724ba4     DlgEditNet.obj
 0004:00001bc4       ?__LINE__Var@?1??DoDataExchange@CDlgEditNet@@MAEXPAVCDataExchange@@@Z@4JA 00724bc4     DlgEditNet.obj
 0004:00001bc8       ??_R0?AV?$CArray@HH@@@8    00724bc8     DlgEditNet.obj
 0004:00001be8       ??_R0?AVCDlgExportDsn@@@8  00724be8     DlgExportDsn.obj
 0004:00001c0c       ??_R0?AVCDlgFindPart@@@8   00724c0c     DlgFindPart.obj
 0004:00001c2c       ??_R0?AVCDlgFpRefText@@@8  00724c2c     DlgFpRefText.obj
 0004:00001c50       ?gFpLastHeight@@3HA        00724c50     DlgFpText.obj
 0004:00001c54       ?gFpLastWidth@@3HA         00724c54     DlgFpText.obj
 0004:00001c58       ?gFpUseDefaultWidth@@3HA   00724c58     DlgFpText.obj
 0004:00001c60       ??_R0?AVCDlgFpText@@@8     00724c60     DlgFpText.obj
 0004:00001c80       ??_R0?AVCDlgGlue@@@8       00724c80     DlgGlue.obj
 0004:00001c9c       ??_R0?AVCDlgGroupPaste@@@8 00724c9c     DlgGroupPaste.obj
 0004:00001cc0       ?__LINE__Var@?1??DoDataExchange@CDlgGroupPaste@@MAEXPAVCDataExchange@@@Z@4JA 00724cc0     DlgGroupPaste.obj
 0004:00001cc4       ??_R0?AV?$CArray@Unet_info@@ABU1@@@@8 00724cc4     DlgGroupPaste.obj
 0004:00001cf4       ??_R0?AVCDlgHole@@@8       00724cf4     DlgHole.obj
 0004:00001d10       ??_R0?AVCDlgImportFootprint@@@8 00724d10     DlgImportFootprint.obj
 0004:00001d38       ?__LINE__Var@?1??OnBnClickedButtonBrowseLibFolder@CDlgImportFootprint@@QAEXXZ@4JA 00724d38     DlgImportFootprint.obj
 0004:00001d3c       ?__LINE__Var@?1??OnTvnSelchangedPartLibTree@CDlgImportFootprint@@AAEXPAUtagNMHDR@@PAJ@Z@4JA 00724d3c     DlgImportFootprint.obj
 0004:00001d40       ??_R0?AVCDlgImportOptions@@@8 00724d40     DlgImportOptions.obj
 0004:00001d68       ??_R0?AVCDlgImportSes@@@8  00724d68     DlgImportSes.obj
 0004:00001d8c       ??_R0?AVCDlgIndexing@@@8   00724d8c     DlgIndexing.obj
 0004:00001dac       ??_R0?AVCivexDlg@@@8       00724dac     DlgIvex.obj
 0004:00001dc8       ??_R0?AVCDlgLayers@@@8     00724dc8     DlgLayers.obj
 0004:00001de8       ??_R0?AVCCommonDialog@@@8  00724de8     DlgLayers.obj
 0004:00001e0c       ??_R0?AVCDlgLibraryManager@@@8 00724e0c     DlgLibraryManager.obj
 0004:00001e34       ?__LINE__Var@?1??OnBnClickedButtonMakePdf@CDlgLibraryManager@@QAEXXZ@4JA 00724e34     DlgLibraryManager.obj
 0004:00001e38       ?__LINE__Var@?1??OnBnClickedButtonMgrBrowse@CDlgLibraryManager@@QAEXXZ@4JA 00724e38     DlgLibraryManager.obj
 0004:00001e3c       ??_R0?AV?$CArray@HABH@@@8  00724e3c     DlgLibraryManager.obj
 0004:00001e60       ??_R0?AVCDlgLog@@@8        00724e60     DlgLog.obj
 0004:00001e7c       ??_R0?AVCDlgMoveOrigin@@@8 00724e7c     DlgMoveOrigin.obj
 0004:00001ea0       ??_R0?AVCDlgMyMessageBox@@@8 00724ea0     DlgMyMessageBox.obj
 0004:00001ec8       ??_R0?AVCDlgMyMessageBox2@@@8 00724ec8     DlgMyMessageBox2.obj
 0004:00001ef0       ??_R0?AVCDlgNetCombine@@@8 00724ef0     DlgNetCombine.obj
 0004:00001f14       ??_R0?AVCDlgNetlist@@@8    00724f14     DlgNetlist.obj
 0004:00001f34       ?__LINE__Var@?1??OnBnClickedButtonEdit@CDlgNetlist@@AAEXXZ@4JA 00724f34     DlgNetlist.obj
 0004:00001f38       ??_R0?AVCDlgPartlist@@@8   00724f38     DlgPartlist.obj
 0004:00001f58       ?__LINE__Var@?1??OnBnClickedButtonEdit@CDlgPartlist@@QAEXXZ@4JA 00724f58     DlgPartlist.obj
 0004:00001f5c       ?__LINE__Var@?1??OnBnClickedButtonDelete@CDlgPartlist@@QAEXXZ@4JA 00724f5c     DlgPartlist.obj
 0004:00001f60       ??_R0?AV?$CArray@Upart_info@@ABU1@@@@8 00724f60     DlgPartlist.obj
 0004:00001f94       ??_R0?AVCDlgProjectOptions@@@8 00724f94     DlgProjectOptions.obj
 0004:00001fbc       ?__LINE__Var@?1??Init@CDlgProjectOptions@@QAEXHPAV?$CStringT@DV?$StrTraitMFC_DLL@DV?$ChTraitsCRT@D@ATL@@@@@ATL@@000HHHHHHHHHPAV?$CArray@HABH@@11@Z@4JA 00724fbc     DlgProjectOptions.obj
 0004:0000295c       ??_R0?AVCDlgReassignLayers@@@8 0072595c     DlgReassignLayers.obj
 0004:00002984       ??_R0?AVCDlgRefText@@@8    00725984     DlgRefText.obj
 0004:000029a4       ??_R0?AVCDlgReport@@@8     007259a4     DlgReport.obj
 0004:000029c4       ?__LINE__Var@?1??OnBnClickedOk@CDlgReport@@QAEXXZ@4JA 007259c4     DlgReport.obj
 0004:000029c8       ??_R0?AV?$CMap@HHHH@@@8    007259c8     DlgReport.obj
 0004:000029e8       ??_R0?AV?$CArray@V?$CArray@V?$CStringT@DV?$StrTraitMFC_DLL@DV?$ChTraitsCRT@D@ATL@@@@@ATL@@ABV12@@@ABV1@@@@8 007259e8     DlgReport.obj
 0004:00002a6c       ??_R0?AVCDlgSaveFootprint@@@8 00725a6c     DlgSaveFootprint.obj
 0004:00002a94       ?__LINE__Var@?1??OnBnClickedOk@CDlgSaveFootprint@@QAEXXZ@4JA 00725a94     DlgSaveFootprint.obj
 0004:00002a98       ?__LINE__Var@?1??OnBnClickedButtonBrowse@CDlgSaveFootprint@@QAEXXZ@4JA 00725a98     DlgSaveFootprint.obj
 0004:00002a9c       ??_R0?AV?$CArray@VCFootLib@@ABV1@@@@8 00725a9c     DlgSaveFootprint.obj
 0004:00002acc       ??_R0?AV?$CArray@VCFootLibEntry@@ABV1@@@@8 00725acc     DlgSaveFootprint.obj
 0004:00002b04       ??_R0?AVCDlgSaveLib@@@8    00725b04     DlgSaveLib.obj
 0004:00002b24       ?__LINE__Var@?1??Initialize@CDlgSaveLib@@QAEXPAV?$CArray@V?$CStringT@DV?$StrTraitMFC_DLL@DV?$ChTraitsCRT@D@ATL@@@@@ATL@@ABV12@@@@Z@4JA 00725b24     DlgSaveLib.obj
 0004:00002b28       ??_R0?AVCDlgSetAreaHatch@@@8 00725b28     DlgSetAreaHatch.obj
 0004:00002b50       ??_R0?AVDlgSetSegmentWidth@@@8 00725b50     DlgSetSegmentWidth.obj
 0004:00002b78       ??_R0?AVCDlgSetTraceWidths@@@8 00725b78     DlgSetTraceWidths.obj
 0004:00002ba0       ??_R0?AVCDlgShortcuts@@@8  00725ba0     DlgShortcuts.obj
 0004:00002bc4       ??_R0?AVCDlgSideStyle@@@8  00725bc4     DlgSideStyle.obj
 0004:00002be8       ??_R0?AVCDlgSlot@@@8       00725be8     DlgSlot.obj
 0004:00002c04       ??_R0?AVCDlgValueText@@@8  00725c04     DlgValueText.obj
 0004:00002c28       ??_R0?AVCDlgVia@@@8        00725c28     DlgVia.obj
 0004:00002d20       ??_R0?AVCDlgWizQuad@@@8    00725d20     DlgWizQuad.obj
 0004:00002d40       ?__LINE__Var@?1??OnCbnSelchangeComboWizType@CDlgWizQuad@@AAEXXZ@4JA 00725d40     DlgWizQuad.obj
 0004:00002d44       ?__LINE__Var@?1??FormatDimensionString@CDlgWizQuad@@AAEXPAV?$CStringT@DV?$StrTraitMFC_DLL@DV?$ChTraitsCRT@D@ATL@@@@@ATL@@HH@Z@4JA 00725d44     DlgWizQuad.obj
 0004:00002d48       ?__LINE__Var@?1??MakeFootprint@CDlgWizQuad@@QAEHXZ@4JA 00725d48     DlgWizQuad.obj
 0004:00002d4c       ?__LINE__Var@?1??my_atoi@@YAHPAV?$CStringT@DV?$StrTraitMFC_DLL@DV?$ChTraitsCRT@D@ATL@@@@@ATL@@@Z@4JA 00725d4c     file_io.obj
 0004:00002d50       ?__LINE__Var@?1??my_atof@@YANPAV?$CStringT@DV?$StrTraitMFC_DLL@DV?$ChTraitsCRT@D@ATL@@@@@ATL@@@Z@4JA 00725d50     file_io.obj
 0004:00002d54       ?__LINE__Var@?1??GetFootprintInfo@CFootLibFolder@@QAEHPAV?$CStringT@DV?$StrTraitMFC_DLL@DV?$ChTraitsCRT@D@ATL@@@@@ATL@@0PAH1011@Z@4JA 00725d54     FootprintLib.obj
 0004:00002d58       ?__LINE__Var@?1??GetFolder@CFootLibFolderMap@@QAEPAVCFootLibFolder@@PAV?$CStringT@DV?$StrTraitMFC_DLL@DV?$ChTraitsCRT@D@ATL@@@@@ATL@@PAVCDlgLog@@@Z@4JA 00725d58     FootprintLib.obj
 0004:00004934       ??_R0?AVCFootprintView@@@8 00727934     FootprintView.obj
 0004:00004958       ??_R0?AVCView@@@8          00727958     FootprintView.obj
 0004:00004970       ?__LINE__Var@?1??InitInstance@CFootprintView@@QAEXPAVCShape@@@Z@4JA 00727970     FootprintView.obj
 0004:00004974       ?__LINE__Var@?1??InitializeView@CFootprintView@@QAEXXZ@4JA 00727974     FootprintView.obj
 0004:00004978       ?__LINE__Var@?1??GetDocument@CFootprintView@@QAEPAVCFreePcbDoc@@XZ@4JA 00727978     FootprintView.obj
 0004:0000497c       ?__LINE__Var@?1??OnContextMenu@CFootprintView@@QAEXPAVCWnd@@VCPoint@@@Z@4JA 0072797c     FootprintView.obj
 0004:00004980       ?__LINE__Var@?1??SnapCursorPoint@CFootprintView@@QAEXVCPoint@@@Z@4JA 00727980     FootprintView.obj
 0004:00004984       ?__LINE__Var@?1??OnChangeSnapAngle@CFootprintView@@QAEJIJ@Z@4JA 00727984     FootprintView.obj
 0004:00004988       ?__LINE__Var@?1??OnChangeUnits@CFootprintView@@QAEJIJ@Z@4JA 00727988     FootprintView.obj
 0004:0000498c       ?__LINE__Var@?1??PushUndo@CFootprintView@@QAEXXZ@4JA 0072798c     FootprintView.obj
 0004:00004990       ?__LINE__Var@?1??PushRedo@CFootprintView@@QAEXXZ@4JA 00727990     FootprintView.obj
 0004:00004994       ??_R0?AV?$CArray@PAVCShape@@ABQAV1@@@@8 00727994     FootprintView.obj
 0004:000049e4       ?m_bShowMessageForClearance@@3HA 007279e4     FreePcbDoc.obj
 0004:00005388       ?__LINE__Var@?1???0CFreePcbDoc@@IAE@XZ@4JA 00728388     FreePcbDoc.obj
 0004:0000538c       ??_R0?AVCFreePcbDoc@@@8    0072838c     FreePcbDoc.obj
 0004:000053ac       ??_R0?AVCDocument@@@8      007283ac     FreePcbDoc.obj
 0004:000053c8       ?__LINE__Var@?1??FileOpen@CFreePcbDoc@@QAEHPBD@Z@4JA 007283c8     FreePcbDoc.obj
 0004:000053d0       ??_R0PAV?$CStringT@DV?$StrTraitMFC_DLL@DV?$ChTraitsCRT@D@ATL@@@@@ATL@@@8 007283d0     FreePcbDoc.obj
 0004:0000542c       ??_R0PAVCFileException@@@8 0072842c     FreePcbDoc.obj
 0004:00005450       ?__LINE__Var@?1??WriteOutlinesPoly@CFreePcbDoc@@QAEXPAVCStdioFile@@PAV?$CArray@VCPolyLine@@ABV1@@@@Z@4JA 00728450     FreePcbDoc.obj
 0004:00005454       ??_R0PAV?$CSimpleStringT@D$00@ATL@@@8 00728454     FreePcbDoc.obj
 0004:00005484       ??_R0PAX@8                 00728484     FreePcbDoc.obj
 0004:00005494       ?__LINE__Var@?1??ReadGraphics@CFreePcbDoc@@QAEXPAVCStdioFile@@PAV?$CArray@VCPolyLine@@ABV1@@@@Z@4JA 00728494     FreePcbDoc.obj
 0004:00005498       ?__LINE__Var@?1??ReadOptions@CFreePcbDoc@@QAEHPAVCStdioFile@@H@Z@4JA 00728498     FreePcbDoc.obj
 0004:0000549c       ?__LINE__Var@?1??WriteOptions@CFreePcbDoc@@QAEXPAVCStdioFile@@H@Z@4JA 0072849c     FreePcbDoc.obj
 0004:000054a0       ?__LINE__Var@?1??CreateMoveOriginUndoRecord@CFreePcbDoc@@QAEPAUundo_move_origin@@HH@Z@4JA 007284a0     FreePcbDoc.obj
 0004:000054a4       ?__LINE__Var@?1??CombineBoardOutlines@CFreePcbDoc@@QAEHHH@Z@4JA 007284a4     FreePcbDoc.obj
 0004:000054a8       ?__LINE__Var@?1??ClipOP@CFreePcbDoc@@QAEXH@Z@4JA 007284a8     FreePcbDoc.obj
 0004:000054ac       ?__LINE__Var@?1??GetGerberPathes@CFreePcbDoc@@QAEHV?$CStringT@DV?$StrTraitMFC_DLL@DV?$ChTraitsCRT@D@ATL@@@@@ATL@@@Z@4JA 007284ac     FreePcbDoc.obj
 0004:000054b0       ??_R0?AV?$CArray@VCPolyLine@@ABV1@@@@8 007284b0     FreePcbDoc.obj
 0004:000054e4       ??_R0?AV?$CArray@NABN@@@8  007284e4     FreePcbDoc.obj
 0004:00005508       ??_R0?AV?$CArray@VCArc@@ABV1@@@@8 00728508     FreePcbDoc.obj
 0004:00005534       ??_R0?AV?$CArray@PAVCPolyLine@@ABQAV1@@@@8 00728534     FreePcbDoc.obj
 0004:0000556c       ??_R0PAVCException@@@8     0072856c     FreePcbDoc.obj
 0004:0000558c       ??_R0?AVCDocumentAdapter@CDocument@@@8 0072858c     FreePcbDoc.obj
 0004:000055c0       ??_R0?AUIDocument@ATL@@@8  007285c0     FreePcbDoc.obj
 0004:000055e4       ??_R0?AVMerge@@@8          007285e4     FreePcbDoc.obj
 0004:00005fdc       ??_R0?AVCFreePcbView@@@8   00728fdc     FreePcbView.obj
 0004:00005ffc       ?__LINE__Var@?1??InitInstance@CFreePcbView@@QAEXXZ@4JA 00728ffc     FreePcbView.obj
 0004:00006000       ?__LINE__Var@?1??InitializeView@CFreePcbView@@QAEXXZ@4JA 00729000     FreePcbView.obj
 0004:00006004       ?__LINE__Var@?1??GetDocument@CFreePcbView@@QAEPAVCFreePcbDoc@@XZ@4JA 00729004     FreePcbView.obj
 0004:00006008       ?__LINE__Var@?1??CancelSelection@CFreePcbView@@QAEXH@Z@4JA 00729008     FreePcbView.obj
 0004:0000600c       ?__LINE__Var@?1??OnContextMenu@CFreePcbView@@QAEXPAVCWnd@@VCPoint@@@Z@4JA 0072900c     FreePcbView.obj
 0004:00006010       ?__LINE__Var@?1??SnapCursorPoint@CFreePcbView@@QAEXVCPoint@@I@Z@4JA 00729010     FreePcbView.obj
 0004:00006014       ?__LINE__Var@?1??OnChangeRoutingGrid@CFreePcbView@@QAEJIJ@Z@4JA 00729014     FreePcbView.obj
 0004:00006018       ?__LINE__Var@?1??OnChangeSnapAngle@CFreePcbView@@QAEJIJ@Z@4JA 00729018     FreePcbView.obj
 0004:0000601c       ?__LINE__Var@?1??OnChangeUnits@CFreePcbView@@QAEJIJ@Z@4JA 0072901c     FreePcbView.obj
 0004:00006020       ?__LINE__Var@?1??SaveUndoInfoForGroup@CFreePcbView@@QAEHHPAVCUndoList@@HH@Z@4JA 00729020     FreePcbView.obj
 0004:00006024       ?__LINE__Var@?1??SaveUndoInfoForText@CFreePcbView@@QAEXPAUundo_text@@HHPAVCUndoList@@@Z@4JA 00729024     FreePcbView.obj
 0004:00006028       ?__LINE__Var@?1??CreateUndoDescriptor@CFreePcbView@@QAEPAXPAVCUndoList@@HPAV?$CStringT@DV?$StrTraitMFC_DLL@DV?$ChTraitsCRT@D@ATL@@@@@ATL@@1HH1PAX@Z@4JA 00729028     FreePcbView.obj
 0004:0000602c       ?__LINE__Var@?1??UndoCallback@CFreePcbView@@SAXHPAXH@Z@4JA@dafc6db9 0072902c     FreePcbView.obj
 0004:00006030       ?__LINE__Var@?1??UndoGroupCallback@CFreePcbView@@SAXHPAXH@Z@4JA@dafc6db9 00729030     FreePcbView.obj
 0004:00006034       ?__LINE__Var@?1??OnSetClearance@CFreePcbView@@QAEXXZ@4JA 00729034     FreePcbView.obj
 0004:00006038       ?__LINE__Var@?1??FindNEXTSegmentOfGroup@CFreePcbView@@QAEPAVcnet@@MPAVid@@PAV3@01@Z@4JA 00729038     FreePcbView.obj
 0004:0000603c       ?__LINE__Var@?1??ArcApp@CFreePcbView@@QAEHPAVCPolyLine@@HPAVcnet@@H@Z@4JA 0072903c     FreePcbView.obj
 0004:00006040       ?__LINE__Var@?1??OnInfoBoxSendMess@CFreePcbView@@QAEPAVCWnd@@V?$CStringT@DV?$StrTraitMFC_DLL@DV?$ChTraitsCRT@D@ATL@@@@@ATL@@@Z@4JA 00729040     FreePcbView.obj
 0004:00006044       ??_R0?AV?$CArray@Vid@@ABV1@@@@8 00729044     FreePcbView.obj
 0004:00006088       ??_R0?AVCFreePcbApp@@@8    00729088     FreeSch.obj
 0004:000060a8       ??_R0?AVCWinApp@@@8        007290a8     FreeSch.obj
 0004:000060c4       ??_R0?AVCWinThread@@@8     007290c4     FreeSch.obj
 0004:000060e4       ?__LINE__Var@?1??InitInstance@CFreePcbApp@@UAEHXZ@4JA 007290e4     FreeSch.obj
 0004:000060e8       ??_R0?AVCAboutDlg@@@8      007290e8     FreeSch.obj
 0004:00006104       ?__LINE__Var@?1??OnFileMruFile1@CFreePcbApp@@QAEXXZ@4JA 00729104     FreeSch.obj
 0004:00006108       ?__LINE__Var@?1??OnFileMruFile2@CFreePcbApp@@QAEXXZ@4JA 00729108     FreeSch.obj
 0004:0000610c       ?__LINE__Var@?1??OnFileMruFile3@CFreePcbApp@@QAEXXZ@4JA 0072910c     FreeSch.obj
 0004:00006110       ?__LINE__Var@?1??OnFileMruFile4@CFreePcbApp@@QAEXXZ@4JA 00729110     FreeSch.obj
 0004:00006114       ?__LINE__Var@?1??OnFileMruFile5@CFreePcbApp@@QAEXXZ@4JA 00729114     FreeSch.obj
 0004:00006118       ?__LINE__Var@?1??OnFileMruFile6@CFreePcbApp@@QAEXXZ@4JA 00729118     FreeSch.obj
 0004:0000611c       ?__LINE__Var@?1??OnFileMruFile7@CFreePcbApp@@QAEXXZ@4JA 0072911c     FreeSch.obj
 0004:00006120       ?__LINE__Var@?1??OnHelpKeyboardshortcuts@CFreePcbApp@@QAEXXZ@4JA 00729120     FreeSch.obj
 0004:00006124       ?__LINE__Var@?1???ACRecentFileList@@QAEAAV?$CStringT@DV?$StrTraitMFC_DLL@DV?$ChTraitsCRT@D@ATL@@@@@ATL@@H@Z@4JA 00729124     FreeSch.obj
 0004:00006ac4       ?__LINE__Var@?1??FindInArray@CAperture@@QAEHPAV?$CArray@VCAperture@@V1@@@H@Z@4JA 00729ac4     Gerber.obj
 0004:00006ac8       ?__LINE__Var@?1??WriteMoveTo@@YAXPAVCStdioFile@@HHH@Z@4JA 00729ac8     Gerber.obj
 0004:00006acc       ?__LINE__Var@?1??WritePolygonSide@@YAXPAVCStdioFile@@HHHHHHH@Z@4JA 00729acc     Gerber.obj
 0004:00006ad0       ?__LINE__Var@?1??WriteTiltPolygon@@YAXHHHHHHHHHPAVCStdioFile@@@Z@4JA 00729ad0     Gerber.obj
 0004:00006ad4       ?__LINE__Var@?1??DrawClearanceInForeignAreas@@YAXPAVcnet@@HHHHHHHHHHPAVCStdioFile@@HHHPAV?$CArray@PAVcnet@@ABQAV1@@@PAV?$CArray@PAVcarea@@ABQAV1@@@PAVCDlgLog@@@Z@4JA 00729ad4     Gerber.obj
 0004:00006ad8       ?__LINE__Var@?1??WriteGerberFile@@YAHPAVCStdioFile@@HHPAVCDlgLog@@HHHHHHHHHHHHHPAV?$CArray@VCPolyLine@@ABV1@@@PAVCPartList@@PAVCNetList@@PAVCTextList@@PAVCDisplayList@@PAVMerge@@@Z@4JA 00729ad8     Gerber.obj
 0004:00006adc       ??_R0?AV?$CArray@PAVcnet@@ABQAV1@@@@8 00729adc     Gerber.obj
 0004:00006b0c       ??_R0?AV?$CArray@VCAperture@@V1@@@@8 00729b0c     Gerber.obj
 0004:00006b3c       ??_R0?AV?$CArray@PAVcarea@@ABQAV1@@@@8 00729b3c     Gerber.obj
 0004:00006b70       ?__LINE__Var@?1??ConvertIvex@@YAHPAVCStdioFile@@0PAVCEdit@@@Z@4JA 00729b70     ivex_mod_file.obj
 0004:00006b74       ??_R0?AV?$CArray@Upad_stack_entry@@ABU1@@@@8 00729b74     ivex_mod_file.obj
 0004:00006bac       ??_R0?AV?$CArray@Umtg_hole@@ABU1@@@@8 00729bac     ivex_mod_file.obj
 0004:00006c20       ??_R0?AVCMainFrame@@@8     00729c20     MainFrm.obj
 0004:00006c40       ??_R0?AVCFrameWnd@@@8      00729c40     MainFrm.obj
 0004:00006c5c       ?__LINE__Var@?1??OnCreate@CMainFrame@@IAEHPAUtagCREATESTRUCTA@@@Z@4JA 00729c5c     MainFrm.obj
 0004:00006c60       ??_R0?AVCMyToolBar@@@8     00729c60     MyToolBar.obj
 0004:00006c80       ??_R0?AVCToolBar@@@8       00729c80     MyToolBar.obj
 0004:00006c9c       ??_R0?AVCControlBar@@@8    00729c9c     MyToolBar.obj
 0004:00006cd8       ?__LINE__Var@?1??Initialize@carea@@QAEXPAVCDisplayList@@@Z@4JA 00729cd8     NetList.obj
 0004:00006cdc       ?__LINE__Var@?1???0carea@@QAE@ABV1@@Z@4JA 00729cdc     NetList.obj
 0004:00006ce0       ?__LINE__Var@?1??AddNet@CNetList@@QAEPAVcnet@@V?$CStringT@DV?$StrTraitMFC_DLL@DV?$ChTraitsCRT@D@ATL@@@@@ATL@@HHH@Z@4JA 00729ce0     NetList.obj
 0004:00006ce4       ?__LINE__Var@?1??GetFirstNet@CNetList@@QAEPAVcnet@@XZ@4JA 00729ce4     NetList.obj
 0004:00006ce8       ?__LINE__Var@?1??GetNextNet@CNetList@@QAEPAVcnet@@XZ@4JA 00729ce8     NetList.obj
 0004:00006cec       ?__LINE__Var@?1??SplitNet@CNetList@@QAEPAVcnet@@PAV3@HH@Z@4JA 00729cec     NetList.obj
 0004:00006cf0       ?__LINE__Var@?1??RemoveNetPin@CNetList@@QAEXPAVcnet@@PAV?$CStringT@DV?$StrTraitMFC_DLL@DV?$ChTraitsCRT@D@ATL@@@@@ATL@@1H@Z@4JA 00729cf0     NetList.obj
 0004:00006cf4       ?__LINE__Var@?1??DisconnectNetPin@CNetList@@QAEXPAVcpart@@PAV?$CStringT@DV?$StrTraitMFC_DLL@DV?$ChTraitsCRT@D@ATL@@@@@ATL@@H@Z@4JA 00729cf4     NetList.obj
 0004:00006cf8       ?__LINE__Var@?1??DisconnectNetPin@CNetList@@QAEXPAVcnet@@PAV?$CStringT@DV?$StrTraitMFC_DLL@DV?$ChTraitsCRT@D@ATL@@@@@ATL@@1H@Z@4JA 00729cf8     NetList.obj
 0004:00006cfc       ?__LINE__Var@?1??GetPinIndexByNameForPart@CNetList@@QAEHPAVcpart@@V?$CStringT@DV?$StrTraitMFC_DLL@DV?$ChTraitsCRT@D@ATL@@@@@ATL@@HH@Z@4JA 00729cfc     NetList.obj
 0004:00006d00       ?__LINE__Var@?1??AddNetConnect@CNetList@@QAEHPAVcnet@@HHHHHH@Z@4JA 00729d00     NetList.obj
 0004:00006d04       ?__LINE__Var@?1??ReverseNetConnect@CNetList@@QAEHPAVcnet@@HH@Z@4JA 00729d04     NetList.obj
 0004:00006d08       ?__LINE__Var@?1??AddNetStub@CNetList@@QAEHPAVcnet@@HHH@Z@4JA 00729d08     NetList.obj
 0004:00006d0c       ?__LINE__Var@?1??TestHitOnConnectionEndPad@CNetList@@QAEHHHPAVcnet@@HHH@Z@4JA 00729d0c     NetList.obj
 0004:00006d10       ?__LINE__Var@?1??ChangeConnectionPin@CNetList@@QAEHPAVcnet@@HH0PAVcpart@@PAV?$CStringT@DV?$StrTraitMFC_DLL@DV?$ChTraitsCRT@D@ATL@@@@@ATL@@HH@Z@4JA 00729d10     NetList.obj
 0004:00006d14       ?__LINE__Var@?1??RemoveSegment@CNetList@@QAEHPAVcnet@@HH@Z@4JA 00729d14     NetList.obj
 0004:00006d18       ?__LINE__Var@?1??PartFootprintChanged@CNetList@@QAEHPAVcpart@@PAV?$CStringT@DV?$StrTraitMFC_DLL@DV?$ChTraitsCRT@D@ATL@@@@@ATL@@@Z@4JA 00729d18     NetList.obj
 0004:00006d1c       ?__LINE__Var@?1??OptimizeConnections@CNetList@@QAEHPAVcnet@@HHHH@Z@4JA 00729d1c     NetList.obj
 0004:00006d20       ?__LINE__Var@?1??MoveVertex@CNetList@@QAEXPAVcnet@@HHHH@Z@4JA 00729d20     NetList.obj
 0004:00006d24       ?__LINE__Var@?1??StartMovingSegment@CNetList@@QAEHPAVCDC@@PAVcnet@@HHHHHH@Z@4JA 00729d24     NetList.obj
 0004:00006d28       ?__LINE__Var@?1??GetViaConnectionStatus@CNetList@@QAEHPAVcnet@@HHH@Z@4JA 00729d28     NetList.obj
 0004:00006d2c       ?__LINE__Var@?1??GetViaPadInfo@CNetList@@QAEXPAVcnet@@HHHPAH11@Z@4JA 00729d2c     NetList.obj
 0004:00006d30       ?__LINE__Var@?1??InsertAreaCorner@CNetList@@QAEHPAVcnet@@HHHHHH@Z@4JA 00729d30     NetList.obj
 0004:00006d34       ?__LINE__Var@?1??HighlightSegment@CNetList@@QAEXPAVcnet@@HHHHH@Z@4JA 00729d34     NetList.obj
 0004:00006d38       ?__LINE__Var@?1??ImportNetListInfo@CNetList@@QAEXPAV?$CArray@Unet_info@@ABU1@@@HPAVCDlgLog@@HHH@Z@4JA 00729d38     NetList.obj
 0004:00006d3c       ?__LINE__Var@?1??ReassignCopperLayers@CNetList@@QAEXHPAH@Z@4JA 00729d3c     NetList.obj
 0004:00006d40       ?__LINE__Var@?1??ConnectUndoCallback@CNetList@@SAXHPAXH@Z@4JA@b6251a1d 00729d40     NetList.obj
 0004:00006d44       ?__LINE__Var@?1??NetUndoCallback@CNetList@@SAXHPAXH@Z@4JA@b6251a1d 00729d44     NetList.obj
 0004:00006d48       ?__LINE__Var@?1??CreateAreaUndoRecord@CNetList@@QAEPAUundo_area@@PAVcnet@@HH@Z@4JA 00729d48     NetList.obj
 0004:00006d4c       ?__LINE__Var@?1??AreaUndoCallback@CNetList@@SAXHPAXH@Z@4JA@b6251a1d 00729d4c     NetList.obj
 0004:00006d50       ?__LINE__Var@?1??CheckNetlist@CNetList@@QAEHPAV?$CStringT@DV?$StrTraitMFC_DLL@DV?$ChTraitsCRT@D@ATL@@@@@ATL@@@Z@4JA 00729d50     NetList.obj
 0004:00006d54       ?__LINE__Var@?1??CombineAreas@CNetList@@QAEHPAVcnet@@HH@Z@4JA 00729d54     NetList.obj
 0004:00006d58       ?__LINE__Var@?1??GetNetBoundaries@CNetList@@QAEHPAUtagRECT@@H@Z@4JA 00729d58     NetList.obj
 0004:00006d5c       ?__LINE__Var@?1??FindTeeVertexInNet@CNetList@@QAEHPAVcnet@@HPAH1@Z@4JA 00729d5c     NetList.obj
 0004:00006d60       ?__LINE__Var@?1??ImportNetRouting@CNetList@@QAEXPAV?$CStringT@DV?$StrTraitMFC_DLL@DV?$ChTraitsCRT@D@ATL@@@@@ATL@@PAV?$CArray@Vcnode@@ABV1@@@PAV?$CArray@Vcpath@@ABV1@@@HPAVCDlgLog@@H@Z@4JA 00729d60     NetList.obj
 0004:00006d64       ??_R0?AV?$CArray@PAVdl_element@@ABQAV1@@@@8 00729d64     NetList.obj
 0004:00006d9c       ??_R0?AV?$CArray@UtagRECT@@ABU1@@@@8 00729d9c     NetList.obj
 0004:00006dcc       ??_R0?AV?$CArray@Vcconnect@@ABV1@@@@8 00729dcc     NetList.obj
 0004:00006dfc       ??_R0?AV?$CArray@Vcpin@@ABV1@@@@8 00729dfc     NetList.obj
 0004:00006e28       ??_R0?AV?$CArray@Vcarea@@V1@@@@8 00729e28     NetList.obj
 0004:00006e54       ??_R0?AV?$CArray@Vcseg@@ABV1@@@@8 00729e54     NetList.obj
 0004:00006e80       ??_R0?AV?$CArray@Vcvertex@@ABV1@@@@8 00729e80     NetList.obj
 0004:00006eb0       ?__LINE__Var@?1??GetNext@CIterator_cnet@@QAEPAVcnet@@XZ@4JA 00729eb0     Net_iter.obj
 0004:00006eb4       ?__LINE__Var@?1??OnRemove@CIterator_cconnect@@QAEXPAVcconnect@@@Z@4JA 00729eb4     Net_iter.obj
 0004:00006eb8       ?__LINE__Var@?1??OnRemove@CIterator_cseg@@QAEXPAVcseg@@@Z@4JA 00729eb8     Net_iter.obj
 0004:00006ebc       ?__LINE__Var@?1??OnRemove@CIterator_cvertex@@QAEXPAVcvertex@@@Z@4JA 00729ebc     Net_iter.obj
 0004:00006ec0       ?g_bShow_header_28mil_hole_warning@@3HA 00729ec0     PartList.obj
 0004:00006ec4       ?g_bShow_SIP_28mil_hole_warning@@3HA 00729ec4     PartList.obj
 0004:00006ecc       ?__LINE__Var@?1??Add@CPartList@@QAEPAVcpart@@XZ@4JA 00729ecc     PartList.obj
 0004:00006ed0       ?__LINE__Var@?1??SelectPad@CPartList@@QAEPAVdl_element@@PAVcpart@@HHHH@Z@4JA 00729ed0     PartList.obj
 0004:00006ed4       ?__LINE__Var@?1??GetPinPoint@CPartList@@QAE?AVCPoint@@PAVcpart@@HHH@Z@4JA 00729ed4     PartList.obj
 0004:00006ed8       ?__LINE__Var@?1??GetCentroidPoint@CPartList@@QAE?AVCPoint@@PAVcpart@@@Z@4JA 00729ed8     PartList.obj
 0004:00006edc       ?__LINE__Var@?1??GetGluePoint@CPartList@@QAE?AVCPoint@@PAVcpart@@H@Z@4JA 00729edc     PartList.obj
 0004:00006ee0       ?__LINE__Var@?1??ImportPartListInfo@CPartList@@QAEXPAV?$CArray@Upart_info@@ABU1@@@HPAVCDlgLog@@@Z@4JA 00729ee0     PartList.obj
 0004:00006ee4       ?__LINE__Var@?1??PartUndoCallback@CPartList@@SAXHPAXH@Z@4JA@efb5524e 00729ee4     PartList.obj
 0004:00006ee8       ?__LINE__Var@?1??GetPadDrawInfo@CPartList@@QAEHPAVcpart@@HHHHHHPAH1111111PAPAVcnet@@111@Z@4JA 00729ee8     PartList.obj
 0004:00006eec       ??_R0?AV?$CArray@Vpart_pin@@ABV1@@@@8 00729eec     PartList.obj
 0004:00006f3c       ??_R0?AVCPathDialog@@@8    00729f3c     PathDialog.obj
 0004:00006f5c       ??_R0?AVCPathDialogSub@@@8 00729f5c     PathDialog.obj
 0004:00006f80       ?__LINE__Var@?1??BrowseCallbackProc@CPathDialog@@CGHPAUHWND__@@IJJ@Z@4JA@a23af87a 00729f80     PathDialog.obj
 0004:00006f84       ??_R0H@8                   00729f84     PathDialog.obj
 0004:00006f94       ?__LINE__Var@?1??addv@polygon@@QAEXNNNNH@Z@4JA 00729f94     php_polygon.obj
 0004:00006f98       ?__LINE__Var@?1??copy_poly@polygon@@QAEPAV2@XZ@4JA 00729f98     php_polygon.obj
 0004:00006f9c       ?__LINE__Var@?1??ints@polygon@@QAEHPAVvertex@@000PAHQAN222@Z@4JA 00729f9c     php_polygon.obj
 0004:00006fa0       ?__LINE__Var@?1??isInside@polygon@@QAEHPAVvertex@@@Z@4JA 00729fa0     php_polygon.obj
 0004:00006fa4       ?__LINE__Var@?1??boolean@polygon@@QAEPAV2@PAV2@H@Z@4JA 00729fa4     php_polygon.obj
 0004:00006fa8       ?__LINE__Var@?1???0vertex@@QAE@NNNNNPAV1@0PAVpolygon@@H0NHH@Z@4JA 00729fa8     php_polygon_vertex.obj
 0004:00006fac       ?__LINE__Var@?1???0CPolyLine@@QAE@PAVCDisplayList@@@Z@4JA 00729fac     PolyLine.obj
 0004:00006fb0       ?__LINE__Var@?1???0CPolyLine@@QAE@XZ@4JA 00729fb0     PolyLine.obj
 0004:00006fb4       ?__LINE__Var@?1??NormalizeWithGpc@CPolyLine@@QAEHPAV?$CArray@PAVCPolyLine@@ABQAV1@@@H@Z@4JA 00729fb4     PolyLine.obj
 0004:00006fb8       ?__LINE__Var@?1??MakeGpcPoly@CPolyLine@@QAEHHPAV?$CArray@VCArc@@ABV1@@@@Z@4JA 00729fb8     PolyLine.obj
 0004:00006fbc       ?__LINE__Var@?1??RemoveContour@CPolyLine@@QAEXHH@Z@4JA 00729fbc     PolyLine.obj
 0004:00006fc0       ?__LINE__Var@?1??StartDraggingToInsertCorner@CPolyLine@@QAEXPAVCDC@@HHHH@Z@4JA 00729fc0     PolyLine.obj
 0004:00006fc4       ?__LINE__Var@?1??CancelDraggingToInsertCorner@CPolyLine@@QAEXH@Z@4JA 00729fc4     PolyLine.obj
 0004:00006fc8       ?__LINE__Var@?1??StartDraggingToMoveCorner@CPolyLine@@QAEXPAVCDC@@HHHH@Z@4JA 00729fc8     PolyLine.obj
 0004:00006fcc       ?__LINE__Var@?1??CancelDraggingToMoveCorner@CPolyLine@@QAEXH@Z@4JA 00729fcc     PolyLine.obj
 0004:00006fd0       ?__LINE__Var@?1??HighlightSide@CPolyLine@@QAEXHHH@Z@4JA 00729fd0     PolyLine.obj
 0004:00006fd4       ?__LINE__Var@?1??HighlightCorner@CPolyLine@@QAEPAVdl_element@@HH@Z@4JA 00729fd4     PolyLine.obj
 0004:00006fd8       ?__LINE__Var@?1??GetSel@CPolyLine@@QAEHH@Z@4JA 00729fd8     PolyLine.obj
 0004:00006fdc       ?__LINE__Var@?1??GetSideSel@CPolyLine@@QAEHH@Z@4JA 00729fdc     PolyLine.obj
 0004:00006fe0       ?__LINE__Var@?1??MakePolylineForPad@CPolyLine@@QAEPAV2@HHHHHHH@Z@4JA 00729fe0     PolyLine.obj
 0004:00006fe4       ?__LINE__Var@?1??ClipGpcPolygon@CPolyLine@@QAEXW4gpc_op@@PAV2@@Z@4JA 00729fe4     PolyLine.obj
 0004:00006fe8       ??_R0?AV?$CArray@VCPolyPt@@ABV1@@@@8 00729fe8     PolyLine.obj
 0004:00007018       ??_R0?AV?$CArray@VCContourData@@ABV1@@@@8 0072a018     PolyLine.obj
 0004:0000704c       ?__LINE__Var@?1???0CShape@@QAE@XZ@4JA 0072a04c     Shape.obj
 0004:00007050       ?__LINE__Var@?1??MakeFromString@CShape@@QAEHV?$CStringT@DV?$StrTraitMFC_DLL@DV?$ChTraitsCRT@D@ATL@@@@@ATL@@0@Z@4JA 0072a050     Shape.obj
 0004:00007054       ?__LINE__Var@?1??MakeFromFile@CShape@@QAEHPAVCStdioFile@@V?$CStringT@DV?$StrTraitMFC_DLL@DV?$ChTraitsCRT@D@ATL@@@@@ATL@@1H@Z@4JA 0072a054     Shape.obj
 0004:00007058       ?__LINE__Var@?1??WriteFootprint@CShape@@QAEHPAVCStdioFile@@@Z@4JA 0072a058     Shape.obj
 0004:0000705c       ?__LINE__Var@?1??CreateMetafile@CShape@@QAEPAUHENHMETAFILE__@@PAVCMetaFileDC@@PAVCDC@@HH@Z@4JA 0072a05c     Shape.obj
 0004:00007060       ??_R0?AV?$CArray@Vpadstack@@ABV1@@@@8 0072a060     Shape.obj
 0004:00007090       ??_R0?AV?$CArray@Uglue@@ABU1@@@@8 0072a090     Shape.obj
 0004:000070bc       ?__LINE__Var@?1???0SMCharacter@@QAE@PAV1@@Z@4JA 0072a0bc     smcharacter.obj
 0004:000070c0       ?__LINE__Var@?1??Read@SMCharacter@@QAEXPAU_iobuf@@@Z@4JA 0072a0c0     smcharacter.obj
 0004:000070c4       ?__LINE__Var@?1??ReadOldStyle@SMCharacter@@QAEHPAU_iobuf@@@Z@4JA 0072a0c4     smcharacter.obj
 0004:000070c8       ?__LINE__Var@?1???0SMFontUtil@@QAE@PAV?$CStringT@DV?$StrTraitMFC_DLL@DV?$ChTraitsCRT@D@ATL@@@@@ATL@@@Z@4JA 0072a0c8     smfontutil.obj
 0004:000070cc       ??_R0?AV?$CTypedPtrArray@VCPtrArray@@PAVSMCharacter@@@@@8 0072a0cc     smfontutil.obj
 0004:00007114       ??_R0?AVCPtrArray@@@8      0072a114     smfontutil.obj
 0004:00007130       ?__LINE__Var@?1??LoadFontData@SMFontUtil@@IAEHXZ@4JA 0072a130     smfontutil.obj
 0004:00007134       ?__LINE__Var@?1??LoadOldStyleFile@SMFontUtil@@IAEXXZ@4JA 0072a134     smfontutil.obj
 0004:00007138       __pIncludeInitManaged      0072a138     StdAfx.obj
 0004:00009690       ??_R0?AUThank_you@Define_the_symbol__ATL_MIXED@@@8 0072c690     StdAfx.obj
 0004:000096d0       ?__LINE__Var@?1??Draw@CText@@QAEXPAVCDisplayList@@PAVSMFontUtil@@PAV?$CArray@VCPoint@@ABV1@@@@Z@4JA 0072c6d0     TextList.obj
 0004:000096d4       ?__LINE__Var@?1??AddText@CTextList@@QAEPAVCText@@HHHHHHHHPAV?$CStringT@DV?$StrTraitMFC_DLL@DV?$ChTraitsCRT@D@ATL@@@@@ATL@@H@Z@4JA 0072c6d4     TextList.obj
 0004:000096d8       ?__LINE__Var@?1??ReadTexts@CTextList@@QAEXPAVCStdioFile@@N@Z@4JA 0072c6d8     TextList.obj
 0004:000096dc       ?__LINE__Var@?1??CreateUndoRecord@CTextList@@QAEPAUundo_text@@PAVCText@@@Z@4JA 0072c6dc     TextList.obj
 0004:000096e0       ??_R0?AV?$CArray@PAVCText@@ABQAV1@@@@8 0072c6e0     TextList.obj
 0004:00009714       ?__LINE__Var@?1??Push@CUndoList@@QAEXHPAXP6AXH0H@ZH@Z@4JA 0072c714     UndoList.obj
 0004:00009718       ?__LINE__Var@?1??Pop@CUndoList@@QAEHXZ@4JA 0072c718     UndoList.obj
 0004:0000971c       ?__LINE__Var@?1??GetInflectionPoint@@YA?AVCPoint@@V2@0H@Z@4JA 0072c71c     utility.obj
 0004:00009720       ?__LINE__Var@?1??Generate_Arc@@YAHHHHHHPAVCPoint@@H@Z@4JA 0072c720     utility.obj
 0004:00009724       ?__LINE__Var@?1??SwellPolygon@@YAHPAVCPoint@@H0H@Z@4JA 0072c724     utility.obj
 0004:00009728       ?__LINE__Var@?1??MakeCStringFromDimension@@YAXPAV?$CStringT@DV?$StrTraitMFC_DLL@DV?$ChTraitsCRT@D@ATL@@@@@ATL@@HHHHHHH@Z@4JA 0072c728     utility.obj
 0004:0000972c       ?__LINE__Var@?1??FindLineSegmentIntersection@@YAHNNHHHHHPAN0000@Z@4JA 0072c72c     utility.obj
 0004:00009730       ?__LINE__Var@?1??CalibrateTimer@@YAXXZ@4JA 0072c730     utility.obj
 0004:00009734       ?__LINE__Var@?1??DrawArc@@YAXPAVCDC@@HHHHHH@Z@4JA 0072c734     utility.obj
 0004:00009738       ?__LINE__Var@?1??DrawCurve@@YAXPAVCDC@@HHHHHH@Z@4JA 0072c738     utility.obj
 0004:0000973c       ?__LINE__Var@?1??GetPadElements@@YAXHHHHHHHPAHQAVmy_rect@@0QAVmy_circle@@0QAVmy_seg@@@Z@4JA 0072c73c     utility.obj
 0004:00009740       ?__LINE__Var@?1??GetClearanceBetweenSegments@@YAHHHHHHHHHHHHHHPAH0@Z@4JA 0072c740     utility.obj
 0004:00009744       ?__LINE__Var@?1??GetArcIntersections@@YAHPAUEllipseTag@@0PAN111@Z@4JA 0072c744     utility.obj
 0004:00009748       ?__LINE__Var@?1??GetArcClearance@@YANPAUEllipseTag@@0PAN1@Z@4JA 0072c748     utility.obj
 0004:00009750       _cpdf_fontnamelist         0072c750     clibpdf:cpdfInit.obj
 0004:00009810       _cpdf_fontEncodings        0072c810     clibpdf:cpdfInit.obj
 0004:000098dc       _g_nMaxPages               0072c8dc     clibpdf:cpdfInit.obj
 0004:000098e0       _g_nMaxFonts               0072c8e0     clibpdf:cpdfInit.obj
 0004:000098e4       _g_nMaxImages              0072c8e4     clibpdf:cpdfInit.obj
 0004:000098e8       _g_nMaxAnnots              0072c8e8     clibpdf:cpdfInit.obj
 0004:000098ec       _g_nMaxObjects             0072c8ec     clibpdf:cpdfInit.obj
 0004:000098f0       _monthNameEnglish          0072c8f0     clibpdf:cpdfInit.obj
 0004:00009920       __cpdf_bmagic              0072c920     clibpdf:cpdfInit.obj
 0004:000099e8       _cpdf_encode2WinAnsi       0072c9e8     clibpdf:cpdfFont.obj
 0004:0000a1e8       _charWidth                 0072d1e8     clibpdf:cpdfFont.obj
 0004:0000f818       __cpdfAscender             00732818     clibpdf:cpdfFont.obj
 0004:0000f878       __cpdfCapHeight            00732878     clibpdf:cpdfFont.obj
 0004:0000f8d8       __cpdfDescender            007328d8     clibpdf:cpdfFont.obj
 0004:0000f938       __cpdfFontFlags            00732938     clibpdf:cpdfFont.obj
 0004:0000f9f8       __cpdfFontBBox             007329f8     clibpdf:cpdfFont.obj
 0004:0000fb78       __cpdfItalicAngle          00732b78     clibpdf:cpdfFont.obj
 0004:0000fc38       __cpdfStemV                00732c38     clibpdf:cpdfFont.obj
 0004:0000fc98       __cpdfXHeight              00732c98     clibpdf:cpdfFont.obj
 0004:0000fcf8       __cpdf_missingWidth        00732cf8     clibpdf:cpdfFont.obj
 0004:0000fd58       __cpdf_stemH               00732d58     clibpdf:cpdfFont.obj
 0004:0000fdb8       __cpdf_leading             00732db8     clibpdf:cpdfFont.obj
 0004:0000fe18       __cpdf_maxWidth            00732e18     clibpdf:cpdfFont.obj
 0004:0000fe78       __cpdf_avgWidth            00732e78     clibpdf:cpdfFont.obj
 0004:0000fed8       _cpdf_cidFontWidth         00732ed8     clibpdf:cpdfFont.obj
 0004:0000ff98       _cpdf_cidSysInfo           00732f98     clibpdf:cpdfFont.obj
 0004:00010058       _cpdf_fontStyleList        00733058     clibpdf:cpdfFont.obj
 0004:00011954       _z_errmsg                  00734954     clibpdf:zutil.obj
 0004:000119cc       ?_RTC_ErrorLevels@@3PAHA   007349cc     msvcrtd:_error_.obj
 0004:000119e4       ___security_cookie         007349e4     msvcrtd:gs_cookie.obj
 0004:000119e8       ___security_cookie_complement 007349e8     msvcrtd:gs_cookie.obj
 0004:000119f0       ??_R0?AVtype_info@@@8      007349f0     msvcrtd:ti_inst.obj
 0004:00011a10       ___globallocalestatus      00734a10     msvcrtd:xthdloc.obj
 0004:00011a14       ___defaultmatherr          00734a14     msvcrtd:merr.obj
 0004:00011a18       ___native_dllmain_reason   00734a18     msvcrtd:natstart.obj
 0004:00011a1c       ___native_vcclrit_reason   00734a1c     msvcrtd:natstart.obj
 0004:00011a24       ?g_pszUpdateEventName@@3PBDB 00734a24     atlsd:Externs.obj
 0004:00011a28       ?g_pszAllocFileMapName@@3PBDB 00734a28     atlsd:Externs.obj
 0004:00011a2c       ?g_pszKernelObjFmt@@3PBDB  00734a2c     atlsd:Externs.obj
 0004:00011a34       ??_R0?AVCAtlException@ATL@@@8 00734a34     atlsd:Externs.obj
 0004:00011c7c       ?gLocalCacheExpanded@@3HA  00734c7c     DlgAddPart.obj
 0004:00011c80       ?last_ref_des@@3V?$CStringT@DV?$StrTraitMFC_DLL@DV?$ChTraitsCRT@D@ATL@@@@@ATL@@A 00734c80     DlgAddPart.obj
 0004:00011c84       ?last_footprint@@3V?$CStringT@DV?$StrTraitMFC_DLL@DV?$ChTraitsCRT@D@ATL@@@@@ATL@@A 00734c84     DlgAddPart.obj
 0004:00011c88       ?last_package@@3V?$CStringT@DV?$StrTraitMFC_DLL@DV?$ChTraitsCRT@D@ATL@@@@@ATL@@A 00734c88     DlgAddPart.obj
 0004:00011c90       ?gMirror@@3HA              00734c90     DlgAddText.obj
 0004:00011c94       ?gNegative@@3HA            00734c94     DlgAddText.obj
 0004:00011c9c       ?g_bVerbose@@3HA           00734c9c     DlgExportDsn.obj
 0004:00011ca0       ?g_bInfo@@3HA              00734ca0     DlgExportDsn.obj
 0004:00011ca4       ?g_FromToType@@3HA         00734ca4     DlgExportDsn.obj
 0004:00011cac       ?gnl@@3V?$CArray@Unet_info@@ABU1@@@A 00734cac     DlgGroupPaste.obj
 0004:00011cd0       ?g_bSesVerbose@@3HA        00734cd0     DlgImportSes.obj
 0004:00011ce0       ?nl_combine@@3V?$CArray@Unet_info@@ABU1@@@A 00734ce0     DlgNetCombine.obj
 0004:00011cf8       ?nl@@3V?$CArray@Unet_info@@ABU1@@@A 00734cf8     DlgNetlist.obj
 0004:00011d14       ?pl@@3V?$CArray@Upart_info@@ABU1@@@A 00734d14     DlgPartlist.obj
 0004:00011d2c       ?gLastFolderName@@3V?$CStringT@DV?$StrTraitMFC_DLL@DV?$ChTraitsCRT@D@ATL@@@@@ATL@@A 00734d2c     DlgSaveFootprint.obj
 0004:00011d30       ?gLastFileName@@3V?$CStringT@DV?$StrTraitMFC_DLL@DV?$ChTraitsCRT@D@ATL@@@@@ATL@@A 00734d30     DlgSaveFootprint.obj
 0004:00011d38       ?bDisableMessageIfFileNotFound@@3HA 00734d38     FootprintLib.obj
 0004:00011d74       ?this_Doc@@3PAVCFreePcbDoc@@A 00734d74     FreePcbDoc.obj
 0004:00011d94       ?t_pressed@@3HA            00734d94     FreePcbView.obj
 0004:00011d98       ?n_pressed@@3HA            00734d98     FreePcbView.obj
 0004:00011d9c       ?gTotalArrowMoveX@@3HA     00734d9c     FreePcbView.obj
 0004:00011da0       ?gTotalArrowMoveY@@3HA     00734da0     FreePcbView.obj
 0004:00011da4       ?gShiftKeyDown@@3HA        00734da4     FreePcbView.obj
 0004:00011da8       ?gLastKeyWasArrow@@3HA     00734da8     FreePcbView.obj
 0004:00011dac       ?prev_sel_count@@3HA       00734dac     FreePcbView.obj
 0004:00011db0       ?groupAverageX@@3_JA       00734db0     FreePcbView.obj
 0004:00011db8       ?groupAverageY@@3_JA       00734db8     FreePcbView.obj
 0004:00011dc0       ?groupNumberItems@@3HA     00734dc0     FreePcbView.obj
 0004:00011dc8       ?my_cursor@@3PAUHICON__@@A 00734dc8     FreePcbView.obj
 0004:0005eb58       ?theApp@@3VCFreePcbApp@@A  00781b58     FreeSch.obj
 0004:0005ed1c       ?THERMAL_W@@3HA            00781d1c     Gerber.obj
 0004:0005ed44       ?current_ps@@3PAUmod_padstack@@A 00781d44     ivex_mod_file.obj
 0004:0005ed48       ?g_best_path_end@@3PAHA    00781d48     NetList.obj
 0004:0005eed8       ?g_best_path_index@@3PAHA  00781ed8     NetList.obj
 0004:0005f068       ?g_best_num_steps@@3HA     00782068     NetList.obj
 0004:0005f06c       ?g_best_score@@3HA         0078206c     NetList.obj
 0004:0005f070       ?g_path_end@@3PAHA         00782070     NetList.obj
 0004:0005f200       ?g_path_index@@3PAHA       00782200     NetList.obj
 0004:0005f390       ?g_num_steps@@3HA          00782390     NetList.obj
 0004:0005f394       ?g_score@@3HA              00782394     NetList.obj
 0004:0005f3a0       ?bDontShowSelfIntersectionWarning@@3HA 007823a0     NetList.obj
 0004:0005f3a4       ?bDontShowSelfIntersectionArcsWarning@@3HA 007823a4     NetList.obj
 0004:0005f3a8       ?bDontShowIntersectionArcsWarning@@3HA 007823a8     NetList.obj
 0004:000ac264       ?m_LIST_Iterator@CIterator_cnet@@0VCDLinkList@@A 007cf264     Net_iter.obj
 0004:000ac26c       ?m_LIST_Iterator@CIterator_cconnect@@0VCDLinkList@@A 007cf26c     Net_iter.obj
 0004:000ac274       ?m_LIST_Iterator@CIterator_cseg@@0VCDLinkList@@A 007cf274     Net_iter.obj
 0004:000ac27c       ?m_LIST_Iterator@CIterator_cvertex@@0VCDLinkList@@A 007cf27c     Net_iter.obj
 0004:000f9008       ?std_err@?1??instance@CQAFDebug@@KAAAV2@XZ@4V2@A 0081c008     QAFDebug.obj
 0004:000f916c       ??_B?1??instance@CQAFDebug@@KAAAV1@XZ@51 0081c16c     QAFDebug.obj
 0004:000f9170       ?QAF_LOG_DIR@@3V?$CStringT@DV?$StrTraitMFC_DLL@DV?$ChTraitsCRT@D@ATL@@@@@ATL@@A 0081c170     QAFDebug.obj
 0004:000f9180       ?smfpath@@3V?$CStringT@DV?$StrTraitMFC_DLL@DV?$ChTraitsCRT@D@ATL@@@@@ATL@@A 0081c180     smfontutil.obj
 0004:000f9184       ?smffile@@3V?$CStringT@DV?$StrTraitMFC_DLL@DV?$ChTraitsCRT@D@ATL@@@@@ATL@@A 0081c184     smfontutil.obj
 0004:000f9188       ?xtbfile@@3V?$CStringT@DV?$StrTraitMFC_DLL@DV?$ChTraitsCRT@D@ATL@@@@@ATL@@A 0081c188     smfontutil.obj
 0004:000f9190       ?_pAtlAutoThreadModule@ATL@@3PAUIAtlAutoThreadModule@1@A 0081c190     StdAfx.obj
 0004:000f9194       ?s_pfnPrevHook@CNoUIAssertHook@ATL@@0P6AHHPADPAH@ZA 0081c194     StdAfx.obj
 0004:000f9198       ?m_bInitFailed@CAtlBaseModule@ATL@@2_NA 0081c198     StdAfx.obj
 0004:000f919c       ?s_pLog@CFixedStringMgr@ATL@@2PAVIFixedStringLog@2@A 0081c19c     StdAfx.obj
 0004:000f91a0       ?_pPerfRegFunc@ATL@@3P6AJPAUHINSTANCE__@@@ZA 0081c1a0     StdAfx.obj
 0004:000f91a4       ?_pPerfUnRegFunc@ATL@@3P6AJXZA 0081c1a4     StdAfx.obj
 0004:000f91a8       ?_AtlRegisterPerUser@ATL@@3_NA 0081c1a8     StdAfx.obj
 0004:000f91ac       ?_pAtlModule@ATL@@3PAVCAtlModule@1@A 0081c1ac     StdAfx.obj
 0004:000f91b0       ?m_libid@CAtlModule@ATL@@2U_GUID@@A 0081c1b0     StdAfx.obj
 0004:000f91c4       ?_pModule@ATL@@3PAVCComModule@1@A 0081c1c4     StdAfx.obj
 0004:000f91c8       ?ATL_CREATE_OBJECT@CComApartment@ATL@@2IA 0081c1c8     StdAfx.obj
 0004:000f91cc       ?WM_DESTROYMODELESS@CDHtmlDialog@@1IA 0081c1cc     StdAfx.obj
 0004:000f91d0       ?clash@Define_the_symbol__ATL_MIXED@@3UThank_you@1@A 0081c1d0     StdAfx.obj
 0004:000f91d4       ?clash@Inconsistent_definition_of_symbol__ATL_MIXED@@3U_Please_define_it_the_same_throughout_your_project@1@A 0081c1d4     StdAfx.obj
 0004:00145f68       ?OverheadTicks@@3HA        00868f68     utility.obj
 0004:00145f6c       ?PerfFreqAdjust@@3HA       00868f6c     utility.obj
 0004:00145f70       ?tStop@@3T_LARGE_INTEGER@@A 00868f70     utility.obj
 0004:00145f78       ?tStart@@3T_LARGE_INTEGER@@A 00868f78     utility.obj
 0004:00145f80       ?PerfFreq@@3T_LARGE_INTEGER@@A 00868f80     utility.obj
 0004:001460d4       _global_docID              008690d4     clibpdf:cpdfInit.obj
 0004:001460d8       __cpdfGlobalErrorHandler   008690d8     clibpdf:cpdfInit.obj
 0004:001460e4       __afxForceEXCLUDE          008690e4     mfcs100d:nolib.obj
 0004:001460e8       __afxForceSTDAFX           008690e8     mfcs100d:stdafx.obj
 0004:001460f0       ?wsprintffp@@3P6AHPADPBDZZA 008690f0     msvcrtd:_error_.obj
 0004:001464f4       __commode                  008694f4     msvcrtd:xncommod.obj
 0004:001464f8       __fmode                    008694f8     msvcrtd:xtxtmode.obj
 0004:001464fc       __dowildcard               008694fc     msvcrtd:wildcard.obj
 0004:00146500       __newmode                  00869500     msvcrtd:_newmode.obj
 0004:00146504       ?g_Allocator@@3VCAtlAllocator@@A 00869504     atlsd:Externs.obj
 0004:00146538       ?s_trace@CTrace@ATL@@2V12@A 00869538     atlsd:Externs.obj
 0004:0014654c       ?atlTraceGeneral@ATL@@3VCTraceCategory@1@A 0086954c     atlsd:atltrace.obj
 0004:00146550       ?atlTraceCOM@ATL@@3VCTraceCategory@1@A 00869550     atlsd:atltrace.obj
 0004:00146554       ?atlTraceQI@ATL@@3VCTraceCategory@1@A 00869554     atlsd:atltrace.obj
 0004:00146558       ?atlTraceRegistrar@ATL@@3VCTraceCategory@1@A 00869558     atlsd:atltrace.obj
 0004:0014655c       ?atlTraceRefcount@ATL@@3VCTraceCategory@1@A 0086955c     atlsd:atltrace.obj
 0004:00146560       ?atlTraceWindowing@ATL@@3VCTraceCategory@1@A 00869560     atlsd:atltrace.obj
 0004:00146564       ?atlTraceControls@ATL@@3VCTraceCategory@1@A 00869564     atlsd:atltrace.obj
 0004:00146568       ?atlTraceHosting@ATL@@3VCTraceCategory@1@A 00869568     atlsd:atltrace.obj
 0004:0014656c       ?atlTraceDBClient@ATL@@3VCTraceCategory@1@A 0086956c     atlsd:atltrace.obj
 0004:00146570       ?atlTraceDBProvider@ATL@@3VCTraceCategory@1@A 00869570     atlsd:atltrace.obj
 0004:00146574       ?atlTraceSnapin@ATL@@3VCTraceCategory@1@A 00869574     atlsd:atltrace.obj
 0004:00146578       ?atlTraceNotImpl@ATL@@3VCTraceCategory@1@A 00869578     atlsd:atltrace.obj
 0004:0014657c       ?atlTraceAllocation@ATL@@3VCTraceCategory@1@A 0086957c     atlsd:atltrace.obj
 0004:00146580       ?atlTraceException@ATL@@3VCTraceCategory@1@A 00869580     atlsd:atltrace.obj
 0004:00146584       ?atlTraceTime@ATL@@3VCTraceCategory@1@A 00869584     atlsd:atltrace.obj
 0004:00146588       ?atlTraceCache@ATL@@3VCTraceCategory@1@A 00869588     atlsd:atltrace.obj
 0004:0014658c       ?atlTraceStencil@ATL@@3VCTraceCategory@1@A 0086958c     atlsd:atltrace.obj
 0004:00146590       ?atlTraceString@ATL@@3VCTraceCategory@1@A 00869590     atlsd:atltrace.obj
 0004:00146594       ?atlTraceMap@ATL@@3VCTraceCategory@1@A 00869594     atlsd:atltrace.obj
 0004:00146598       ?atlTraceUtil@ATL@@3VCTraceCategory@1@A 00869598     atlsd:atltrace.obj
 0004:0014659c       ?atlTraceSecurity@ATL@@3VCTraceCategory@1@A 0086959c     atlsd:atltrace.obj
 0004:001465a0       ?atlTraceSync@ATL@@3VCTraceCategory@1@A 008695a0     atlsd:atltrace.obj
 0004:001465a4       ?atlTraceISAPI@ATL@@3VCTraceCategory@1@A 008695a4     atlsd:atltrace.obj
 0004:001465a8       ?atlTraceUser@ATL@@3VCTraceCategory@1@A 008695a8     atlsd:atltrace.obj
 0004:001465ac       ?atlTraceUser2@ATL@@3VCTraceCategory@1@A 008695ac     atlsd:atltrace.obj
 0004:001465b0       ?atlTraceUser3@ATL@@3VCTraceCategory@1@A 008695b0     atlsd:atltrace.obj
 0004:001465b4       ?atlTraceUser4@ATL@@3VCTraceCategory@1@A 008695b4     atlsd:atltrace.obj
 0004:001465cd       ?_afxInitAppState@@3DA     008695cd     mfcs100d:appmodul.obj
 0004:001465d0       ___native_startup_state    008695d0     <common>
 0004:001465e0       ___native_startup_lock     008695e0     <common>
 0004:001465e4       ___sse2_available          008695e4     <common>
 0004:001465f0       __NoHeapEnableTerminationOnCorruption 008695f0     <common>
 0004:001465f4       ___dyn_tls_init_callback   008695f4     <common>
 0004:001465f8       ___onexitend               008695f8     <common>
 0004:00146608       ___onexitbegin             00869608     <common>
 0005:00000000       __IMPORT_DESCRIPTOR_RPCRT4 0086a000     rpcrt4:RPCRT4.dll
 0005:00000014       __IMPORT_DESCRIPTOR_mfc100d 0086a014     mfc100d:mfc100d.dll
 0005:00000028       __IMPORT_DESCRIPTOR_MSVCR100D 0086a028     msvcrtd:MSVCR100D.dll
 0005:0000003c       __IMPORT_DESCRIPTOR_KERNEL32 0086a03c     kernel32:KERNEL32.dll
 0005:00000050       __IMPORT_DESCRIPTOR_USER32 0086a050     user32:USER32.dll
 0005:00000064       __IMPORT_DESCRIPTOR_GDI32  0086a064     gdi32:GDI32.dll
 0005:00000078       __IMPORT_DESCRIPTOR_SHELL32 0086a078     shell32:SHELL32.dll
 0005:0000008c       __IMPORT_DESCRIPTOR_OLEAUT32 0086a08c     oleaut32:OLEAUT32.dll
 0005:000000a0       __IMPORT_DESCRIPTOR_ADVAPI32 0086a0a0     advapi32:ADVAPI32.dll
 0005:000000b4       __NULL_IMPORT_DESCRIPTOR   0086a0b4     rpcrt4:RPCRT4.dll
 0005:00001434       __imp__SetThreadToken@8    0086b434     advapi32:ADVAPI32.dll
 0005:00001438       __imp__RevertToSelf@0      0086b438     advapi32:ADVAPI32.dll
 0005:0000143c       __imp__OpenThreadToken@16  0086b43c     advapi32:ADVAPI32.dll
 0005:00001440       \177ADVAPI32_NULL_THUNK_DATA 0086b440     advapi32:ADVAPI32.dll
 0005:0000146c       __imp__GetStockObject@4    0086b46c     gdi32:GDI32.dll
 0005:00001470       __imp__SelectObject@8      0086b470     gdi32:GDI32.dll
 0005:00001474       \177GDI32_NULL_THUNK_DATA  0086b474     gdi32:GDI32.dll
 0005:000014a0       __imp__OpenFileMappingA@12 0086b4a0     kernel32:KERNEL32.dll
 0005:000014a4       __imp__GetSystemInfo@4     0086b4a4     kernel32:KERNEL32.dll
 0005:000014a8       __imp__VirtualAlloc@16     0086b4a8     kernel32:KERNEL32.dll
 0005:000014ac       __imp__OutputDebugStringW@4 0086b4ac     kernel32:KERNEL32.dll
 0005:000014b0       __imp__OpenEventA@12       0086b4b0     kernel32:KERNEL32.dll
 0005:000014b4       __imp__SetEvent@4          0086b4b4     kernel32:KERNEL32.dll
 0005:000014b8       __imp__LocalFileTimeToFileTime@8 0086b4b8     kernel32:KERNEL32.dll
 0005:000014bc       __imp__FileTimeToLocalFileTime@8 0086b4bc     kernel32:KERNEL32.dll
 0005:000014c0       __imp__FileTimeToSystemTime@8 0086b4c0     kernel32:KERNEL32.dll
 0005:000014c4       __imp__MulDiv@12           0086b4c4     kernel32:KERNEL32.dll
 0005:000014c8       __imp__GetFullPathNameA@16 0086b4c8     kernel32:KERNEL32.dll
 0005:000014cc       __imp__Sleep@4             0086b4cc     kernel32:KERNEL32.dll
 0005:000014d0       __imp__GetCommandLineA@0   0086b4d0     kernel32:KERNEL32.dll
 0005:000014d4       __imp__CopyFileA@12        0086b4d4     kernel32:KERNEL32.dll
 0005:000014d8       __imp__GetLastError@0      0086b4d8     kernel32:KERNEL32.dll
 0005:000014dc       __imp__GetFileAttributesA@4 0086b4dc     kernel32:KERNEL32.dll
 0005:000014e0       __imp__InterlockedIncrement@4 0086b4e0     kernel32:KERNEL32.dll
 0005:000014e4       __imp__InterlockedDecrement@4 0086b4e4     kernel32:KERNEL32.dll
 0005:000014e8       __imp__GetCurrentDirectoryA@8 0086b4e8     kernel32:KERNEL32.dll
 0005:000014ec       __imp__CreateDirectoryA@8  0086b4ec     kernel32:KERNEL32.dll
 0005:000014f0       __imp__FreeLibrary@4       0086b4f0     kernel32:KERNEL32.dll
 0005:000014f4       __imp__GetProcAddress@8    0086b4f4     kernel32:KERNEL32.dll
 0005:000014f8       __imp__LoadLibraryA@4      0086b4f8     kernel32:KERNEL32.dll
 0005:000014fc       __imp__EnterCriticalSection@4 0086b4fc     kernel32:KERNEL32.dll
 0005:00001500       __imp__InitializeCriticalSection@4 0086b500     kernel32:KERNEL32.dll
 0005:00001504       __imp__DeleteCriticalSection@4 0086b504     kernel32:KERNEL32.dll
 0005:00001508       __imp__LeaveCriticalSection@4 0086b508     kernel32:KERNEL32.dll
 0005:0000150c       __imp__WaitForSingleObject@8 0086b50c     kernel32:KERNEL32.dll
 0005:00001510       __imp__ReleaseMutex@4      0086b510     kernel32:KERNEL32.dll
 0005:00001514       __imp__FindFirstFileA@8    0086b514     kernel32:KERNEL32.dll
 0005:00001518       __imp__FindNextFileA@8     0086b518     kernel32:KERNEL32.dll
 0005:0000151c       __imp__GlobalAlloc@8       0086b51c     kernel32:KERNEL32.dll
 0005:00001520       __imp__GetSystemTimeAsFileTime@4 0086b520     kernel32:KERNEL32.dll
 0005:00001524       __imp__GetTickCount@0      0086b524     kernel32:KERNEL32.dll
 0005:00001528       __imp__IsProcessorFeaturePresent@4 0086b528     kernel32:KERNEL32.dll
 0005:0000152c       __imp__SetUnhandledExceptionFilter@4 0086b52c     kernel32:KERNEL32.dll
 0005:00001530       __imp__UnhandledExceptionFilter@4 0086b530     kernel32:KERNEL32.dll
 0005:00001534       __imp__TerminateProcess@8  0086b534     kernel32:KERNEL32.dll
 0005:00001538       __imp__VirtualQuery@12     0086b538     kernel32:KERNEL32.dll
 0005:0000153c       __imp__GetModuleFileNameW@12 0086b53c     kernel32:KERNEL32.dll
 0005:00001540       __imp__GetProcessHeap@0    0086b540     kernel32:KERNEL32.dll
 0005:00001544       __imp__HeapAlloc@12        0086b544     kernel32:KERNEL32.dll
 0005:00001548       __imp__HeapFree@12         0086b548     kernel32:KERNEL32.dll
 0005:0000154c       __imp__GetStartupInfoW@4   0086b54c     kernel32:KERNEL32.dll
 0005:00001550       __imp__HeapSetInformation@16 0086b550     kernel32:KERNEL32.dll
 0005:00001554       __imp__InterlockedCompareExchange@12 0086b554     kernel32:KERNEL32.dll
 0005:00001558       __imp__InterlockedExchange@8 0086b558     kernel32:KERNEL32.dll
 0005:0000155c       __imp__DecodePointer@4     0086b55c     kernel32:KERNEL32.dll
 0005:00001560       __imp__EncodePointer@4     0086b560     kernel32:KERNEL32.dll
 0005:00001564       __imp__LoadLibraryW@4      0086b564     kernel32:KERNEL32.dll
 0005:00001568       __imp__lstrlenA@4          0086b568     kernel32:KERNEL32.dll
 0005:0000156c       __imp__RaiseException@16   0086b56c     kernel32:KERNEL32.dll
 0005:00001570       __imp__MultiByteToWideChar@24 0086b570     kernel32:KERNEL32.dll
 0005:00001574       __imp__IsDebuggerPresent@0 0086b574     kernel32:KERNEL32.dll
 0005:00001578       __imp__WideCharToMultiByte@32 0086b578     kernel32:KERNEL32.dll
 0005:0000157c       __imp__GetCurrentThread@0  0086b57c     kernel32:KERNEL32.dll
 0005:00001580       __imp__SetThreadPriority@8 0086b580     kernel32:KERNEL32.dll
 0005:00001584       __imp__QueryPerformanceCounter@4 0086b584     kernel32:KERNEL32.dll
 0005:00001588       __imp__QueryPerformanceFrequency@4 0086b588     kernel32:KERNEL32.dll
 0005:0000158c       __imp__ReadFile@20         0086b58c     kernel32:KERNEL32.dll
 0005:00001590       __imp__CreatePipe@16       0086b590     kernel32:KERNEL32.dll
 0005:00001594       __imp__GetCurrentProcess@0 0086b594     kernel32:KERNEL32.dll
 0005:00001598       __imp__DuplicateHandle@28  0086b598     kernel32:KERNEL32.dll
 0005:0000159c       __imp__GetStdHandle@4      0086b59c     kernel32:KERNEL32.dll
 0005:000015a0       __imp__CreateProcessA@40   0086b5a0     kernel32:KERNEL32.dll
 0005:000015a4       __imp__UnmapViewOfFile@4   0086b5a4     kernel32:KERNEL32.dll
 0005:000015a8       __imp__GetEnvironmentVariableA@12 0086b5a8     kernel32:KERNEL32.dll
 0005:000015ac       __imp__FormatMessageA@28   0086b5ac     kernel32:KERNEL32.dll
 0005:000015b0       __imp__LocalFree@4         0086b5b0     kernel32:KERNEL32.dll
 0005:000015b4       __imp__CreateFileA@28      0086b5b4     kernel32:KERNEL32.dll
 0005:000015b8       __imp__GetFileSize@8       0086b5b8     kernel32:KERNEL32.dll
 0005:000015bc       __imp__MoveFileExA@12      0086b5bc     kernel32:KERNEL32.dll
 0005:000015c0       __imp__GetLocalTime@4      0086b5c0     kernel32:KERNEL32.dll
 0005:000015c4       __imp__GetCurrentProcessId@0 0086b5c4     kernel32:KERNEL32.dll
 0005:000015c8       __imp__GetCurrentThreadId@0 0086b5c8     kernel32:KERNEL32.dll
 0005:000015cc       __imp__GetModuleFileNameA@12 0086b5cc     kernel32:KERNEL32.dll
 0005:000015d0       __imp__SetFilePointer@16   0086b5d0     kernel32:KERNEL32.dll
 0005:000015d4       __imp__WriteFile@20        0086b5d4     kernel32:KERNEL32.dll
 0005:000015d8       __imp__CloseHandle@4       0086b5d8     kernel32:KERNEL32.dll
 0005:000015dc       __imp__OutputDebugStringA@4 0086b5dc     kernel32:KERNEL32.dll
 0005:000015e0       __imp__CreateMutexA@12     0086b5e0     kernel32:KERNEL32.dll
 0005:000015e4       __imp__CreateFileMappingA@24 0086b5e4     kernel32:KERNEL32.dll
 0005:000015e8       __imp__MapViewOfFile@20    0086b5e8     kernel32:KERNEL32.dll
 0005:000015ec       __imp__DeleteFileA@4       0086b5ec     kernel32:KERNEL32.dll
 0005:000015f0       \177KERNEL32_NULL_THUNK_DATA 0086b5f0     kernel32:KERNEL32.dll
 0005:0000165c       __imp____CxxFrameHandler3  0086b65c     msvcrtd:MSVCR100D.dll
 0005:00001660       __imp___mktime64           0086b660     msvcrtd:MSVCR100D.dll
 0005:00001664       __imp___gmtime64_s         0086b664     msvcrtd:MSVCR100D.dll
 0005:00001668       __imp___localtime64_s      0086b668     msvcrtd:MSVCR100D.dll
 0005:0000166c       __imp___snprintf_s         0086b66c     msvcrtd:MSVCR100D.dll
 0005:00001670       __imp___errno              0086b670     msvcrtd:MSVCR100D.dll
 0005:00001674       __imp__wcscpy              0086b674     msvcrtd:MSVCR100D.dll
 0005:00001678       __imp___vsnprintf_s        0086b678     msvcrtd:MSVCR100D.dll
 0005:0000167c       __imp___vsnwprintf_s       0086b67c     msvcrtd:MSVCR100D.dll
 0005:00001680       __imp___snwprintf_s        0086b680     msvcrtd:MSVCR100D.dll
 0005:00001684       __imp__wcscpy_s            0086b684     msvcrtd:MSVCR100D.dll
 0005:00001688       __imp__wcsncpy_s           0086b688     msvcrtd:MSVCR100D.dll
 0005:0000168c       __imp___recalloc           0086b68c     msvcrtd:MSVCR100D.dll
 0005:00001690       __imp___wcsicmp            0086b690     msvcrtd:MSVCR100D.dll
 0005:00001694       __imp__wcslen              0086b694     msvcrtd:MSVCR100D.dll
 0005:00001698       __imp___setmode            0086b698     msvcrtd:MSVCR100D.dll
 0005:0000169c       __imp__fileno              0086b69c     msvcrtd:MSVCR100D.dll
 0005:0000169c       __imp___fileno             0086b69c     msvcrtd:MSVCR100D.dll
 0005:000016a0       __imp___setmbcp            0086b6a0     msvcrtd:MSVCR100D.dll
 0005:000016a4       __imp__rand                0086b6a4     msvcrtd:MSVCR100D.dll
 0005:000016a8       __imp___wassert            0086b6a8     msvcrtd:MSVCR100D.dll
 0005:000016ac       __imp__srand               0086b6ac     msvcrtd:MSVCR100D.dll
 0005:000016b0       __imp__free                0086b6b0     msvcrtd:MSVCR100D.dll
 0005:000016b4       __imp___invoke_watson      0086b6b4     msvcrtd:MSVCR100D.dll
 0005:000016b8       __imp___controlfp_s        0086b6b8     msvcrtd:MSVCR100D.dll
 0005:000016bc       __imp_?_type_info_dtor_internal_method@type_info@@QAEXXZ 0086b6bc     msvcrtd:MSVCR100D.dll
 0005:000016c0       __imp___crt_debugger_hook  0086b6c0     msvcrtd:MSVCR100D.dll
 0005:000016c4       __imp___except_handler4_common 0086b6c4     msvcrtd:MSVCR100D.dll
 0005:000016c8       __imp___time32             0086b6c8     msvcrtd:MSVCR100D.dll
 0005:000016c8       __imp__time                0086b6c8     msvcrtd:MSVCR100D.dll
 0005:000016cc       __imp___mktime32           0086b6cc     msvcrtd:MSVCR100D.dll
 0005:000016cc       __imp__mktime              0086b6cc     msvcrtd:MSVCR100D.dll
 0005:000016d0       __imp__localtime           0086b6d0     msvcrtd:MSVCR100D.dll
 0005:000016d0       __imp___localtime32        0086b6d0     msvcrtd:MSVCR100D.dll
 0005:000016d4       __imp___stat32             0086b6d4     msvcrtd:MSVCR100D.dll
 0005:000016d4       __imp___stat               0086b6d4     msvcrtd:MSVCR100D.dll
 0005:000016d8       __imp___initterm_e         0086b6d8     msvcrtd:MSVCR100D.dll
 0005:000016dc       __imp___initterm           0086b6dc     msvcrtd:MSVCR100D.dll
 0005:000016e0       __imp___CrtDbgReportW      0086b6e0     msvcrtd:MSVCR100D.dll
 0005:000016e4       __imp___CrtSetCheckCount   0086b6e4     msvcrtd:MSVCR100D.dll
 0005:000016e8       __imp___acmdln             0086b6e8     msvcrtd:MSVCR100D.dll
 0005:000016ec       __imp___ismbblead          0086b6ec     msvcrtd:MSVCR100D.dll
 0005:000016f0       __imp___cexit              0086b6f0     msvcrtd:MSVCR100D.dll
 0005:000016f4       __imp___XcptFilter         0086b6f4     msvcrtd:MSVCR100D.dll
 0005:000016f8       __imp____getmainargs       0086b6f8     msvcrtd:MSVCR100D.dll
 0005:000016fc       __imp___amsg_exit          0086b6fc     msvcrtd:MSVCR100D.dll
 0005:00001700       __imp____set_app_type      0086b700     msvcrtd:MSVCR100D.dll
 0005:00001704       __imp___commode            0086b704     msvcrtd:MSVCR100D.dll
 0005:00001708       __imp____setusermatherr    0086b708     msvcrtd:MSVCR100D.dll
 0005:0000170c       __imp___configthreadlocale 0086b70c     msvcrtd:MSVCR100D.dll
 0005:00001710       __imp_?terminate@@YAXXZ    0086b710     msvcrtd:MSVCR100D.dll
 0005:00001714       __imp___onexit             0086b714     msvcrtd:MSVCR100D.dll
 0005:00001718       __imp___lock               0086b718     msvcrtd:MSVCR100D.dll
 0005:0000171c       __imp____dllonexit         0086b71c     msvcrtd:MSVCR100D.dll
 0005:00001720       __imp___unlock             0086b720     msvcrtd:MSVCR100D.dll
 0005:00001724       __imp___CRT_RTC_INITW      0086b724     msvcrtd:MSVCR100D.dll
 0005:00001728       __imp__fseek               0086b728     msvcrtd:MSVCR100D.dll
 0005:0000172c       __imp__getc                0086b72c     msvcrtd:MSVCR100D.dll
 0005:00001730       __imp__fgetc               0086b730     msvcrtd:MSVCR100D.dll
 0005:00001734       __imp__realloc             0086b734     msvcrtd:MSVCR100D.dll
 0005:00001738       __imp__printf              0086b738     msvcrtd:MSVCR100D.dll
 0005:0000173c       __imp__strncat             0086b73c     msvcrtd:MSVCR100D.dll
 0005:00001740       __imp__vfprintf            0086b740     msvcrtd:MSVCR100D.dll
 0005:00001744       __imp__ceil                0086b744     msvcrtd:MSVCR100D.dll
 0005:00001748       __imp__strchr              0086b748     msvcrtd:MSVCR100D.dll
 0005:0000174c       __imp__strncmp             0086b74c     msvcrtd:MSVCR100D.dll
 0005:00001750       __imp__fputc               0086b750     msvcrtd:MSVCR100D.dll
 0005:00001754       __imp___iob                0086b754     msvcrtd:MSVCR100D.dll
 0005:00001758       __imp__fputs               0086b758     msvcrtd:MSVCR100D.dll
 0005:0000175c       __imp__sprintf             0086b75c     msvcrtd:MSVCR100D.dll
 0005:00001760       __imp__strncpy             0086b760     msvcrtd:MSVCR100D.dll
 0005:00001764       __imp__strstr              0086b764     msvcrtd:MSVCR100D.dll
 0005:00001768       __imp___fmode              0086b768     msvcrtd:MSVCR100D.dll
 0005:0000176c       __imp__pow                 0086b76c     msvcrtd:MSVCR100D.dll
 0005:00001770       __imp__log10               0086b770     msvcrtd:MSVCR100D.dll
 0005:00001774       __imp__atan                0086b774     msvcrtd:MSVCR100D.dll
 0005:00001778       __imp___exit               0086b778     msvcrtd:MSVCR100D.dll
 0005:0000177c       __imp__fopen               0086b77c     msvcrtd:MSVCR100D.dll
 0005:00001780       __imp__fclose              0086b780     msvcrtd:MSVCR100D.dll
 0005:00001784       __imp__feof                0086b784     msvcrtd:MSVCR100D.dll
 0005:00001788       __imp__fgets               0086b788     msvcrtd:MSVCR100D.dll
 0005:0000178c       __imp__sscanf              0086b78c     msvcrtd:MSVCR100D.dll
 0005:00001790       __imp__fwrite              0086b790     msvcrtd:MSVCR100D.dll
 0005:00001794       __imp__fread               0086b794     msvcrtd:MSVCR100D.dll
 0005:00001798       __imp___mbsrchr            0086b798     msvcrtd:MSVCR100D.dll
 0005:0000179c       __imp__asin                0086b79c     msvcrtd:MSVCR100D.dll
 0005:000017a0       __imp__acos                0086b7a0     msvcrtd:MSVCR100D.dll
 0005:000017a4       __imp__strcat              0086b7a4     msvcrtd:MSVCR100D.dll
 0005:000017a8       __imp___access             0086b7a8     msvcrtd:MSVCR100D.dll
 0005:000017ac       __imp__strcpy              0086b7ac     msvcrtd:MSVCR100D.dll
 0005:000017b0       __imp__fscanf              0086b7b0     msvcrtd:MSVCR100D.dll
 0005:000017b4       __imp____iob_func          0086b7b4     msvcrtd:MSVCR100D.dll
 0005:000017b8       __imp__fprintf             0086b7b8     msvcrtd:MSVCR100D.dll
 0005:000017bc       __imp__exit                0086b7bc     msvcrtd:MSVCR100D.dll
 0005:000017c0       __imp__llabs               0086b7c0     msvcrtd:MSVCR100D.dll
 0005:000017c4       __imp__tan                 0086b7c4     msvcrtd:MSVCR100D.dll
 0005:000017c8       __imp__memcmp              0086b7c8     msvcrtd:MSVCR100D.dll
 0005:000017cc       __imp__modf                0086b7cc     msvcrtd:MSVCR100D.dll
 0005:000017d0       __imp___purecall           0086b7d0     msvcrtd:MSVCR100D.dll
 0005:000017d4       __imp___CxxThrowException@8 0086b7d4     msvcrtd:MSVCR100D.dll
 0005:000017d8       __imp____sys_errlist       0086b7d8     msvcrtd:MSVCR100D.dll
 0005:000017dc       __imp__memcpy              0086b7dc     msvcrtd:MSVCR100D.dll
 0005:000017e0       __imp___fullpath           0086b7e0     msvcrtd:MSVCR100D.dll
 0005:000017e4       __imp__strcpy_s            0086b7e4     msvcrtd:MSVCR100D.dll
 0005:000017e8       __imp__fmod                0086b7e8     msvcrtd:MSVCR100D.dll
 0005:000017ec       __imp__atan2               0086b7ec     msvcrtd:MSVCR100D.dll
 0005:000017f0       __imp___difftime64         0086b7f0     msvcrtd:MSVCR100D.dll
 0005:000017f4       __imp___ftime64            0086b7f4     msvcrtd:MSVCR100D.dll
 0005:000017f8       __imp__labs                0086b7f8     msvcrtd:MSVCR100D.dll
 0005:000017fc       __imp__strlen              0086b7fc     msvcrtd:MSVCR100D.dll
 0005:00001800       __imp__strcat_s            0086b800     msvcrtd:MSVCR100D.dll
 0005:00001804       __imp___splitpath          0086b804     msvcrtd:MSVCR100D.dll
 0005:00001808       __imp__remove              0086b808     msvcrtd:MSVCR100D.dll
 0005:0000180c       __imp__rename              0086b80c     msvcrtd:MSVCR100D.dll
 0005:00001810       __imp__ldiv                0086b810     msvcrtd:MSVCR100D.dll
 0005:00001814       __imp__malloc              0086b814     msvcrtd:MSVCR100D.dll
 0005:00001818       __imp__qsort               0086b818     msvcrtd:MSVCR100D.dll
 0005:0000181c       __imp__fabs                0086b81c     msvcrtd:MSVCR100D.dll
 0005:00001820       __imp__sqrt                0086b820     msvcrtd:MSVCR100D.dll
 0005:00001824       __imp__sin                 0086b824     msvcrtd:MSVCR100D.dll
 0005:00001828       __imp__cos                 0086b828     msvcrtd:MSVCR100D.dll
 0005:0000182c       __imp__strcmp              0086b82c     msvcrtd:MSVCR100D.dll
 0005:00001830       __imp___time64             0086b830     msvcrtd:MSVCR100D.dll
 0005:00001834       __imp___localtime64        0086b834     msvcrtd:MSVCR100D.dll
 0005:00001838       __imp___stat64i32          0086b838     msvcrtd:MSVCR100D.dll
 0005:0000183c       __imp___mkdir              0086b83c     msvcrtd:MSVCR100D.dll
 0005:00001840       __imp___chdir              0086b840     msvcrtd:MSVCR100D.dll
 0005:00001844       __imp__memmove_s           0086b844     msvcrtd:MSVCR100D.dll
 0005:00001848       __imp__atof                0086b848     msvcrtd:MSVCR100D.dll
 0005:0000184c       __imp__atoi                0086b84c     msvcrtd:MSVCR100D.dll
 0005:00001850       __imp__memcpy_s            0086b850     msvcrtd:MSVCR100D.dll
 0005:00001854       __imp__memset              0086b854     msvcrtd:MSVCR100D.dll
 0005:00001858       __imp__calloc              0086b858     msvcrtd:MSVCR100D.dll
 0005:0000185c       __imp__floor               0086b85c     msvcrtd:MSVCR100D.dll
 0005:00001860       __imp__abs                 0086b860     msvcrtd:MSVCR100D.dll
 0005:00001864       __imp___CrtDbgReport       0086b864     msvcrtd:MSVCR100D.dll
 0005:00001868       \177MSVCR100D_NULL_THUNK_DATA 0086b868     msvcrtd:MSVCR100D.dll
 0005:000018fc       __imp__SysFreeString@4     0086b8fc     oleaut32:OLEAUT32.dll
 0005:00001900       \177OLEAUT32_NULL_THUNK_DATA 0086b900     oleaut32:OLEAUT32.dll
 0005:0000192c       __imp__UuidFromStringA@8   0086b92c     rpcrt4:RPCRT4.dll
 0005:00001930       __imp__UuidToStringA@8     0086b930     rpcrt4:RPCRT4.dll
 0005:00001934       __imp__UuidCreate@4        0086b934     rpcrt4:RPCRT4.dll
 0005:00001938       \177RPCRT4_NULL_THUNK_DATA 0086b938     rpcrt4:RPCRT4.dll
 0005:00001964       __imp__ShellExecuteA@24    0086b964     shell32:SHELL32.dll
 0005:00001968       __imp__DragFinish@4        0086b968     shell32:SHELL32.dll
 0005:0000196c       __imp__DragQueryFileA@16   0086b96c     shell32:SHELL32.dll
 0005:00001970       __imp__SHGetPathFromIDListA@8 0086b970     shell32:SHELL32.dll
 0005:00001974       __imp__SHBrowseForFolderA@4 0086b974     shell32:SHELL32.dll
 0005:00001978       __imp__SHGetMalloc@4       0086b978     shell32:SHELL32.dll
 0005:0000197c       __imp__ShellExecuteExA@4   0086b97c     shell32:SHELL32.dll
 0005:00001980       \177SHELL32_NULL_THUNK_DATA 0086b980     shell32:SHELL32.dll
 0005:000019b0       __imp__PtInRect@12         0086b9b0     user32:USER32.dll
 0005:000019b4       __imp__CopyRect@8          0086b9b4     user32:USER32.dll
 0005:000019b8       __imp__SetRect@20          0086b9b8     user32:USER32.dll
 0005:000019bc       __imp__SetRectEmpty@4      0086b9bc     user32:USER32.dll
 0005:000019c0       __imp__EqualRect@8         0086b9c0     user32:USER32.dll
 0005:000019c4       __imp__InflateRect@12      0086b9c4     user32:USER32.dll
 0005:000019c8       __imp__OffsetRect@12       0086b9c8     user32:USER32.dll
 0005:000019cc       __imp__IntersectRect@12    0086b9cc     user32:USER32.dll
 0005:000019d0       __imp__IsRectEmpty@4       0086b9d0     user32:USER32.dll
 0005:000019d4       __imp__SubtractRect@12     0086b9d4     user32:USER32.dll
 0005:000019d8       __imp__MessageBoxA@16      0086b9d8     user32:USER32.dll
 0005:000019dc       __imp__wsprintfA           0086b9dc     user32:USER32.dll
 0005:000019e0       __imp__SetWindowTextA@8    0086b9e0     user32:USER32.dll
 0005:000019e4       __imp__GetWindowRect@8     0086b9e4     user32:USER32.dll
 0005:000019e8       __imp__ScreenToClient@8    0086b9e8     user32:USER32.dll
 0005:000019ec       __imp__CreateWindowExA@48  0086b9ec     user32:USER32.dll
 0005:000019f0       __imp__GetDlgItem@8        0086b9f0     user32:USER32.dll
 0005:000019f4       __imp__GetWindowTextA@12   0086b9f4     user32:USER32.dll
 0005:000019f8       __imp__EndDialog@8         0086b9f8     user32:USER32.dll
 0005:000019fc       __imp__SetFocus@4          0086b9fc     user32:USER32.dll
 0005:00001a00       __imp__SetCursor@4         0086ba00     user32:USER32.dll
 0005:00001a04       __imp__LoadCursorA@8       0086ba04     user32:USER32.dll
 0005:00001a08       __imp__CreatePopupMenu@0   0086ba08     user32:USER32.dll
 0005:00001a0c       __imp__InsertMenuItemA@16  0086ba0c     user32:USER32.dll
 0005:00001a10       __imp__AppendMenuA@16      0086ba10     user32:USER32.dll
 0005:00001a14       __imp__OpenClipboard@4     0086ba14     user32:USER32.dll
 0005:00001a18       __imp__EmptyClipboard@0    0086ba18     user32:USER32.dll
 0005:00001a1c       __imp__SetClipboardData@8  0086ba1c     user32:USER32.dll
 0005:00001a20       __imp__CloseClipboard@0    0086ba20     user32:USER32.dll
 0005:00001a24       __imp__FindWindowA@8       0086ba24     user32:USER32.dll
 0005:00001a28       __imp__ShowWindow@8        0086ba28     user32:USER32.dll
 0005:00001a2c       __imp__SetForegroundWindow@4 0086ba2c     user32:USER32.dll
 0005:00001a30       __imp__UpdateWindow@4      0086ba30     user32:USER32.dll
 0005:00001a34       __imp__GetKeyState@4       0086ba34     user32:USER32.dll
 0005:00001a38       __imp__GetCursorPos@4      0086ba38     user32:USER32.dll
 0005:00001a3c       __imp__SetCursorPos@8      0086ba3c     user32:USER32.dll
 0005:00001a40       __imp__GetSystemMetrics@4  0086ba40     user32:USER32.dll
 0005:00001a44       __imp__SendMessageA@16     0086ba44     user32:USER32.dll
 0005:00001a48       __imp__ShowCursor@4        0086ba48     user32:USER32.dll
 0005:00001a4c       __imp__GetWindowLongA@8    0086ba4c     user32:USER32.dll
 0005:00001a50       __imp__SetWindowLongA@12   0086ba50     user32:USER32.dll
 0005:00001a54       __imp__PeekMessageA@20     0086ba54     user32:USER32.dll
 0005:00001a58       __imp__PostQuitMessage@4   0086ba58     user32:USER32.dll
 0005:00001a5c       __imp__UnionRect@12        0086ba5c     user32:USER32.dll
 0005:00001a60       \177USER32_NULL_THUNK_DATA 0086ba60     user32:USER32.dll
 0005:00001aac       __imp_?InsertColumn@CListCtrl@@QAEHHPBDHHH@Z 0086baac     mfc100d:mfc100d.dll
 0005:00001ab0       __imp_?SetExtendedStyle@CListCtrl@@QAEKK@Z 0086bab0     mfc100d:mfc100d.dll
 0005:00001ab4       __imp_?GetExtendedStyle@CListCtrl@@QBEKXZ 0086bab4     mfc100d:mfc100d.dll
 0005:00001ab8       __imp_?SelectString@CComboBox@@QAEHHPBD@Z 0086bab8     mfc100d:mfc100d.dll
 0005:00001abc       __imp_?DDX_Text@@YGXPAVCDataExchange@@HAAN@Z 0086babc     mfc100d:mfc100d.dll
 0005:00001ac0       __imp_?SortItems@CListCtrl@@QAEHP6GHJJJ@ZK@Z 0086bac0     mfc100d:mfc100d.dll
 0005:00001ac4       __imp_?Append@?$CSimpleStringT@D$00@ATL@@QAEXPBD@Z 0086bac4     mfc100d:mfc100d.dll
 0005:00001ac8       __imp_?DDX_Check@@YGXPAVCDataExchange@@HAAH@Z 0086bac8     mfc100d:mfc100d.dll
 0005:00001acc       __imp_?LoadIconA@CWinApp@@QBEPAUHICON__@@I@Z 0086bacc     mfc100d:mfc100d.dll
 0005:00001ad0       __imp_?AfxGetApp@@YGPAVCWinApp@@XZ 0086bad0     mfc100d:mfc100d.dll
 0005:00001ad4       __imp_?GetRuntimeClass@CDialog@@UBEPAUCRuntimeClass@@XZ 0086bad4     mfc100d:mfc100d.dll
 0005:00001ad8       __imp_?OnSysCommand@CWnd@@IAEXIJ@Z 0086bad8     mfc100d:mfc100d.dll
 0005:00001adc       __imp_?OnPaint@CDialog@@IAEXXZ 0086badc     mfc100d:mfc100d.dll
 0005:00001ae0       __imp_??1CPaintDC@@UAE@XZ  0086bae0     mfc100d:mfc100d.dll
 0005:00001ae4       __imp_?DrawIcon@CDC@@QAEHHHPAUHICON__@@@Z 0086bae4     mfc100d:mfc100d.dll
 0005:00001ae8       __imp_?SendMessageA@CWnd@@QBEJIIJ@Z 0086bae8     mfc100d:mfc100d.dll
 0005:00001aec       __imp_?GetSafeHdc@CDC@@QBEPAUHDC__@@XZ 0086baec     mfc100d:mfc100d.dll
 0005:00001af0       __imp_??0CPaintDC@@QAE@PAVCWnd@@@Z 0086baf0     mfc100d:mfc100d.dll
 0005:00001af4       __imp_?IsIconic@CWnd@@QBEHXZ 0086baf4     mfc100d:mfc100d.dll
 0005:00001af8       __imp_?ReplaceSel@CEdit@@QAEXPBDH@Z 0086baf8     mfc100d:mfc100d.dll
 0005:00001afc       __imp_??0CBrush@@QAE@XZ    0086bafc     mfc100d:mfc100d.dll
 0005:00001b00       __imp_?GetDlgItem@CWnd@@QBEPAV1@H@Z 0086bb00     mfc100d:mfc100d.dll
 0005:00001b04       __imp_??BCBrush@@QBEPAUHBRUSH__@@XZ 0086bb04     mfc100d:mfc100d.dll
 0005:00001b08       __imp_?CreateSolidBrush@CBrush@@QAEHK@Z 0086bb08     mfc100d:mfc100d.dll
 0005:00001b0c       __imp_?DeleteObject@CGdiObject@@QAEHXZ 0086bb0c     mfc100d:mfc100d.dll
 0005:00001b10       __imp_?SetBkMode@CDC@@QAEHH@Z 0086bb10     mfc100d:mfc100d.dll
 0005:00001b14       __imp_?GetDlgCtrlID@CWnd@@QBEHXZ 0086bb14     mfc100d:mfc100d.dll
 0005:00001b18       __imp_?OnCtlColor@CWnd@@IAEPAUHBRUSH__@@PAVCDC@@PAV1@I@Z 0086bb18     mfc100d:mfc100d.dll
 0005:00001b1c       __imp_?Invalidate@CWnd@@QAEXH@Z 0086bb1c     mfc100d:mfc100d.dll
 0005:00001b20       __imp_?GetColor@CColorDialog@@QBEKXZ 0086bb20     mfc100d:mfc100d.dll
 0005:00001b24       __imp_?DoModal@CColorDialog@@UAEHXZ 0086bb24     mfc100d:mfc100d.dll
 0005:00001b28       __imp_??0CColorDialog@@QAE@KKPAVCWnd@@@Z 0086bb28     mfc100d:mfc100d.dll
 0005:00001b2c       __imp_?GetRuntimeClass@CCommonDialog@@UBEPAUCRuntimeClass@@XZ 0086bb2c     mfc100d:mfc100d.dll
 0005:00001b30       __imp_?GetMessageMap@CCommonDialog@@MBEPBUAFX_MSGMAP@@XZ 0086bb30     mfc100d:mfc100d.dll
 0005:00001b34       __imp_?OnOK@CCommonDialog@@MAEXXZ 0086bb34     mfc100d:mfc100d.dll
 0005:00001b38       __imp_?OnCancel@CCommonDialog@@MAEXXZ 0086bb38     mfc100d:mfc100d.dll
 0005:00001b3c       __imp_??Y?$CStringT@DV?$StrTraitMFC_DLL@DV?$ChTraitsCRT@D@ATL@@@@@ATL@@QAEAAV01@ABV?$CSimpleStringT@D$00@1@@Z 0086bb3c     mfc100d:mfc100d.dll
 0005:00001b40       __imp_?DeleteString@CComboBox@@QAEHI@Z 0086bb40     mfc100d:mfc100d.dll
 0005:00001b44       __imp_?LimitText@CEdit@@QAEXH@Z 0086bb44     mfc100d:mfc100d.dll
 0005:00001b48       __imp_?MoveWindow@CWnd@@QAEXPBUtagRECT@@H@Z 0086bb48     mfc100d:mfc100d.dll
 0005:00001b4c       __imp_?SetSel@CEdit@@QAEXHHH@Z 0086bb4c     mfc100d:mfc100d.dll
 0005:00001b50       __imp_?AfxGetMainWnd@@YGPAVCWnd@@XZ 0086bb50     mfc100d:mfc100d.dll
 0005:00001b54       __imp_?OnSetCursor@CWnd@@IAEHPAV1@II@Z 0086bb54     mfc100d:mfc100d.dll
 0005:00001b58       __imp_?SetItemState@CListCtrl@@QAEHHII@Z 0086bb58     mfc100d:mfc100d.dll
 0005:00001b5c       __imp_?DeleteAllItems@CListCtrl@@QAEHXZ 0086bb5c     mfc100d:mfc100d.dll
 0005:00001b60       __imp_?GetItemText@CListCtrl@@QBEHHHPADH@Z 0086bb60     mfc100d:mfc100d.dll
 0005:00001b64       __imp_?GetNextSelectedItem@CListCtrl@@QBEHAAPAU__POSITION@@@Z 0086bb64     mfc100d:mfc100d.dll
 0005:00001b68       __imp_?GetFirstSelectedItemPosition@CListCtrl@@QBEPAU__POSITION@@XZ 0086bb68     mfc100d:mfc100d.dll
 0005:00001b6c       __imp_?GetSelectedCount@CListCtrl@@QBEIXZ 0086bb6c     mfc100d:mfc100d.dll
 0005:00001b70       __imp_?DeleteItem@CListCtrl@@QAEHH@Z 0086bb70     mfc100d:mfc100d.dll
 0005:00001b74       __imp_?GetItemState@CListCtrl@@QBEIHI@Z 0086bb74     mfc100d:mfc100d.dll
 0005:00001b78       __imp_?DDV_MinMaxInt@@YGXPAVCDataExchange@@HHH@Z 0086bb78     mfc100d:mfc100d.dll
 0005:00001b7c       __imp_?DDX_Radio@@YGXPAVCDataExchange@@HAAH@Z 0086bb7c     mfc100d:mfc100d.dll
 0005:00001b80       __imp_?TrimRight@?$CStringT@DV?$StrTraitMFC_DLL@DV?$ChTraitsCRT@D@ATL@@@@@ATL@@QAEAAV12@XZ 0086bb80     mfc100d:mfc100d.dll
 0005:00001b84       __imp_?FreeDataChain@CPlex@@QAEXXZ 0086bb84     mfc100d:mfc100d.dll
 0005:00001b88       __imp_?Create@CPlex@@SGPAU1@AAPAU1@II@Z 0086bb88     mfc100d:mfc100d.dll
 0005:00001b8c       __imp_??3CObject@@SGXPAXPBDH@Z 0086bb8c     mfc100d:mfc100d.dll
 0005:00001b90       __imp_??0CStdioFile@@QAE@PBDI@Z 0086bb90     mfc100d:mfc100d.dll
 0005:00001b94       __imp_??2CObject@@SGPAXIPBDH@Z 0086bb94     mfc100d:mfc100d.dll
 0005:00001b98       __imp_?Replace@?$CStringT@DV?$StrTraitMFC_DLL@DV?$ChTraitsCRT@D@ATL@@@@@ATL@@QAEHDD@Z 0086bb98     mfc100d:mfc100d.dll
 0005:00001b9c       __imp_??0CMapStringToPtr@@QAE@H@Z 0086bb9c     mfc100d:mfc100d.dll
 0005:00001ba0       __imp_??1CMapStringToPtr@@UAE@XZ 0086bba0     mfc100d:mfc100d.dll
 0005:00001ba4       __imp_?SetItemData@CListBox@@QAEHHK@Z 0086bba4     mfc100d:mfc100d.dll
 0005:00001ba8       __imp_?GetItemData@CListBox@@QBEKH@Z 0086bba8     mfc100d:mfc100d.dll
 0005:00001bac       __imp_??1CBitmap@@UAE@XZ   0086bbac     mfc100d:mfc100d.dll
 0005:00001bb0       __imp_??0CBitmap@@QAE@XZ   0086bbb0     mfc100d:mfc100d.dll
 0005:00001bb4       __imp_?SetBitmap@CStatic@@QAEPAUHBITMAP__@@PAU2@@Z 0086bbb4     mfc100d:mfc100d.dll
 0005:00001bb8       __imp_??BCBitmap@@QBEPAUHBITMAP__@@XZ 0086bbb8     mfc100d:mfc100d.dll
 0005:00001bbc       __imp_?LoadBitmapA@CBitmap@@QAEHI@Z 0086bbbc     mfc100d:mfc100d.dll
 0005:00001bc0       __imp_?AppendChar@?$CSimpleStringT@D$00@ATL@@QAEXD@Z 0086bbc0     mfc100d:mfc100d.dll
 0005:00001bc4       __imp_?Tokenize@?$CStringT@DV?$StrTraitMFC_DLL@DV?$ChTraitsCRT@D@ATL@@@@@ATL@@QBE?AV12@PBDAAH@Z 0086bbc4     mfc100d:mfc100d.dll
 0005:00001bc8       __imp_?GetPosition@CStdioFile@@UBE_KXZ 0086bbc8     mfc100d:mfc100d.dll
 0005:00001bcc       __imp_?ReadString@CStdioFile@@UAEHAAV?$CStringT@DV?$StrTraitMFC_DLL@DV?$ChTraitsCRT@D@ATL@@@@@ATL@@@Z 0086bbcc     mfc100d:mfc100d.dll
 0005:00001bd0       __imp_?RemoveKey@CMapStringToPtr@@QAEHPBD@Z 0086bbd0     mfc100d:mfc100d.dll
 0005:00001bd4       __imp_??1CFileFind@@UAE@XZ 0086bbd4     mfc100d:mfc100d.dll
 0005:00001bd8       __imp_?Close@CFileFind@@QAEXXZ 0086bbd8     mfc100d:mfc100d.dll
 0005:00001bdc       __imp_?IsDirectory@CFileFind@@QBEHXZ 0086bbdc     mfc100d:mfc100d.dll
 0005:00001be0       __imp_?GetFileName@CFileFind@@UBE?AV?$CStringT@DV?$StrTraitMFC_DLL@DV?$ChTraitsCRT@D@ATL@@@@@ATL@@XZ 0086bbe0     mfc100d:mfc100d.dll
 0005:00001be4       __imp_?FindNextFileA@CFileFind@@UAEHXZ 0086bbe4     mfc100d:mfc100d.dll
 0005:00001be8       __imp_?FindFile@CFileFind@@UAEHPBDK@Z 0086bbe8     mfc100d:mfc100d.dll
 0005:00001bec       __imp_??0CFileFind@@QAE@XZ 0086bbec     mfc100d:mfc100d.dll
 0005:00001bf0       __imp_?RemoveAll@CMapStringToPtr@@QAEXXZ 0086bbf0     mfc100d:mfc100d.dll
 0005:00001bf4       __imp_?GetThisMessageMap@CView@@KGPBUAFX_MSGMAP@@XZ 0086bbf4     mfc100d:mfc100d.dll
 0005:00001bf8       __imp_?OnFilePrintPreview@CView@@IAEXXZ 0086bbf8     mfc100d:mfc100d.dll
 0005:00001bfc       __imp_?OnFilePrint@CView@@IAEXXZ 0086bbfc     mfc100d:mfc100d.dll
 0005:00001c00       __imp_?GetThisClass@CView@@SGPAUCRuntimeClass@@XZ 0086bc00     mfc100d:mfc100d.dll
 0005:00001c04       __imp_??1CDC@@UAE@XZ       0086bc04     mfc100d:mfc100d.dll
 0005:00001c08       __imp_??1CRgn@@UAE@XZ      0086bc08     mfc100d:mfc100d.dll
 0005:00001c0c       __imp_??1CFont@@UAE@XZ     0086bc0c     mfc100d:mfc100d.dll
 0005:00001c10       __imp_??1CView@@UAE@XZ     0086bc10     mfc100d:mfc100d.dll
 0005:00001c14       __imp_?CreateFontA@CFont@@QAEHHHHHHEEEEEEEEPBD@Z 0086bc14     mfc100d:mfc100d.dll
 0005:00001c18       __imp_??0CDC@@QAE@XZ       0086bc18     mfc100d:mfc100d.dll
 0005:00001c1c       __imp_??0CRgn@@QAE@XZ      0086bc1c     mfc100d:mfc100d.dll
 0005:00001c20       __imp_??0CFont@@QAE@XZ     0086bc20     mfc100d:mfc100d.dll
 0005:00001c24       __imp_??0CView@@IAE@XZ     0086bc24     mfc100d:mfc100d.dll
 0005:00001c28       __imp_?OnCmdMsg@CView@@UAEHIHPAXPAUAFX_CMDHANDLERINFO@@@Z 0086bc28     mfc100d:mfc100d.dll
 0005:00001c2c       __imp_?CalcWindowRect@CView@@UAEXPAUtagRECT@@I@Z 0086bc2c     mfc100d:mfc100d.dll
 0005:00001c30       __imp_?GetScrollBarCtrl@CView@@UBEPAVCScrollBar@@H@Z 0086bc30     mfc100d:mfc100d.dll
 0005:00001c34       __imp_?PreTranslateMessage@CWnd@@UAEHPAUtagMSG@@@Z 0086bc34     mfc100d:mfc100d.dll
 0005:00001c38       __imp_?PostNcDestroy@CView@@MAEXXZ 0086bc38     mfc100d:mfc100d.dll
 0005:00001c3c       __imp_?CheckAutoCenter@CWnd@@UAEHXZ 0086bc3c     mfc100d:mfc100d.dll
 0005:00001c40       __imp_?SetOccDialogInfo@CWnd@@MAEHPAU_AFX_OCC_DIALOG_INFO@@@Z 0086bc40     mfc100d:mfc100d.dll
 0005:00001c44       __imp_?GetOccDialogInfo@CWnd@@MAEPAU_AFX_OCC_DIALOG_INFO@@XZ 0086bc44     mfc100d:mfc100d.dll
 0005:00001c48       __imp_?IsSelected@CView@@UBEHPBVCObject@@@Z 0086bc48     mfc100d:mfc100d.dll
 0005:00001c4c       __imp_?OnScroll@CView@@UAEHIIH@Z 0086bc4c     mfc100d:mfc100d.dll
 0005:00001c50       __imp_?OnScrollBy@CView@@UAEHVCSize@@H@Z 0086bc50     mfc100d:mfc100d.dll
 0005:00001c54       __imp_?OnDragEnter@CView@@UAEKPAVCOleDataObject@@KVCPoint@@@Z 0086bc54     mfc100d:mfc100d.dll
 0005:00001c58       __imp_?OnDragOver@CView@@UAEKPAVCOleDataObject@@KVCPoint@@@Z 0086bc58     mfc100d:mfc100d.dll
 0005:00001c5c       __imp_?OnDragLeave@CView@@UAEXXZ 0086bc5c     mfc100d:mfc100d.dll
 0005:00001c60       __imp_?OnDrop@CView@@UAEHPAVCOleDataObject@@KVCPoint@@@Z 0086bc60     mfc100d:mfc100d.dll
 0005:00001c64       __imp_?OnDropEx@CView@@UAEKPAVCOleDataObject@@KKVCPoint@@@Z 0086bc64     mfc100d:mfc100d.dll
 0005:00001c68       __imp_?OnDragScroll@CView@@UAEKKVCPoint@@@Z 0086bc68     mfc100d:mfc100d.dll
 0005:00001c6c       __imp_?OnPrepareDC@CView@@UAEXPAVCDC@@PAUCPrintInfo@@@Z 0086bc6c     mfc100d:mfc100d.dll
 0005:00001c70       __imp_?OnInitialUpdate@CView@@UAEXXZ 0086bc70     mfc100d:mfc100d.dll
 0005:00001c74       __imp_?OnActivateView@CView@@MAEXHPAV1@0@Z 0086bc74     mfc100d:mfc100d.dll
 0005:00001c78       __imp_?OnActivateFrame@CView@@MAEXIPAVCFrameWnd@@@Z 0086bc78     mfc100d:mfc100d.dll
 0005:00001c7c       __imp_?OnUpdate@CView@@MAEXPAV1@JPAVCObject@@@Z 0086bc7c     mfc100d:mfc100d.dll
 0005:00001c80       __imp_?OnPrint@CView@@MAEXPAVCDC@@PAUCPrintInfo@@@Z 0086bc80     mfc100d:mfc100d.dll
 0005:00001c84       __imp_?OnEndPrintPreview@CView@@MAEXPAVCDC@@PAUCPrintInfo@@UtagPOINT@@PAVCPreviewView@@@Z 0086bc84     mfc100d:mfc100d.dll
 0005:00001c88       __imp_?PreCreateWindow@CView@@MAEHAAUtagCREATESTRUCTA@@@Z 0086bc88     mfc100d:mfc100d.dll
 0005:00001c8c       __imp_?SelectClipRgn@CDC@@QAEHPAVCRgn@@@Z 0086bc8c     mfc100d:mfc100d.dll
 0005:00001c90       __imp_?FillSolidRect@CDC@@QAEXPBUtagRECT@@K@Z 0086bc90     mfc100d:mfc100d.dll
 0005:00001c94       __imp_?DoPreparePrinting@CView@@QAEHPAUCPrintInfo@@@Z 0086bc94     mfc100d:mfc100d.dll
 0005:00001c98       __imp_?AssertValid@CView@@UBEXXZ 0086bc98     mfc100d:mfc100d.dll
 0005:00001c9c       __imp_?Dump@CView@@UBEXAAVCDumpContext@@@Z 0086bc9c     mfc100d:mfc100d.dll
 0005:00001ca0       __imp_?IsKindOf@CObject@@QBEHPBUCRuntimeClass@@@Z 0086bca0     mfc100d:mfc100d.dll
 0005:00001ca4       __imp_?SelectObject@CDC@@QAEPAVCBitmap@@PAV2@@Z 0086bca4     mfc100d:mfc100d.dll
 0005:00001ca8       __imp_?CreateCompatibleBitmap@CBitmap@@QAEHPAVCDC@@HH@Z 0086bca8     mfc100d:mfc100d.dll
 0005:00001cac       __imp_?CreateCompatibleDC@CDC@@QAEHPAV1@@Z 0086bcac     mfc100d:mfc100d.dll
 0005:00001cb0       __imp_?CreateRectRgn@CRgn@@QAEHHHHH@Z 0086bcb0     mfc100d:mfc100d.dll
 0005:00001cb4       __imp_?OnSize@CWnd@@IAEXIHH@Z 0086bcb4     mfc100d:mfc100d.dll
 0005:00001cb8       __imp_?OnLButtonUp@CWnd@@IAEXIVCPoint@@@Z 0086bcb8     mfc100d:mfc100d.dll
 0005:00001cbc       __imp_?OnLButtonDown@CWnd@@IAEXIVCPoint@@@Z 0086bcbc     mfc100d:mfc100d.dll
 0005:00001cc0       __imp_?OnLButtonDblClk@CWnd@@IAEXIVCPoint@@@Z 0086bcc0     mfc100d:mfc100d.dll
 0005:00001cc4       __imp_?OnRButtonDown@CWnd@@IAEXIVCPoint@@@Z 0086bcc4     mfc100d:mfc100d.dll
 0005:00001cc8       __imp_?OnSysKeyDown@CWnd@@IAEXIII@Z 0086bcc8     mfc100d:mfc100d.dll
 0005:00001ccc       __imp_?OnSysKeyUp@CWnd@@IAEXIII@Z 0086bccc     mfc100d:mfc100d.dll
 0005:00001cd0       __imp_?OnKeyDown@CWnd@@IAEXIII@Z 0086bcd0     mfc100d:mfc100d.dll
 0005:00001cd4       __imp_?DrawDragRect@CDC@@QAEXPBUtagRECT@@UtagSIZE@@01PAVCBrush@@2@Z 0086bcd4     mfc100d:mfc100d.dll
 0005:00001cd8       __imp_?OnMouseWheel@CWnd@@IAEHIFVCPoint@@@Z 0086bcd8     mfc100d:mfc100d.dll
 0005:00001cdc       __imp_??1CMenu@@UAE@XZ     0086bcdc     mfc100d:mfc100d.dll
 0005:00001ce0       __imp_?EnableMenuItem@CMenu@@QAEIII@Z 0086bce0     mfc100d:mfc100d.dll
 0005:00001ce4       __imp_?TrackPopupMenu@CMenu@@QAEHIHHPAVCWnd@@PBUtagRECT@@@Z 0086bce4     mfc100d:mfc100d.dll
 0005:00001ce8       __imp_?GetSubMenu@CMenu@@QBEPAV1@H@Z 0086bce8     mfc100d:mfc100d.dll
 0005:00001cec       __imp_?LoadMenuA@CMenu@@QAEHI@Z 0086bcec     mfc100d:mfc100d.dll
 0005:00001cf0       __imp_??0CMenu@@QAE@XZ     0086bcf0     mfc100d:mfc100d.dll
 0005:00001cf4       __imp_?DrawMenuBar@CWnd@@QAEXXZ 0086bcf4     mfc100d:mfc100d.dll
 0005:00001cf8       __imp_?GetThisMessageMap@CDocument@@KGPBUAFX_MSGMAP@@XZ 0086bcf8     mfc100d:mfc100d.dll
 0005:00001cfc       __imp_?GetThisClass@CDocument@@SGPAUCRuntimeClass@@XZ 0086bcfc     mfc100d:mfc100d.dll
 0005:00001d00       __imp_??1CDocument@@UAE@XZ 0086bd00     mfc100d:mfc100d.dll
 0005:00001d04       __imp_??0CDocument@@QAE@XZ 0086bd04     mfc100d:mfc100d.dll
 0005:00001d08       __imp_?OnCmdMsg@CDocument@@UAEHIHPAXPAUAFX_CMDHANDLERINFO@@@Z 0086bd08     mfc100d:mfc100d.dll
 0005:00001d0c       __imp_?OnFinalRelease@CDocument@@UAEXXZ 0086bd0c     mfc100d:mfc100d.dll
 0005:00001d10       __imp_?GetInterfaceMap@CCmdTarget@@MBEPBUAFX_INTERFACEMAP@@XZ 0086bd10     mfc100d:mfc100d.dll
 0005:00001d14       __imp_?SetTitle@CDocument@@UAEXPBD@Z 0086bd14     mfc100d:mfc100d.dll
 0005:00001d18       __imp_?SetPathName@CDocument@@UAEXPBDH@Z 0086bd18     mfc100d:mfc100d.dll
 0005:00001d1c       __imp_?ClearPathName@CDocument@@UAEXXZ 0086bd1c     mfc100d:mfc100d.dll
 0005:00001d20       __imp_?IsModified@CDocument@@UAEHXZ 0086bd20     mfc100d:mfc100d.dll
 0005:00001d24       __imp_?SetModifiedFlag@CDocument@@UAEXH@Z 0086bd24     mfc100d:mfc100d.dll
 0005:00001d28       __imp_?GetFirstViewPosition@CDocument@@UBEPAU__POSITION@@XZ 0086bd28     mfc100d:mfc100d.dll
 0005:00001d2c       __imp_?GetNextView@CDocument@@UBEPAVCView@@AAPAU__POSITION@@@Z 0086bd2c     mfc100d:mfc100d.dll
 0005:00001d30       __imp_?OnChangedViewList@CDocument@@UAEXXZ 0086bd30     mfc100d:mfc100d.dll
 0005:00001d34       __imp_?DeleteContents@CDocument@@UAEXXZ 0086bd34     mfc100d:mfc100d.dll
 0005:00001d38       __imp_?OnOpenDocument@CDocument@@UAEHPBD@Z 0086bd38     mfc100d:mfc100d.dll
 0005:00001d3c       __imp_?OnCloseDocument@CDocument@@UAEXXZ 0086bd3c     mfc100d:mfc100d.dll
 0005:00001d40       __imp_?ReportSaveLoadException@CDocument@@UAEXPBDPAVCException@@HI@Z 0086bd40     mfc100d:mfc100d.dll
 0005:00001d44       __imp_?GetFile@CDocument@@UAEPAVCFile@@PBDIPAVCFileException@@@Z 0086bd44     mfc100d:mfc100d.dll
 0005:00001d48       __imp_?ReleaseFile@CDocument@@UAEXPAVCFile@@H@Z 0086bd48     mfc100d:mfc100d.dll
 0005:00001d4c       __imp_?OnRichPreviewUnload@CDocument@@UAEXXZ 0086bd4c     mfc100d:mfc100d.dll
 0005:00001d50       __imp_?LoadDocumentFromStream@CDocument@@UAEJPAUIStream@@K@Z 0086bd50     mfc100d:mfc100d.dll
 0005:00001d54       __imp_?GetThumbnail@CDocument@@UAEHIPAPAUHBITMAP__@@PAW4WTS_ALPHATYPE@@@Z 0086bd54     mfc100d:mfc100d.dll
 0005:00001d58       __imp_?ClearChunkList@CDocument@@UAEXXZ 0086bd58     mfc100d:mfc100d.dll
 0005:00001d5c       __imp_?SetChunkValue@CDocument@@UAEHPAUIFilterChunkValue@ATL@@@Z 0086bd5c     mfc100d:mfc100d.dll
 0005:00001d60       __imp_?BeginReadChunks@CDocument@@UAEXXZ 0086bd60     mfc100d:mfc100d.dll
 0005:00001d64       __imp_?ReadNextChunkValue@CDocument@@UAEHPAPAUIFilterChunkValue@ATL@@@Z 0086bd64     mfc100d:mfc100d.dll
 0005:00001d68       __imp_?RemoveChunk@CDocument@@UAEXABU_GUID@@K@Z 0086bd68     mfc100d:mfc100d.dll
 0005:00001d6c       __imp_?FindChunk@CDocument@@UAEPAU__POSITION@@ABU_GUID@@K@Z 0086bd6c     mfc100d:mfc100d.dll
 0005:00001d70       __imp_?OnDocumentEvent@CDocument@@UAEXW4DocumentEvent@1@@Z 0086bd70     mfc100d:mfc100d.dll
 0005:00001d74       __imp_?CanCloseFrame@CDocument@@UAEHPAVCFrameWnd@@@Z 0086bd74     mfc100d:mfc100d.dll
 0005:00001d78       __imp_?SaveModified@CDocument@@UAEHXZ 0086bd78     mfc100d:mfc100d.dll
 0005:00001d7c       __imp_?PreCloseFrame@CDocument@@UAEXPAVCFrameWnd@@@Z 0086bd7c     mfc100d:mfc100d.dll
 0005:00001d80       __imp_?DoSave@CDocument@@UAEHPBDH@Z 0086bd80     mfc100d:mfc100d.dll
 0005:00001d84       __imp_?DoFileSave@CDocument@@UAEHXZ 0086bd84     mfc100d:mfc100d.dll
 0005:00001d88       __imp_?UpdateFrameCounts@CDocument@@UAEXXZ 0086bd88     mfc100d:mfc100d.dll
 0005:00001d8c       __imp_?GetDefaultMenu@CDocument@@UAEPAUHMENU__@@XZ 0086bd8c     mfc100d:mfc100d.dll
 0005:00001d90       __imp_?GetDefaultAccelerator@CDocument@@UAEPAUHACCEL__@@XZ 0086bd90     mfc100d:mfc100d.dll
 0005:00001d94       __imp_?OnIdle@CDocument@@UAEXXZ 0086bd94     mfc100d:mfc100d.dll
 0005:00001d98       __imp_?OnLoadDocumentFromStream@CDocument@@UAEJPAUIStream@@K@Z 0086bd98     mfc100d:mfc100d.dll
 0005:00001d9c       __imp_?OnPreviewHandlerQueryFocus@CDocument@@UAEJPAPAUHWND__@@@Z 0086bd9c     mfc100d:mfc100d.dll
 0005:00001da0       __imp_?OnPreviewHandlerTranslateAccelerator@CDocument@@UAEJPAUtagMSG@@@Z 0086bda0     mfc100d:mfc100d.dll
 0005:00001da4       __imp_?OnCreatePreviewFrame@CDocument@@UAEHXZ 0086bda4     mfc100d:mfc100d.dll
 0005:00001da8       __imp_?OnUnloadHandler@CDocument@@UAEXXZ 0086bda8     mfc100d:mfc100d.dll
 0005:00001dac       __imp_?OnDrawThumbnail@CDocument@@UAEXAAVCDC@@PAUtagRECT@@@Z 0086bdac     mfc100d:mfc100d.dll
 0005:00001db0       __imp_?SendInitialUpdate@CDocument@@QAEXXZ 0086bdb0     mfc100d:mfc100d.dll
 0005:00001db4       __imp_?OnNewDocument@CDocument@@UAEHXZ 0086bdb4     mfc100d:mfc100d.dll
 0005:00001db8       __imp_?AssertValid@CDocument@@UBEXXZ 0086bdb8     mfc100d:mfc100d.dll
 0005:00001dbc       __imp_?Dump@CDocument@@UBEXAAVCDumpContext@@@Z 0086bdbc     mfc100d:mfc100d.dll
 0005:00001dc0       __imp_?OnSaveDocument@CDocument@@UAEHPBD@Z 0086bdc0     mfc100d:mfc100d.dll
 0005:00001dc4       __imp_?GetSafeHwnd@CWnd@@QBEPAUHWND__@@XZ 0086bdc4     mfc100d:mfc100d.dll
 0005:00001dc8       __imp_?GetSelectedItem@CTreeCtrl@@QBEPAU_TREEITEM@@XZ 0086bdc8     mfc100d:mfc100d.dll
 0005:00001dcc       __imp_?GetActiveWindow@CWnd@@SGPAV1@XZ 0086bdcc     mfc100d:mfc100d.dll
 0005:00001dd0       __imp_?GetLastWriteTime@CFileFind@@UBEHAAVCTime@ATL@@@Z 0086bdd0     mfc100d:mfc100d.dll
 0005:00001dd4       __imp_?Seek@CStdioFile@@UAE_K_JI@Z 0086bdd4     mfc100d:mfc100d.dll
 0005:00001dd8       __imp_?GetFilePath@CFileFind@@UBE?AV?$CStringT@DV?$StrTraitMFC_DLL@DV?$ChTraitsCRT@D@ATL@@@@@ATL@@XZ 0086bdd8     mfc100d:mfc100d.dll
 0005:00001ddc       __imp_?IsDots@CFileFind@@UBEHXZ 0086bddc     mfc100d:mfc100d.dll
 0005:00001de0       __imp_?GetSafeHmenu@CMenu@@QBEPAUHMENU__@@XZ 0086bde0     mfc100d:mfc100d.dll
 0005:00001de4       __imp_?DeleteMenu@CMenu@@QAEHII@Z 0086bde4     mfc100d:mfc100d.dll
 0005:00001de8       __imp_?Delete@CException@@QAEXXZ 0086bde8     mfc100d:mfc100d.dll
 0005:00001dec       __imp_??2@YAPAXI@Z         0086bdec     mfc100d:mfc100d.dll
 0005:00001df0       __imp_?OnMove@CWnd@@IAEXHH@Z 0086bdf0     mfc100d:mfc100d.dll
 0005:00001df4       __imp_?OnKeyUp@CWnd@@IAEXIII@Z 0086bdf4     mfc100d:mfc100d.dll
 0005:00001df8       __imp_?FindWindowA@CWnd@@SGPAV1@PBD0@Z 0086bdf8     mfc100d:mfc100d.dll
 0005:00001dfc       __imp_?GetThisMessageMap@CWinApp@@KGPBUAFX_MSGMAP@@XZ 0086bdfc     mfc100d:mfc100d.dll
 0005:00001e00       __imp_?OnFilePrintSetup@CWinApp@@IAEXXZ 0086be00     mfc100d:mfc100d.dll
 0005:00001e04       __imp_?OnFileOpen@CWinApp@@IAEXXZ 0086be04     mfc100d:mfc100d.dll
 0005:00001e08       __imp_?OnFileNew@CWinApp@@IAEXXZ 0086be08     mfc100d:mfc100d.dll
 0005:00001e0c       __imp_??1CWinApp@@UAE@XZ   0086be0c     mfc100d:mfc100d.dll
 0005:00001e10       __imp_??0CWinApp@@QAE@PBD@Z 0086be10     mfc100d:mfc100d.dll
 0005:00001e14       __imp_?GetRuntimeClass@CWinApp@@UBEPAUCRuntimeClass@@XZ 0086be14     mfc100d:mfc100d.dll
 0005:00001e18       __imp_?AssertValid@CWinApp@@UBEXXZ 0086be18     mfc100d:mfc100d.dll
 0005:00001e1c       __imp_?Dump@CWinApp@@UBEXAAVCDumpContext@@@Z 0086be1c     mfc100d:mfc100d.dll
 0005:00001e20       __imp_?OnCmdMsg@CCmdTarget@@UAEHIHPAXPAUAFX_CMDHANDLERINFO@@@Z 0086be20     mfc100d:mfc100d.dll
 0005:00001e24       __imp_?OnFinalRelease@CCmdTarget@@UAEXXZ 0086be24     mfc100d:mfc100d.dll
 0005:00001e28       __imp_?Run@CWinApp@@UAEHXZ 0086be28     mfc100d:mfc100d.dll
 0005:00001e2c       __imp_?PreTranslateMessage@CWinThread@@UAEHPAUtagMSG@@@Z 0086be2c     mfc100d:mfc100d.dll
 0005:00001e30       __imp_?PumpMessage@CWinThread@@UAEHXZ 0086be30     mfc100d:mfc100d.dll
 0005:00001e34       __imp_?OnIdle@CWinApp@@UAEHJ@Z 0086be34     mfc100d:mfc100d.dll
 0005:00001e38       __imp_?IsIdleMessage@CWinThread@@UAEHPAUtagMSG@@@Z 0086be38     mfc100d:mfc100d.dll
 0005:00001e3c       __imp_?ProcessWndProcException@CWinApp@@UAEJPAVCException@@PBUtagMSG@@@Z 0086be3c     mfc100d:mfc100d.dll
 0005:00001e40       __imp_?ProcessMessageFilter@CWinThread@@UAEHHPAUtagMSG@@@Z 0086be40     mfc100d:mfc100d.dll
 0005:00001e44       __imp_?Delete@CWinThread@@UAEXXZ 0086be44     mfc100d:mfc100d.dll
 0005:00001e48       __imp_?GetProfileIntA@CWinApp@@UAEIPBD0H@Z 0086be48     mfc100d:mfc100d.dll
 0005:00001e4c       __imp_?WriteProfileInt@CWinApp@@UAEHPBD0H@Z 0086be4c     mfc100d:mfc100d.dll
 0005:00001e50       __imp_?GetProfileStringA@CWinApp@@UAE?AV?$CStringT@DV?$StrTraitMFC_DLL@DV?$ChTraitsCRT@D@ATL@@@@@ATL@@PBD00@Z 0086be50     mfc100d:mfc100d.dll
 0005:00001e54       __imp_?WriteProfileStringA@CWinApp@@UAEHPBD00@Z 0086be54     mfc100d:mfc100d.dll
 0005:00001e58       __imp_?GetProfileBinary@CWinApp@@UAEHPBD0PAPAEPAI@Z 0086be58     mfc100d:mfc100d.dll
 0005:00001e5c       __imp_?WriteProfileBinary@CWinApp@@UAEHPBD0PAEI@Z 0086be5c     mfc100d:mfc100d.dll
 0005:00001e60       __imp_?InitLibId@CWinApp@@UAEXXZ 0086be60     mfc100d:mfc100d.dll
 0005:00001e64       __imp_?Register@CWinApp@@UAEHXZ 0086be64     mfc100d:mfc100d.dll
 0005:00001e68       __imp_?Unregister@CWinApp@@UAEHXZ 0086be68     mfc100d:mfc100d.dll
 0005:00001e6c       __imp_?OpenDocumentFile@CWinApp@@UAEPAVCDocument@@PBDH@Z 0086be6c     mfc100d:mfc100d.dll
 0005:00001e70       __imp_?OpenDocumentFile@CWinApp@@UAEPAVCDocument@@PBD@Z 0086be70     mfc100d:mfc100d.dll
 0005:00001e74       __imp_?AddToRecentFileList@CWinApp@@UAEXPBD@Z 0086be74     mfc100d:mfc100d.dll
 0005:00001e78       __imp_?InitApplication@CWinApp@@UAEHXZ 0086be78     mfc100d:mfc100d.dll
 0005:00001e7c       __imp_?SaveAllModified@CWinApp@@UAEHXZ 0086be7c     mfc100d:mfc100d.dll
 0005:00001e80       __imp_?DoWaitCursor@CWinApp@@UAEXH@Z 0086be80     mfc100d:mfc100d.dll
 0005:00001e84       __imp_?OnDDECommand@CWinApp@@UAEHPAD@Z 0086be84     mfc100d:mfc100d.dll
 0005:00001e88       __imp_?WinHelpA@CWinApp@@UAEXKI@Z 0086be88     mfc100d:mfc100d.dll
 0005:00001e8c       __imp_?HtmlHelpA@CWinApp@@UAEXKI@Z 0086be8c     mfc100d:mfc100d.dll
 0005:00001e90       __imp_?WinHelpInternal@CWinApp@@UAEXKI@Z 0086be90     mfc100d:mfc100d.dll
 0005:00001e94       __imp_?RegisterWithRestartManager@CWinApp@@UAEJPB_WKP6GKPAX@Z1KK@Z 0086be94     mfc100d:mfc100d.dll
 0005:00001e98       __imp_?RegisterWithRestartManager@CWinApp@@UAEJHABV?$CStringT@DV?$StrTraitMFC_DLL@DV?$ChTraitsCRT@D@ATL@@@@@ATL@@@Z 0086be98     mfc100d:mfc100d.dll
 0005:00001e9c       __imp_?ApplicationRecoveryCallback@CWinApp@@UAEKPAX@Z 0086be9c     mfc100d:mfc100d.dll
 0005:00001ea0       __imp_?GetDataRecoveryHandler@CWinApp@@UAEPAVCDataRecoveryHandler@@XZ 0086bea0     mfc100d:mfc100d.dll
 0005:00001ea4       __imp_?IsTaskbarInteractionEnabled@CWinApp@@UAEHXZ 0086bea4     mfc100d:mfc100d.dll
 0005:00001ea8       __imp_?RestartInstance@CWinApp@@UAEHXZ 0086bea8     mfc100d:mfc100d.dll
 0005:00001eac       __imp_?LoadAppLangResourceDLL@CWinApp@@UAEPAUHINSTANCE__@@XZ 0086beac     mfc100d:mfc100d.dll
 0005:00001eb0       __imp_?LoadSysPolicies@CWinApp@@UAEHXZ 0086beb0     mfc100d:mfc100d.dll
 0005:00001eb4       __imp_?GetActiveView@CFrameWnd@@QBEPAVCView@@XZ 0086beb4     mfc100d:mfc100d.dll
 0005:00001eb8       __imp_??1CCommandLineInfo@@UAE@XZ 0086beb8     mfc100d:mfc100d.dll
 0005:00001ebc       __imp_?ProcessShellCommand@CWinApp@@QAEHAAVCCommandLineInfo@@@Z 0086bebc     mfc100d:mfc100d.dll
 0005:00001ec0       __imp_?ParseCommandLine@CWinApp@@QAEXAAVCCommandLineInfo@@@Z 0086bec0     mfc100d:mfc100d.dll
 0005:00001ec4       __imp_??0CCommandLineInfo@@QAE@XZ 0086bec4     mfc100d:mfc100d.dll
 0005:00001ec8       __imp_?AddDocTemplate@CWinApp@@QAEXPAVCDocTemplate@@@Z 0086bec8     mfc100d:mfc100d.dll
 0005:00001ecc       __imp_??0CSingleDocTemplate@@QAE@IPAUCRuntimeClass@@00@Z 0086becc     mfc100d:mfc100d.dll
 0005:00001ed0       __imp_?EnableShellOpen@CWinApp@@IAEXXZ 0086bed0     mfc100d:mfc100d.dll
 0005:00001ed4       __imp_?LoadStdProfileSettings@CWinApp@@IAEXI@Z 0086bed4     mfc100d:mfc100d.dll
 0005:00001ed8       __imp_?SetRegistryKey@CWinApp@@IAEXPBD@Z 0086bed8     mfc100d:mfc100d.dll
 0005:00001edc       __imp_?Enable3dControls@CWinApp@@IAEHXZ 0086bedc     mfc100d:mfc100d.dll
 0005:00001ee0       __imp_?AfxEnableControlContainer@@YAXPAVCOccManager@@@Z 0086bee0     mfc100d:mfc100d.dll
 0005:00001ee4       __imp_?SetActiveView@CFrameWnd@@QAEXPAVCView@@H@Z 0086bee4     mfc100d:mfc100d.dll
 0005:00001ee8       __imp_?AfxStaticDownCast@@YAPAVCObject@@PAUCRuntimeClass@@PAV1@@Z 0086bee8     mfc100d:mfc100d.dll
 0005:00001eec       __imp_?CreateView@CFrameWnd@@QAEPAVCWnd@@PAUCCreateContext@@I@Z 0086beec     mfc100d:mfc100d.dll
 0005:00001ef0       __imp_??0CCreateContext@@QAE@XZ 0086bef0     mfc100d:mfc100d.dll
 0005:00001ef4       __imp_?ExitInstance@CWinApp@@UAEHXZ 0086bef4     mfc100d:mfc100d.dll
 0005:00001ef8       __imp_?OnOpenRecentFile@CWinApp@@IAEHI@Z 0086bef8     mfc100d:mfc100d.dll
 0005:00001efc       __imp_?DoMessageBox@CWinApp@@UAEHPBDII@Z 0086befc     mfc100d:mfc100d.dll
 0005:00001f00       __imp_?Remove@?$CStringT@DV?$StrTraitMFC_DLL@DV?$ChTraitsCRT@D@ATL@@@@@ATL@@QAEHD@Z 0086bf00     mfc100d:mfc100d.dll
 0005:00001f04       __imp_?MakeUpper@?$CStringT@DV?$StrTraitMFC_DLL@DV?$ChTraitsCRT@D@ATL@@@@@ATL@@QAEAAV12@XZ 0086bf04     mfc100d:mfc100d.dll
 0005:00001f08       __imp_?GetThisMessageMap@CFrameWnd@@KGPBUAFX_MSGMAP@@XZ 0086bf08     mfc100d:mfc100d.dll
 0005:00001f0c       __imp_?GetThisClass@CFrameWnd@@SGPAUCRuntimeClass@@XZ 0086bf0c     mfc100d:mfc100d.dll
 0005:00001f10       __imp_??1CFrameWnd@@UAE@XZ 0086bf10     mfc100d:mfc100d.dll
 0005:00001f14       __imp_??0CStatusBar@@QAE@XZ 0086bf14     mfc100d:mfc100d.dll
 0005:00001f18       __imp_??0CFrameWnd@@QAE@XZ 0086bf18     mfc100d:mfc100d.dll
 0005:00001f1c       __imp_?OnCmdMsg@CFrameWnd@@UAEHIHPAXPAUAFX_CMDHANDLERINFO@@@Z 0086bf1c     mfc100d:mfc100d.dll
 0005:00001f20       __imp_?GetMenu@CFrameWnd@@UBEPAVCMenu@@XZ 0086bf20     mfc100d:mfc100d.dll
 0005:00001f24       __imp_?SetMenu@CFrameWnd@@UAEHPAVCMenu@@@Z 0086bf24     mfc100d:mfc100d.dll
 0005:00001f28       __imp_?OnCommand@CFrameWnd@@MAEHIJ@Z 0086bf28     mfc100d:mfc100d.dll
 0005:00001f2c       __imp_?BeginModalState@CFrameWnd@@UAEXXZ 0086bf2c     mfc100d:mfc100d.dll
 0005:00001f30       __imp_?EndModalState@CFrameWnd@@UAEXXZ 0086bf30     mfc100d:mfc100d.dll
 0005:00001f34       __imp_?PreTranslateMessage@CFrameWnd@@UAEHPAUtagMSG@@@Z 0086bf34     mfc100d:mfc100d.dll
 0005:00001f38       __imp_?PostNcDestroy@CFrameWnd@@MAEXXZ 0086bf38     mfc100d:mfc100d.dll
 0005:00001f3c       __imp_?IsFrameWnd@CFrameWnd@@UBEHXZ 0086bf3c     mfc100d:mfc100d.dll
 0005:00001f40       __imp_?Create@CFrameWnd@@UAEHPBD0KABUtagRECT@@PAVCWnd@@0KPAUCCreateContext@@@Z 0086bf40     mfc100d:mfc100d.dll
 0005:00001f44       __imp_?LoadFrame@CFrameWnd@@UAEHIKPAVCWnd@@PAUCCreateContext@@@Z 0086bf44     mfc100d:mfc100d.dll
 0005:00001f48       __imp_?GetActiveDocument@CFrameWnd@@UAEPAVCDocument@@XZ 0086bf48     mfc100d:mfc100d.dll
 0005:00001f4c       __imp_?GetActiveFrame@CFrameWnd@@UAEPAV1@XZ 0086bf4c     mfc100d:mfc100d.dll
 0005:00001f50       __imp_?GetMessageString@CFrameWnd@@UBEXIAAV?$CStringT@DV?$StrTraitMFC_DLL@DV?$ChTraitsCRT@D@ATL@@@@@ATL@@@Z 0086bf50     mfc100d:mfc100d.dll
 0005:00001f54       __imp_?RecalcLayout@CFrameWnd@@UAEXH@Z 0086bf54     mfc100d:mfc100d.dll
 0005:00001f58       __imp_?ActivateFrame@CFrameWnd@@UAEXH@Z 0086bf58     mfc100d:mfc100d.dll
 0005:00001f5c       __imp_?SetMenuBarVisibility@CFrameWnd@@UAEXK@Z 0086bf5c     mfc100d:mfc100d.dll
 0005:00001f60       __imp_?GetMenuBarVisibility@CFrameWnd@@UBEKXZ 0086bf60     mfc100d:mfc100d.dll
 0005:00001f64       __imp_?SetMenuBarState@CFrameWnd@@UAEHK@Z 0086bf64     mfc100d:mfc100d.dll
 0005:00001f68       __imp_?GetMenuBarState@CFrameWnd@@UBEKXZ 0086bf68     mfc100d:mfc100d.dll
 0005:00001f6c       __imp_?OnSetPreviewMode@CFrameWnd@@UAEXHPAUCPrintPreviewState@@@Z 0086bf6c     mfc100d:mfc100d.dll
 0005:00001f70       __imp_?GetMessageBar@CFrameWnd@@UAEPAVCWnd@@XZ 0086bf70     mfc100d:mfc100d.dll
 0005:00001f74       __imp_?NegotiateBorderSpace@CFrameWnd@@UAEHIPAUtagRECT@@@Z 0086bf74     mfc100d:mfc100d.dll
 0005:00001f78       __imp_?OnCreateClient@CFrameWnd@@MAEHPAUtagCREATESTRUCTA@@PAUCCreateContext@@@Z 0086bf78     mfc100d:mfc100d.dll
 0005:00001f7c       __imp_?OnUpdateFrameTitle@CFrameWnd@@UAEXH@Z 0086bf7c     mfc100d:mfc100d.dll
 0005:00001f80       __imp_?OnUpdateFrameMenu@CFrameWnd@@UAEXPAUHMENU__@@@Z 0086bf80     mfc100d:mfc100d.dll
 0005:00001f84       __imp_?GetDefaultAccelerator@CFrameWnd@@UAEPAUHACCEL__@@XZ 0086bf84     mfc100d:mfc100d.dll
 0005:00001f88       __imp_?InsertItem@CListCtrl@@QAEHHPBD@Z 0086bf88     mfc100d:mfc100d.dll
 0005:00001f8c       __imp_?ExitHelpMode@CFrameWnd@@UAEXXZ 0086bf8c     mfc100d:mfc100d.dll
 0005:00001f90       __imp_?OnShowMenuBar@CFrameWnd@@MAEXXZ 0086bf90     mfc100d:mfc100d.dll
 0005:00001f94       __imp_?OnHideMenuBar@CFrameWnd@@MAEXXZ 0086bf94     mfc100d:mfc100d.dll
 0005:00001f98       __imp_??1CStatusBar@@UAE@XZ 0086bf98     mfc100d:mfc100d.dll
 0005:00001f9c       __imp_?DragAcceptFiles@CWnd@@QAEXH@Z 0086bf9c     mfc100d:mfc100d.dll
 0005:00001fa0       __imp_?SetTimer@CWnd@@QAEIIIP6GXPAUHWND__@@IIK@Z@Z 0086bfa0     mfc100d:mfc100d.dll
 0005:00001fa4       __imp_?SetPaneText@CStatusBar@@QAEHHPBDH@Z 0086bfa4     mfc100d:mfc100d.dll
 0005:00001fa8       __imp_?GetFont@CWnd@@QBEPAVCFont@@XZ 0086bfa8     mfc100d:mfc100d.dll
 0005:00001fac       __imp_?SetPaneInfo@CStatusBar@@QAEXHIIH@Z 0086bfac     mfc100d:mfc100d.dll
 0005:00001fb0       __imp_?GetPaneInfo@CStatusBar@@QBEXHAAI0AAH@Z 0086bfb0     mfc100d:mfc100d.dll
 0005:00001fb4       __imp_?SetIndicators@CStatusBar@@QAEHPBIH@Z 0086bfb4     mfc100d:mfc100d.dll
 0005:00001fb8       __imp_?OnCreate@CFrameWnd@@IAEHPAUtagCREATESTRUCTA@@@Z 0086bfb8     mfc100d:mfc100d.dll
 0005:00001fbc       __imp_?PreCreateWindow@CFrameWnd@@MAEHAAUtagCREATESTRUCTA@@@Z 0086bfbc     mfc100d:mfc100d.dll
 0005:00001fc0       __imp_?AssertValid@CFrameWnd@@UBEXXZ 0086bfc0     mfc100d:mfc100d.dll
 0005:00001fc4       __imp_?Dump@CFrameWnd@@UBEXAAVCDumpContext@@@Z 0086bfc4     mfc100d:mfc100d.dll
 0005:00001fc8       __imp_?OnSysCommand@CFrameWnd@@IAEXIJ@Z 0086bfc8     mfc100d:mfc100d.dll
 0005:00001fcc       __imp_?OnTimer@CWnd@@IAEXI@Z 0086bfcc     mfc100d:mfc100d.dll
 0005:00001fd0       __imp_?OnSetCursor@CFrameWnd@@IAEHPAVCWnd@@II@Z 0086bfd0     mfc100d:mfc100d.dll
 0005:00001fd4       __imp_?OnSize@CFrameWnd@@IAEXIHH@Z 0086bfd4     mfc100d:mfc100d.dll
 0005:00001fd8       __imp_?GetWindowPlacement@CWnd@@QBEHPAUtagWINDOWPLACEMENT@@@Z 0086bfd8     mfc100d:mfc100d.dll
 0005:00001fdc       __imp_?GetThisMessageMap@CToolBar@@KGPBUAFX_MSGMAP@@XZ 0086bfdc     mfc100d:mfc100d.dll
 0005:00001fe0       __imp_?GetThisClass@CToolBar@@SGPAUCRuntimeClass@@XZ 0086bfe0     mfc100d:mfc100d.dll
 0005:00001fe4       __imp_??1CToolBar@@UAE@XZ  0086bfe4     mfc100d:mfc100d.dll
 0005:00001fe8       __imp_??0CToolBar@@QAE@XZ  0086bfe8     mfc100d:mfc100d.dll
 0005:00001fec       __imp_?AssertValid@CToolBar@@UBEXXZ 0086bfec     mfc100d:mfc100d.dll
 0005:00001ff0       __imp_?Dump@CToolBar@@UBEXAAVCDumpContext@@@Z 0086bff0     mfc100d:mfc100d.dll
 0005:00001ff4       __imp_?DestroyWindow@CControlBar@@UAEHXZ 0086bff4     mfc100d:mfc100d.dll
 0005:00001ff8       __imp_?PreCreateWindow@CControlBar@@UAEHAAUtagCREATESTRUCTA@@@Z 0086bff8     mfc100d:mfc100d.dll
 0005:00001ffc       __imp_?OnToolHitTest@CToolBar@@UBEHVCPoint@@PAUtagTOOLINFOA@@@Z 0086bffc     mfc100d:mfc100d.dll
 0005:00002000       __imp_?get_accName@CToolBar@@UAEJUtagVARIANT@@PAPA_W@Z 0086c000     mfc100d:mfc100d.dll
 0005:00002004       __imp_?PreTranslateMessage@CControlBar@@UAEHPAUtagMSG@@@Z 0086c004     mfc100d:mfc100d.dll
 0005:00002008       __imp_?WindowProc@CControlBar@@UAEJIIJ@Z 0086c008     mfc100d:mfc100d.dll
 0005:0000200c       __imp_?PostNcDestroy@CControlBar@@UAEXXZ 0086c00c     mfc100d:mfc100d.dll
 0005:00002010       __imp_?CalcFixedLayout@CToolBar@@UAE?AVCSize@@HH@Z 0086c010     mfc100d:mfc100d.dll
 0005:00002014       __imp_?CalcDynamicLayout@CToolBar@@UAE?AVCSize@@HK@Z 0086c014     mfc100d:mfc100d.dll
 0005:00002018       __imp_?OnUpdateCmdUI@CToolBar@@UAEXPAVCFrameWnd@@H@Z 0086c018     mfc100d:mfc100d.dll
 0005:0000201c       __imp_?CalcInsideRect@CControlBar@@UBEXAAVCRect@@H@Z 0086c01c     mfc100d:mfc100d.dll
 0005:00002020       __imp_?DoPaint@CControlBar@@UAEXPAVCDC@@@Z 0086c020     mfc100d:mfc100d.dll
 0005:00002024       __imp_?DrawBorders@CControlBar@@UAEXPAVCDC@@AAVCRect@@@Z 0086c024     mfc100d:mfc100d.dll
 0005:00002028       __imp_?DrawGripper@CControlBar@@UAEXPAVCDC@@ABVCRect@@@Z 0086c028     mfc100d:mfc100d.dll
 0005:0000202c       __imp_?DrawNCGripper@CControlBar@@UAEXPAVCDC@@ABVCRect@@@Z 0086c02c     mfc100d:mfc100d.dll
 0005:00002030       __imp_?DrawThemedGripper@CControlBar@@UAEHPAVCDC@@ABVCRect@@H@Z 0086c030     mfc100d:mfc100d.dll
 0005:00002034       __imp_?DrawNonThemedGripper@CControlBar@@UAEHPAVCDC@@ABVCRect@@@Z 0086c034     mfc100d:mfc100d.dll
 0005:00002038       __imp_?DelayShow@CControlBar@@UAEXH@Z 0086c038     mfc100d:mfc100d.dll
 0005:0000203c       __imp_?IsVisible@CControlBar@@UBEHXZ 0086c03c     mfc100d:mfc100d.dll
 0005:00002040       __imp_?RecalcDelayShow@CControlBar@@UAEKPAUAFX_SIZEPARENTPARAMS@@@Z 0086c040     mfc100d:mfc100d.dll
 0005:00002044       __imp_?IsDockBar@CControlBar@@UBEHXZ 0086c044     mfc100d:mfc100d.dll
 0005:00002048       __imp_?OnBarStyleChange@CToolBar@@UAEXKK@Z 0086c048     mfc100d:mfc100d.dll
 0005:0000204c       __imp_?SetStatusText@CControlBar@@UAEHH@Z 0086c04c     mfc100d:mfc100d.dll
 0005:00002050       __imp_?Create@CToolBar@@UAEHPAVCWnd@@KI@Z 0086c050     mfc100d:mfc100d.dll
 0005:00002054       __imp_?CreateEx@CToolBar@@UAEHPAVCWnd@@KKVCRect@@I@Z 0086c054     mfc100d:mfc100d.dll
 0005:00002058       __imp_?GetItemRect@CToolBar@@UBEXHPAUtagRECT@@@Z 0086c058     mfc100d:mfc100d.dll
 0005:0000205c       __imp_?SetFont@CWnd@@QAEXPAVCFont@@H@Z 0086c05c     mfc100d:mfc100d.dll
 0005:00002060       __imp_?SetButtonInfo@CToolBar@@QAEXHIIH@Z 0086c060     mfc100d:mfc100d.dll
 0005:00002064       __imp_?LoadToolBar@CToolBar@@QAEHI@Z 0086c064     mfc100d:mfc100d.dll
 0005:00002068       __imp_?OnCreate@CControlBar@@QAEHPAUtagCREATESTRUCTA@@@Z 0086c068     mfc100d:mfc100d.dll
 0005:0000206c       __imp_?ResetContent@CComboBox@@QAEXXZ 0086c06c     mfc100d:mfc100d.dll
 0005:00002070       __imp_?GetSize@CMapStringToPtr@@QBEHXZ 0086c070     mfc100d:mfc100d.dll
 0005:00002074       __imp_?Append@?$CSimpleStringT@D$00@ATL@@QAEXABV12@@Z 0086c074     mfc100d:mfc100d.dll
 0005:00002078       __imp_?GetThisMessageMap@CWnd@@KGPBUAFX_MSGMAP@@XZ 0086c078     mfc100d:mfc100d.dll
 0005:0000207c       __imp_?GetSafeOwner@CWnd@@SGPAV1@PAV1@PAPAUHWND__@@@Z 0086c07c     mfc100d:mfc100d.dll
 0005:00002080       __imp_??0CWnd@@QAE@XZ      0086c080     mfc100d:mfc100d.dll
 0005:00002084       __imp_?GetRuntimeClass@CWnd@@UBEPAUCRuntimeClass@@XZ 0086c084     mfc100d:mfc100d.dll
 0005:00002088       __imp_?AssertValid@CWnd@@UBEXXZ 0086c088     mfc100d:mfc100d.dll
 0005:0000208c       __imp_?Dump@CWnd@@UBEXAAVCDumpContext@@@Z 0086c08c     mfc100d:mfc100d.dll
 0005:00002090       __imp_?SubclassWindow@CWnd@@QAEHPAUHWND__@@@Z 0086c090     mfc100d:mfc100d.dll
 0005:00002094       __imp_?EndWaitCursor@CCmdTarget@@QAEXXZ 0086c094     mfc100d:mfc100d.dll
 0005:00002098       __imp_?CloseEnhanced@CMetaFileDC@@QAEPAUHENHMETAFILE__@@XZ 0086c098     mfc100d:mfc100d.dll
 0005:0000209c       __imp_??BCDC@@QBEPAUHDC__@@XZ 0086c09c     mfc100d:mfc100d.dll
 0005:000020a0       __imp_?CreateEnhanced@CMetaFileDC@@QAEHPAVCDC@@PBDPBUtagRECT@@1@Z 0086c0a0     mfc100d:mfc100d.dll
 0005:000020a4       __imp_?GetDeviceCaps@CDC@@QBEHH@Z 0086c0a4     mfc100d:mfc100d.dll
 0005:000020a8       __imp_??0CPtrArray@@QAE@XZ 0086c0a8     mfc100d:mfc100d.dll
 0005:000020ac       __imp_?GetRuntimeClass@CPtrArray@@UBEPAUCRuntimeClass@@XZ 0086c0ac     mfc100d:mfc100d.dll
 0005:000020b0       __imp_?AssertValid@CPtrArray@@UBEXXZ 0086c0b0     mfc100d:mfc100d.dll
 0005:000020b4       __imp_?Dump@CPtrArray@@UBEXAAVCDumpContext@@@Z 0086c0b4     mfc100d:mfc100d.dll
 0005:000020b8       __imp_??1CPtrArray@@UAE@XZ 0086c0b8     mfc100d:mfc100d.dll
 0005:000020bc       __imp_?RemoveAll@CPtrArray@@QAEXXZ 0086c0bc     mfc100d:mfc100d.dll
 0005:000020c0       __imp_??1CFileDialog@@UAE@XZ 0086c0c0     mfc100d:mfc100d.dll
 0005:000020c4       __imp_?GetPathName@CFileDialog@@QBE?AV?$CStringT@DV?$StrTraitMFC_DLL@DV?$ChTraitsCRT@D@ATL@@@@@ATL@@XZ 0086c0c4     mfc100d:mfc100d.dll
 0005:000020c8       __imp_?DoModal@CFileDialog@@UAEHXZ 0086c0c8     mfc100d:mfc100d.dll
 0005:000020cc       __imp_?GetOFN@CFileDialog@@QAEAAUtagOFNA@@XZ 0086c0cc     mfc100d:mfc100d.dll
 0005:000020d0       __imp_??0CFileDialog@@QAE@HPBD0K0PAVCWnd@@KH@Z 0086c0d0     mfc100d:mfc100d.dll
 0005:000020d4       __imp_?Add@CPtrArray@@QAEHPAX@Z 0086c0d4     mfc100d:mfc100d.dll
 0005:000020d8       __imp_??ACPtrArray@@QAEAAPAXH@Z 0086c0d8     mfc100d:mfc100d.dll
 0005:000020dc       __imp_?GetBuffer@?$CSimpleStringT@D$00@ATL@@QAEPADXZ 0086c0dc     mfc100d:mfc100d.dll
 0005:000020e0       __imp_?SpanIncluding@?$CStringT@DV?$StrTraitMFC_DLL@DV?$ChTraitsCRT@D@ATL@@@@@ATL@@QBE?AV12@PBD@Z 0086c0e0     mfc100d:mfc100d.dll
 0005:000020e4       __imp_?Arc@CDC@@QAEHHHHHHHHH@Z 0086c0e4     mfc100d:mfc100d.dll
 0005:000020e8       __imp_?Arc@CDC@@QAEHPBUtagRECT@@UtagPOINT@@1@Z 0086c0e8     mfc100d:mfc100d.dll
 0005:000020ec       __imp_??4?$CStringT@DV?$StrTraitMFC_DLL@DV?$ChTraitsCRT@D@ATL@@@@@ATL@@QAEAAV01@PBE@Z 0086c0ec     mfc100d:mfc100d.dll
 0005:000020f0       __imp_?GetItemText@CTreeCtrl@@QBE?AV?$CStringT@DV?$StrTraitMFC_DLL@DV?$ChTraitsCRT@D@ATL@@@@@ATL@@PAU_TREEITEM@@@Z 0086c0f0     mfc100d:mfc100d.dll
 0005:000020f4       __imp_??0CMetaFileDC@@QAE@XZ 0086c0f4     mfc100d:mfc100d.dll
 0005:000020f8       __imp_?GetDC@CWnd@@QAEPAVCDC@@XZ 0086c0f8     mfc100d:mfc100d.dll
 0005:000020fc       __imp_?GetClientRect@CWnd@@QBEXPAUtagRECT@@@Z 0086c0fc     mfc100d:mfc100d.dll
 0005:00002100       __imp_?SetEnhMetaFile@CStatic@@QAEPAUHENHMETAFILE__@@PAU2@@Z 0086c100     mfc100d:mfc100d.dll
 0005:00002104       __imp_?ReleaseDC@CWnd@@QAEHPAVCDC@@@Z 0086c104     mfc100d:mfc100d.dll
 0005:00002108       __imp_??1CMetaFileDC@@UAE@XZ 0086c108     mfc100d:mfc100d.dll
 0005:0000210c       __imp_?DeleteAllItems@CTreeCtrl@@QAEHXZ 0086c10c     mfc100d:mfc100d.dll
 0005:00002110       __imp_??BCWnd@@QBEPAUHWND__@@XZ 0086c110     mfc100d:mfc100d.dll
 0005:00002114       __imp_?InsertItem@CTreeCtrl@@QAEPAU_TREEITEM@@PAUtagTVINSERTSTRUCTA@@@Z 0086c114     mfc100d:mfc100d.dll
 0005:00002118       __imp_?SetItemState@CTreeCtrl@@QAEHPAU_TREEITEM@@II@Z 0086c118     mfc100d:mfc100d.dll
 0005:0000211c       __imp_?GetStartPosition@CMapStringToPtr@@QBEPAU__POSITION@@XZ 0086c11c     mfc100d:mfc100d.dll
 0005:00002120       __imp_?GetNextAssoc@CMapStringToPtr@@QBEXAAPAU__POSITION@@AAV?$CStringT@DV?$StrTraitMFC_DLL@DV?$ChTraitsCRT@D@ATL@@@@@ATL@@AAPAX@Z 0086c120     mfc100d:mfc100d.dll
 0005:00002124       __imp_?CompareNoCase@?$CStringT@DV?$StrTraitMFC_DLL@DV?$ChTraitsCRT@D@ATL@@@@@ATL@@QBEHPBD@Z 0086c124     mfc100d:mfc100d.dll
 0005:00002128       __imp_?DeleteItem@CTreeCtrl@@QAEHPAU_TREEITEM@@@Z 0086c128     mfc100d:mfc100d.dll
 0005:0000212c       __imp_?InsertString@CListBox@@QAEHHPBD@Z 0086c12c     mfc100d:mfc100d.dll
 0005:00002130       __imp_??A?$CSimpleStringT@D$00@ATL@@QBEDH@Z 0086c130     mfc100d:mfc100d.dll
 0005:00002134       __imp_?SetCurSel@CListBox@@QAEHH@Z 0086c134     mfc100d:mfc100d.dll
 0005:00002138       __imp_?GetCount@CComboBox@@QBEHXZ 0086c138     mfc100d:mfc100d.dll
 0005:0000213c       __imp_?EnableWindow@CWnd@@QAEHH@Z 0086c13c     mfc100d:mfc100d.dll
 0005:00002140       __imp_?Trim@?$CStringT@DV?$StrTraitMFC_DLL@DV?$ChTraitsCRT@D@ATL@@@@@ATL@@QAEAAV12@XZ 0086c140     mfc100d:mfc100d.dll
 0005:00002144       __imp_?PrepareEditCtrl@CDataExchange@@QAEPAUHWND__@@H@Z 0086c144     mfc100d:mfc100d.dll
 0005:00002148       __imp_?FindOneOf@?$CStringT@DV?$StrTraitMFC_DLL@DV?$ChTraitsCRT@D@ATL@@@@@ATL@@QBEHPBD@Z 0086c148     mfc100d:mfc100d.dll
 0005:0000214c       __imp_?Right@?$CStringT@DV?$StrTraitMFC_DLL@DV?$ChTraitsCRT@D@ATL@@@@@ATL@@QBE?AV12@H@Z 0086c14c     mfc100d:mfc100d.dll
 0005:00002150       __imp_?Lookup@CMapStringToPtr@@QBEHPBDAAPAX@Z 0086c150     mfc100d:mfc100d.dll
 0005:00002154       __imp_?SetAt@CMapStringToPtr@@QAEXPBDPAX@Z 0086c154     mfc100d:mfc100d.dll
 0005:00002158       __imp_?GetCurSel@CListBox@@QBEHXZ 0086c158     mfc100d:mfc100d.dll
 0005:0000215c       __imp_??0CTreeCtrl@@QAE@XZ 0086c15c     mfc100d:mfc100d.dll
 0005:00002160       __imp_??0CListBox@@QAE@XZ  0086c160     mfc100d:mfc100d.dll
 0005:00002164       __imp_??0CStatic@@QAE@XZ   0086c164     mfc100d:mfc100d.dll
 0005:00002168       __imp_??1CTreeCtrl@@UAE@XZ 0086c168     mfc100d:mfc100d.dll
 0005:0000216c       __imp_??1CListBox@@UAE@XZ  0086c16c     mfc100d:mfc100d.dll
 0005:00002170       __imp_??1CStatic@@UAE@XZ   0086c170     mfc100d:mfc100d.dll
 0005:00002174       __imp_?Compare@?$CStringT@DV?$StrTraitMFC_DLL@DV?$ChTraitsCRT@D@ATL@@@@@ATL@@QBEHPBD@Z 0086c174     mfc100d:mfc100d.dll
 0005:00002178       __imp_?GetWindowTextA@CWnd@@QBEXAAV?$CStringT@DV?$StrTraitMFC_DLL@DV?$ChTraitsCRT@D@ATL@@@@@ATL@@@Z 0086c178     mfc100d:mfc100d.dll
 0005:0000217c       __imp_?Find@?$CStringT@DV?$StrTraitMFC_DLL@DV?$ChTraitsCRT@D@ATL@@@@@ATL@@QBEHPBDH@Z 0086c17c     mfc100d:mfc100d.dll
 0005:00002180       __imp_?AfxMessageBox@@YGHPBDII@Z 0086c180     mfc100d:mfc100d.dll
 0005:00002184       __imp_?Fail@CDataExchange@@QAEXXZ 0086c184     mfc100d:mfc100d.dll
 0005:00002188       __imp_?Left@?$CStringT@DV?$StrTraitMFC_DLL@DV?$ChTraitsCRT@D@ATL@@@@@ATL@@QBE?AV12@H@Z 0086c188     mfc100d:mfc100d.dll
 0005:0000218c       __imp_??0?$CStringT@DV?$StrTraitMFC_DLL@DV?$ChTraitsCRT@D@ATL@@@@@ATL@@QAE@PBD@Z 0086c18c     mfc100d:mfc100d.dll
 0005:00002190       __imp_??Y?$CStringT@DV?$StrTraitMFC_DLL@DV?$ChTraitsCRT@D@ATL@@@@@ATL@@QAEAAV01@PBD@Z 0086c190     mfc100d:mfc100d.dll
 0005:00002194       __imp_?GetLength@?$CSimpleStringT@D$00@ATL@@QBEHXZ 0086c194     mfc100d:mfc100d.dll
 0005:00002198       __imp_??0?$CStringT@DV?$StrTraitMFC_DLL@DV?$ChTraitsCRT@D@ATL@@@@@ATL@@QAE@ABV01@@Z 0086c198     mfc100d:mfc100d.dll
 0005:0000219c       __imp_?Format@?$CStringT@DV?$StrTraitMFC_DLL@DV?$ChTraitsCRT@D@ATL@@@@@ATL@@QAAXPBDZZ 0086c19c     mfc100d:mfc100d.dll
 0005:000021a0       __imp_?AddString@CComboBox@@QAEHPBD@Z 0086c1a0     mfc100d:mfc100d.dll
 0005:000021a4       __imp_??B?$CSimpleStringT@D$00@ATL@@QBEPBDXZ 0086c1a4     mfc100d:mfc100d.dll
 0005:000021a8       __imp_?SetWindowTextA@CWnd@@QAEXPBD@Z 0086c1a8     mfc100d:mfc100d.dll
 0005:000021ac       __imp_??0CEdit@@QAE@XZ     0086c1ac     mfc100d:mfc100d.dll
 0005:000021b0       __imp_??4?$CStringT@DV?$StrTraitMFC_DLL@DV?$ChTraitsCRT@D@ATL@@@@@ATL@@QAEAAV01@PBD@Z 0086c1b0     mfc100d:mfc100d.dll
 0005:000021b4       __imp_??1CEdit@@UAE@XZ     0086c1b4     mfc100d:mfc100d.dll
 0005:000021b8       __imp_?DoDataExchange@CWnd@@MAEXPAVCDataExchange@@@Z 0086c1b8     mfc100d:mfc100d.dll
 0005:000021bc       __imp_?DDX_Control@@YGXPAVCDataExchange@@HAAVCWnd@@@Z 0086c1bc     mfc100d:mfc100d.dll
 0005:000021c0       __imp_?InsertString@CComboBox@@QAEHHPBD@Z 0086c1c0     mfc100d:mfc100d.dll
 0005:000021c4       __imp_?SetCurSel@CComboBox@@QAEHH@Z 0086c1c4     mfc100d:mfc100d.dll
 0005:000021c8       __imp_?SetCheck@CButton@@QAEXH@Z 0086c1c8     mfc100d:mfc100d.dll
 0005:000021cc       __imp_?GetCurSel@CComboBox@@QBEHXZ 0086c1cc     mfc100d:mfc100d.dll
 0005:000021d0       __imp_?GetCheck@CButton@@QBEHXZ 0086c1d0     mfc100d:mfc100d.dll
 0005:000021d4       __imp_?PreInitDialog@CDialog@@MAEXXZ 0086c1d4     mfc100d:mfc100d.dll
 0005:000021d8       __imp_?OnCancel@CDialog@@MAEXXZ 0086c1d8     mfc100d:mfc100d.dll
 0005:000021dc       __imp_?OnOK@CDialog@@MAEXXZ 0086c1dc     mfc100d:mfc100d.dll
 0005:000021e0       __imp_?OnSetFont@CDialog@@UAEXPAVCFont@@@Z 0086c1e0     mfc100d:mfc100d.dll
 0005:000021e4       __imp_?OnInitDialog@CDialog@@UAEHXZ 0086c1e4     mfc100d:mfc100d.dll
 0005:000021e8       __imp_?DoModal@CDialog@@UAEHXZ 0086c1e8     mfc100d:mfc100d.dll
 0005:000021ec       __imp_?CreateIndirect@CDialog@@UAEHPBUDLGTEMPLATE@@PAVCWnd@@PAX@Z 0086c1ec     mfc100d:mfc100d.dll
 0005:000021f0       __imp_?CreateIndirect@CDialog@@UAEHPAXPAVCWnd@@@Z 0086c1f0     mfc100d:mfc100d.dll
 0005:000021f4       __imp_?Create@CDialog@@UAEHPBDPAVCWnd@@@Z 0086c1f4     mfc100d:mfc100d.dll
 0005:000021f8       __imp_?Create@CDialog@@UAEHIPAVCWnd@@@Z 0086c1f8     mfc100d:mfc100d.dll
 0005:000021fc       __imp_?GetOccDialogInfo@CDialog@@MAEPAU_AFX_OCC_DIALOG_INFO@@XZ 0086c1fc     mfc100d:mfc100d.dll
 0005:00002200       __imp_?SetOccDialogInfo@CDialog@@MAEHPAU_AFX_OCC_DIALOG_INFO@@@Z 0086c200     mfc100d:mfc100d.dll
 0005:00002204       __imp_?CreateControlSite@CWnd@@MAEHPAVCOleControlContainer@@PAPAVCOleControlSite@@IABU_GUID@@@Z 0086c204     mfc100d:mfc100d.dll
 0005:00002208       __imp_?CreateControlContainer@CWnd@@MAEHPAPAVCOleControlContainer@@@Z 0086c208     mfc100d:mfc100d.dll
 0005:0000220c       __imp_?IsFrameWnd@CWnd@@UBEHXZ 0086c20c     mfc100d:mfc100d.dll
 0005:00002210       __imp_?CheckAutoCenter@CDialog@@UAEHXZ 0086c210     mfc100d:mfc100d.dll
 0005:00002214       __imp_?OnGesturePressAndTap@CWnd@@MAEHVCPoint@@J@Z 0086c214     mfc100d:mfc100d.dll
 0005:00002218       __imp_?OnGestureTwoFingerTap@CWnd@@MAEHVCPoint@@@Z 0086c218     mfc100d:mfc100d.dll
 0005:0000221c       __imp_?OnGestureRotate@CWnd@@MAEHVCPoint@@N@Z 0086c21c     mfc100d:mfc100d.dll
 0005:00002220       __imp_?OnGesturePan@CWnd@@MAEHVCPoint@@0@Z 0086c220     mfc100d:mfc100d.dll
 0005:00002224       __imp_?OnGestureZoom@CWnd@@MAEHVCPoint@@J@Z 0086c224     mfc100d:mfc100d.dll
 0005:00002228       __imp_?GetGestureStatus@CWnd@@MAEKVCPoint@@@Z 0086c228     mfc100d:mfc100d.dll
 0005:0000222c       __imp_?OnTouchInput@CWnd@@MAEHVCPoint@@HHPAUtagTOUCHINPUT@@@Z 0086c22c     mfc100d:mfc100d.dll
 0005:00002230       __imp_?OnTouchInputs@CWnd@@MAEHIPAUtagTOUCHINPUT@@@Z 0086c230     mfc100d:mfc100d.dll
 0005:00002234       __imp_?OnChildNotify@CWnd@@MAEHIIJPAJ@Z 0086c234     mfc100d:mfc100d.dll
 0005:00002238       __imp_?PostNcDestroy@CWnd@@MAEXXZ 0086c238     mfc100d:mfc100d.dll
 0005:0000223c       __imp_?DefWindowProcA@CWnd@@MAEJIIJ@Z 0086c23c     mfc100d:mfc100d.dll
 0005:00002240       __imp_?OnWndMsg@CWnd@@MAEHIIJPAJ@Z 0086c240     mfc100d:mfc100d.dll
 0005:00002244       __imp_?WindowProc@CWnd@@MAEJIIJ@Z 0086c244     mfc100d:mfc100d.dll
 0005:00002248       __imp_?OnAmbientProperty@CWnd@@UAEHPAVCOleControlSite@@JPAUtagVARIANT@@@Z 0086c248     mfc100d:mfc100d.dll
 0005:0000224c       __imp_?PreTranslateMessage@CDialog@@UAEHPAUtagMSG@@@Z 0086c24c     mfc100d:mfc100d.dll
 0005:00002250       __imp_?EndModalState@CWnd@@UAEXXZ 0086c250     mfc100d:mfc100d.dll
 0005:00002254       __imp_?BeginModalState@CWnd@@UAEXXZ 0086c254     mfc100d:mfc100d.dll
 0005:00002258       __imp_?GetSuperWndProcAddr@CWnd@@MAEPAP6GJPAUHWND__@@IIJ@ZXZ 0086c258     mfc100d:mfc100d.dll
 0005:0000225c       __imp_?OnNotify@CWnd@@MAEHIJPAJ@Z 0086c25c     mfc100d:mfc100d.dll
 0005:00002260       __imp_?OnCommand@CWnd@@MAEHIJ@Z 0086c260     mfc100d:mfc100d.dll
 0005:00002264       __imp_?CreateAccessibleProxy@CWnd@@UAEJIJPAJ@Z 0086c264     mfc100d:mfc100d.dll
 0005:00002268       __imp_?SetProxy@CWnd@@UAEJPAUIAccessibleProxy@@@Z 0086c268     mfc100d:mfc100d.dll
 0005:0000226c       __imp_?put_accValue@CWnd@@UAEJUtagVARIANT@@PA_W@Z 0086c26c     mfc100d:mfc100d.dll
 0005:00002270       __imp_?put_accName@CWnd@@UAEJUtagVARIANT@@PA_W@Z 0086c270     mfc100d:mfc100d.dll
 0005:00002274       __imp_?accDoDefaultAction@CWnd@@UAEJUtagVARIANT@@@Z 0086c274     mfc100d:mfc100d.dll
 0005:00002278       __imp_?accHitTest@CWnd@@UAEJJJPAUtagVARIANT@@@Z 0086c278     mfc100d:mfc100d.dll
 0005:0000227c       __imp_?accNavigate@CWnd@@UAEJJUtagVARIANT@@PAU2@@Z 0086c27c     mfc100d:mfc100d.dll
 0005:00002280       __imp_?accLocation@CWnd@@UAEJPAJ000UtagVARIANT@@@Z 0086c280     mfc100d:mfc100d.dll
 0005:00002284       __imp_?accSelect@CWnd@@UAEJJUtagVARIANT@@@Z 0086c284     mfc100d:mfc100d.dll
 0005:00002288       __imp_?get_accDefaultAction@CWnd@@UAEJUtagVARIANT@@PAPA_W@Z 0086c288     mfc100d:mfc100d.dll
 0005:0000228c       __imp_?get_accSelection@CWnd@@UAEJPAUtagVARIANT@@@Z 0086c28c     mfc100d:mfc100d.dll
 0005:00002290       __imp_?get_accFocus@CWnd@@UAEJPAUtagVARIANT@@@Z 0086c290     mfc100d:mfc100d.dll
 0005:00002294       __imp_?get_accKeyboardShortcut@CWnd@@UAEJUtagVARIANT@@PAPA_W@Z 0086c294     mfc100d:mfc100d.dll
 0005:00002298       __imp_?get_accHelpTopic@CWnd@@UAEJPAPA_WUtagVARIANT@@PAJ@Z 0086c298     mfc100d:mfc100d.dll
 0005:0000229c       __imp_?get_accHelp@CWnd@@UAEJUtagVARIANT@@PAPA_W@Z 0086c29c     mfc100d:mfc100d.dll
 0005:000022a0       __imp_?get_accState@CWnd@@UAEJUtagVARIANT@@PAU2@@Z 0086c2a0     mfc100d:mfc100d.dll
 0005:000022a4       __imp_?get_accRole@CWnd@@UAEJUtagVARIANT@@PAU2@@Z 0086c2a4     mfc100d:mfc100d.dll
 0005:000022a8       __imp_?get_accDescription@CWnd@@UAEJUtagVARIANT@@PAPA_W@Z 0086c2a8     mfc100d:mfc100d.dll
 0005:000022ac       __imp_?get_accValue@CWnd@@UAEJUtagVARIANT@@PAPA_W@Z 0086c2ac     mfc100d:mfc100d.dll
 0005:000022b0       __imp_?get_accName@CWnd@@UAEJUtagVARIANT@@PAPA_W@Z 0086c2b0     mfc100d:mfc100d.dll
 0005:000022b4       __imp_?get_accChild@CWnd@@UAEJUtagVARIANT@@PAPAUIDispatch@@@Z 0086c2b4     mfc100d:mfc100d.dll
 0005:000022b8       __imp_?get_accChildCount@CWnd@@UAEJPAJ@Z 0086c2b8     mfc100d:mfc100d.dll
 0005:000022bc       __imp_?get_accParent@CWnd@@UAEJPAPAUIDispatch@@@Z 0086c2bc     mfc100d:mfc100d.dll
 0005:000022c0       __imp_?EnsureStdObj@CWnd@@UAEJXZ 0086c2c0     mfc100d:mfc100d.dll
 0005:000022c4       __imp_?OnDrawIconicThumbnailOrLivePreview@CWnd@@UAEXAAVCDC@@VCRect@@VCSize@@HAAH@Z 0086c2c4     mfc100d:mfc100d.dll
 0005:000022c8       __imp_?EndModalLoop@CWnd@@UAEXH@Z 0086c2c8     mfc100d:mfc100d.dll
 0005:000022cc       __imp_?ContinueModal@CWnd@@UAEHXZ 0086c2cc     mfc100d:mfc100d.dll
 0005:000022d0       __imp_?WinHelpInternal@CWnd@@UAEXKI@Z 0086c2d0     mfc100d:mfc100d.dll
 0005:000022d4       __imp_?HtmlHelpA@CWnd@@UAEXKI@Z 0086c2d4     mfc100d:mfc100d.dll
 0005:000022d8       __imp_?WinHelpA@CWnd@@UAEXKI@Z 0086c2d8     mfc100d:mfc100d.dll
 0005:000022dc       __imp_?GetScrollBarCtrl@CWnd@@UBEPAVCScrollBar@@H@Z 0086c2dc     mfc100d:mfc100d.dll
 0005:000022e0       __imp_?OnToolHitTest@CWnd@@UBEHVCPoint@@PAUtagTOOLINFOA@@@Z 0086c2e0     mfc100d:mfc100d.dll
 0005:000022e4       __imp_?SetMenu@CWnd@@UAEHPAVCMenu@@@Z 0086c2e4     mfc100d:mfc100d.dll
 0005:000022e8       __imp_?GetMenu@CWnd@@UBEPAVCMenu@@XZ 0086c2e8     mfc100d:mfc100d.dll
 0005:000022ec       __imp_?CalcWindowRect@CWnd@@UAEXPAUtagRECT@@I@Z 0086c2ec     mfc100d:mfc100d.dll
 0005:000022f0       __imp_?PreCreateWindow@CWnd@@UAEHAAUtagCREATESTRUCTA@@@Z 0086c2f0     mfc100d:mfc100d.dll
 0005:000022f4       __imp_?DestroyWindow@CWnd@@UAEHXZ 0086c2f4     mfc100d:mfc100d.dll
 0005:000022f8       __imp_?CreateEx@CWnd@@UAEHKPBD0KHHHHPAUHWND__@@PAUHMENU__@@PAX@Z 0086c2f8     mfc100d:mfc100d.dll
 0005:000022fc       __imp_?CreateEx@CWnd@@UAEHKPBD0KABUtagRECT@@PAV1@IPAX@Z 0086c2fc     mfc100d:mfc100d.dll
 0005:00002300       __imp_?Create@CWnd@@UAEHPBD0KABUtagRECT@@PAV1@IPAUCCreateContext@@@Z 0086c300     mfc100d:mfc100d.dll
 0005:00002304       __imp_?PreSubclassWindow@CWnd@@UAEXXZ 0086c304     mfc100d:mfc100d.dll
 0005:00002308       __imp_?GetConnectionHook@CCmdTarget@@MAEPAUIConnectionPoint@@ABU_GUID@@@Z 0086c308     mfc100d:mfc100d.dll
 0005:0000230c       __imp_?GetExtraConnectionPoints@CCmdTarget@@MAEHPAVCPtrArray@@@Z 0086c30c     mfc100d:mfc100d.dll
 0005:00002310       __imp_?GetInterfaceHook@CCmdTarget@@UAEPAUIUnknown@@PBX@Z 0086c310     mfc100d:mfc100d.dll
 0005:00002314       __imp_?OnCreateAggregates@CCmdTarget@@UAEHXZ 0086c314     mfc100d:mfc100d.dll
 0005:00002318       __imp_?GetEventSinkMap@CCmdTarget@@MBEPBUAFX_EVENTSINKMAP@@XZ 0086c318     mfc100d:mfc100d.dll
 0005:0000231c       __imp_?GetInterfaceMap@CWnd@@MBEPBUAFX_INTERFACEMAP@@XZ 0086c31c     mfc100d:mfc100d.dll
 0005:00002320       __imp_?GetConnectionMap@CCmdTarget@@MBEPBUAFX_CONNECTIONMAP@@XZ 0086c320     mfc100d:mfc100d.dll
 0005:00002324       __imp_?GetDispatchMap@CCmdTarget@@MBEPBUAFX_DISPMAP@@XZ 0086c324     mfc100d:mfc100d.dll
 0005:00002328       __imp_?GetCommandMap@CCmdTarget@@MBEPBUAFX_OLECMDMAP@@XZ 0086c328     mfc100d:mfc100d.dll
 0005:0000232c       __imp_?GetTypeLib@CCmdTarget@@UAEJKPAPAUITypeLib@@@Z 0086c32c     mfc100d:mfc100d.dll
 0005:00002330       __imp_?GetTypeLibCache@CCmdTarget@@UAEPAVCTypeLibCache@@XZ 0086c330     mfc100d:mfc100d.dll
 0005:00002334       __imp_?GetTypeInfoCount@CCmdTarget@@UAEIXZ 0086c334     mfc100d:mfc100d.dll
 0005:00002338       __imp_?GetDispatchIID@CCmdTarget@@UAEHPAU_GUID@@@Z 0086c338     mfc100d:mfc100d.dll
 0005:0000233c       __imp_?IsInvokeAllowed@CCmdTarget@@UAEHJ@Z 0086c33c     mfc100d:mfc100d.dll
 0005:00002340       __imp_?OnFinalRelease@CWnd@@UAEXXZ 0086c340     mfc100d:mfc100d.dll
 0005:00002344       __imp_?OnCmdMsg@CDialog@@UAEHIHPAXPAUAFX_CMDHANDLERINFO@@@Z 0086c344     mfc100d:mfc100d.dll
 0005:00002348       __imp_?Dump@CDialog@@UBEXAAVCDumpContext@@@Z 0086c348     mfc100d:mfc100d.dll
 0005:0000234c       __imp_?AssertValid@CDialog@@UBEXXZ 0086c34c     mfc100d:mfc100d.dll
 0005:00002350       __imp_??0CDialog@@QAE@IPAVCWnd@@@Z 0086c350     mfc100d:mfc100d.dll
 0005:00002354       __imp_??0CComboBox@@QAE@XZ 0086c354     mfc100d:mfc100d.dll
 0005:00002358       __imp_??0CButton@@QAE@XZ   0086c358     mfc100d:mfc100d.dll
 0005:0000235c       __imp_??1CDialog@@UAE@XZ   0086c35c     mfc100d:mfc100d.dll
 0005:00002360       __imp_??1CComboBox@@UAE@XZ 0086c360     mfc100d:mfc100d.dll
 0005:00002364       __imp_??1CButton@@UAE@XZ   0086c364     mfc100d:mfc100d.dll
 0005:00002368       __imp_?GetThisClass@CDialog@@SGPAUCRuntimeClass@@XZ 0086c368     mfc100d:mfc100d.dll
 0005:0000236c       __imp_?GetThisMessageMap@CDialog@@KGPBUAFX_MSGMAP@@XZ 0086c36c     mfc100d:mfc100d.dll
 0005:00002370       __imp_?Write@CArchive@@QAEXPBXI@Z 0086c370     mfc100d:mfc100d.dll
 0005:00002374       __imp_?EnsureRead@CArchive@@QAEXPAXI@Z 0086c374     mfc100d:mfc100d.dll
 0005:00002378       __imp_?AfxThrowMemoryException@@YGXXZ 0086c378     mfc100d:mfc100d.dll
 0005:0000237c       __imp_??_U@YAPAXIPBDH@Z    0086c37c     mfc100d:mfc100d.dll
 0005:00002380       __imp_??_U@YAPAXI@Z        0086c380     mfc100d:mfc100d.dll
 0005:00002384       __imp_??3CObject@@SGXPAX@Z 0086c384     mfc100d:mfc100d.dll
 0005:00002388       __imp_?AssertValid@CObject@@UBEXXZ 0086c388     mfc100d:mfc100d.dll
 0005:0000238c       __imp_?AfxIsValidAddress@@YGHPBXIH@Z 0086c38c     mfc100d:mfc100d.dll
 0005:00002390       __imp_?Dump@CObject@@UBEXAAVCDumpContext@@@Z 0086c390     mfc100d:mfc100d.dll
 0005:00002394       __imp_??6CDumpContext@@QAEAAV0@PBD@Z 0086c394     mfc100d:mfc100d.dll
 0005:00002398       __imp_??6CDumpContext@@QAEAAV0@H@Z 0086c398     mfc100d:mfc100d.dll
 0005:0000239c       __imp_?GetDepth@CDumpContext@@QBEHXZ 0086c39c     mfc100d:mfc100d.dll
 0005:000023a0       __imp_?Serialize@CObject@@UAEXAAVCArchive@@@Z 0086c3a0     mfc100d:mfc100d.dll
 0005:000023a4       __imp_?IsStoring@CArchive@@QBEHXZ 0086c3a4     mfc100d:mfc100d.dll
 0005:000023a8       __imp_?WriteCount@CArchive@@QAEXK@Z 0086c3a8     mfc100d:mfc100d.dll
 0005:000023ac       __imp_?ReadCount@CArchive@@QAEKXZ 0086c3ac     mfc100d:mfc100d.dll
 0005:000023b0       __imp_?AfxAssertValidObject@@YGXPBVCObject@@PBDH@Z 0086c3b0     mfc100d:mfc100d.dll
 0005:000023b4       __imp_??_V@YAXPAX@Z        0086c3b4     mfc100d:mfc100d.dll
 0005:000023b8       __imp_??1CObject@@UAE@XZ   0086c3b8     mfc100d:mfc100d.dll
 0005:000023bc       __imp_?GetRuntimeClass@CObject@@UBEPAUCRuntimeClass@@XZ 0086c3bc     mfc100d:mfc100d.dll
 0005:000023c0       __imp_??0CObject@@IAE@XZ   0086c3c0     mfc100d:mfc100d.dll
 0005:000023c4       __imp_?SetWindowOrg@CDC@@QAE?AVCPoint@@HH@Z 0086c3c4     mfc100d:mfc100d.dll
 0005:000023c8       __imp_?GetROP2@CDC@@QBEHXZ 0086c3c8     mfc100d:mfc100d.dll
 0005:000023cc       __imp_??0CBrush@@QAE@K@Z   0086c3cc     mfc100d:mfc100d.dll
 0005:000023d0       __imp_??0CPen@@QAE@HHK@Z   0086c3d0     mfc100d:mfc100d.dll
 0005:000023d4       __imp_?SelectObject@CDC@@QAEPAVCPen@@PAV2@@Z 0086c3d4     mfc100d:mfc100d.dll
 0005:000023d8       __imp_?SelectObject@CDC@@QAEPAVCBrush@@PAV2@@Z 0086c3d8     mfc100d:mfc100d.dll
 0005:000023dc       __imp_?GetBkMode@CDC@@QBEHXZ 0086c3dc     mfc100d:mfc100d.dll
 0005:000023e0       __imp_?Rectangle@CDC@@QAEHPBUtagRECT@@@Z 0086c3e0     mfc100d:mfc100d.dll
 0005:000023e4       __imp_?MoveTo@CDC@@QAE?AVCPoint@@UtagPOINT@@@Z 0086c3e4     mfc100d:mfc100d.dll
 0005:000023e8       __imp_?SetItemData@CListCtrl@@QAEHHK@Z 0086c3e8     mfc100d:mfc100d.dll
 0005:000023ec       __imp_?SetItem@CListCtrl@@QAEHHHIPBDHIIJ@Z 0086c3ec     mfc100d:mfc100d.dll
 0005:000023f0       __imp_?GetWindowRect@CWnd@@QBEXPAUtagRECT@@@Z 0086c3f0     mfc100d:mfc100d.dll
 0005:000023f4       __imp_?MoveWindow@CWnd@@QAEXHHHHH@Z 0086c3f4     mfc100d:mfc100d.dll
 0005:000023f8       __imp_?GetItemCount@CListCtrl@@QBEHXZ 0086c3f8     mfc100d:mfc100d.dll
 0005:000023fc       __imp_?GetItemData@CListCtrl@@QBEKH@Z 0086c3fc     mfc100d:mfc100d.dll
 0005:00002400       __imp_??0CListCtrl@@QAE@XZ 0086c400     mfc100d:mfc100d.dll
 0005:00002404       __imp_??1CListCtrl@@UAE@XZ 0086c404     mfc100d:mfc100d.dll
 0005:00002408       __imp_?DDX_CBIndex@@YGXPAVCDataExchange@@HAAH@Z 0086c408     mfc100d:mfc100d.dll
 0005:0000240c       __imp_?GetFocus@CWnd@@SGPAV1@XZ 0086c40c     mfc100d:mfc100d.dll
 0005:00002410       __imp_?GetLBText@CComboBox@@QBEXHAAV?$CStringT@DV?$StrTraitMFC_DLL@DV?$ChTraitsCRT@D@ATL@@@@@ATL@@@Z 0086c410     mfc100d:mfc100d.dll
 0005:00002414       __imp_?FindString@CListBox@@QBEHHPBD@Z 0086c414     mfc100d:mfc100d.dll
 0005:00002418       __imp_?SetSel@CListBox@@QAEHHH@Z 0086c418     mfc100d:mfc100d.dll
 0005:0000241c       __imp_?FindStringExact@CListBox@@QBEHHPBD@Z 0086c41c     mfc100d:mfc100d.dll
 0005:00002420       __imp_?AddString@CListBox@@QAEHPBD@Z 0086c420     mfc100d:mfc100d.dll
 0005:00002424       __imp_?SetButtonStyle@CButton@@QAEXIH@Z 0086c424     mfc100d:mfc100d.dll
 0005:00002428       __imp_?GetSelCount@CListBox@@QBEHXZ 0086c428     mfc100d:mfc100d.dll
 0005:0000242c       __imp_?GetSelItems@CListBox@@QBEHHPAH@Z 0086c42c     mfc100d:mfc100d.dll
 0005:00002430       __imp_?DeleteString@CListBox@@QAEHI@Z 0086c430     mfc100d:mfc100d.dll
 0005:00002434       __imp_?GetState@CButton@@QBEIXZ 0086c434     mfc100d:mfc100d.dll
 0005:00002438       __imp_?GetText@CListBox@@QBEXHAAV?$CStringT@DV?$StrTraitMFC_DLL@DV?$ChTraitsCRT@D@ATL@@@@@ATL@@@Z 0086c438     mfc100d:mfc100d.dll
 0005:0000243c       __imp_?ReverseFind@?$CStringT@DV?$StrTraitMFC_DLL@DV?$ChTraitsCRT@D@ATL@@@@@ATL@@QBEHD@Z 0086c43c     mfc100d:mfc100d.dll
 0005:00002440       __imp_??0CStdioFile@@QAE@XZ 0086c440     mfc100d:mfc100d.dll
 0005:00002444       __imp_?Open@CStdioFile@@UAEHPBDIPAVCFileException@@@Z 0086c444     mfc100d:mfc100d.dll
 0005:00002448       __imp_?Close@CStdioFile@@UAEXXZ 0086c448     mfc100d:mfc100d.dll
 0005:0000244c       __imp_??1CStdioFile@@UAE@XZ 0086c44c     mfc100d:mfc100d.dll
 0005:00002450       __imp_?WriteString@CStdioFile@@UAEXPBD@Z 0086c450     mfc100d:mfc100d.dll
 0005:00002454       __imp_?MakeLower@?$CStringT@DV?$StrTraitMFC_DLL@DV?$ChTraitsCRT@D@ATL@@@@@ATL@@QAEAAV12@XZ 0086c454     mfc100d:mfc100d.dll
 0005:00002458       __imp_?DDX_Text@@YGXPAVCDataExchange@@HAAH@Z 0086c458     mfc100d:mfc100d.dll
 0005:0000245c       __imp_?DDV_MinMaxUInt@@YGXPAVCDataExchange@@III@Z 0086c45c     mfc100d:mfc100d.dll
 0005:00002460       __imp_?StringLength@?$CSimpleStringT@D$00@ATL@@SAHPBD@Z 0086c460     mfc100d:mfc100d.dll
 0005:00002464       __imp_?DDX_CBString@@YGXPAVCDataExchange@@HAAV?$CStringT@DV?$StrTraitMFC_DLL@DV?$ChTraitsCRT@D@ATL@@@@@ATL@@@Z 0086c464     mfc100d:mfc100d.dll
 0005:00002468       __imp_?DDV_MaxChars@@YGXPAVCDataExchange@@ABV?$CStringT@DV?$StrTraitMFC_DLL@DV?$ChTraitsCRT@D@ATL@@@@@ATL@@H@Z 0086c468     mfc100d:mfc100d.dll
 0005:0000246c       __imp_?SetFocus@CWnd@@QAEPAV1@XZ 0086c46c     mfc100d:mfc100d.dll
 0005:00002470       __imp_?LineTo@CDC@@QAEHUtagPOINT@@@Z 0086c470     mfc100d:mfc100d.dll
 0005:00002474       __imp_??1CPen@@UAE@XZ      0086c474     mfc100d:mfc100d.dll
 0005:00002478       __imp_?BitBlt@CDC@@QAEHHHHHPAV1@HHK@Z 0086c478     mfc100d:mfc100d.dll
 0005:0000247c       __imp_?PrepareCtrl@CDataExchange@@QAEPAUHWND__@@H@Z 0086c47c     mfc100d:mfc100d.dll
 0005:00002480       __imp_?DDX_Text@@YGXPAVCDataExchange@@HAAV?$CStringT@DV?$StrTraitMFC_DLL@DV?$ChTraitsCRT@D@ATL@@@@@ATL@@@Z 0086c480     mfc100d:mfc100d.dll
 0005:00002484       __imp_?Find@?$CStringT@DV?$StrTraitMFC_DLL@DV?$ChTraitsCRT@D@ATL@@@@@ATL@@QBEHDH@Z 0086c484     mfc100d:mfc100d.dll
 0005:00002488       __imp_??$SerializeElements@V?$CStringT@DV?$StrTraitMFC_DLL@DV?$ChTraitsCRT@D@ATL@@@@@ATL@@@@YGXAAVCArchive@@PAV?$CStringT@DV?$StrTraitMFC_DLL@DV?$ChTraitsCRT@D@ATL@@@@@ATL@@H@Z 0086c488     mfc100d:mfc100d.dll
 0005:0000248c       __imp_?FindString@CComboBox@@QBEHHPBD@Z 0086c48c     mfc100d:mfc100d.dll
 0005:00002490       __imp_?GetCount@CListBox@@QBEHXZ 0086c490     mfc100d:mfc100d.dll
 0005:00002494       __imp_?GetSel@CListBox@@QBEHH@Z 0086c494     mfc100d:mfc100d.dll
 0005:00002498       __imp_?GetAt@?$CSimpleStringT@D$00@ATL@@QBEDH@Z 0086c498     mfc100d:mfc100d.dll
 0005:0000249c       __imp_?SetROP2@CDC@@QAEHH@Z 0086c49c     mfc100d:mfc100d.dll
 0005:000024a0       __imp_??BCGdiObject@@QBEPAXXZ 0086c4a0     mfc100d:mfc100d.dll
 0005:000024a4       __imp_?SelectObject@CDC@@QAEPAXPAX@Z 0086c4a4     mfc100d:mfc100d.dll
 0005:000024a8       __imp_?Ellipse@CDC@@QAEHHHHH@Z 0086c4a8     mfc100d:mfc100d.dll
 0005:000024ac       __imp_?MoveTo@CDC@@QAE?AVCPoint@@HH@Z 0086c4ac     mfc100d:mfc100d.dll
 0005:000024b0       __imp_?LineTo@CDC@@QAEHHH@Z 0086c4b0     mfc100d:mfc100d.dll
 0005:000024b4       __imp_?Polyline@CDC@@QAEHPBUtagPOINT@@H@Z 0086c4b4     mfc100d:mfc100d.dll
 0005:000024b8       __imp_?Rectangle@CDC@@QAEHHHHH@Z 0086c4b8     mfc100d:mfc100d.dll
 0005:000024bc       __imp_?RoundRect@CDC@@QAEHHHHHHH@Z 0086c4bc     mfc100d:mfc100d.dll
 0005:000024c0       __imp_?Polygon@CDC@@QAEHPBUtagPOINT@@H@Z 0086c4c0     mfc100d:mfc100d.dll
 0005:000024c4       __imp_??1CBrush@@UAE@XZ    0086c4c4     mfc100d:mfc100d.dll
 0005:000024c8       __imp_?SetPixel@CDC@@QAEKHHK@Z 0086c4c8     mfc100d:mfc100d.dll
 0005:000024cc       __imp_??0CPen@@QAE@XZ      0086c4cc     mfc100d:mfc100d.dll
 0005:000024d0       __imp_?CreatePen@CPen@@QAEHHHK@Z 0086c4d0     mfc100d:mfc100d.dll
 0005:000024d4       __imp_?Ellipse@CDC@@QAEHPBUtagRECT@@@Z 0086c4d4     mfc100d:mfc100d.dll
 0005:000024d8       __imp_?AfxThrowInvalidArgException@@YGXXZ 0086c4d8     mfc100d:mfc100d.dll
 0005:000024dc       __imp_?GetHeadPosition@CPtrList@@QBEPAU__POSITION@@XZ 0086c4dc     mfc100d:mfc100d.dll
 0005:000024e0       __imp_?GetNext@CPtrList@@QAEAAPAXAAPAU__POSITION@@@Z 0086c4e0     mfc100d:mfc100d.dll
 0005:000024e4       __imp_??2@YAPAXIPBDH@Z     0086c4e4     mfc100d:mfc100d.dll
 0005:000024e8       __imp_??4?$CStringT@DV?$StrTraitMFC_DLL@DV?$ChTraitsCRT@D@ATL@@@@@ATL@@QAEAAV01@ABV01@@Z 0086c4e8     mfc100d:mfc100d.dll
 0005:000024ec       __imp_?AddTail@CPtrList@@QAEPAU__POSITION@@PAX@Z 0086c4ec     mfc100d:mfc100d.dll
 0005:000024f0       __imp_??3@YAXPAXPBDH@Z     0086c4f0     mfc100d:mfc100d.dll
 0005:000024f4       __imp_?Find@CPtrList@@QBEPAU__POSITION@@PAXPAU2@@Z 0086c4f4     mfc100d:mfc100d.dll
 0005:000024f8       __imp_?RemoveAt@CPtrList@@QAEXPAU__POSITION@@@Z 0086c4f8     mfc100d:mfc100d.dll
 0005:000024fc       __imp_?IsEmpty@CPtrList@@QBEHXZ 0086c4fc     mfc100d:mfc100d.dll
 0005:00002500       __imp_?GetHead@CPtrList@@QAEAAPAXXZ 0086c500     mfc100d:mfc100d.dll
 0005:00002504       __imp_?RemoveHead@CPtrList@@QAEPAXXZ 0086c504     mfc100d:mfc100d.dll
 0005:00002508       __imp_??1CPtrList@@UAE@XZ  0086c508     mfc100d:mfc100d.dll
 0005:0000250c       __imp_??0CPtrList@@QAE@H@Z 0086c50c     mfc100d:mfc100d.dll
 0005:00002510       __imp_?GetManager@?$CStringT@DV?$StrTraitMFC_DLL@DV?$ChTraitsCRT@D@ATL@@@@@ATL@@QBEPAUIAtlStringMgr@2@XZ 0086c510     mfc100d:mfc100d.dll
 0005:00002514       __imp_??0?$CStringT@DV?$StrTraitMFC_DLL@DV?$ChTraitsCRT@D@ATL@@@@@ATL@@QAE@PAUIAtlStringMgr@1@@Z 0086c514     mfc100d:mfc100d.dll
 0005:00002518       __imp_?Concatenate@?$CSimpleStringT@D$00@ATL@@KAXAAV12@PBDH1H@Z 0086c518     mfc100d:mfc100d.dll
 0005:0000251c       __imp_??1CWnd@@UAE@XZ      0086c51c     mfc100d:mfc100d.dll
 0005:00002520       __imp_?ShowWindow@CWnd@@QAEHH@Z 0086c520     mfc100d:mfc100d.dll
 0005:00002524       __imp_?UpdateWindow@CWnd@@QAEXXZ 0086c524     mfc100d:mfc100d.dll
 0005:00002528       __imp_?BringWindowToTop@CWnd@@QAEXXZ 0086c528     mfc100d:mfc100d.dll
 0005:0000252c       __imp_?GetNextItem@CTreeCtrl@@QBEPAU_TREEITEM@@PAU2@I@Z 0086c52c     mfc100d:mfc100d.dll
 0005:00002530       __imp_?GetItemState@CTreeCtrl@@QBEIPAU_TREEITEM@@I@Z 0086c530     mfc100d:mfc100d.dll
 0005:00002534       __imp_?DelayUpdateFrameMenu@CFrameWnd@@UAEXPAUHMENU__@@@Z 0086c534     mfc100d:mfc100d.dll
 0005:00002538       __imp_?RedrawWindow@CWnd@@QAEHPBUtagRECT@@PAVCRgn@@I@Z 0086c538     mfc100d:mfc100d.dll
 0005:0000253c       __imp_??0?$CStringT@DV?$StrTraitMFC_DLL@DV?$ChTraitsCRT@D@ATL@@@@@ATL@@QAE@XZ 0086c53c     mfc100d:mfc100d.dll
 0005:00002540       __imp_??1?$CStringT@DV?$StrTraitMFC_DLL@DV?$ChTraitsCRT@D@ATL@@@@@ATL@@QAE@XZ 0086c540     mfc100d:mfc100d.dll
 0005:00002544       __imp_??3@YAXPAX@Z         0086c544     mfc100d:mfc100d.dll
 0005:00002548       __imp_?GetMainWnd@CWinThread@@UAEPAVCWnd@@XZ 0086c548     mfc100d:mfc100d.dll
 0005:0000254c       __imp_?AfxWinMain@@YGHPAUHINSTANCE__@@0PADH@Z 0086c54c     mfc100d:mfc100d.dll
 0005:00002550       __imp_?AfxGetModuleState@@YGPAVAFX_MODULE_STATE@@XZ 0086c550     mfc100d:mfc100d.dll
 0005:00002554       \177mfc100d_NULL_THUNK_DATA 0086c554     mfc100d:mfc100d.dll

 entry point at        0002:000054a1

