 FreeSch

 Timestamp is 5ea6dd6f (Mon Apr 27 18:26:07 2020)

 Preferred load address is 00400000

 Start         Length     Name                   Class
 0001:00000000 00075002H .textbss                DATA
 0002:00000000 000e584aH .text                   CODE
 0002:000e5850 0000bcfbH .text$x                 CODE
 0002:000f1550 000019eaH .text$yc                CODE
 0002:000f2f40 000012b7H .text$yd                CODE
 0003:00000000 00000104H .CRT$XCA                DATA
 0003:00000104 00000104H .CRT$XCAA               DATA
 0003:00000208 0000010eH .CRT$XCC                DATA
 0003:00000318 0000018aH .CRT$XCL                DATA
 0003:000004a4 0000014cH .CRT$XCU                DATA
 0003:000005f0 00000104H .CRT$XCZ                DATA
 0003:000006f4 00000104H .CRT$XIA                DATA
 0003:000007f8 00000104H .CRT$XIAA               DATA
 0003:000008fc 00000104H .CRT$XIC                DATA
 0003:00000a00 00000104H .CRT$XIY                DATA
 0003:00000b04 00000104H .CRT$XIZ                DATA
 0003:00000c10 0001243dH .rdata                  DATA
 0003:00013050 0000013fH .rdata$debug            DATA
 0003:00013190 00001d6cH .rdata$r                DATA
 0003:00014efc 00000104H .rtc$IAA                DATA
 0003:00015000 0000020cH .rtc$IMZ                DATA
 0003:0001520c 00000104H .rtc$IZZ                DATA
 0003:00015310 00000104H .rtc$TAA                DATA
 0003:00015414 0000020cH .rtc$TMZ                DATA
 0003:00015620 00000104H .rtc$TZZ                DATA
 0003:00015728 00007136H .xdata$x                DATA
 0003:0001c860 00000104H ATL$__a                 DATA
 0003:0001c964 00000104H ATL$__z                 DATA
 0003:0001ca68 00000000H .edata                  DATA
 0004:00000000 00005c1aH .data                   DATA
 0004:00005c20 00000b4cH .bss                    DATA
 0005:00000000 000000b4H .idata$2                DATA
 0005:000000b4 00000014H .idata$3                DATA
 0005:000000c8 00001198H .idata$4                DATA
 0005:00001260 00001198H .idata$5                DATA
 0005:000023f8 0000115aH .idata$6                DATA
 0006:00000000 00001a0cH .rsrc$01                DATA
 0006:00001a10 000c4399H .rsrc$02                DATA

  Address         Publics by Value              Rva+Base       Lib:Object

 0000:00000000       ___safe_se_handler_table   00000000     <absolute>
 0000:00000000       ___safe_se_handler_count   00000000     <absolute>
 0000:00000000       __except_list              00000000     <absolute>
 0000:00009876       __fltused                  00009876     <absolute>
 0000:00009876       __ldused                   00009876     <absolute>
 0000:00000000       ___ImageBase               00400000     <linker-defined>
 0001:00000000       __enc$textbss$begin        00401000     <linker-defined>
 0001:00075002       __enc$textbss$end          00476002     <linker-defined>
 0002:00006f70       ?AfxAssertFailedLine@@YGHPBDH@Z 0047df70 f   afxasert.obj
 0002:00007060       ??0Cuid@@QAE@XZ            0047e060 f   Cuid.obj
 0002:00007180       ?GetNewUID@Cuid@@QAEHXZ    0047e180 f   Cuid.obj
 0002:00007360       ?ReleaseUID@Cuid@@QAEXI@Z  0047e360 f   Cuid.obj
 0002:00007450       ??0DRError@@QAE@XZ         0047e450 f   DesignRules.obj
 0002:000075a0       ??1DRError@@QAE@XZ         0047e5a0 f   DesignRules.obj
 0002:000076b0       ??0DRErrorList@@QAE@XZ     0047e6b0 f   DesignRules.obj
 0002:00007720       ??1DRErrorList@@QAE@XZ     0047e720 f   DesignRules.obj
 0002:000077d0       ?SetLists@DRErrorList@@QAEXPAVCDisplayList@@PAVCTextList@@PAV?$CArray@VCPolyLine@@ABV1@@@@Z 0047e7d0 f   DesignRules.obj
 0002:00007830       ?Clear@DRErrorList@@QAEXXZ 0047e830 f   DesignRules.obj
 0002:00007900       ??_GDRError@@QAEPAXI@Z     0047e900 f i DesignRules.obj
 0002:00007970       ?Remove@DRErrorList@@QAEXPAVDRError@@@Z 0047e970 f   DesignRules.obj
 0002:00007a40       ?Add@DRErrorList@@QAEPAVDRError@@PAV?$CStringT@DV?$StrTraitMFC_DLL@DV?$ChTraitsCRT@D@ATL@@@@@ATL@@00Vid@@1HHHHHH@Z 0047ea40 f   DesignRules.obj
 0002:00007ee0       ?HighLight@DRErrorList@@QAEXPAVDRError@@@Z 0047eee0 f   DesignRules.obj
 0002:00008160       ?MakeSolidCircles@DRErrorList@@QAEXXZ 0047f160 f   DesignRules.obj
 0002:000082e0       ?MakeHollowCircles@DRErrorList@@QAEXXZ 0047f2e0 f   DesignRules.obj
 0002:000084e0       ??A?$CArray@PAVdl_element@@ABQAV1@@@QAEAAPAVdl_element@@H@Z 0047f4e0 f i DesignRules.obj
 0002:00008540       ?GetSize@?$CArray@VCPolyLine@@ABV1@@@QBEHXZ 0047f540 f i DesignRules.obj
 0002:00008580       ?GetAt@?$CArray@VCPolyLine@@ABV1@@@QAEAAVCPolyLine@@H@Z 0047f580 f i DesignRules.obj
 0002:00008630       ?ElementAt@?$CArray@PAVdl_element@@ABQAV1@@@QAEAAPAVdl_element@@H@Z 0047f630 f i DesignRules.obj
 0002:000086e0       ??0id@@QAE@HHHHH@Z         0047f6e0 f i DesignRules.obj
 0002:00008760       ??0CDisplayList@@QAE@XZ    0047f760 f   DisplayList.obj
 0002:00008ab0       ??0dl_element@@QAE@XZ      0047fab0 f i DisplayList.obj
 0002:00008b20       ??1dl_element@@QAE@XZ      0047fb20 f i DisplayList.obj
 0002:00008b80       ??1CDisplayList@@QAE@XZ    0047fb80 f   DisplayList.obj
 0002:00008c40       ?RemoveAll@CDisplayList@@QAEXXZ 0047fc40 f   DisplayList.obj
 0002:00008d80       ?SetMapping@CDisplayList@@QAEXPAVCRect@@0HHNHH@Z 0047fd80 f   DisplayList.obj
 0002:000090f0       ?AddSelector@CDisplayList@@QAEPAVdl_element@@Vid@@PAXHHPAUtagRECT@@HPAVCPoint@@HH@Z 004800f0 f   DisplayList.obj
 0002:000091c0       ?AddSelector@CDisplayList@@QAEXPAVdl_element@@@Z 004801c0 f   DisplayList.obj
 0002:00009220       ?Add@CDisplayList@@QAEPAVdl_element@@Vid@@PAXHHHPAUtagRECT@@HPAVCPoint@@HH@Z 00480220 f   DisplayList.obj
 0002:000096b0       ?HighLight@CDisplayList@@QAEXPAVdl_element@@@Z 004806b0 f   DisplayList.obj
 0002:00009710       ?HighlightAll@CDisplayList@@QAEHXZ 00480710 f   DisplayList.obj
 0002:000097c0       ?HighlightRect@CDisplayList@@QAEPAVdl_element@@PAUtagRECT@@HH@Z 004807c0 f   DisplayList.obj
 0002:00009940       ?HighlightSelRect@CDisplayList@@QAE?AUtagRECT@@H@Z 00480940 f   DisplayList.obj
 0002:00009a60       ?GetHighlightedBounds@CDisplayList@@QAE?AUtagRECT@@PAH@Z 00480a60 f   DisplayList.obj
 0002:00009d20       ?Cpy@CDisplayList@@QAEPAVdl_element@@PAV2@@Z 00480d20 f   DisplayList.obj
 0002:00009ed0       ?Move@CDisplayList@@QAEXPAVdl_element@@HH@Z 00480ed0 f   DisplayList.obj
 0002:00009fb0       ?Get_Start@CDisplayList@@QAEPAVdl_element@@XZ 00480fb0 f   DisplayList.obj
 0002:00009ff0       ?Get_End@CDisplayList@@QAEPAVdl_element@@XZ 00480ff0 f   DisplayList.obj
 0002:0000a030       ?Get_Rect@CDisplayList@@QAEPAUtagRECT@@PAVdl_element@@PAU2@@Z 00481030 f   DisplayList.obj
 0002:0000a0d0       ?Get_Points@CDisplayList@@QAEPAV?$CArray@VCPoint@@ABV1@@@PAVdl_element@@PAVCPoint@@PAHHH@Z 004810d0 f   DisplayList.obj
 0002:0000a220       ?Get_el_w@CDisplayList@@QAEHPAVdl_element@@@Z 00481220 f   DisplayList.obj
 0002:0000a270       ?Get_Selected@CDisplayList@@QAEHXZ 00481270 f   DisplayList.obj
 0002:0000a310       ?Set_RectGroup@CDisplayList@@QAEXPAVdl_element@@HHHH@Z 00481310 f   DisplayList.obj
 0002:0000a3a0       ?Get_RectGroup@CDisplayList@@QAEHPAVdl_element@@PAUtagRECT@@@Z 004813a0 f   DisplayList.obj
 0002:0000a450       ?Get_Endpoints@CDisplayList@@QAEXPAVCPoint@@0@Z 00481450 f   DisplayList.obj
 0002:0000a4f0       ?Remove@CDisplayList@@QAE?AVid@@PAVdl_element@@@Z 004814f0 f   DisplayList.obj
 0002:0000a6c0       ??_Gdl_element@@QAEPAXI@Z  004816c0 f i DisplayList.obj
 0002:0000a730       ?Draw@CDisplayList@@QAEXPAVCDC@@H@Z 00481730 f   DisplayList.obj
 0002:0000e000       ??_H@YGXPAXIHP6EPAX0@Z@Z   00485000 f i DisplayList.obj
 0002:0000e070       ?SetLayerRGB@CDisplayList@@QAEXHHHH@Z 00485070 f   DisplayList.obj
 0002:0000e0f0       ?SetLayerVisible@CDisplayList@@QAEXHH@Z 004850f0 f   DisplayList.obj
 0002:0000e140       ?TestSelect@CDisplayList@@QAEPAXHHPAVid@@PAH0PAX0H@Z 00485140 f   DisplayList.obj
 0002:0000f430       ??_Fid@@QAEXXZ             00486430 f i DisplayList.obj
 0002:0000f490       ?StartDraggingArray@CDisplayList@@QAEHPAVCDC@@HHH@Z 00486490 f   DisplayList.obj
 0002:0000f590       ?StartDraggingRectangle@CDisplayList@@QAEHPAVCDC@@HHHHHHH@Z 00486590 f   DisplayList.obj
 0002:0000f740       ?StartDraggingRatLine@CDisplayList@@QAEHPAVCDC@@HHHHHHH@Z 00486740 f   DisplayList.obj
 0002:0000f850       ?SetDragArcStyle@CDisplayList@@QAEXH@Z 00486850 f   DisplayList.obj
 0002:0000f8e0       ?StartDraggingArc@CDisplayList@@QAEHPAVCDC@@HHHHHHHH@Z 004868e0 f   DisplayList.obj
 0002:0000fa50       ?StartDraggingLine@CDisplayList@@QAEHPAVCDC@@HHHHHHHHHHHH@Z 00486a50 f   DisplayList.obj
 0002:0000fbf0       ?StartDraggingLineVertex@CDisplayList@@QAEHPAVCDC@@HHHHHHHHHHHHHHHHH@Z 00486bf0 f   DisplayList.obj
 0002:0000fe50       ?StartDraggingLineSegment@CDisplayList@@QAEHPAVCDC@@HHHHHHHHHHHHHHHHHHHHHHH@Z 00486e50 f   DisplayList.obj
 0002:000100f0       ?Drag@CDisplayList@@QAEXPAVCDC@@HH@Z 004870f0 f   DisplayList.obj
 0002:000128c0       ?StopDragging@CDisplayList@@QAEHXZ 004898c0 f   DisplayList.obj
 0002:00012950       ?ChangeRoutingLayer@CDisplayList@@QAEXPAVCDC@@HHH@Z 00489950 f   DisplayList.obj
 0002:00013120       ?IncrementDragAngle@CDisplayList@@QAEXPAVCDC@@@Z 0048a120 f   DisplayList.obj
 0002:000136c0       ?FlipDragSide@CDisplayList@@QAEXPAVCDC@@@Z 0048a6c0 f   DisplayList.obj
 0002:00013c90       ?GetDragSide@CDisplayList@@QAEHXZ 0048ac90 f   DisplayList.obj
 0002:00013cd0       ?GetDragAngle@CDisplayList@@QAEHXZ 0048acd0 f   DisplayList.obj
 0002:00013d10       ?MakeDragLineArray@CDisplayList@@QAEHH@Z 0048ad10 f   DisplayList.obj
 0002:00013df0       ?MakeDragRatlineArray@CDisplayList@@QAEHHH@Z 0048adf0 f   DisplayList.obj
 0002:00013f60       ?AddDragLine@CDisplayList@@QAEHVCPoint@@0@Z 0048af60 f   DisplayList.obj
 0002:00014090       ?AddDragRatline@CDisplayList@@QAEHVCPoint@@0@Z 0048b090 f   DisplayList.obj
 0002:000141b0       ?CancelHighLight@CDisplayList@@QAEHH@Z 0048b1b0 f   DisplayList.obj
 0002:00014300       ?SetDCToWorldCoords@CDisplayList@@QAEXPAVCDC@@00HH@Z 0048b300 f   DisplayList.obj
 0002:000146e0       ?SetVisibleGrid@CDisplayList@@QAEXHN@Z 0048b6e0 f   DisplayList.obj
 0002:00014740       ?SetStatic@CDisplayList@@QAEXH@Z 0048b740 f   DisplayList.obj
 0002:00014820       ?SetUpCrosshairs@CDisplayList@@QAEXHHH@Z 0048b820 f   DisplayList.obj
 0002:00014b50       ?WindowToPCB@CDisplayList@@QAE?AVCPoint@@V2@@Z 0048bb50 f   DisplayList.obj
 0002:00014c90       ?ScreenToPCB@CDisplayList@@QAE?AVCPoint@@V2@@Z 0048bc90 f   DisplayList.obj
 0002:00014d80       ?PCBToScreen@CDisplayList@@QAE?AVCPoint@@V2@@Z 0048bd80 f   DisplayList.obj
 0002:00014ed0       ?GetWindowRect@CDisplayList@@QAE?AUtagRECT@@XZ 0048bed0 f   DisplayList.obj
 0002:00014fc0       ??0?$CArray@VCPoint@@ABV1@@@QAE@XZ 0048bfc0 f i DisplayList.obj
 0002:00015050       ?GetSize@?$CArray@VCPoint@@ABV1@@@QBEHXZ 0048c050 f i DisplayList.obj
 0002:00015090       ??A?$CArray@VCPoint@@ABV1@@@QAEAAVCPoint@@H@Z 0048c090 f i DisplayList.obj
 0002:000150f0       ?ElementAt@?$CArray@VCPoint@@ABV1@@@QAEAAVCPoint@@H@Z 0048c0f0 f i DisplayList.obj
 0002:000151a0       ??8@YAHVid@@0@Z            0048c1a0 f i DisplayList.obj
 0002:00015230       ??1?$CArray@VCPoint@@ABV1@@@UAE@XZ 0048c230 f i DisplayList.obj
 0002:00015340       ?Serialize@?$CArray@VCPoint@@ABV1@@@UAEXAAVCArchive@@@Z 0048c340 f i DisplayList.obj
 0002:00015410       ?Dump@?$CArray@VCPoint@@ABV1@@@UBEXAAVCDumpContext@@@Z 0048c410 f i DisplayList.obj
 0002:000154f0       ?AssertValid@?$CArray@VCPoint@@ABV1@@@UBEXXZ 0048c4f0 f i DisplayList.obj
 0002:00015650       ??_G?$CArray@VCPoint@@ABV1@@@UAEPAXI@Z 0048c650 f i DisplayList.obj
 0002:00015650       ??_E?$CArray@VCPoint@@ABV1@@@UAEPAXI@Z 0048c650 f i DisplayList.obj
 0002:000156c0       ?SetSize@?$CArray@VCPoint@@ABV1@@@QAEXHH@Z 0048c6c0 f i DisplayList.obj
 0002:00015ce0       ??2@YAPAXIPAX@Z            0048cce0 f i DisplayList.obj
 0002:00015d20       ?memcpy_s@Checked@ATL@@YAXPAXIPBXI@Z 0048cd20 f i DisplayList.obj
 0002:00015da0       ?AfxCrtErrorCheck@@YAHH@Z  0048cda0 f i DisplayList.obj
 0002:00015eb0       ??$SerializeElements@VCPoint@@@@YGXAAVCArchive@@PAVCPoint@@H@Z 0048ceb0 f i DisplayList.obj
 0002:000160a0       ??$DumpElements@VCPoint@@@@YGXAAVCDumpContext@@PBVCPoint@@H@Z 0048d0a0 f i DisplayList.obj
 0002:00016190       ?_GetBaseClass@CDlgAddMaskCutout@@KGPAUCRuntimeClass@@XZ 0048d190 f   DlgAddMaskCutout.obj
 0002:000161e0       ?GetThisClass@CDlgAddMaskCutout@@SGPAUCRuntimeClass@@XZ 0048d1e0 f   DlgAddMaskCutout.obj
 0002:00016220       ?GetRuntimeClass@CDlgAddMaskCutout@@UBEPAUCRuntimeClass@@XZ 0048d220 f   DlgAddMaskCutout.obj
 0002:00016260       ??0CDlgAddMaskCutout@@QAE@PAVCWnd@@@Z 0048d260 f   DlgAddMaskCutout.obj
 0002:00016370       ??_ECDlgAddMaskCutout@@UAEPAXI@Z 0048d370 f i DlgAddMaskCutout.obj
 0002:00016370       ??_GCDlgAddMaskCutout@@UAEPAXI@Z 0048d370 f i DlgAddMaskCutout.obj
 0002:000163e0       ??1CDlgAddMaskCutout@@UAE@XZ 0048d3e0 f   DlgAddMaskCutout.obj
 0002:000164e0       ?Initialize@CDlgAddMaskCutout@@QAEXHHH@Z 0048d4e0 f   DlgAddMaskCutout.obj
 0002:00016550       ?DoDataExchange@CDlgAddMaskCutout@@MAEXPAVCDataExchange@@@Z 0048d550 f   DlgAddMaskCutout.obj
 0002:000168d0       ?GetMessageMap@CDlgAddMaskCutout@@MBEPBUAFX_MSGMAP@@XZ 0048d8d0 f   DlgAddMaskCutout.obj
 0002:00016920       ?GetThisMessageMap@CDlgAddMaskCutout@@KGPBUAFX_MSGMAP@@XZ 0048d920 f   DlgAddMaskCutout.obj
 0002:00016960       ?_GetBaseClass@CDlgAddMerge@@KGPAUCRuntimeClass@@XZ 0048d960 f   DlgAddMerge.obj
 0002:000169b0       ?GetThisClass@CDlgAddMerge@@SGPAUCRuntimeClass@@XZ 0048d9b0 f   DlgAddMerge.obj
 0002:000169f0       ?GetRuntimeClass@CDlgAddMerge@@UBEPAUCRuntimeClass@@XZ 0048d9f0 f   DlgAddMerge.obj
 0002:00016a30       ??0CDlgAddMerge@@QAE@PAVCWnd@@@Z 0048da30 f   DlgAddMerge.obj
 0002:00016b90       ??_ECDlgAddMerge@@UAEPAXI@Z 0048db90 f i DlgAddMerge.obj
 0002:00016b90       ??_GCDlgAddMerge@@UAEPAXI@Z 0048db90 f i DlgAddMerge.obj
 0002:00016c00       ??1CDlgAddMerge@@UAE@XZ    0048dc00 f   DlgAddMerge.obj
 0002:00016d10       ?DoDataExchange@CDlgAddMerge@@MAEXPAVCDataExchange@@@Z 0048dd10 f   DlgAddMerge.obj
 0002:000174e0       ?GetMessageMap@CDlgAddMerge@@MBEPBUAFX_MSGMAP@@XZ 0048e4e0 f   DlgAddMerge.obj
 0002:00017530       ?GetThisMessageMap@CDlgAddMerge@@KGPBUAFX_MSGMAP@@XZ 0048e530 f   DlgAddMerge.obj
 0002:00017570       ??8ATL@@YA_NABV?$CStringT@DV?$StrTraitMFC_DLL@DV?$ChTraitsCRT@D@ATL@@@@@0@PBD@Z 0048e570 f i DlgAddMerge.obj
 0002:000175e0       ?GetIndex@StrList@@QAEHV?$CStringT@DV?$StrTraitMFC_DLL@DV?$ChTraitsCRT@D@ATL@@@@@ATL@@@Z 0048e5e0 f i DlgAddMerge.obj
 0002:00017740       ?GetStr@StrList@@QAE?AV?$CStringT@DV?$StrTraitMFC_DLL@DV?$ChTraitsCRT@D@ATL@@@@@ATL@@H@Z 0048e740 f i DlgAddMerge.obj
 0002:00017830       ?GetSize@StrList@@QAEHXZ   0048e830 f i DlgAddMerge.obj
 0002:00017870       ??A?$CArray@V?$CStringT@DV?$StrTraitMFC_DLL@DV?$ChTraitsCRT@D@ATL@@@@@ATL@@ABV12@@@QAEAAV?$CStringT@DV?$StrTraitMFC_DLL@DV?$ChTraitsCRT@D@ATL@@@@@ATL@@H@Z 0048e870 f i DlgAddMerge.obj
 0002:000178d0       ?ElementAt@?$CArray@V?$CStringT@DV?$StrTraitMFC_DLL@DV?$ChTraitsCRT@D@ATL@@@@@ATL@@ABV12@@@QAEAAV?$CStringT@DV?$StrTraitMFC_DLL@DV?$ChTraitsCRT@D@ATL@@@@@ATL@@H@Z 0048e8d0 f i DlgAddMerge.obj
 0002:00017980       ?_GetBaseClass@CDlgAddPoly@@KGPAUCRuntimeClass@@XZ 0048e980 f   DlgAddPoly.obj
 0002:000179d0       ?GetThisClass@CDlgAddPoly@@SGPAUCRuntimeClass@@XZ 0048e9d0 f   DlgAddPoly.obj
 0002:00017a10       ?GetRuntimeClass@CDlgAddPoly@@UBEPAUCRuntimeClass@@XZ 0048ea10 f   DlgAddPoly.obj
 0002:00017a50       ??0CDlgAddPoly@@QAE@PAVCWnd@@@Z 0048ea50 f   DlgAddPoly.obj
 0002:00017b70       ??_GCDlgAddPoly@@UAEPAXI@Z 0048eb70 f i DlgAddPoly.obj
 0002:00017b70       ??_ECDlgAddPoly@@UAEPAXI@Z 0048eb70 f i DlgAddPoly.obj
 0002:00017be0       ??1CDlgAddPoly@@UAE@XZ     0048ebe0 f   DlgAddPoly.obj
 0002:00017ce0       ?DoDataExchange@CDlgAddPoly@@MAEXPAVCDataExchange@@@Z 0048ece0 f   DlgAddPoly.obj
 0002:00017f90       ?Initialize@CDlgAddPoly@@QAEXHHHHH@Z 0048ef90 f   DlgAddPoly.obj
 0002:00018040       ?GetMessageMap@CDlgAddPoly@@MBEPBUAFX_MSGMAP@@XZ 0048f040 f   DlgAddPoly.obj
 0002:00018090       ?GetThisMessageMap@CDlgAddPoly@@KGPBUAFX_MSGMAP@@XZ 0048f090 f   DlgAddPoly.obj
 0002:000180d0       ?GetFields@CDlgAddPoly@@AAEXXZ 0048f0d0 f   DlgAddPoly.obj
 0002:00018290       ?SetFields@CDlgAddPoly@@AAEXXZ 0048f290 f   DlgAddPoly.obj
 0002:00018450       ?OnCbnSelchangeComboAddPolyUnits@CDlgAddPoly@@AAEXXZ 0048f450 f   DlgAddPoly.obj
 0002:000184f0       ?_GetBaseClass@CDlgAddText@@KGPAUCRuntimeClass@@XZ 0048f4f0 f   DlgAddText.obj
 0002:00018540       ?GetThisClass@CDlgAddText@@SGPAUCRuntimeClass@@XZ 0048f540 f   DlgAddText.obj
 0002:00018580       ?GetRuntimeClass@CDlgAddText@@UBEPAUCRuntimeClass@@XZ 0048f580 f   DlgAddText.obj
 0002:000185c0       ??0CDlgAddText@@QAE@PAVCWnd@@@Z 0048f5c0 f   DlgAddText.obj
 0002:000187e0       ??_ECDlgAddText@@UAEPAXI@Z 0048f7e0 f i DlgAddText.obj
 0002:000187e0       ??_GCDlgAddText@@UAEPAXI@Z 0048f7e0 f i DlgAddText.obj
 0002:00018850       ??1CDlgAddText@@UAE@XZ     0048f850 f   DlgAddText.obj
 0002:00018a40       ?DoDataExchange@CDlgAddText@@MAEXPAVCDataExchange@@@Z 0048fa40 f   DlgAddText.obj
 0002:00018de0       ?GetMessageMap@CDlgAddText@@MBEPBUAFX_MSGMAP@@XZ 0048fde0 f   DlgAddText.obj
 0002:00018e30       ?GetThisMessageMap@CDlgAddText@@KGPBUAFX_MSGMAP@@XZ 0048fe30 f   DlgAddText.obj
 0002:00018e70       ?Initialize@CDlgAddText@@QAEXHHPAV?$CStringT@DV?$StrTraitMFC_DLL@DV?$ChTraitsCRT@D@ATL@@@@@ATL@@HHHHHH@Z 0048fe70 f   DlgAddText.obj
 0002:00019030       ?OnInitDialog@CDlgAddText@@UAEHXZ 00490030 f   DlgAddText.obj
 0002:00019210       ?OnBnClickedSetWidth@CDlgAddText@@QAEXXZ 00490210 f   DlgAddText.obj
 0002:00019270       ?OnBnClickedDefWidth@CDlgAddText@@QAEXXZ 00490270 f   DlgAddText.obj
 0002:000192d0       ?OnEnChangeEditHeight@CDlgAddText@@QAEXXZ 004902d0 f   DlgAddText.obj
 0002:00019570       ?OnBnClickedOk@CDlgAddText@@QAEXXZ 00490570 f   DlgAddText.obj
 0002:00019640       ?OnBnClickedSetPosition@CDlgAddText@@QAEXXZ 00490640 f   DlgAddText.obj
 0002:000196a0       ?OnBnClickedDrag@CDlgAddText@@QAEXXZ 004906a0 f   DlgAddText.obj
 0002:00019700       ?OnCbnSelchangeComboAddTextUnits@CDlgAddText@@QAEXXZ 00490700 f   DlgAddText.obj
 0002:000197c0       ?GetFields@CDlgAddText@@QAEXXZ 004907c0 f   DlgAddText.obj
 0002:00019b40       ?SetFields@CDlgAddText@@QAEXXZ 00490b40 f   DlgAddText.obj
 0002:0001a040       ?OnLbnSelchangeListLayer@CDlgAddText@@QAEXXZ 00491040 f   DlgAddText.obj
 0002:0001a0a0       ?_GetBaseClass@CDlgAddWidth@@KGPAUCRuntimeClass@@XZ 004910a0 f   DlgAddWidth.obj
 0002:0001a0f0       ?GetThisClass@CDlgAddWidth@@SGPAUCRuntimeClass@@XZ 004910f0 f   DlgAddWidth.obj
 0002:0001a130       ?GetRuntimeClass@CDlgAddWidth@@UBEPAUCRuntimeClass@@XZ 00491130 f   DlgAddWidth.obj
 0002:0001a170       ??0CDlgAddWidth@@QAE@PAVCWnd@@@Z 00491170 f   DlgAddWidth.obj
 0002:0001a1e0       ??_GCDlgAddWidth@@UAEPAXI@Z 004911e0 f i DlgAddWidth.obj
 0002:0001a1e0       ??_ECDlgAddWidth@@UAEPAXI@Z 004911e0 f i DlgAddWidth.obj
 0002:0001a250       ??1CDlgAddWidth@@UAE@XZ    00491250 f   DlgAddWidth.obj
 0002:0001a2b0       ?DoDataExchange@CDlgAddWidth@@MAEXPAVCDataExchange@@@Z 004912b0 f   DlgAddWidth.obj
 0002:0001a660       ?GetMessageMap@CDlgAddWidth@@MBEPBUAFX_MSGMAP@@XZ 00491660 f   DlgAddWidth.obj
 0002:0001a6b0       ?GetThisMessageMap@CDlgAddWidth@@KGPBUAFX_MSGMAP@@XZ 004916b0 f   DlgAddWidth.obj
 0002:0001a6f0       ?_GetBaseClass@CDlgCAD@@KGPAUCRuntimeClass@@XZ 004916f0 f   DlgCAD.obj
 0002:0001a740       ?GetThisClass@CDlgCAD@@SGPAUCRuntimeClass@@XZ 00491740 f   DlgCAD.obj
 0002:0001a780       ?GetRuntimeClass@CDlgCAD@@UBEPAUCRuntimeClass@@XZ 00491780 f   DlgCAD.obj
 0002:0001a7c0       ??0CDlgCAD@@QAE@PAVCWnd@@@Z 004917c0 f   DlgCAD.obj
 0002:0001ac60       ??_ECDlgCAD@@UAEPAXI@Z     00491c60 f i DlgCAD.obj
 0002:0001ac60       ??_GCDlgCAD@@UAEPAXI@Z     00491c60 f i DlgCAD.obj
 0002:0001acd0       ??1CDlgCAD@@UAE@XZ         00491cd0 f   DlgCAD.obj
 0002:0001b130       ?DoDataExchange@CDlgCAD@@MAEXPAVCDataExchange@@@Z 00492130 f   DlgCAD.obj
 0002:0001b800       ?GetMessageMap@CDlgCAD@@MBEPBUAFX_MSGMAP@@XZ 00492800 f   DlgCAD.obj
 0002:0001b850       ?GetThisMessageMap@CDlgCAD@@KGPBUAFX_MSGMAP@@XZ 00492850 f   DlgCAD.obj
 0002:0001b890       ?Initialize@CDlgCAD@@QAEXNPAV?$CStringT@DV?$StrTraitMFC_DLL@DV?$ChTraitsCRT@D@ATL@@@@@ATL@@000HHHHHHHHPAV?$CArray@VCPolyLine@@ABV1@@@PAUCAttrib@@PAVCDisplayList@@PAVStrList@@PAVCDlgLog@@@Z 00492890 f   DlgCAD.obj
 0002:0001bb10       ?OnBnClickedGo@CDlgCAD@@QAEXXZ 00492b10 f   DlgCAD.obj
 0002:0001d620       ?GetFields@CDlgCAD@@QAEXXZ 00494620 f   DlgCAD.obj
 0002:0001e0b0       ?SetFields@CDlgCAD@@QAEXXZ 004950b0 f   DlgCAD.obj
 0002:0001e920       ?OnCbnSelchangeComboCadUnits@CDlgCAD@@QAEXXZ 00495920 f   DlgCAD.obj
 0002:0001e9c0       ?OnBnClickedCancel@CDlgCAD@@QAEXXZ 004959c0 f   DlgCAD.obj
 0002:0001ea30       ?OnBnClickedButtonDef@CDlgCAD@@QAEXXZ 00495a30 f   DlgCAD.obj
 0002:0001f0e0       ?OnBnClickedButtonFolder@CDlgCAD@@QAEXXZ 004960e0 f   DlgCAD.obj
 0002:0001f360       ??1CPathDialog@@QAE@XZ     00496360 f i DlgCAD.obj
 0002:0001f3c0       ??1CPathDialogSub@@UAE@XZ  004963c0 f i DlgCAD.obj
 0002:0001f410       ?OnBnClickedButtonDone@CDlgCAD@@QAEXXZ 00496410 f   DlgCAD.obj
 0002:0001f4a0       ?OnChangeViewer@CDlgCAD@@QAEXXZ 004964a0 f   DlgCAD.obj
 0002:0001f600       ??HATL@@YA?AV?$CStringT@DV?$StrTraitMFC_DLL@DV?$ChTraitsCRT@D@ATL@@@@@0@ABV10@0@Z 00496600 f i DlgCAD.obj
 0002:0001f7c0       ??HATL@@YA?AV?$CStringT@DV?$StrTraitMFC_DLL@DV?$ChTraitsCRT@D@ATL@@@@@0@ABV10@PBD@Z 004967c0 f i DlgCAD.obj
 0002:0001f970       ??HATL@@YA?AV?$CStringT@DV?$StrTraitMFC_DLL@DV?$ChTraitsCRT@D@ATL@@@@@0@PBDABV10@@Z 00496970 f i DlgCAD.obj
 0002:0001fbe0       ?_GetBaseClass@CDlgChangeLayer@@KGPAUCRuntimeClass@@XZ 00496be0 f   DlgChangeLayer.obj
 0002:0001fc30       ?GetThisClass@CDlgChangeLayer@@SGPAUCRuntimeClass@@XZ 00496c30 f   DlgChangeLayer.obj
 0002:0001fc70       ?GetRuntimeClass@CDlgChangeLayer@@UBEPAUCRuntimeClass@@XZ 00496c70 f   DlgChangeLayer.obj
 0002:0001fcb0       ??0CDlgChangeLayer@@QAE@PAVCWnd@@@Z 00496cb0 f   DlgChangeLayer.obj
 0002:0001fdc0       ??_GCDlgChangeLayer@@UAEPAXI@Z 00496dc0 f i DlgChangeLayer.obj
 0002:0001fdc0       ??_ECDlgChangeLayer@@UAEPAXI@Z 00496dc0 f i DlgChangeLayer.obj
 0002:0001fe30       ??1CDlgChangeLayer@@UAE@XZ 00496e30 f   DlgChangeLayer.obj
 0002:0001ff30       ?DoDataExchange@CDlgChangeLayer@@MAEXPAVCDataExchange@@@Z 00496f30 f   DlgChangeLayer.obj
 0002:000201a0       ?GetMessageMap@CDlgChangeLayer@@MBEPBUAFX_MSGMAP@@XZ 004971a0 f   DlgChangeLayer.obj
 0002:000201f0       ?GetThisMessageMap@CDlgChangeLayer@@KGPBUAFX_MSGMAP@@XZ 004971f0 f   DlgChangeLayer.obj
 0002:00020230       ?Initialize@CDlgChangeLayer@@QAEXHHH@Z 00497230 f   DlgChangeLayer.obj
 0002:00020290       ?_GetBaseClass@CDlgChooseNetName@@KGPAUCRuntimeClass@@XZ 00497290 f   DlgChooseNetName.obj
 0002:000202e0       ?GetThisClass@CDlgChooseNetName@@SGPAUCRuntimeClass@@XZ 004972e0 f   DlgChooseNetName.obj
 0002:00020320       ?GetRuntimeClass@CDlgChooseNetName@@UBEPAUCRuntimeClass@@XZ 00497320 f   DlgChooseNetName.obj
 0002:00020360       ??0CDlgChooseNetName@@QAE@PAVCWnd@@@Z 00497360 f   DlgChooseNetName.obj
 0002:00020450       ??_GCDlgChooseNetName@@UAEPAXI@Z 00497450 f i DlgChooseNetName.obj
 0002:00020450       ??_ECDlgChooseNetName@@UAEPAXI@Z 00497450 f i DlgChooseNetName.obj
 0002:000204c0       ??1CDlgChooseNetName@@UAE@XZ 004974c0 f   DlgChooseNetName.obj
 0002:00020590       ?DoDataExchange@CDlgChooseNetName@@MAEXPAVCDataExchange@@@Z 00497590 f   DlgChooseNetName.obj
 0002:00020770       ?Initialize@CDlgChooseNetName@@QAEXPAV?$CArray@V?$CStringT@DV?$StrTraitMFC_DLL@DV?$ChTraitsCRT@D@ATL@@@@@ATL@@ABV12@@@@Z 00497770 f   DlgChooseNetName.obj
 0002:000207c0       ?GetMessageMap@CDlgChooseNetName@@MBEPBUAFX_MSGMAP@@XZ 004977c0 f   DlgChooseNetName.obj
 0002:00020810       ?GetThisMessageMap@CDlgChooseNetName@@KGPBUAFX_MSGMAP@@XZ 00497810 f   DlgChooseNetName.obj
 0002:00020850       ?GetSize@?$CArray@V?$CStringT@DV?$StrTraitMFC_DLL@DV?$ChTraitsCRT@D@ATL@@@@@ATL@@ABV12@@@QBEHXZ 00497850 f i DlgChooseNetName.obj
 0002:00020890       ?_GetBaseClass@DlgDRC@@KGPAUCRuntimeClass@@XZ 00497890 f   DlgDRC.obj
 0002:000208e0       ?GetThisClass@DlgDRC@@SGPAUCRuntimeClass@@XZ 004978e0 f   DlgDRC.obj
 0002:00020920       ?GetRuntimeClass@DlgDRC@@UBEPAUCRuntimeClass@@XZ 00497920 f   DlgDRC.obj
 0002:00020960       ??0DlgDRC@@QAE@PAVCWnd@@@Z 00497960 f   DlgDRC.obj
 0002:00020b60       ??_GDlgDRC@@UAEPAXI@Z      00497b60 f i DlgDRC.obj
 0002:00020b60       ??_EDlgDRC@@UAEPAXI@Z      00497b60 f i DlgDRC.obj
 0002:00020bd0       ??1DlgDRC@@UAE@XZ          00497bd0 f   DlgDRC.obj
 0002:00020db0       ?DoDataExchange@DlgDRC@@MAEXPAVCDataExchange@@@Z 00497db0 f   DlgDRC.obj
 0002:00021000       ?GetMessageMap@DlgDRC@@MBEPBUAFX_MSGMAP@@XZ 00498000 f   DlgDRC.obj
 0002:00021050       ?GetThisMessageMap@DlgDRC@@KGPBUAFX_MSGMAP@@XZ 00498050 f   DlgDRC.obj
 0002:00021090       ?Initialize@DlgDRC@@QAEXHPAUDesignRules@@PAVDRErrorList@@HPAV?$CArray@VCPolyLine@@ABV1@@@PAVCDlgLog@@V?$CStringT@DV?$StrTraitMFC_DLL@DV?$ChTraitsCRT@D@ATL@@@@@ATL@@@Z 00498090 f   DlgDRC.obj
 0002:000211e0       ?GetFields@DlgDRC@@QAEXXZ  004981e0 f   DlgDRC.obj
 0002:00021b20       ?SetFields@DlgDRC@@QAEXXZ  00498b20 f   DlgDRC.obj
 0002:00022360       ?OnCbnChangeUnits@DlgDRC@@QAEXXZ 00499360 f   DlgDRC.obj
 0002:000224c0       ?OnBnClickedCancel@DlgDRC@@QAEXXZ 004994c0 f   DlgDRC.obj
 0002:00022530       ?OnBnClickedOk@DlgDRC@@QAEXXZ 00499530 f   DlgDRC.obj
 0002:000225c0       ?OnBnClickedCheck@DlgDRC@@QAEXXZ 004995c0 f   DlgDRC.obj
 0002:00022600       ?_GetBaseClass@CDlgDupFootprintName@@KGPAUCRuntimeClass@@XZ 00499600 f   DlgDupFootprintName.obj
 0002:00022650       ?GetThisClass@CDlgDupFootprintName@@SGPAUCRuntimeClass@@XZ 00499650 f   DlgDupFootprintName.obj
 0002:00022690       ?GetRuntimeClass@CDlgDupFootprintName@@UBEPAUCRuntimeClass@@XZ 00499690 f   DlgDupFootprintName.obj
 0002:000226d0       ??0CDlgDupFootprintName@@QAE@PAVCWnd@@@Z 004996d0 f   DlgDupFootprintName.obj
 0002:00022800       ??_GCDlgDupFootprintName@@UAEPAXI@Z 00499800 f i DlgDupFootprintName.obj
 0002:00022800       ??_ECDlgDupFootprintName@@UAEPAXI@Z 00499800 f i DlgDupFootprintName.obj
 0002:00022870       ??1CDlgDupFootprintName@@UAE@XZ 00499870 f   DlgDupFootprintName.obj
 0002:00022990       ?DoDataExchange@CDlgDupFootprintName@@MAEXPAVCDataExchange@@@Z 00499990 f   DlgDupFootprintName.obj
 0002:00022be0       ?GetMessageMap@CDlgDupFootprintName@@MBEPBUAFX_MSGMAP@@XZ 00499be0 f   DlgDupFootprintName.obj
 0002:00022c30       ?GetThisMessageMap@CDlgDupFootprintName@@KGPBUAFX_MSGMAP@@XZ 00499c30 f   DlgDupFootprintName.obj
 0002:00022c70       ?Initialize@CDlgDupFootprintName@@QAEXPAV?$CStringT@DV?$StrTraitMFC_DLL@DV?$ChTraitsCRT@D@ATL@@@@@ATL@@PAVCMapStringToPtr@@@Z 00499c70 f   DlgDupFootprintName.obj
 0002:00022cd0       ?OnBnClickedRadioReplaceAll@CDlgDupFootprintName@@QAEXXZ 00499cd0 f   DlgDupFootprintName.obj
 0002:00022d30       ?OnBnClickedRadioReplaceThis@CDlgDupFootprintName@@QAEXXZ 00499d30 f   DlgDupFootprintName.obj
 0002:00022d90       ?OnBnClickedOk@CDlgDupFootprintName@@QAEXXZ 00499d90 f   DlgDupFootprintName.obj
 0002:00022e10       ?_GetBaseClass@DlgEditBoardCorner@@KGPAUCRuntimeClass@@XZ 00499e10 f   DlgEditBoardCorner.obj
 0002:00022e60       ?GetThisClass@DlgEditBoardCorner@@SGPAUCRuntimeClass@@XZ 00499e60 f   DlgEditBoardCorner.obj
 0002:00022ea0       ?GetRuntimeClass@DlgEditBoardCorner@@UBEPAUCRuntimeClass@@XZ 00499ea0 f   DlgEditBoardCorner.obj
 0002:00022ee0       ??0DlgEditBoardCorner@@QAE@PAVCWnd@@@Z 00499ee0 f   DlgEditBoardCorner.obj
 0002:00023020       ??_GDlgEditBoardCorner@@UAEPAXI@Z 0049a020 f i DlgEditBoardCorner.obj
 0002:00023020       ??_EDlgEditBoardCorner@@UAEPAXI@Z 0049a020 f i DlgEditBoardCorner.obj
 0002:00023090       ??1DlgEditBoardCorner@@UAE@XZ 0049a090 f   DlgEditBoardCorner.obj
 0002:00023170       ?DoDataExchange@DlgEditBoardCorner@@MAEXPAVCDataExchange@@@Z 0049a170 f   DlgEditBoardCorner.obj
 0002:000232f0       ?Init@DlgEditBoardCorner@@QAEXPAV?$CStringT@DV?$StrTraitMFC_DLL@DV?$ChTraitsCRT@D@ATL@@@@@ATL@@HHH@Z 0049a2f0 f   DlgEditBoardCorner.obj
 0002:00023370       ?GetMessageMap@DlgEditBoardCorner@@MBEPBUAFX_MSGMAP@@XZ 0049a370 f   DlgEditBoardCorner.obj
 0002:000233c0       ?GetThisMessageMap@DlgEditBoardCorner@@KGPBUAFX_MSGMAP@@XZ 0049a3c0 f   DlgEditBoardCorner.obj
 0002:00023400       ?OnCbnSelchangeComboCornerUnits@DlgEditBoardCorner@@QAEXXZ 0049a400 f   DlgEditBoardCorner.obj
 0002:000234a0       ?GetFields@DlgEditBoardCorner@@AAEXXZ 0049a4a0 f   DlgEditBoardCorner.obj
 0002:000236c0       ?SetFields@DlgEditBoardCorner@@AAEXXZ 0049a6c0 f   DlgEditBoardCorner.obj
 0002:00023920       ?_GetBaseClass@CDlgExportDsn@@KGPAUCRuntimeClass@@XZ 0049a920 f   DlgExportDsn.obj
 0002:00023970       ?GetThisClass@CDlgExportDsn@@SGPAUCRuntimeClass@@XZ 0049a970 f   DlgExportDsn.obj
 0002:000239b0       ?GetRuntimeClass@CDlgExportDsn@@UBEPAUCRuntimeClass@@XZ 0049a9b0 f   DlgExportDsn.obj
 0002:000239f0       ??0CDlgExportDsn@@QAE@PAVCWnd@@@Z 0049a9f0 f   DlgExportDsn.obj
 0002:00023ba0       ??_ECDlgExportDsn@@UAEPAXI@Z 0049aba0 f i DlgExportDsn.obj
 0002:00023ba0       ??_GCDlgExportDsn@@UAEPAXI@Z 0049aba0 f i DlgExportDsn.obj
 0002:00023c10       ??1CDlgExportDsn@@UAE@XZ   0049ac10 f   DlgExportDsn.obj
 0002:00023d90       ?DoDataExchange@CDlgExportDsn@@MAEXPAVCDataExchange@@@Z 0049ad90 f   DlgExportDsn.obj
 0002:00024340       ?GetMessageMap@CDlgExportDsn@@MBEPBUAFX_MSGMAP@@XZ 0049b340 f   DlgExportDsn.obj
 0002:00024390       ?GetThisMessageMap@CDlgExportDsn@@KGPBUAFX_MSGMAP@@XZ 0049b390 f   DlgExportDsn.obj
 0002:000243d0       ?Initialize@CDlgExportDsn@@QAEXPAV?$CStringT@DV?$StrTraitMFC_DLL@DV?$ChTraitsCRT@D@ATL@@@@@ATL@@HHHH@Z 0049b3d0 f   DlgExportDsn.obj
 0002:00024480       ?OnBnClickedOk@CDlgExportDsn@@QAEXXZ 0049b480 f   DlgExportDsn.obj
 0002:000244f0       ?OnBnClickedCheckFromTo@CDlgExportDsn@@QAEXXZ 0049b4f0 f   DlgExportDsn.obj
 0002:000245e0       ?OnBnClickedRadioAll@CDlgExportDsn@@QAEXXZ 0049b5e0 f   DlgExportDsn.obj
 0002:00024620       ?OnBnClickedRadioLocked@CDlgExportDsn@@QAEXXZ 0049b620 f   DlgExportDsn.obj
 0002:00024660       ?OnBnClickedRadioNetLocked@CDlgExportDsn@@QAEXXZ 0049b660 f   DlgExportDsn.obj
 0002:000246a0       ?_GetBaseClass@CDlgFindPart@@KGPAUCRuntimeClass@@XZ 0049b6a0 f   DlgFindPart.obj
 0002:000246f0       ?GetThisClass@CDlgFindPart@@SGPAUCRuntimeClass@@XZ 0049b6f0 f   DlgFindPart.obj
 0002:00024730       ?GetRuntimeClass@CDlgFindPart@@UBEPAUCRuntimeClass@@XZ 0049b730 f   DlgFindPart.obj
 0002:00024770       ??0CDlgFindPart@@QAE@PAVCWnd@@@Z 0049b770 f   DlgFindPart.obj
 0002:00024880       ??_ECDlgFindPart@@UAEPAXI@Z 0049b880 f i DlgFindPart.obj
 0002:00024880       ??_GCDlgFindPart@@UAEPAXI@Z 0049b880 f i DlgFindPart.obj
 0002:000248f0       ??1CDlgFindPart@@UAE@XZ    0049b8f0 f   DlgFindPart.obj
 0002:000249f0       ?DoDataExchange@CDlgFindPart@@MAEXPAVCDataExchange@@@Z 0049b9f0 f   DlgFindPart.obj
 0002:00024fc0       ?GetMessageMap@CDlgFindPart@@MBEPBUAFX_MSGMAP@@XZ 0049bfc0 f   DlgFindPart.obj
 0002:00025010       ?GetThisMessageMap@CDlgFindPart@@KGPBUAFX_MSGMAP@@XZ 0049c010 f   DlgFindPart.obj
 0002:00025050       ?Initialize@CDlgFindPart@@QAEXPAV?$CArray@V?$CStringT@DV?$StrTraitMFC_DLL@DV?$ChTraitsCRT@D@ATL@@@@@ATL@@ABV12@@@H@Z 0049c050 f   DlgFindPart.obj
 0002:000250b0       ?GetAt@?$CArray@V?$CStringT@DV?$StrTraitMFC_DLL@DV?$ChTraitsCRT@D@ATL@@@@@ATL@@ABV12@@@QAEAAV?$CStringT@DV?$StrTraitMFC_DLL@DV?$ChTraitsCRT@D@ATL@@@@@ATL@@H@Z 0049c0b0 f i DlgFindPart.obj
 0002:00025160       ?_GetBaseClass@CDlgHole@@KGPAUCRuntimeClass@@XZ 0049c160 f   DlgHole.obj
 0002:000251b0       ?GetThisClass@CDlgHole@@SGPAUCRuntimeClass@@XZ 0049c1b0 f   DlgHole.obj
 0002:000251f0       ?GetRuntimeClass@CDlgHole@@UBEPAUCRuntimeClass@@XZ 0049c1f0 f   DlgHole.obj
 0002:00025230       ??0CDlgHole@@QAE@PAVCWnd@@@Z 0049c230 f   DlgHole.obj
 0002:00025390       ??_ECDlgHole@@UAEPAXI@Z    0049c390 f i DlgHole.obj
 0002:00025390       ??_GCDlgHole@@UAEPAXI@Z    0049c390 f i DlgHole.obj
 0002:00025400       ??1CDlgHole@@UAE@XZ        0049c400 f   DlgHole.obj
 0002:00025550       ?DoDataExchange@CDlgHole@@MAEXPAVCDataExchange@@@Z 0049c550 f   DlgHole.obj
 0002:000256f0       ?GetMessageMap@CDlgHole@@MBEPBUAFX_MSGMAP@@XZ 0049c6f0 f   DlgHole.obj
 0002:00025740       ?GetThisMessageMap@CDlgHole@@KGPBUAFX_MSGMAP@@XZ 0049c740 f   DlgHole.obj
 0002:00025780       ?Initialize@CDlgHole@@QAEXHHHHH@Z 0049c780 f   DlgHole.obj
 0002:00025820       ?SetFields@CDlgHole@@QAEXXZ 0049c820 f   DlgHole.obj
 0002:00025b40       ?GetFields@CDlgHole@@QAEXXZ 0049cb40 f   DlgHole.obj
 0002:00025d40       ?OnCbnSelChangeCombo1@CDlgHole@@QAEXXZ 0049cd40 f   DlgHole.obj
 0002:00025de0       ?OnBnClickedSet@CDlgHole@@QAEXXZ 0049cde0 f   DlgHole.obj
 0002:00025e40       ?OnBnClickedDrag@CDlgHole@@QAEXXZ 0049ce40 f   DlgHole.obj
 0002:00025ea0       ?OnBnClickedPlated@CDlgHole@@QAEXXZ 0049cea0 f   DlgHole.obj
 0002:00025f00       ?OnBnClickedUnplated@CDlgHole@@QAEXXZ 0049cf00 f   DlgHole.obj
 0002:00025f60       ?_GetBaseClass@CDlgImportOptions@@KGPAUCRuntimeClass@@XZ 0049cf60 f   DlgImportOptions.obj
 0002:00025fb0       ?GetThisClass@CDlgImportOptions@@SGPAUCRuntimeClass@@XZ 0049cfb0 f   DlgImportOptions.obj
 0002:00025ff0       ?GetRuntimeClass@CDlgImportOptions@@UBEPAUCRuntimeClass@@XZ 0049cff0 f   DlgImportOptions.obj
 0002:00026030       ??0CDlgImportOptions@@QAE@PAVCWnd@@@Z 0049d030 f   DlgImportOptions.obj
 0002:000261e0       ??_GCDlgImportOptions@@UAEPAXI@Z 0049d1e0 f i DlgImportOptions.obj
 0002:000261e0       ??_ECDlgImportOptions@@UAEPAXI@Z 0049d1e0 f i DlgImportOptions.obj
 0002:00026250       ??1CDlgImportOptions@@UAE@XZ 0049d250 f   DlgImportOptions.obj
 0002:000263f0       ?DoDataExchange@CDlgImportOptions@@MAEXPAVCDataExchange@@@Z 0049d3f0 f   DlgImportOptions.obj
 0002:00026a70       ?GetMessageMap@CDlgImportOptions@@MBEPBUAFX_MSGMAP@@XZ 0049da70 f   DlgImportOptions.obj
 0002:00026ac0       ?GetThisMessageMap@CDlgImportOptions@@KGPBUAFX_MSGMAP@@XZ 0049dac0 f   DlgImportOptions.obj
 0002:00026b00       ?Initialize@CDlgImportOptions@@QAEXH@Z 0049db00 f   DlgImportOptions.obj
 0002:00026b50       ?OnBnClickedSaveAndImport@CDlgImportOptions@@QAEXXZ 0049db50 f   DlgImportOptions.obj
 0002:00026be0       ?OnBnClickedOk@CDlgImportOptions@@QAEXXZ 0049dbe0 f   DlgImportOptions.obj
 0002:00026c70       ?_GetBaseClass@CDlgImportSes@@KGPAUCRuntimeClass@@XZ 0049dc70 f   DlgImportSes.obj
 0002:00026cc0       ?GetThisClass@CDlgImportSes@@SGPAUCRuntimeClass@@XZ 0049dcc0 f   DlgImportSes.obj
 0002:00026d00       ?GetRuntimeClass@CDlgImportSes@@UBEPAUCRuntimeClass@@XZ 0049dd00 f   DlgImportSes.obj
 0002:00026d40       ??0CDlgImportSes@@QAE@PAVCWnd@@@Z 0049dd40 f   DlgImportSes.obj
 0002:00026e90       ??_GCDlgImportSes@@UAEPAXI@Z 0049de90 f i DlgImportSes.obj
 0002:00026e90       ??_ECDlgImportSes@@UAEPAXI@Z 0049de90 f i DlgImportSes.obj
 0002:00026f00       ??1CDlgImportSes@@UAE@XZ   0049df00 f   DlgImportSes.obj
 0002:00027030       ?DoDataExchange@CDlgImportSes@@MAEXPAVCDataExchange@@@Z 0049e030 f   DlgImportSes.obj
 0002:00027330       ?GetMessageMap@CDlgImportSes@@MBEPBUAFX_MSGMAP@@XZ 0049e330 f   DlgImportSes.obj
 0002:00027380       ?GetThisMessageMap@CDlgImportSes@@KGPBUAFX_MSGMAP@@XZ 0049e380 f   DlgImportSes.obj
 0002:000273c0       ?Initialize@CDlgImportSes@@QAEXPAV?$CStringT@DV?$StrTraitMFC_DLL@DV?$ChTraitsCRT@D@ATL@@@@@ATL@@0PAVCFreePcbDoc@@@Z 0049e3c0 f   DlgImportSes.obj
 0002:00027470       ?OnBnClickedButtonDef@CDlgImportSes@@QAEXXZ 0049e470 f   DlgImportSes.obj
 0002:00027510       ?OnBnClickedButtonBrowse@CDlgImportSes@@QAEXXZ 0049e510 f   DlgImportSes.obj
 0002:000276b0       ?_GetBaseClass@CDlgIndexing@@KGPAUCRuntimeClass@@XZ 0049e6b0 f   DlgIndexing.obj
 0002:00027700       ?GetThisClass@CDlgIndexing@@SGPAUCRuntimeClass@@XZ 0049e700 f   DlgIndexing.obj
 0002:00027740       ?GetRuntimeClass@CDlgIndexing@@UBEPAUCRuntimeClass@@XZ 0049e740 f   DlgIndexing.obj
 0002:00027780       ??0CDlgIndexing@@QAE@PAVCWnd@@@Z 0049e780 f   DlgIndexing.obj
 0002:000277f0       ??_GCDlgIndexing@@UAEPAXI@Z 0049e7f0 f i DlgIndexing.obj
 0002:000277f0       ??_ECDlgIndexing@@UAEPAXI@Z 0049e7f0 f i DlgIndexing.obj
 0002:00027860       ??1CDlgIndexing@@UAE@XZ    0049e860 f   DlgIndexing.obj
 0002:000278c0       ?DoDataExchange@CDlgIndexing@@MAEXPAVCDataExchange@@@Z 0049e8c0 f   DlgIndexing.obj
 0002:00027920       ?GetMessageMap@CDlgIndexing@@MBEPBUAFX_MSGMAP@@XZ 0049e920 f   DlgIndexing.obj
 0002:00027970       ?GetThisMessageMap@CDlgIndexing@@KGPBUAFX_MSGMAP@@XZ 0049e970 f   DlgIndexing.obj
 0002:000279b0       ?_GetBaseClass@CDlgLayers@@KGPAUCRuntimeClass@@XZ 0049e9b0 f   DlgLayers.obj
 0002:00027a00       ?GetThisClass@CDlgLayers@@SGPAUCRuntimeClass@@XZ 0049ea00 f   DlgLayers.obj
 0002:00027a40       ?GetRuntimeClass@CDlgLayers@@UBEPAUCRuntimeClass@@XZ 0049ea40 f   DlgLayers.obj
 0002:00027a80       ??0CDlgLayers@@QAE@PAVCWnd@@@Z 0049ea80 f   DlgLayers.obj
 0002:00027b50       ??_ECDlgLayers@@UAEPAXI@Z  0049eb50 f i DlgLayers.obj
 0002:00027b50       ??_GCDlgLayers@@UAEPAXI@Z  0049eb50 f i DlgLayers.obj
 0002:00027bc0       ??1CDlgLayers@@UAE@XZ      0049ebc0 f   DlgLayers.obj
 0002:00027c80       ?DoDataExchange@CDlgLayers@@MAEXPAVCDataExchange@@@Z 0049ec80 f   DlgLayers.obj
 0002:00027e50       ?GetMessageMap@CDlgLayers@@MBEPBUAFX_MSGMAP@@XZ 0049ee50 f   DlgLayers.obj
 0002:00027ea0       ?GetThisMessageMap@CDlgLayers@@KGPBUAFX_MSGMAP@@XZ 0049eea0 f   DlgLayers.obj
 0002:00027ee0       ?Initialize@CDlgLayers@@QAEXHQAHQAY02HH@Z 0049eee0 f   DlgLayers.obj
 0002:00028000       ?OnCtlColor@CDlgLayers@@QAEPAUHBRUSH__@@PAVCDC@@PAVCWnd@@I@Z 0049f000 f   DlgLayers.obj
 0002:000281b0       ?OnBnClickedButtonLayer1@CDlgLayers@@QAEXXZ 0049f1b0 f   DlgLayers.obj
 0002:00028210       ?OnBnClickedButtonLayer2@CDlgLayers@@QAEXXZ 0049f210 f   DlgLayers.obj
 0002:00028270       ?OnBnClickedButtonLayer3@CDlgLayers@@QAEXXZ 0049f270 f   DlgLayers.obj
 0002:000282d0       ?OnBnClickedButtonLayer4@CDlgLayers@@QAEXXZ 0049f2d0 f   DlgLayers.obj
 0002:00028330       ?OnBnClickedButtonLayer5@CDlgLayers@@QAEXXZ 0049f330 f   DlgLayers.obj
 0002:00028390       ?OnBnClickedButtonLayer6@CDlgLayers@@QAEXXZ 0049f390 f   DlgLayers.obj
 0002:000283f0       ?OnBnClickedButtonLayer7@CDlgLayers@@QAEXXZ 0049f3f0 f   DlgLayers.obj
 0002:00028450       ?OnBnClickedButtonLayer8@CDlgLayers@@QAEXXZ 0049f450 f   DlgLayers.obj
 0002:000284b0       ?OnBnClickedButtonLayer9@CDlgLayers@@QAEXXZ 0049f4b0 f   DlgLayers.obj
 0002:00028510       ?OnBnClickedButtonLayer10@CDlgLayers@@QAEXXZ 0049f510 f   DlgLayers.obj
 0002:00028570       ?OnBnClickedButtonLayer11@CDlgLayers@@QAEXXZ 0049f570 f   DlgLayers.obj
 0002:000285d0       ?OnBnClickedButtonLayer12@CDlgLayers@@QAEXXZ 0049f5d0 f   DlgLayers.obj
 0002:00028630       ?OnBnClickedButtonLayer13@CDlgLayers@@QAEXXZ 0049f630 f   DlgLayers.obj
 0002:00028690       ?OnBnClickedButtonLayer14@CDlgLayers@@QAEXXZ 0049f690 f   DlgLayers.obj
 0002:000286f0       ?OnBnClickedButtonLayer15@CDlgLayers@@QAEXXZ 0049f6f0 f   DlgLayers.obj
 0002:00028750       ?OnBnClickedButtonLayer16@CDlgLayers@@QAEXXZ 0049f750 f   DlgLayers.obj
 0002:000287b0       ?OnBnClickedButtonLayer17@CDlgLayers@@QAEXXZ 0049f7b0 f   DlgLayers.obj
 0002:00028810       ?OnBnClickedButtonLayer18@CDlgLayers@@QAEXXZ 0049f810 f   DlgLayers.obj
 0002:00028870       ?OnBnClickedButtonLayer19@CDlgLayers@@QAEXXZ 0049f870 f   DlgLayers.obj
 0002:000288d0       ?OnBnClickedButtonLayer20@CDlgLayers@@QAEXXZ 0049f8d0 f   DlgLayers.obj
 0002:00028930       ?OnBnClickedButtonLayer21@CDlgLayers@@QAEXXZ 0049f930 f   DlgLayers.obj
 0002:00028990       ?OnBnClickedButtonLayer22@CDlgLayers@@QAEXXZ 0049f990 f   DlgLayers.obj
 0002:000289f0       ?OnBnClickedButtonLayer23@CDlgLayers@@QAEXXZ 0049f9f0 f   DlgLayers.obj
 0002:00028a50       ?OnBnClickedButtonLayer24@CDlgLayers@@QAEXXZ 0049fa50 f   DlgLayers.obj
 0002:00028ab0       ?OnBnClickedButtonLayer25@CDlgLayers@@QAEXXZ 0049fab0 f   DlgLayers.obj
 0002:00028b10       ?OnBnClickedButtonLayer26@CDlgLayers@@QAEXXZ 0049fb10 f   DlgLayers.obj
 0002:00028b70       ?OnBnClickedButtonLayer27@CDlgLayers@@QAEXXZ 0049fb70 f   DlgLayers.obj
 0002:00028bd0       ?OnBnClickedButtonLayer28@CDlgLayers@@QAEXXZ 0049fbd0 f   DlgLayers.obj
 0002:00028c30       ?OnBnClickedButtonLayer29@CDlgLayers@@QAEXXZ 0049fc30 f   DlgLayers.obj
 0002:00028c90       ?OnBnClickedButtonLayer30@CDlgLayers@@QAEXXZ 0049fc90 f   DlgLayers.obj
 0002:00028cf0       ?OnBnClickedButtonLayer31@CDlgLayers@@QAEXXZ 0049fcf0 f   DlgLayers.obj
 0002:00028d50       ?EditColor@CDlgLayers@@QAEXH@Z 0049fd50 f   DlgLayers.obj
 0002:00028f40       ??1CColorDialog@@UAE@XZ    0049ff40 f i DlgLayers.obj
 0002:00028f90       ??1CCommonDialog@@UAE@XZ   0049ff90 f i DlgLayers.obj
 0002:00028ff0       ??_GCCommonDialog@@UAEPAXI@Z 0049fff0 f i DlgLayers.obj
 0002:00028ff0       ??_ECCommonDialog@@UAEPAXI@Z 0049fff0 f i DlgLayers.obj
 0002:00029060       ?_GetBaseClass@CDlgLog@@KGPAUCRuntimeClass@@XZ 004a0060 f   DlgLog.obj
 0002:000290b0       ?GetThisClass@CDlgLog@@SGPAUCRuntimeClass@@XZ 004a00b0 f   DlgLog.obj
 0002:000290f0       ?GetRuntimeClass@CDlgLog@@UBEPAUCRuntimeClass@@XZ 004a00f0 f   DlgLog.obj
 0002:00029130       ??0CDlgLog@@QAE@PAVCWnd@@@Z 004a0130 f   DlgLog.obj
 0002:00029210       ??_GCDlgLog@@UAEPAXI@Z     004a0210 f i DlgLog.obj
 0002:00029210       ??_ECDlgLog@@UAEPAXI@Z     004a0210 f i DlgLog.obj
 0002:00029280       ??1CDlgLog@@UAE@XZ         004a0280 f   DlgLog.obj
 0002:00029340       ?DoDataExchange@CDlgLog@@MAEXPAVCDataExchange@@@Z 004a0340 f   DlgLog.obj
 0002:000293e0       ?GetMessageMap@CDlgLog@@MBEPBUAFX_MSGMAP@@XZ 004a03e0 f   DlgLog.obj
 0002:00029430       ?GetThisMessageMap@CDlgLog@@KGPBUAFX_MSGMAP@@XZ 004a0430 f   DlgLog.obj
 0002:00029470       ?Move@CDlgLog@@QAEXHH@Z    004a0470 f   DlgLog.obj
 0002:00029550       ?Clear@CDlgLog@@QAEXXZ     004a0550 f   DlgLog.obj
 0002:000295d0       ?AddLine@CDlgLog@@QAEXPBD@Z 004a05d0 f   DlgLog.obj
 0002:00029630       ?OnBnClickedOk@CDlgLog@@QAEXXZ 004a0630 f   DlgLog.obj
 0002:000296c0       ?OnSetCursor@CDlgLog@@QAEHPAVCWnd@@II@Z 004a06c0 f   DlgLog.obj
 0002:00029750       ?OnBnClickedHideMe@CDlgLog@@QAEXXZ 004a0750 f   DlgLog.obj
 0002:000297b0       ?_GetBaseClass@CDlgMoveOrigin@@KGPAUCRuntimeClass@@XZ 004a07b0 f   DlgMoveOrigin.obj
 0002:00029800       ?GetThisClass@CDlgMoveOrigin@@SGPAUCRuntimeClass@@XZ 004a0800 f   DlgMoveOrigin.obj
 0002:00029840       ?GetRuntimeClass@CDlgMoveOrigin@@UBEPAUCRuntimeClass@@XZ 004a0840 f   DlgMoveOrigin.obj
 0002:00029880       ??0CDlgMoveOrigin@@QAE@PAVCWnd@@@Z 004a0880 f   DlgMoveOrigin.obj
 0002:000299a0       ??_ECDlgMoveOrigin@@UAEPAXI@Z 004a09a0 f i DlgMoveOrigin.obj
 0002:000299a0       ??_GCDlgMoveOrigin@@UAEPAXI@Z 004a09a0 f i DlgMoveOrigin.obj
 0002:00029a10       ??1CDlgMoveOrigin@@UAE@XZ  004a0a10 f   DlgMoveOrigin.obj
 0002:00029b20       ?DoDataExchange@CDlgMoveOrigin@@MAEXPAVCDataExchange@@@Z 004a0b20 f   DlgMoveOrigin.obj
 0002:00029c80       ?GetMessageMap@CDlgMoveOrigin@@MBEPBUAFX_MSGMAP@@XZ 004a0c80 f   DlgMoveOrigin.obj
 0002:00029cd0       ?GetThisMessageMap@CDlgMoveOrigin@@KGPBUAFX_MSGMAP@@XZ 004a0cd0 f   DlgMoveOrigin.obj
 0002:00029d10       ?Initialize@CDlgMoveOrigin@@QAEXH@Z 004a0d10 f   DlgMoveOrigin.obj
 0002:00029d80       ?GetFields@CDlgMoveOrigin@@QAEXXZ 004a0d80 f   DlgMoveOrigin.obj
 0002:00029f70       ?SetFields@CDlgMoveOrigin@@QAEXXZ 004a0f70 f   DlgMoveOrigin.obj
 0002:0002a250       ?OnCbnSelchangeUnits@CDlgMoveOrigin@@QAEXXZ 004a1250 f   DlgMoveOrigin.obj
 0002:0002a2b0       ?OnBnClickedDrag@CDlgMoveOrigin@@QAEXXZ 004a12b0 f   DlgMoveOrigin.obj
 0002:0002a310       ?OnBnClickedSet@CDlgMoveOrigin@@QAEXXZ 004a1310 f   DlgMoveOrigin.obj
 0002:0002a370       ?_GetBaseClass@CDlgMyMessageBox@@KGPAUCRuntimeClass@@XZ 004a1370 f   DlgMyMessageBox.obj
 0002:0002a3c0       ?GetThisClass@CDlgMyMessageBox@@SGPAUCRuntimeClass@@XZ 004a13c0 f   DlgMyMessageBox.obj
 0002:0002a400       ?GetRuntimeClass@CDlgMyMessageBox@@UBEPAUCRuntimeClass@@XZ 004a1400 f   DlgMyMessageBox.obj
 0002:0002a440       ??0CDlgMyMessageBox@@QAE@PAVCWnd@@@Z 004a1440 f   DlgMyMessageBox.obj
 0002:0002a540       ??_ECDlgMyMessageBox@@UAEPAXI@Z 004a1540 f i DlgMyMessageBox.obj
 0002:0002a540       ??_GCDlgMyMessageBox@@UAEPAXI@Z 004a1540 f i DlgMyMessageBox.obj
 0002:0002a5b0       ??1CDlgMyMessageBox@@UAE@XZ 004a15b0 f   DlgMyMessageBox.obj
 0002:0002a6a0       ?DoDataExchange@CDlgMyMessageBox@@MAEXPAVCDataExchange@@@Z 004a16a0 f   DlgMyMessageBox.obj
 0002:0002a7d0       ?GetMessageMap@CDlgMyMessageBox@@MBEPBUAFX_MSGMAP@@XZ 004a17d0 f   DlgMyMessageBox.obj
 0002:0002a820       ?GetThisMessageMap@CDlgMyMessageBox@@KGPBUAFX_MSGMAP@@XZ 004a1820 f   DlgMyMessageBox.obj
 0002:0002a860       ?Initialize@CDlgMyMessageBox@@QAEXPBD@Z 004a1860 f   DlgMyMessageBox.obj
 0002:0002a8d0       ?_GetBaseClass@CDlgMyMessageBox2@@KGPAUCRuntimeClass@@XZ 004a18d0 f   DlgMyMessageBox2.obj
 0002:0002a920       ?GetThisClass@CDlgMyMessageBox2@@SGPAUCRuntimeClass@@XZ 004a1920 f   DlgMyMessageBox2.obj
 0002:0002a960       ?GetRuntimeClass@CDlgMyMessageBox2@@UBEPAUCRuntimeClass@@XZ 004a1960 f   DlgMyMessageBox2.obj
 0002:0002a9a0       ??0CDlgMyMessageBox2@@QAE@PAVCWnd@@@Z 004a19a0 f   DlgMyMessageBox2.obj
 0002:0002aa80       ??_ECDlgMyMessageBox2@@UAEPAXI@Z 004a1a80 f i DlgMyMessageBox2.obj
 0002:0002aa80       ??_GCDlgMyMessageBox2@@UAEPAXI@Z 004a1a80 f i DlgMyMessageBox2.obj
 0002:0002aaf0       ??1CDlgMyMessageBox2@@UAE@XZ 004a1af0 f   DlgMyMessageBox2.obj
 0002:0002abc0       ?DoDataExchange@CDlgMyMessageBox2@@MAEXPAVCDataExchange@@@Z 004a1bc0 f   DlgMyMessageBox2.obj
 0002:0002ace0       ?GetMessageMap@CDlgMyMessageBox2@@MBEPBUAFX_MSGMAP@@XZ 004a1ce0 f   DlgMyMessageBox2.obj
 0002:0002ad30       ?GetThisMessageMap@CDlgMyMessageBox2@@KGPBUAFX_MSGMAP@@XZ 004a1d30 f   DlgMyMessageBox2.obj
 0002:0002ad70       ?Initialize@CDlgMyMessageBox2@@QAEXPAV?$CStringT@DV?$StrTraitMFC_DLL@DV?$ChTraitsCRT@D@ATL@@@@@ATL@@@Z 004a1d70 f   DlgMyMessageBox2.obj
 0002:0002adc0       ?WidthCompare@@YGHJJJ@Z    004a1dc0 f   DlgProjectOptions.obj
 0002:0002ae20       ?_GetBaseClass@CDlgProjectOptions@@KGPAUCRuntimeClass@@XZ 004a1e20 f   DlgProjectOptions.obj
 0002:0002ae70       ?GetThisClass@CDlgProjectOptions@@SGPAUCRuntimeClass@@XZ 004a1e70 f   DlgProjectOptions.obj
 0002:0002aeb0       ?GetRuntimeClass@CDlgProjectOptions@@UBEPAUCRuntimeClass@@XZ 004a1eb0 f   DlgProjectOptions.obj
 0002:0002aef0       ??0CDlgProjectOptions@@QAE@PAVCWnd@@@Z 004a1ef0 f   DlgProjectOptions.obj
 0002:0002b150       ??_GCDlgProjectOptions@@UAEPAXI@Z 004a2150 f i DlgProjectOptions.obj
 0002:0002b150       ??_ECDlgProjectOptions@@UAEPAXI@Z 004a2150 f i DlgProjectOptions.obj
 0002:0002b1c0       ??1CDlgProjectOptions@@UAE@XZ 004a21c0 f   DlgProjectOptions.obj
 0002:0002b3b0       ?DoDataExchange@CDlgProjectOptions@@EAEXPAVCDataExchange@@@Z 004a23b0 f   DlgProjectOptions.obj
 0002:0002c250       ?GetMessageMap@CDlgProjectOptions@@MBEPBUAFX_MSGMAP@@XZ 004a3250 f   DlgProjectOptions.obj
 0002:0002c2a0       ?GetThisMessageMap@CDlgProjectOptions@@KGPBUAFX_MSGMAP@@XZ 004a32a0 f   DlgProjectOptions.obj
 0002:0002c2e0       ?Init@CDlgProjectOptions@@QAEXHPAV?$CStringT@DV?$StrTraitMFC_DLL@DV?$ChTraitsCRT@D@ATL@@@@@ATL@@000HHHHHHHHH@Z 004a32e0 f   DlgProjectOptions.obj
 0002:0002c6f0       ?OnInitDialog@CDlgProjectOptions@@EAEHXZ 004a36f0 f   DlgProjectOptions.obj
 0002:0002c8f0       ?OnBnClickedButtonAdd@CDlgProjectOptions@@IAEXXZ 004a38f0 f   DlgProjectOptions.obj
 0002:0002cd70       ?OnBnClickedButtonEdit@CDlgProjectOptions@@IAEXXZ 004a3d70 f   DlgProjectOptions.obj
 0002:0002d2c0       ?OnBnClickedButtonDelete@CDlgProjectOptions@@IAEXXZ 004a42c0 f   DlgProjectOptions.obj
 0002:0002d3a0       ?OnEnChangeEditName@CDlgProjectOptions@@IAEXXZ 004a43a0 f   DlgProjectOptions.obj
 0002:0002d550       ?OnEnChangeEditFolder@CDlgProjectOptions@@IAEXXZ 004a4550 f   DlgProjectOptions.obj
 0002:0002d5b0       ?OnEnSetfocusEditFolder@CDlgProjectOptions@@IAEXXZ 004a45b0 f   DlgProjectOptions.obj
 0002:0002d600       ?OnEnKillfocusEditFolder@CDlgProjectOptions@@IAEXXZ 004a4600 f   DlgProjectOptions.obj
 0002:0002d650       ?OnBnClickedCheckAutosave@CDlgProjectOptions@@QAEXXZ 004a4650 f   DlgProjectOptions.obj
 0002:0002d6f0       ?OnBnClickedButtonLib@CDlgProjectOptions@@QAEXXZ 004a46f0 f   DlgProjectOptions.obj
 0002:0002d8f0       ?OnBnClickedButtonProjectFolder@CDlgProjectOptions@@QAEXXZ 004a48f0 f   DlgProjectOptions.obj
 0002:0002db50       ?OnBnClickedCheckAutoRatDisable@CDlgProjectOptions@@QAEXXZ 004a4b50 f   DlgProjectOptions.obj
 0002:0002dbc0       ?_GetBaseClass@CDlgReassignLayers@@KGPAUCRuntimeClass@@XZ 004a4bc0 f   DlgReassignLayers.obj
 0002:0002dc10       ?GetThisClass@CDlgReassignLayers@@SGPAUCRuntimeClass@@XZ 004a4c10 f   DlgReassignLayers.obj
 0002:0002dc50       ?GetRuntimeClass@CDlgReassignLayers@@UBEPAUCRuntimeClass@@XZ 004a4c50 f   DlgReassignLayers.obj
 0002:0002dc90       ??0CDlgReassignLayers@@QAE@PAVCWnd@@@Z 004a4c90 f   DlgReassignLayers.obj
 0002:0002dd70       ??_GCDlgReassignLayers@@UAEPAXI@Z 004a4d70 f i DlgReassignLayers.obj
 0002:0002dd70       ??_ECDlgReassignLayers@@UAEPAXI@Z 004a4d70 f i DlgReassignLayers.obj
 0002:0002dde0       ??1CDlgReassignLayers@@UAE@XZ 004a4de0 f   DlgReassignLayers.obj
 0002:0002dea0       ?DoDataExchange@CDlgReassignLayers@@MAEXPAVCDataExchange@@@Z 004a4ea0 f   DlgReassignLayers.obj
 0002:0002e2b0       ?Initialize@CDlgReassignLayers@@QAEXHH@Z 004a52b0 f   DlgReassignLayers.obj
 0002:0002e310       ?GetMessageMap@CDlgReassignLayers@@MBEPBUAFX_MSGMAP@@XZ 004a5310 f   DlgReassignLayers.obj
 0002:0002e360       ?GetThisMessageMap@CDlgReassignLayers@@KGPBUAFX_MSGMAP@@XZ 004a5360 f   DlgReassignLayers.obj
 0002:0002e3a0       ?_GetBaseClass@CDlgReport@@KGPAUCRuntimeClass@@XZ 004a53a0 f   DlgReport.obj
 0002:0002e3f0       ?GetThisClass@CDlgReport@@SGPAUCRuntimeClass@@XZ 004a53f0 f   DlgReport.obj
 0002:0002e430       ?GetRuntimeClass@CDlgReport@@UBEPAUCRuntimeClass@@XZ 004a5430 f   DlgReport.obj
 0002:0002e470       ??0CDlgReport@@QAE@PAVCWnd@@@Z 004a5470 f   DlgReport.obj
 0002:0002e620       ??_ECDlgReport@@UAEPAXI@Z  004a5620 f i DlgReport.obj
 0002:0002e620       ??_GCDlgReport@@UAEPAXI@Z  004a5620 f i DlgReport.obj
 0002:0002e690       ??1CDlgReport@@UAE@XZ      004a5690 f   DlgReport.obj
 0002:0002e830       ?DoDataExchange@CDlgReport@@MAEXPAVCDataExchange@@@Z 004a5830 f   DlgReport.obj
 0002:0002eb70       ?Initialize@CDlgReport@@QAEXPAVCFreePcbDoc@@@Z 004a5b70 f   DlgReport.obj
 0002:0002ec30       ?GetMessageMap@CDlgReport@@MBEPBUAFX_MSGMAP@@XZ 004a5c30 f   DlgReport.obj
 0002:0002ec80       ?GetThisMessageMap@CDlgReport@@KGPBUAFX_MSGMAP@@XZ 004a5c80 f   DlgReport.obj
 0002:0002ecc0       ?mycompare@@YAHPBX0@Z      004a5cc0 f   DlgReport.obj
 0002:0002ed40       ?OnBnClickedOk@CDlgReport@@QAEXXZ 004a5d40 f   DlgReport.obj
 0002:00031240       ?OnBnClickedCancel@CDlgReport@@QAEXXZ 004a8240 f   DlgReport.obj
 0002:000312b0       ??0?$CMap@HHHH@@QAE@H@Z    004a82b0 f i DlgReport.obj
 0002:000313c0       ?GetStartPosition@?$CMap@HHHH@@QBEPAU__POSITION@@XZ 004a83c0 f i DlgReport.obj
 0002:00031410       ?GetNextAssoc@?$CMap@HHHH@@QBEXAAPAU__POSITION@@AAH1@Z 004a8410 f i DlgReport.obj
 0002:00031650       ??1?$CMap@HHHH@@UAE@XZ     004a8650 f i DlgReport.obj
 0002:00031720       ?Serialize@?$CMap@HHHH@@UAEXAAVCArchive@@@Z 004a8720 f i DlgReport.obj
 0002:00031940       ?Dump@?$CMap@HHHH@@UBEXAAVCDumpContext@@@Z 004a8940 f i DlgReport.obj
 0002:00031ac0       ?AssertValid@?$CMap@HHHH@@UBEXXZ 004a8ac0 f i DlgReport.obj
 0002:00031b70       ??_G?$CMap@HHHH@@UAEPAXI@Z 004a8b70 f i DlgReport.obj
 0002:00031b70       ??_E?$CMap@HHHH@@UAEPAXI@Z 004a8b70 f i DlgReport.obj
 0002:00031be0       ?SetAt@?$CMap@HHHH@@QAEXHH@Z 004a8be0 f i DlgReport.obj
 0002:00031c40       ?RemoveAll@?$CMap@HHHH@@QAEXXZ 004a8c40 f i DlgReport.obj
 0002:00031d60       ??A?$CMap@HHHH@@QAEAAHH@Z  004a8d60 f i DlgReport.obj
 0002:00031f00       ?InitHashTable@?$CMap@HHHH@@QAEXIH@Z 004a8f00 f i DlgReport.obj
 0002:00032090       ?NewAssoc@?$CMap@HHHH@@IAEPAVCAssoc@1@H@Z 004a9090 f i DlgReport.obj
 0002:000322e0       ??3@YAXPAX0@Z              004a92e0 f i DlgReport.obj
 0002:00032310       ?GetAssocAt@?$CMap@HHHH@@IBEPAVCAssoc@1@HAAI0@Z 004a9310 f i DlgReport.obj
 0002:000323f0       ??0CAssoc@?$CMap@HHHH@@QAE@H@Z 004a93f0 f i DlgReport.obj
 0002:00032450       ??0CPair@?$CMap@HHHH@@IAE@H@Z 004a9450 f i DlgReport.obj
 0002:000324a0       ??$HashKey@H@@YGIH@Z       004a94a0 f i DlgReport.obj
 0002:000325a0       ??$CompareElements@HH@@YGHPBH0@Z 004a95a0 f i DlgReport.obj
 0002:000326c0       ?data@CPlex@@QAEPAXXZ      004a96c0 f i DlgReport.obj
 0002:00032700       ??$SerializeElements@H@@YGXAAVCArchive@@PAHH@Z 004a9700 f i DlgReport.obj
 0002:000328f0       ??$DumpElements@H@@YGXAAVCDumpContext@@PBHH@Z 004a98f0 f i DlgReport.obj
 0002:000329e0       ?_GetBaseClass@CDlgSaveLib@@KGPAUCRuntimeClass@@XZ 004a99e0 f   DlgSaveLib.obj
 0002:00032a30       ?GetThisClass@CDlgSaveLib@@SGPAUCRuntimeClass@@XZ 004a9a30 f   DlgSaveLib.obj
 0002:00032a70       ?GetRuntimeClass@CDlgSaveLib@@UBEPAUCRuntimeClass@@XZ 004a9a70 f   DlgSaveLib.obj
 0002:00032ab0       ??0CDlgSaveLib@@QAE@PAVCWnd@@@Z 004a9ab0 f   DlgSaveLib.obj
 0002:00032b90       ??_GCDlgSaveLib@@UAEPAXI@Z 004a9b90 f i DlgSaveLib.obj
 0002:00032b90       ??_ECDlgSaveLib@@UAEPAXI@Z 004a9b90 f i DlgSaveLib.obj
 0002:00032c00       ??1CDlgSaveLib@@UAE@XZ     004a9c00 f   DlgSaveLib.obj
 0002:00032cd0       ?DoDataExchange@CDlgSaveLib@@MAEXPAVCDataExchange@@@Z 004a9cd0 f   DlgSaveLib.obj
 0002:00032e30       ?GetMessageMap@CDlgSaveLib@@MBEPBUAFX_MSGMAP@@XZ 004a9e30 f   DlgSaveLib.obj
 0002:00032e80       ?GetThisMessageMap@CDlgSaveLib@@KGPBUAFX_MSGMAP@@XZ 004a9e80 f   DlgSaveLib.obj
 0002:00032ec0       ?Initialize@CDlgSaveLib@@QAEXPAV?$CArray@V?$CStringT@DV?$StrTraitMFC_DLL@DV?$ChTraitsCRT@D@ATL@@@@@ATL@@ABV12@@@@Z 004a9ec0 f   DlgSaveLib.obj
 0002:00033050       ?OnBnClickedDelete@CDlgSaveLib@@QAEXXZ 004aa050 f   DlgSaveLib.obj
 0002:00033100       ?OnBnClickedButtonTop@CDlgSaveLib@@QAEXXZ 004aa100 f   DlgSaveLib.obj
 0002:00033300       ?OnBnClickedButtonUp@CDlgSaveLib@@QAEXXZ 004aa300 f   DlgSaveLib.obj
 0002:00033510       ?OnBnClickedButtonDown@CDlgSaveLib@@QAEXXZ 004aa510 f   DlgSaveLib.obj
 0002:00033740       ?OnBnClickedButtonBottom@CDlgSaveLib@@QAEXXZ 004aa740 f   DlgSaveLib.obj
 0002:00033950       ?GetSelected@CDlgSaveLib@@QAEXXZ 004aa950 f   DlgSaveLib.obj
 0002:00033a40       ?ResetSelected@CDlgSaveLib@@QAEXXZ 004aaa40 f   DlgSaveLib.obj
 0002:00033b40       ??0?$CArray@V?$CStringT@DV?$StrTraitMFC_DLL@DV?$ChTraitsCRT@D@ATL@@@@@ATL@@ABV12@@@QAE@XZ 004aab40 f i DlgSaveLib.obj
 0002:00033bd0       ?SetSize@?$CArray@V?$CStringT@DV?$StrTraitMFC_DLL@DV?$ChTraitsCRT@D@ATL@@@@@ATL@@ABV12@@@QAEXHH@Z 004aabd0 f i DlgSaveLib.obj
 0002:00034250       ??1?$CArray@V?$CStringT@DV?$StrTraitMFC_DLL@DV?$ChTraitsCRT@D@ATL@@@@@ATL@@ABV12@@@UAE@XZ 004ab250 f i DlgSaveLib.obj
 0002:00034380       ?Serialize@?$CArray@V?$CStringT@DV?$StrTraitMFC_DLL@DV?$ChTraitsCRT@D@ATL@@@@@ATL@@ABV12@@@UAEXAAVCArchive@@@Z 004ab380 f i DlgSaveLib.obj
 0002:00034450       ?Dump@?$CArray@V?$CStringT@DV?$StrTraitMFC_DLL@DV?$ChTraitsCRT@D@ATL@@@@@ATL@@ABV12@@@UBEXAAVCDumpContext@@@Z 004ab450 f i DlgSaveLib.obj
 0002:00034530       ?AssertValid@?$CArray@V?$CStringT@DV?$StrTraitMFC_DLL@DV?$ChTraitsCRT@D@ATL@@@@@ATL@@ABV12@@@UBEXXZ 004ab530 f i DlgSaveLib.obj
 0002:00034690       ??_E?$CArray@V?$CStringT@DV?$StrTraitMFC_DLL@DV?$ChTraitsCRT@D@ATL@@@@@ATL@@ABV12@@@UAEPAXI@Z 004ab690 f i DlgSaveLib.obj
 0002:00034690       ??_G?$CArray@V?$CStringT@DV?$StrTraitMFC_DLL@DV?$ChTraitsCRT@D@ATL@@@@@ATL@@ABV12@@@UAEPAXI@Z 004ab690 f i DlgSaveLib.obj
 0002:00034700       ??_G?$CStringT@DV?$StrTraitMFC_DLL@DV?$ChTraitsCRT@D@ATL@@@@@ATL@@QAEPAXI@Z 004ab700 f i DlgSaveLib.obj
 0002:00034780       ??$DumpElements@V?$CStringT@DV?$StrTraitMFC_DLL@DV?$ChTraitsCRT@D@ATL@@@@@ATL@@@@YGXAAVCDumpContext@@PBV?$CStringT@DV?$StrTraitMFC_DLL@DV?$ChTraitsCRT@D@ATL@@@@@ATL@@H@Z 004ab780 f i DlgSaveLib.obj
 0002:00034870       ?_GetBaseClass@CDlgSetAreaHatch@@KGPAUCRuntimeClass@@XZ 004ab870 f   DlgSetAreaHatch.obj
 0002:000348c0       ?GetThisClass@CDlgSetAreaHatch@@SGPAUCRuntimeClass@@XZ 004ab8c0 f   DlgSetAreaHatch.obj
 0002:00034900       ?GetRuntimeClass@CDlgSetAreaHatch@@UBEPAUCRuntimeClass@@XZ 004ab900 f   DlgSetAreaHatch.obj
 0002:00034940       ??0CDlgSetAreaHatch@@QAE@PAVCWnd@@@Z 004ab940 f   DlgSetAreaHatch.obj
 0002:00034a30       ??_ECDlgSetAreaHatch@@UAEPAXI@Z 004aba30 f i DlgSetAreaHatch.obj
 0002:00034a30       ??_GCDlgSetAreaHatch@@UAEPAXI@Z 004aba30 f i DlgSetAreaHatch.obj
 0002:00034aa0       ??1CDlgSetAreaHatch@@UAE@XZ 004abaa0 f   DlgSetAreaHatch.obj
 0002:00034b80       ?DoDataExchange@CDlgSetAreaHatch@@MAEXPAVCDataExchange@@@Z 004abb80 f   DlgSetAreaHatch.obj
 0002:00034d20       ?GetMessageMap@CDlgSetAreaHatch@@MBEPBUAFX_MSGMAP@@XZ 004abd20 f   DlgSetAreaHatch.obj
 0002:00034d70       ?GetThisMessageMap@CDlgSetAreaHatch@@KGPBUAFX_MSGMAP@@XZ 004abd70 f   DlgSetAreaHatch.obj
 0002:00034db0       ?Init@CDlgSetAreaHatch@@QAEXH@Z 004abdb0 f   DlgSetAreaHatch.obj
 0002:00034e00       ?_GetBaseClass@DlgSetSegmentWidth@@KGPAUCRuntimeClass@@XZ 004abe00 f   DlgSetSegmentWidth.obj
 0002:00034e50       ?GetThisClass@DlgSetSegmentWidth@@SGPAUCRuntimeClass@@XZ 004abe50 f   DlgSetSegmentWidth.obj
 0002:00034e90       ?GetRuntimeClass@DlgSetSegmentWidth@@UBEPAUCRuntimeClass@@XZ 004abe90 f   DlgSetSegmentWidth.obj
 0002:00034ed0       ??0DlgSetSegmentWidth@@QAE@PAVCWnd@@@Z 004abed0 f   DlgSetSegmentWidth.obj
 0002:000351b0       ??_EDlgSetSegmentWidth@@UAEPAXI@Z 004ac1b0 f i DlgSetSegmentWidth.obj
 0002:000351b0       ??_GDlgSetSegmentWidth@@UAEPAXI@Z 004ac1b0 f i DlgSetSegmentWidth.obj
 0002:00035220       ??1DlgSetSegmentWidth@@UAE@XZ 004ac220 f   DlgSetSegmentWidth.obj
 0002:00035440       ?DoDataExchange@DlgSetSegmentWidth@@MAEXPAVCDataExchange@@@Z 004ac440 f   DlgSetSegmentWidth.obj
 0002:00035850       ?GetMessageMap@DlgSetSegmentWidth@@MBEPBUAFX_MSGMAP@@XZ 004ac850 f   DlgSetSegmentWidth.obj
 0002:000358a0       ?GetThisMessageMap@DlgSetSegmentWidth@@KGPBUAFX_MSGMAP@@XZ 004ac8a0 f   DlgSetSegmentWidth.obj
 0002:000358e0       ?OnBnClickedDefNet@DlgSetSegmentWidth@@QAEXXZ 004ac8e0 f   DlgSetSegmentWidth.obj
 0002:00035920       ?OnBnClickedApplyNet@DlgSetSegmentWidth@@QAEXXZ 004ac920 f   DlgSetSegmentWidth.obj
 0002:000359b0       ?OnBnClickedApplyCon@DlgSetSegmentWidth@@QAEXXZ 004ac9b0 f   DlgSetSegmentWidth.obj
 0002:00035a40       ?OnBnClickedApplySeg@DlgSetSegmentWidth@@QAEXXZ 004aca40 f   DlgSetSegmentWidth.obj
 0002:00035ad0       ?OnInitDialog@DlgSetSegmentWidth@@UAEHXZ 004acad0 f   DlgSetSegmentWidth.obj
 0002:00035fa0       ?OnBnClickedRadioDefVia@DlgSetSegmentWidth@@QAEXXZ 004acfa0 f   DlgSetSegmentWidth.obj
 0002:00036280       ?OnBnClickedRadioSetVia@DlgSetSegmentWidth@@QAEXXZ 004ad280 f   DlgSetSegmentWidth.obj
 0002:00036320       ?OnCbnSelchangeComboWidth@DlgSetSegmentWidth@@QAEXXZ 004ad320 f   DlgSetSegmentWidth.obj
 0002:00036570       ?OnCbnEditchangeComboWidth@DlgSetSegmentWidth@@QAEXXZ 004ad570 f   DlgSetSegmentWidth.obj
 0002:00036870       ?OnBnClickedRadioModTv@DlgSetSegmentWidth@@QAEXXZ 004ad870 f   DlgSetSegmentWidth.obj
 0002:000368c0       ?OnBnClickedRadioModT@DlgSetSegmentWidth@@QAEXXZ 004ad8c0 f   DlgSetSegmentWidth.obj
 0002:00036910       ?OnBnClickedRadioModV@DlgSetSegmentWidth@@QAEXXZ 004ad910 f   DlgSetSegmentWidth.obj
 0002:00036960       ?OnBnClickedRadioModify@DlgSetSegmentWidth@@QAEXXZ 004ad960 f   DlgSetSegmentWidth.obj
 0002:00036bb0       ?GetSize@?$CArray@HABH@@QBEHXZ 004adbb0 f i DlgSetSegmentWidth.obj
 0002:00036bf0       ??A?$CArray@HABH@@QAEAAHH@Z 004adbf0 f i DlgSetSegmentWidth.obj
 0002:00036c50       ?ElementAt@?$CArray@HABH@@QAEAAHH@Z 004adc50 f i DlgSetSegmentWidth.obj
 0002:00036d00       ?_GetBaseClass@CDlgSetTraceWidths@@KGPAUCRuntimeClass@@XZ 004add00 f   DlgSetTraceWidths.obj
 0002:00036d50       ?GetThisClass@CDlgSetTraceWidths@@SGPAUCRuntimeClass@@XZ 004add50 f   DlgSetTraceWidths.obj
 0002:00036d90       ?GetRuntimeClass@CDlgSetTraceWidths@@UBEPAUCRuntimeClass@@XZ 004add90 f   DlgSetTraceWidths.obj
 0002:00036dd0       ??0CDlgSetTraceWidths@@QAE@PAVCWnd@@@Z 004addd0 f   DlgSetTraceWidths.obj
 0002:00037060       ??_ECDlgSetTraceWidths@@UAEPAXI@Z 004ae060 f i DlgSetTraceWidths.obj
 0002:00037060       ??_GCDlgSetTraceWidths@@UAEPAXI@Z 004ae060 f i DlgSetTraceWidths.obj
 0002:000370d0       ??1CDlgSetTraceWidths@@UAE@XZ 004ae0d0 f   DlgSetTraceWidths.obj
 0002:00037270       ?DoDataExchange@CDlgSetTraceWidths@@MAEXPAVCDataExchange@@@Z 004ae270 f   DlgSetTraceWidths.obj
 0002:00037a40       ?GetMessageMap@CDlgSetTraceWidths@@MBEPBUAFX_MSGMAP@@XZ 004aea40 f   DlgSetTraceWidths.obj
 0002:00037a90       ?GetThisMessageMap@CDlgSetTraceWidths@@KGPBUAFX_MSGMAP@@XZ 004aea90 f   DlgSetTraceWidths.obj
 0002:00037ad0       ?OnBnClickedRadioDef@CDlgSetTraceWidths@@AAEXXZ 004aead0 f   DlgSetTraceWidths.obj
 0002:00037b30       ?OnBnClickedRadioSet@CDlgSetTraceWidths@@AAEXXZ 004aeb30 f   DlgSetTraceWidths.obj
 0002:00037b80       ?OnCbnSelchangeComboWidth@CDlgSetTraceWidths@@QAEXXZ 004aeb80 f   DlgSetTraceWidths.obj
 0002:000381d0       ?OnCbnEditchangeComboWidth@CDlgSetTraceWidths@@QAEXXZ 004af1d0 f   DlgSetTraceWidths.obj
 0002:00038800       ?OnBnClickedSetTrace@CDlgSetTraceWidths@@QAEXXZ 004af800 f   DlgSetTraceWidths.obj
 0002:00038850       ?OnBnClickedSetVias@CDlgSetTraceWidths@@QAEXXZ 004af850 f   DlgSetTraceWidths.obj
 0002:000388a0       ?SetFields@CDlgSetTraceWidths@@QAEXXZ 004af8a0 f   DlgSetTraceWidths.obj
 0002:00038c30       ?OnBnClickedRadioRevertTraces@CDlgSetTraceWidths@@QAEXXZ 004afc30 f   DlgSetTraceWidths.obj
 0002:00038c80       ?OnBnClickedRadioRevertVias@CDlgSetTraceWidths@@QAEXXZ 004afc80 f   DlgSetTraceWidths.obj
 0002:00038cd0       ?OnBnClickedRadioSetTraceWidth@CDlgSetTraceWidths@@QAEXXZ 004afcd0 f   DlgSetTraceWidths.obj
 0002:00038d20       ?OnBnClickedRadioSetSize@CDlgSetTraceWidths@@QAEXXZ 004afd20 f   DlgSetTraceWidths.obj
 0002:00038d60       ?_GetBaseClass@CDlgShortcuts@@KGPAUCRuntimeClass@@XZ 004afd60 f   DlgShortcuts.obj
 0002:00038db0       ?GetThisClass@CDlgShortcuts@@SGPAUCRuntimeClass@@XZ 004afdb0 f   DlgShortcuts.obj
 0002:00038df0       ?GetRuntimeClass@CDlgShortcuts@@UBEPAUCRuntimeClass@@XZ 004afdf0 f   DlgShortcuts.obj
 0002:00038e30       ??0CDlgShortcuts@@QAE@PAVCWnd@@@Z 004afe30 f   DlgShortcuts.obj
 0002:00038ea0       ??_ECDlgShortcuts@@UAEPAXI@Z 004afea0 f i DlgShortcuts.obj
 0002:00038ea0       ??_GCDlgShortcuts@@UAEPAXI@Z 004afea0 f i DlgShortcuts.obj
 0002:00038f10       ??1CDlgShortcuts@@UAE@XZ   004aff10 f   DlgShortcuts.obj
 0002:00038f70       ?DoDataExchange@CDlgShortcuts@@MAEXPAVCDataExchange@@@Z 004aff70 f   DlgShortcuts.obj
 0002:00038fd0       ?GetMessageMap@CDlgShortcuts@@MBEPBUAFX_MSGMAP@@XZ 004affd0 f   DlgShortcuts.obj
 0002:00039020       ?GetThisMessageMap@CDlgShortcuts@@KGPBUAFX_MSGMAP@@XZ 004b0020 f   DlgShortcuts.obj
 0002:00039060       ?_GetBaseClass@CDlgSideStyle@@KGPAUCRuntimeClass@@XZ 004b0060 f   DlgSideStyle.obj
 0002:000390b0       ?GetThisClass@CDlgSideStyle@@SGPAUCRuntimeClass@@XZ 004b00b0 f   DlgSideStyle.obj
 0002:000390f0       ?GetRuntimeClass@CDlgSideStyle@@UBEPAUCRuntimeClass@@XZ 004b00f0 f   DlgSideStyle.obj
 0002:00039130       ??0CDlgSideStyle@@QAE@PAVCWnd@@@Z 004b0130 f   DlgSideStyle.obj
 0002:000391a0       ??_ECDlgSideStyle@@UAEPAXI@Z 004b01a0 f i DlgSideStyle.obj
 0002:000391a0       ??_GCDlgSideStyle@@UAEPAXI@Z 004b01a0 f i DlgSideStyle.obj
 0002:00039210       ??1CDlgSideStyle@@UAE@XZ   004b0210 f   DlgSideStyle.obj
 0002:00039270       ?DoDataExchange@CDlgSideStyle@@MAEXPAVCDataExchange@@@Z 004b0270 f   DlgSideStyle.obj
 0002:000392f0       ?GetMessageMap@CDlgSideStyle@@MBEPBUAFX_MSGMAP@@XZ 004b02f0 f   DlgSideStyle.obj
 0002:00039340       ?GetThisMessageMap@CDlgSideStyle@@KGPBUAFX_MSGMAP@@XZ 004b0340 f   DlgSideStyle.obj
 0002:00039380       ?Initialize@CDlgSideStyle@@QAEXH@Z 004b0380 f   DlgSideStyle.obj
 0002:000393d0       ?_GetBaseClass@CDlgAttr@@KGPAUCRuntimeClass@@XZ 004b03d0 f   DlgAttr.obj
 0002:00039420       ?GetThisClass@CDlgAttr@@SGPAUCRuntimeClass@@XZ 004b0420 f   DlgAttr.obj
 0002:00039460       ?GetRuntimeClass@CDlgAttr@@UBEPAUCRuntimeClass@@XZ 004b0460 f   DlgAttr.obj
 0002:000394a0       ??0CDlgAttr@@QAE@PAVCWnd@@@Z 004b04a0 f   DlgAttr.obj
 0002:00039830       ??_GCDlgAttr@@UAEPAXI@Z    004b0830 f i DlgAttr.obj
 0002:00039830       ??_ECDlgAttr@@UAEPAXI@Z    004b0830 f i DlgAttr.obj
 0002:000398a0       ??1CDlgAttr@@UAE@XZ        004b08a0 f   DlgAttr.obj
 0002:00039c10       ?DoDataExchange@CDlgAttr@@MAEXPAVCDataExchange@@@Z 004b0c10 f   DlgAttr.obj
 0002:0003b470       ?Initialize@CDlgAttr@@QAEXPAV?$CArray@V?$CStringT@DV?$StrTraitMFC_DLL@DV?$ChTraitsCRT@D@ATL@@@@@ATL@@ABV12@@@PAVCTextList@@PAV?$CStringT@DV?$StrTraitMFC_DLL@DV?$ChTraitsCRT@D@ATL@@@@@ATL@@22222Vattr_size@@HH@Z 004b2470 f   DlgAttr.obj
 0002:0003b6f0       ?GetMessageMap@CDlgAttr@@MBEPBUAFX_MSGMAP@@XZ 004b26f0 f   DlgAttr.obj
 0002:0003b740       ?GetThisMessageMap@CDlgAttr@@KGPBUAFX_MSGMAP@@XZ 004b2740 f   DlgAttr.obj
 0002:0003b780       ?OnChange@CDlgAttr@@QAEXXZ 004b2780 f   DlgAttr.obj
 0002:0003ba40       ??0attr_size@@QAE@XZ       004b2a40 f i DlgAttr.obj
 0002:0003bb60       ?Multiply@attr_size@@QAEXM@Z 004b2b60 f i DlgAttr.obj
 0002:0003be90       ?ParseStringFields@@YAHPAV?$CStringT@DV?$StrTraitMFC_DLL@DV?$ChTraitsCRT@D@ATL@@@@@ATL@@PAV?$CArray@V?$CStringT@DV?$StrTraitMFC_DLL@DV?$ChTraitsCRT@D@ATL@@@@@ATL@@ABV12@@@@Z 004b2e90 f   file_io.obj
 0002:0003c1f0       ?ParseKeyString@@YAHPAV?$CStringT@DV?$StrTraitMFC_DLL@DV?$ChTraitsCRT@D@ATL@@@@@ATL@@0PAV?$CArray@V?$CStringT@DV?$StrTraitMFC_DLL@DV?$ChTraitsCRT@D@ATL@@@@@ATL@@ABV12@@@@Z 004b31f0 f   file_io.obj
 0002:0003c950       ?my_atoi@@YAHPAV?$CStringT@DV?$StrTraitMFC_DLL@DV?$ChTraitsCRT@D@ATL@@@@@ATL@@@Z 004b3950 f   file_io.obj
 0002:0003d060       ?my_atof@@YANPAV?$CStringT@DV?$StrTraitMFC_DLL@DV?$ChTraitsCRT@D@ATL@@@@@ATL@@@Z 004b4060 f   file_io.obj
 0002:0003d830       ?SetAtGrow@?$CArray@V?$CStringT@DV?$StrTraitMFC_DLL@DV?$ChTraitsCRT@D@ATL@@@@@ATL@@ABV12@@@QAEXHABV?$CStringT@DV?$StrTraitMFC_DLL@DV?$ChTraitsCRT@D@ATL@@@@@ATL@@@Z 004b4830 f i file_io.obj
 0002:0003d910       ?CreateObject@CFreePcbDoc@@SGPAVCObject@@XZ 004b4910 f   FreePcbDoc.obj
 0002:0003da00       ?_GetBaseClass@CFreePcbDoc@@KGPAUCRuntimeClass@@XZ 004b4a00 f   FreePcbDoc.obj
 0002:0003da50       ?GetThisClass@CFreePcbDoc@@SGPAUCRuntimeClass@@XZ 004b4a50 f   FreePcbDoc.obj
 0002:0003da90       ?GetRuntimeClass@CFreePcbDoc@@UBEPAUCRuntimeClass@@XZ 004b4a90 f   FreePcbDoc.obj
 0002:0003dad0       ?GetMessageMap@CFreePcbDoc@@MBEPBUAFX_MSGMAP@@XZ 004b4ad0 f   FreePcbDoc.obj
 0002:0003db20       ?GetThisMessageMap@CFreePcbDoc@@KGPBUAFX_MSGMAP@@XZ 004b4b20 f   FreePcbDoc.obj
 0002:0003db60       ??0CFreePcbDoc@@IAE@XZ     004b4b60 f   FreePcbDoc.obj
 0002:0003ed30       ??_GCFreePcbDoc@@UAEPAXI@Z 004b5d30 f i FreePcbDoc.obj
 0002:0003ed30       ??_ECFreePcbDoc@@UAEPAXI@Z 004b5d30 f i FreePcbDoc.obj
 0002:0003eda0       ??1CFreePcbDoc@@UAE@XZ     004b5da0 f   FreePcbDoc.obj
 0002:0003f690       ??_GDRErrorList@@QAEPAXI@Z 004b6690 f i FreePcbDoc.obj
 0002:0003f700       ??_GCUndoList@@QAEPAXI@Z   004b6700 f i FreePcbDoc.obj
 0002:0003f770       ??_GCTextList@@QAEPAXI@Z   004b6770 f i FreePcbDoc.obj
 0002:0003f7e0       ??_GCDisplayList@@QAEPAXI@Z 004b67e0 f i FreePcbDoc.obj
 0002:0003f850       ??_GSMFontUtil@@QAEPAXI@Z  004b6850 f i FreePcbDoc.obj
 0002:0003f8c0       ?SendInitialUpdate@CFreePcbDoc@@QAEXXZ 004b68c0 f   FreePcbDoc.obj
 0002:0003f910       ?OnNewDocument@CFreePcbDoc@@UAEHXZ 004b6910 f   FreePcbDoc.obj
 0002:0003f9e0       ?Serialize@CFreePcbDoc@@UAEXAAVCArchive@@@Z 004b69e0 f   FreePcbDoc.obj
 0002:0003fa20       ?AssertValid@CFreePcbDoc@@UBEXXZ 004b6a20 f   FreePcbDoc.obj
 0002:0003fa70       ?Dump@CFreePcbDoc@@UBEXAAVCDumpContext@@@Z 004b6a70 f   FreePcbDoc.obj
 0002:0003fad0       ?OnSaveDocument@CFreePcbDoc@@UAEHPBD@Z 004b6ad0 f   FreePcbDoc.obj
 0002:0003fb30       ?OnFileNew@CFreePcbDoc@@QAEXXZ 004b6b30 f   FreePcbDoc.obj
 0002:00040a60       ?GetName@CDlgProjectOptions@@QAE?AV?$CStringT@DV?$StrTraitMFC_DLL@DV?$ChTraitsCRT@D@ATL@@@@@ATL@@XZ 004b7a60 f i FreePcbDoc.obj
 0002:00040af0       ?GetPathToFolder@CDlgProjectOptions@@QAE?AV?$CStringT@DV?$StrTraitMFC_DLL@DV?$ChTraitsCRT@D@ATL@@@@@ATL@@XZ 004b7af0 f i FreePcbDoc.obj
 0002:00040b80       ?GetLibFolder@CDlgProjectOptions@@QAE?AV?$CStringT@DV?$StrTraitMFC_DLL@DV?$ChTraitsCRT@D@ATL@@@@@ATL@@XZ 004b7b80 f i FreePcbDoc.obj
 0002:00040c10       ?GetNumALayers@CDlgProjectOptions@@QAEHXZ 004b7c10 f i FreePcbDoc.obj
 0002:00040c50       ?GetTraceWidth@CDlgProjectOptions@@QAEHXZ 004b7c50 f i FreePcbDoc.obj
 0002:00040c90       ?GetViaWidth@CDlgProjectOptions@@QAEHXZ 004b7c90 f i FreePcbDoc.obj
 0002:00040cd0       ?GetViaHoleWidth@CDlgProjectOptions@@QAEHXZ 004b7cd0 f i FreePcbDoc.obj
 0002:00040d10       ?GetAutoRatlineDisable@CDlgProjectOptions@@QAEHXZ 004b7d10 f i FreePcbDoc.obj
 0002:00040d50       ?GetNodeWidth@CDlgProjectOptions@@QAEHXZ 004b7d50 f i FreePcbDoc.obj
 0002:00040d90       ?GetAutoRatlineMinPins@CDlgProjectOptions@@QAEHXZ 004b7d90 f i FreePcbDoc.obj
 0002:00040dd0       ?RunFileDialog@CFreePcbDoc@@QAE?AV?$CStringT@DV?$StrTraitMFC_DLL@DV?$ChTraitsCRT@D@ATL@@@@@ATL@@HV23@@Z 004b7dd0 f   FreePcbDoc.obj
 0002:000417f0       ?OnFileOpen@CFreePcbDoc@@QAEXXZ 004b87f0 f   FreePcbDoc.obj
 0002:00041990       ?OnFileAutoOpen@CFreePcbDoc@@QAEXPBD@Z 004b8990 f   FreePcbDoc.obj
 0002:000419f0       ?FileOpen@CFreePcbDoc@@QAEHPBD@Z 004b89f0 f   FreePcbDoc.obj
 0002:00042dc0       ?OnFileClose@CFreePcbDoc@@QAEXXZ 004b9dc0 f   FreePcbDoc.obj
 0002:00042e10       ?FileClose@CFreePcbDoc@@QAEHXZ 004b9e10 f   FreePcbDoc.obj
 0002:00043290       ?OnFileSave@CFreePcbDoc@@QAEXXZ 004ba290 f   FreePcbDoc.obj
 0002:000433b0       ?AutoSave@CFreePcbDoc@@QAEHXZ 004ba3b0 f   FreePcbDoc.obj
 0002:00043c40       ?FileSave@CFreePcbDoc@@QAEHPAV?$CStringT@DV?$StrTraitMFC_DLL@DV?$ChTraitsCRT@D@ATL@@@@@ATL@@000H@Z 004bac40 f   FreePcbDoc.obj
 0002:000446c0       ?ReadMerges@CFreePcbDoc@@QAEXPAVCStdioFile@@PAVStrList@@@Z 004bb6c0 f   FreePcbDoc.obj
 0002:00044b30       ?WriteMerges@CFreePcbDoc@@QAEXPAVCStdioFile@@PAVStrList@@@Z 004bbb30 f   FreePcbDoc.obj
 0002:00044f90       ?OnFileSaveAs@CFreePcbDoc@@QAEXXZ 004bbf90 f   FreePcbDoc.obj
 0002:00045500       ?WriteOutlinesPoly@CFreePcbDoc@@QAEXPAVCStdioFile@@H@Z 004bc500 f   FreePcbDoc.obj
 0002:00046e60       ?ReadGraphics@CFreePcbDoc@@QAEXPAVCStdioFile@@PAV?$CArray@VCPolyLine@@ABV1@@@@Z 004bde60 f   FreePcbDoc.obj
 0002:00049ec0       ?ReadOptions@CFreePcbDoc@@QAEHPAVCStdioFile@@H@Z 004c0ec0 f   FreePcbDoc.obj
 0002:0004ddf0       ?WriteOptions@CFreePcbDoc@@QAEXPAVCStdioFile@@H@Z 004c4df0 f   FreePcbDoc.obj
 0002:00050660       ?InitializeNewProject@CFreePcbDoc@@QAEXXZ 004c7660 f   FreePcbDoc.obj
 0002:000519e0       ?ProjectModified@CFreePcbDoc@@QAEXHH@Z 004c89e0 f   FreePcbDoc.obj
 0002:00051e00       ?SaveOptions@CFreePcbDoc@@QAEXXZ 004c8e00 f   FreePcbDoc.obj
 0002:00052190       ?OnViewLayers@CFreePcbDoc@@QAEXXZ 004c9190 f   FreePcbDoc.obj
 0002:00052420       ?FileExport@CFreePcbDoc@@QAEXV?$CStringT@DV?$StrTraitMFC_DLL@DV?$ChTraitsCRT@D@ATL@@@@@ATL@@@Z 004c9420 f   FreePcbDoc.obj
 0002:000525c0       ?OnFileExport1@CFreePcbDoc@@QAEXXZ 004c95c0 f   FreePcbDoc.obj
 0002:00052740       ?OnFileExport2@CFreePcbDoc@@QAEXXZ 004c9740 f   FreePcbDoc.obj
 0002:000528c0       ?GetSessionLayer@@YAHPAV?$CStringT@DV?$StrTraitMFC_DLL@DV?$ChTraitsCRT@D@ATL@@@@@ATL@@@Z 004c98c0 f   FreePcbDoc.obj
 0002:00052aa0       ?ExportPADSPCBNetlist@CFreePcbDoc@@QAEHPAVCStdioFile@@I@Z 004c9aa0 f   FreePcbDoc.obj
 0002:00052cc0       ?OnAppExit@CFreePcbDoc@@QAEXXZ 004c9cc0 f   FreePcbDoc.obj
 0002:00052d30       ?CreateMoveOriginUndoRecord@CFreePcbDoc@@QAEPAUundo_move_origin@@HH@Z 004c9d30 f   FreePcbDoc.obj
 0002:00052dd0       ?MoveOriginUndoCallback@CFreePcbDoc@@SAXPAXH@Z 004c9dd0 f   FreePcbDoc.obj
 0002:00052ea0       ?CreateOutlinePolyUndoRecord@CFreePcbDoc@@QAEPAUundo_outline_poly@@PAVCPolyLine@@H@Z 004c9ea0 f   FreePcbDoc.obj
 0002:00053100       ?OutlinePolyUndoCallback@CFreePcbDoc@@SAXPAXH@Z 004ca100 f   FreePcbDoc.obj
 0002:00053530       ?OnFileGenerateCadFiles@CFreePcbDoc@@QAEXXZ 004ca530 f   FreePcbDoc.obj
 0002:00053e10       ?OnProjectOptions@CFreePcbDoc@@QAEXXZ 004cae10 f   FreePcbDoc.obj
 0002:000545f0       ?GetAutoInterval@CDlgProjectOptions@@QAEHXZ 004cb5f0 f i FreePcbDoc.obj
 0002:00054630       ?OnTimer@CFreePcbDoc@@QAEXXZ 004cb630 f   FreePcbDoc.obj
 0002:00054700       ?OnToolsDrc@CFreePcbDoc@@QAEXXZ 004cb700 f   FreePcbDoc.obj
 0002:00054960       ?OnToolsClearDrc@CFreePcbDoc@@QAEXXZ 004cb960 f   FreePcbDoc.obj
 0002:00054a20       ?OnToolsShowDRCErrorlist@CFreePcbDoc@@QAEXXZ 004cba20 f   FreePcbDoc.obj
 0002:00054a60       ?OnViewLog@CFreePcbDoc@@QAEXXZ 004cba60 f   FreePcbDoc.obj
 0002:00054ae0       ?OnEditSelectAll@CFreePcbDoc@@QAEXXZ 004cbae0 f   FreePcbDoc.obj
 0002:00054dc0       ?OnEditPasteFromFile@CFreePcbDoc@@QAEXXZ 004cbdc0 f   FreePcbDoc.obj
 0002:00054f50       ?PasteFromFile@CFreePcbDoc@@QAEXV?$CStringT@DV?$StrTraitMFC_DLL@DV?$ChTraitsCRT@D@ATL@@@@@ATL@@H@Z 004cbf50 f   FreePcbDoc.obj
 0002:000556d0       ?OnFileGerbV@CFreePcbDoc@@QAEXV?$CStringT@DV?$StrTraitMFC_DLL@DV?$ChTraitsCRT@D@ATL@@@@@ATL@@0@Z 004cc6d0 f   FreePcbDoc.obj
 0002:00055ea0       ?OnEditUndo@CFreePcbDoc@@QAEXXZ 004ccea0 f   FreePcbDoc.obj
 0002:00055f90       ?OnEditRedo@CFreePcbDoc@@QAEXXZ 004ccf90 f   FreePcbDoc.obj
 0002:00056090       ?ResetUndoState@CFreePcbDoc@@QAEXXZ 004cd090 f   FreePcbDoc.obj
 0002:00056110       ?OnRepeatDrc@CFreePcbDoc@@QAEXXZ 004cd110 f   FreePcbDoc.obj
 0002:000561e0       ?OnFileGenerateReportFile@CFreePcbDoc@@QAEXXZ 004cd1e0 f   FreePcbDoc.obj
 0002:00056320       ?OPRefreshID@CFreePcbDoc@@QAEXXZ 004cd320 f   FreePcbDoc.obj
 0002:00056440       ?CombineBoardOutlines@CFreePcbDoc@@QAEHHH@Z 004cd440 f   FreePcbDoc.obj
 0002:00057080       ?ClipOP@CFreePcbDoc@@QAEXH@Z 004ce080 f   FreePcbDoc.obj
 0002:00057640       ?OnProjectCombineBoard@CFreePcbDoc@@QAEXXZ 004ce640 f   FreePcbDoc.obj
 0002:000576e0       ?ProjectCombineBoard@CFreePcbDoc@@QAEXH@Z 004ce6e0 f   FreePcbDoc.obj
 0002:00057d80       ?DRC@CFreePcbDoc@@QAEXXZ   004ced80 f   FreePcbDoc.obj
 0002:00057dc0       ?GetGerberPathes@CFreePcbDoc@@QAEHV?$CStringT@DV?$StrTraitMFC_DLL@DV?$ChTraitsCRT@D@ATL@@@@@ATL@@@Z 004cedc0 f   FreePcbDoc.obj
 0002:00058a50       ?GetTextListbyLayer@CFreePcbDoc@@QAEPAVCTextList@@H@Z 004cfa50 f   FreePcbDoc.obj
 0002:00058b40       ?GetFreeNet@CFreePcbDoc@@QAEPAVCText@@PAV?$CStringT@DV?$StrTraitMFC_DLL@DV?$ChTraitsCRT@D@ATL@@@@@ATL@@HHHH@Z 004cfb40 f   FreePcbDoc.obj
 0002:00058de0       ?CheckFree@CFreePcbDoc@@QAEHPAVCPolyLine@@H@Z 004cfde0 f   FreePcbDoc.obj
 0002:00058e80       ?FindFreePolyline@CFreePcbDoc@@QAEHH@Z 004cfe80 f   FreePcbDoc.obj
 0002:00058f60       ?CreatePCBNets@CFreePcbDoc@@QAEXXZ 004cff60 f   FreePcbDoc.obj
 0002:0005ab90       ??0poly_ptr_array@@QAE@XZ  004d1b90 f i FreePcbDoc.obj
 0002:0005ac00       ??1poly_ptr_array@@QAE@XZ  004d1c00 f i FreePcbDoc.obj
 0002:0005ac60       ?FindNodeLines@CFreePcbDoc@@QAEHPAVCText@@0PAHHPAUpoly_ptr_array@@PAUtagRECT@@@Z 004d1c60 f   FreePcbDoc.obj
 0002:0005af50       ?FindNodeLine@CFreePcbDoc@@QAEHHPAVCText@@0HHPAV?$CArray@PAVCPolyLine@@ABQAV1@@@PAUtagRECT@@@Z 004d1f50 f   FreePcbDoc.obj
 0002:0005c1c0       ?abs@@YAJJ@Z               004d31c0 f i FreePcbDoc.obj
 0002:0005c210       ?ScanAttr@CFreePcbDoc@@QAEPAVCText@@PAVCPolyLine@@PAH@Z 004d3210 f   FreePcbDoc.obj
 0002:0005c2e0       ?AttributeIndexing@CFreePcbDoc@@QAEXPAVCText@@H@Z 004d32e0 f   FreePcbDoc.obj
 0002:0005c440       ?AttributeIndexing@CFreePcbDoc@@QAEXH@Z 004d3440 f   FreePcbDoc.obj
 0002:0005c570       ?GetPartBounds@CFreePcbDoc@@QAE?AUtagRECT@@PAVCText@@0@Z 004d3570 f   FreePcbDoc.obj
 0002:0005c7b0       ?GetPolylineBounds@CFreePcbDoc@@QAE?AUtagRECT@@XZ 004d37b0 f   FreePcbDoc.obj
 0002:0005c9e0       ?SelectPart@CFreePcbDoc@@QAEXPAVCText@@0H@Z 004d39e0 f   FreePcbDoc.obj
 0002:0005cf10       ?HighlightPartAttributes@CFreePcbDoc@@QAEXPAVCText@@0@Z 004d3f10 f   FreePcbDoc.obj
 0002:0005d150       ?SelectPartAttributes@CFreePcbDoc@@QAEXPAVCText@@H@Z 004d4150 f   FreePcbDoc.obj
 0002:0005d340       ?SelectPinAttributes@CFreePcbDoc@@QAEXPAVCPolyLine@@H@Z 004d4340 f   FreePcbDoc.obj
 0002:0005d570       ?SelectLineAttributes@CFreePcbDoc@@QAEXPAVCPolyLine@@H@Z 004d4570 f   FreePcbDoc.obj
 0002:0005d850       ?SelectGroupAttributes@CFreePcbDoc@@QAEXXZ 004d4850 f   FreePcbDoc.obj
 0002:0005d9c0       ?HighlightLineAttributes@CFreePcbDoc@@QAEXPAVCPolyLine@@@Z 004d49c0 f   FreePcbDoc.obj
 0002:0005db90       ?RenumberPartDesignations@CFreePcbDoc@@QAEXXZ 004d4b90 f   FreePcbDoc.obj
 0002:0005e070       ?ClearPartDesignations@CFreePcbDoc@@QAEXXZ 004d5070 f   FreePcbDoc.obj
 0002:0005e0b0       ?RaisePartNumbers@CFreePcbDoc@@QAEXXZ 004d50b0 f   FreePcbDoc.obj
 0002:0005e0f0       ?ExcludePartNumbers@CFreePcbDoc@@QAEXXZ 004d50f0 f   FreePcbDoc.obj
 0002:0005e130       ?ReadFootprintFolder@CFreePcbDoc@@QAEXXZ 004d5130 f   FreePcbDoc.obj
 0002:0005e370       ?ReadFootprintNames@CFreePcbDoc@@QAEXPAV?$CStringT@DV?$StrTraitMFC_DLL@DV?$ChTraitsCRT@D@ATL@@@@@ATL@@@Z 004d5370 f   FreePcbDoc.obj
 0002:0005e9e0       ??8ATL@@YA_NABV?$CStringT@DV?$StrTraitMFC_DLL@DV?$ChTraitsCRT@D@ATL@@@@@0@0@Z 004d59e0 f i FreePcbDoc.obj
 0002:0005ea60       ??9ATL@@YA_NABV?$CStringT@DV?$StrTraitMFC_DLL@DV?$ChTraitsCRT@D@ATL@@@@@0@0@Z 004d5a60 f i FreePcbDoc.obj
 0002:0005eae0       ??9ATL@@YA_NABV?$CStringT@DV?$StrTraitMFC_DLL@DV?$ChTraitsCRT@D@ATL@@@@@0@PBD@Z 004d5ae0 f i FreePcbDoc.obj
 0002:0005eb50       ??0?$CArray@PAVCPolyLine@@ABQAV1@@@QAE@XZ 004d5b50 f i FreePcbDoc.obj
 0002:0005ebe0       ?GetSize@?$CArray@PAVCPolyLine@@ABQAV1@@@QBEHXZ 004d5be0 f i FreePcbDoc.obj
 0002:0005ec20       ?Add@?$CArray@PAVCPolyLine@@ABQAV1@@@QAEHABQAVCPolyLine@@@Z 004d5c20 f i FreePcbDoc.obj
 0002:0005ec90       ??A?$CArray@PAVCPolyLine@@ABQAV1@@@QAEAAPAVCPolyLine@@H@Z 004d5c90 f i FreePcbDoc.obj
 0002:0005ecf0       ??0?$CArray@VCPolyLine@@ABV1@@@QAE@XZ 004d5cf0 f i FreePcbDoc.obj
 0002:0005ed80       ?RemoveAll@?$CArray@VCPolyLine@@ABV1@@@QAEXXZ 004d5d80 f i FreePcbDoc.obj
 0002:0005ede0       ??A?$CArray@VCPolyLine@@ABV1@@@QAEAAVCPolyLine@@H@Z 004d5de0 f i FreePcbDoc.obj
 0002:0005ee40       ??0?$CArray@NABN@@QAE@XZ   004d5e40 f i FreePcbDoc.obj
 0002:0005eed0       ?GetSize@?$CArray@NABN@@QBEHXZ 004d5ed0 f i FreePcbDoc.obj
 0002:0005ef10       ?RemoveAll@?$CArray@NABN@@QAEXXZ 004d5f10 f i FreePcbDoc.obj
 0002:0005ef70       ?Add@?$CArray@NABN@@QAEHABN@Z 004d5f70 f i FreePcbDoc.obj
 0002:0005efe0       ??A?$CArray@NABN@@QAEAANH@Z 004d5fe0 f i FreePcbDoc.obj
 0002:0005f040       ??0?$CArray@VCArc@@ABV1@@@QAE@XZ 004d6040 f i FreePcbDoc.obj
 0002:0005f0d0       ??1?$CArray@VCArc@@ABV1@@@UAE@XZ 004d60d0 f i FreePcbDoc.obj
 0002:0005f1e0       ?Serialize@?$CArray@VCArc@@ABV1@@@UAEXAAVCArchive@@@Z 004d61e0 f i FreePcbDoc.obj
 0002:0005f2b0       ?Dump@?$CArray@VCArc@@ABV1@@@UBEXAAVCDumpContext@@@Z 004d62b0 f i FreePcbDoc.obj
 0002:0005f390       ?AssertValid@?$CArray@VCArc@@ABV1@@@UBEXXZ 004d6390 f i FreePcbDoc.obj
 0002:0005f4f0       ??_G?$CArray@VCArc@@ABV1@@@UAEPAXI@Z 004d64f0 f i FreePcbDoc.obj
 0002:0005f4f0       ??_E?$CArray@VCArc@@ABV1@@@UAEPAXI@Z 004d64f0 f i FreePcbDoc.obj
 0002:0005f560       ?ElementAt@?$CArray@PAVCPolyLine@@ABQAV1@@@QAEAAPAVCPolyLine@@H@Z 004d6560 f i FreePcbDoc.obj
 0002:0005f610       ?SetAtGrow@?$CArray@PAVCPolyLine@@ABQAV1@@@QAEXHABQAVCPolyLine@@@Z 004d6610 f i FreePcbDoc.obj
 0002:0005f6e0       ?ElementAt@?$CArray@VCPolyLine@@ABV1@@@QAEAAVCPolyLine@@H@Z 004d66e0 f i FreePcbDoc.obj
 0002:0005f790       ?ElementAt@?$CArray@NABN@@QAEAANH@Z 004d6790 f i FreePcbDoc.obj
 0002:0005f840       ?SetAtGrow@?$CArray@NABN@@QAEXHABN@Z 004d6840 f i FreePcbDoc.obj
 0002:0005f910       ?SetSize@?$CArray@VCArc@@ABV1@@@QAEXHH@Z 004d6910 f i FreePcbDoc.obj
 0002:0005feb0       ??$SerializeElements@VCArc@@@@YGXAAVCArchive@@PAVCArc@@H@Z 004d6eb0 f i FreePcbDoc.obj
 0002:000600a0       ??$DumpElements@VCArc@@@@YGXAAVCDumpContext@@PBVCArc@@H@Z 004d70a0 f i FreePcbDoc.obj
 0002:00060190       ?GetAdapter@CDocument@@UAEPAUIDocument@ATL@@XZ 004d7190 f i FreePcbDoc.obj
 0002:00060360       ??0CDocumentAdapter@CDocument@@QAE@PAV1@@Z 004d7360 f i FreePcbDoc.obj
 0002:000603d0       ??0IDocument@ATL@@IAE@XZ   004d73d0 f i FreePcbDoc.obj
 0002:00060420       ?AddRef@IDocument@ATL@@UAEJXZ 004d7420 f i FreePcbDoc.obj
 0002:00060480       ?Release@IDocument@ATL@@UAEJXZ 004d7480 f i FreePcbDoc.obj
 0002:00060580       ??_GIDocument@ATL@@UAEPAXI@Z 004d7580 f i FreePcbDoc.obj
 0002:00060580       ??_EIDocument@ATL@@UAEPAXI@Z 004d7580 f i FreePcbDoc.obj
 0002:000605f0       ??1IDocument@ATL@@UAE@XZ   004d75f0 f i FreePcbDoc.obj
 0002:00060630       ?LoadFromStream@CDocumentAdapter@CDocument@@UAEJPAUIStream@@K@Z 004d7630 f i FreePcbDoc.obj
 0002:00060760       ??0CTraceFileAndLineInfo@ATL@@QAE@PBDH@Z 004d7760 f i FreePcbDoc.obj
 0002:000607b0       ??RCTraceFileAndLineInfo@ATL@@QBAXPBDZZ 004d77b0 f i FreePcbDoc.obj
 0002:00060840       ?TraceV@CTrace@ATL@@QBAXPBDHKI0PAD@Z 004d7840 f i FreePcbDoc.obj
 0002:000608b0       ??BCTraceCategory@ATL@@QBEKXZ 004d78b0 f i FreePcbDoc.obj
 0002:000608f0       ?InitializeSearchContent@CDocumentAdapter@CDocument@@UAEXXZ 004d78f0 f i FreePcbDoc.obj
 0002:000609c0       ?ClearChunkList@CDocumentAdapter@CDocument@@UAEXXZ 004d79c0 f i FreePcbDoc.obj
 0002:00060a90       ?SetChunkValue@CDocumentAdapter@CDocument@@UAEHPAUIFilterChunkValue@ATL@@@Z 004d7a90 f i FreePcbDoc.obj
 0002:00060b60       ?BeginReadChunks@CDocumentAdapter@CDocument@@UAEXXZ 004d7b60 f i FreePcbDoc.obj
 0002:00060c30       ?ReadNextChunkValue@CDocumentAdapter@CDocument@@UAEHPAPAUIFilterChunkValue@ATL@@@Z 004d7c30 f i FreePcbDoc.obj
 0002:00060d00       ?RemoveChunk@CDocumentAdapter@CDocument@@UAEXABU_GUID@@K@Z 004d7d00 f i FreePcbDoc.obj
 0002:00060de0       ?FindChunk@CDocumentAdapter@CDocument@@UAEPAU__POSITION@@ABU_GUID@@K@Z 004d7de0 f i FreePcbDoc.obj
 0002:00060ec0       ?GetContainer@CDocumentAdapter@CDocument@@UBEPAXXZ 004d7ec0 f i FreePcbDoc.obj
 0002:00060f00       ?GetThumbnail@CDocumentAdapter@CDocument@@UAEHIPAPAUHBITMAP__@@PAW4WTS_ALPHATYPE@@@Z 004d7f00 f i FreePcbDoc.obj
 0002:00060fe0       ?OnBeforeRichPreviewFontChanged@CDocument@@UAEXXZ 004d7fe0 f i FreePcbDoc.obj
 0002:00061020       ?OnRichPreviewFontChanged@CDocument@@UAEXXZ 004d8020 f i FreePcbDoc.obj
 0002:00061060       ?OnRichPreviewTextColorChanged@CDocument@@UAEXXZ 004d8060 f i FreePcbDoc.obj
 0002:000610a0       ?OnRichPreviewBackColorChanged@CDocument@@UAEXXZ 004d80a0 f i FreePcbDoc.obj
 0002:000610e0       ?OnRichPreviewSiteChanged@CDocument@@UAEXXZ 004d80e0 f i FreePcbDoc.obj
 0002:00061120       ?InitializeSearchContent@CDocument@@UAEXXZ 004d8120 f i FreePcbDoc.obj
 0002:000611a0       ??_ECDocumentAdapter@CDocument@@UAEPAXI@Z 004d81a0 f i FreePcbDoc.obj
 0002:000611a0       ??_GCDocumentAdapter@CDocument@@UAEPAXI@Z 004d81a0 f i FreePcbDoc.obj
 0002:00061210       ??1CDocumentAdapter@CDocument@@UAE@XZ 004d8210 f i FreePcbDoc.obj
 0002:00061330       ?GetGridStyle@CDisplayList@@QAEHXZ 004d8330 f i FreePcbDoc.obj
 0002:00061370       ?SetGridStyle@CDisplayList@@QAEXH@Z 004d8370 f i FreePcbDoc.obj
 0002:000613c0       ?GetTopLayer@CDisplayList@@QAEHXZ 004d83c0 f i FreePcbDoc.obj
 0002:00061400       ?SetTopLayer@CDisplayList@@QAEXH@Z 004d8400 f i FreePcbDoc.obj
 0002:00061450       ?Show@CPolyLine@@QAEXXZ    004d8450 f i FreePcbDoc.obj
 0002:000614b0       ?Hide@CPolyLine@@QAEXXZ    004d84b0 f i FreePcbDoc.obj
 0002:00061510       ?GetHatch@CPolyLine@@QAEHXZ 004d8510 f i FreePcbDoc.obj
 0002:00061550       ?GetUtility@CPolyLine@@QAEHXZ 004d8550 f i FreePcbDoc.obj
 0002:00061590       ?SetUtility@CPolyLine@@QAEXH@Z 004d8590 f i FreePcbDoc.obj
 0002:000615e0       ?SetHatch@CPolyLine@@QAEXH@Z 004d85e0 f i FreePcbDoc.obj
 0002:00061650       ?GetGpcPoly@CPolyLine@@QAEPAUgpc_polygon@@XZ 004d8650 f i FreePcbDoc.obj
 0002:00061690       ??0StrList@@QAE@XZ         004d8690 f i FreePcbDoc.obj
 0002:00061780       ?AddNew@StrList@@QAEHV?$CStringT@DV?$StrTraitMFC_DLL@DV?$ChTraitsCRT@D@ATL@@@@@ATL@@@Z 004d8780 f i FreePcbDoc.obj
 0002:00061980       ?Clear@StrList@@QAEXXZ     004d8980 f i FreePcbDoc.obj
 0002:000619f0       ??_GStrList@@UAEPAXI@Z     004d89f0 f i FreePcbDoc.obj
 0002:000619f0       ??_EStrList@@UAEPAXI@Z     004d89f0 f i FreePcbDoc.obj
 0002:00061a60       ??1StrList@@UAE@XZ         004d8a60 f i FreePcbDoc.obj
 0002:00061b20       ?OnFileCam1@CFreePcbDoc@@QAEXXZ 004d8b20 f i FreePcbDoc.obj
 0002:00061c30       ?OnFileCam2@CFreePcbDoc@@QAEXXZ 004d8c30 f i FreePcbDoc.obj
 0002:00061d40       ?OnFileCam3@CFreePcbDoc@@QAEXXZ 004d8d40 f i FreePcbDoc.obj
 0002:00061e50       ?OnFileCam4@CFreePcbDoc@@QAEXXZ 004d8e50 f i FreePcbDoc.obj
 0002:00061f60       ?OnFileCam5@CFreePcbDoc@@QAEXXZ 004d8f60 f i FreePcbDoc.obj
 0002:00062070       ?OnFileCam6@CFreePcbDoc@@QAEXXZ 004d9070 f i FreePcbDoc.obj
 0002:00062180       ?OnFileCam7@CFreePcbDoc@@QAEXXZ 004d9180 f i FreePcbDoc.obj
 0002:00062290       ?OnFileCam8@CFreePcbDoc@@QAEXXZ 004d9290 f i FreePcbDoc.obj
 0002:000623a0       ?OnFileCam9@CFreePcbDoc@@QAEXXZ 004d93a0 f i FreePcbDoc.obj
 0002:000624b0       ?OnFileCam10@CFreePcbDoc@@QAEXXZ 004d94b0 f i FreePcbDoc.obj
 0002:000625c0       ?OnFileCam11@CFreePcbDoc@@QAEXXZ 004d95c0 f i FreePcbDoc.obj
 0002:000626d0       ?OnFileCam12@CFreePcbDoc@@QAEXXZ 004d96d0 f i FreePcbDoc.obj
 0002:000627e0       ?OnFileCam13@CFreePcbDoc@@QAEXXZ 004d97e0 f i FreePcbDoc.obj
 0002:000628f0       ?OnFileCam14@CFreePcbDoc@@QAEXXZ 004d98f0 f i FreePcbDoc.obj
 0002:00062a00       ?OnFileCam15@CFreePcbDoc@@QAEXXZ 004d9a00 f i FreePcbDoc.obj
 0002:00062b10       ?OnFileCam16@CFreePcbDoc@@QAEXXZ 004d9b10 f i FreePcbDoc.obj
 0002:00062c20       ?OnFileCam17@CFreePcbDoc@@QAEXXZ 004d9c20 f i FreePcbDoc.obj
 0002:00062d30       ?OnFileCam18@CFreePcbDoc@@QAEXXZ 004d9d30 f i FreePcbDoc.obj
 0002:00062e40       ?OnFileCam19@CFreePcbDoc@@QAEXXZ 004d9e40 f i FreePcbDoc.obj
 0002:00062f50       ?OnFileCam20@CFreePcbDoc@@QAEXXZ 004d9f50 f i FreePcbDoc.obj
 0002:00063060       ?OnFileCam21@CFreePcbDoc@@QAEXXZ 004da060 f i FreePcbDoc.obj
 0002:00063170       ?InvalidateLeftPane@CFreePcbView@@QAEXXZ 004da170 f i FreePcbDoc.obj
 0002:000631c0       ??0?$CArray@HABH@@QAE@XZ   004da1c0 f i FreePcbDoc.obj
 0002:00063250       ?RemoveAll@?$CArray@HABH@@QAEXXZ 004da250 f i FreePcbDoc.obj
 0002:000632b0       ?SetSize@?$CArray@HABH@@QAEXHH@Z 004da2b0 f i FreePcbDoc.obj
 0002:00063840       ?Add@?$CArray@HABH@@QAEHABH@Z 004da840 f i FreePcbDoc.obj
 0002:000638b0       ??1?$CArray@HABH@@UAE@XZ   004da8b0 f i FreePcbDoc.obj
 0002:000639c0       ?Serialize@?$CArray@HABH@@UAEXAAVCArchive@@@Z 004da9c0 f i FreePcbDoc.obj
 0002:00063a90       ?Dump@?$CArray@HABH@@UBEXAAVCDumpContext@@@Z 004daa90 f i FreePcbDoc.obj
 0002:00063b70       ?AssertValid@?$CArray@HABH@@UBEXXZ 004dab70 f i FreePcbDoc.obj
 0002:00063cd0       ?RemoveAll@?$CArray@V?$CStringT@DV?$StrTraitMFC_DLL@DV?$ChTraitsCRT@D@ATL@@@@@ATL@@ABV12@@@QAEXXZ 004dacd0 f i FreePcbDoc.obj
 0002:00063d30       ?Add@?$CArray@V?$CStringT@DV?$StrTraitMFC_DLL@DV?$ChTraitsCRT@D@ATL@@@@@ATL@@ABV12@@@QAEHABV?$CStringT@DV?$StrTraitMFC_DLL@DV?$ChTraitsCRT@D@ATL@@@@@ATL@@@Z 004dad30 f i FreePcbDoc.obj
 0002:00063da0       ??1?$CArray@PAVCPolyLine@@ABQAV1@@@UAE@XZ 004dada0 f i FreePcbDoc.obj
 0002:00063eb0       ?Serialize@?$CArray@PAVCPolyLine@@ABQAV1@@@UAEXAAVCArchive@@@Z 004daeb0 f i FreePcbDoc.obj
 0002:00063f80       ?Dump@?$CArray@PAVCPolyLine@@ABQAV1@@@UBEXAAVCDumpContext@@@Z 004daf80 f i FreePcbDoc.obj
 0002:00064060       ?AssertValid@?$CArray@PAVCPolyLine@@ABQAV1@@@UBEXXZ 004db060 f i FreePcbDoc.obj
 0002:000641c0       ??1?$CArray@VCPolyLine@@ABV1@@@UAE@XZ 004db1c0 f i FreePcbDoc.obj
 0002:000642f0       ?Serialize@?$CArray@VCPolyLine@@ABV1@@@UAEXAAVCArchive@@@Z 004db2f0 f i FreePcbDoc.obj
 0002:000643c0       ?Dump@?$CArray@VCPolyLine@@ABV1@@@UBEXAAVCDumpContext@@@Z 004db3c0 f i FreePcbDoc.obj
 0002:000644a0       ?AssertValid@?$CArray@VCPolyLine@@ABV1@@@UBEXXZ 004db4a0 f i FreePcbDoc.obj
 0002:00064600       ??1?$CArray@NABN@@UAE@XZ   004db600 f i FreePcbDoc.obj
 0002:00064710       ?Serialize@?$CArray@NABN@@UAEXAAVCArchive@@@Z 004db710 f i FreePcbDoc.obj
 0002:000647e0       ?Dump@?$CArray@NABN@@UBEXAAVCDumpContext@@@Z 004db7e0 f i FreePcbDoc.obj
 0002:000648c0       ?AssertValid@?$CArray@NABN@@UBEXXZ 004db8c0 f i FreePcbDoc.obj
 0002:00064a20       ??_G?$CArray@HABH@@UAEPAXI@Z 004dba20 f i FreePcbDoc.obj
 0002:00064a20       ??_E?$CArray@HABH@@UAEPAXI@Z 004dba20 f i FreePcbDoc.obj
 0002:00064a90       ??_E?$CArray@PAVCPolyLine@@ABQAV1@@@UAEPAXI@Z 004dba90 f i FreePcbDoc.obj
 0002:00064a90       ??_G?$CArray@PAVCPolyLine@@ABQAV1@@@UAEPAXI@Z 004dba90 f i FreePcbDoc.obj
 0002:00064b00       ??_G?$CArray@VCPolyLine@@ABV1@@@UAEPAXI@Z 004dbb00 f i FreePcbDoc.obj
 0002:00064b00       ??_E?$CArray@VCPolyLine@@ABV1@@@UAEPAXI@Z 004dbb00 f i FreePcbDoc.obj
 0002:00064b70       ??_GCPolyLine@@QAEPAXI@Z   004dbb70 f i FreePcbDoc.obj
 0002:00064be0       ??_G?$CArray@NABN@@UAEPAXI@Z 004dbbe0 f i FreePcbDoc.obj
 0002:00064be0       ??_E?$CArray@NABN@@UAEPAXI@Z 004dbbe0 f i FreePcbDoc.obj
 0002:00064c50       ?SetAtGrow@?$CArray@HABH@@QAEXHABH@Z 004dbc50 f i FreePcbDoc.obj
 0002:00064d20       ?SetSize@?$CArray@PAVCPolyLine@@ABQAV1@@@QAEXHH@Z 004dbd20 f i FreePcbDoc.obj
 0002:000652b0       ??$SerializeElements@PAVCPolyLine@@@@YGXAAVCArchive@@PAPAVCPolyLine@@H@Z 004dc2b0 f i FreePcbDoc.obj
 0002:000654a0       ??$DumpElements@PAVCPolyLine@@@@YGXAAVCDumpContext@@PBQAVCPolyLine@@H@Z 004dc4a0 f i FreePcbDoc.obj
 0002:00065590       ?SetSize@?$CArray@VCPolyLine@@ABV1@@@QAEXHH@Z 004dc590 f i FreePcbDoc.obj
 0002:00065ce0       ??$SerializeElements@VCPolyLine@@@@YGXAAVCArchive@@PAVCPolyLine@@H@Z 004dcce0 f i FreePcbDoc.obj
 0002:00065ee0       ??$DumpElements@VCPolyLine@@@@YGXAAVCDumpContext@@PBVCPolyLine@@H@Z 004dcee0 f i FreePcbDoc.obj
 0002:00065fd0       ?SetSize@?$CArray@NABN@@QAEXHH@Z 004dcfd0 f i FreePcbDoc.obj
 0002:00066560       ??$SerializeElements@N@@YGXAAVCArchive@@PANH@Z 004dd560 f i FreePcbDoc.obj
 0002:00066750       ??$DumpElements@N@@YGXAAVCDumpContext@@PBNH@Z 004dd750 f i FreePcbDoc.obj
 0002:00066840       ?CreateObject@CFreePcbView@@SGPAVCObject@@XZ 004dd840 f   FreePcbView.obj
 0002:00066930       ?_GetBaseClass@CFreePcbView@@KGPAUCRuntimeClass@@XZ 004dd930 f   FreePcbView.obj
 0002:00066980       ?GetThisClass@CFreePcbView@@SGPAUCRuntimeClass@@XZ 004dd980 f   FreePcbView.obj
 0002:000669c0       ?GetRuntimeClass@CFreePcbView@@UBEPAUCRuntimeClass@@XZ 004dd9c0 f   FreePcbView.obj
 0002:00066a00       ?GetMessageMap@CFreePcbView@@MBEPBUAFX_MSGMAP@@XZ 004dda00 f   FreePcbView.obj
 0002:00066a50       ?GetThisMessageMap@CFreePcbView@@KGPBUAFX_MSGMAP@@XZ 004dda50 f   FreePcbView.obj
 0002:00066a90       ??0CFreePcbView@@QAE@XZ    004dda90 f   FreePcbView.obj
 0002:00066e30       ??_GCFreePcbView@@UAEPAXI@Z 004dde30 f i FreePcbView.obj
 0002:00066e30       ??_ECFreePcbView@@UAEPAXI@Z 004dde30 f i FreePcbView.obj
 0002:00066ea0       ?InitInstance@CFreePcbView@@QAEXXZ 004ddea0 f   FreePcbView.obj
 0002:00067190       ?InitializeView@CFreePcbView@@QAEXXZ 004de190 f   FreePcbView.obj
 0002:000674d0       ??1CFreePcbView@@UAE@XZ    004de4d0 f   FreePcbView.obj
 0002:00067620       ?PreCreateWindow@CFreePcbView@@UAEHAAUtagCREATESTRUCTA@@@Z 004de620 f   FreePcbView.obj
 0002:00067680       ?OnDraw@CFreePcbView@@UAEXPAVCDC@@@Z 004de680 f   FreePcbView.obj
 0002:00067ea0       ?OnPreparePrinting@CFreePcbView@@MAEHPAUCPrintInfo@@@Z 004deea0 f   FreePcbView.obj
 0002:00067f00       ?OnBeginPrinting@CFreePcbView@@MAEXPAVCDC@@PAUCPrintInfo@@@Z 004def00 f   FreePcbView.obj
 0002:00067f40       ?OnEndPrinting@CFreePcbView@@MAEXPAVCDC@@PAUCPrintInfo@@@Z 004def40 f   FreePcbView.obj
 0002:00067f80       ?AssertValid@CFreePcbView@@UBEXXZ 004def80 f   FreePcbView.obj
 0002:00067fd0       ?Dump@CFreePcbView@@UBEXAAVCDumpContext@@@Z 004defd0 f   FreePcbView.obj
 0002:00068030       ?GetDocument@CFreePcbView@@QAEPAVCFreePcbDoc@@XZ 004df030 f   FreePcbView.obj
 0002:000680d0       ?OnSize@CFreePcbView@@IAEXIHH@Z 004df0d0 f   FreePcbView.obj
 0002:00068710       ?OnLButtonUp@CFreePcbView@@QAEXIVCPoint@@@Z 004df710 f   FreePcbView.obj
 0002:0006ae30       ?OnLButtonDblClk@CFreePcbView@@IAEXIVCPoint@@@Z 004e1e30 f   FreePcbView.obj
 0002:0006ae90       ?OnRButtonDown@CFreePcbView@@IAEXIVCPoint@@@Z 004e1e90 f   FreePcbView.obj
 0002:0006b540       ?OnSysKeyDown@CFreePcbView@@IAEXIII@Z 004e2540 f   FreePcbView.obj
 0002:0006b5d0       ?OnSysKeyUp@CFreePcbView@@IAEXIII@Z 004e25d0 f   FreePcbView.obj
 0002:0006b640       ?OnKeyUp@CFreePcbView@@QAEXIII@Z 004e2640 f   FreePcbView.obj
 0002:0006b6f0       ?OnKeyDown@CFreePcbView@@IAEXIII@Z 004e26f0 f   FreePcbView.obj
 0002:0006b7e0       ?HandleKeyPress@CFreePcbView@@QAEXIII@Z 004e27e0 f   FreePcbView.obj
 0002:0006ec30       ?OnMouseMove@CFreePcbView@@IAEXIVCPoint@@@Z 004e5c30 f   FreePcbView.obj
 0002:0006f090       ?SetDCToWorldCoords@CFreePcbView@@QAEHPAVCDC@@@Z 004e6090 f   FreePcbView.obj
 0002:0006f130       ?SetCursorMode@CFreePcbView@@QAEXH@Z 004e6130 f   FreePcbView.obj
 0002:0006f1f0       ?SetFKText@CFreePcbView@@QAEXH@Z 004e61f0 f   FreePcbView.obj
 0002:0006fe70       ?DrawBottomPane@CFreePcbView@@QAEXXZ 004e6e70 f   FreePcbView.obj
 0002:00070230       ?ShowRelativeDistance@CFreePcbView@@QAEXHH@Z 004e7230 f   FreePcbView.obj
 0002:00070440       ?ShowRelativeDistance@CFreePcbView@@QAEXHHHH@Z 004e7440 f   FreePcbView.obj
 0002:00070690       ?ShowSelectStatus@CFreePcbView@@QAEHXZ 004e7690 f   FreePcbView.obj
 0002:000716f0       ?ShowCursor@CFreePcbView@@QAEHXZ 004e86f0 f   FreePcbView.obj
 0002:000719a0       ?ShowActiveLayer@CFreePcbView@@QAEHHH@Z 004e89a0 f   FreePcbView.obj
 0002:00071da0       ?OnMouseWheel@CFreePcbView@@IAEHIFVCPoint@@@Z 004e8da0 f   FreePcbView.obj
 0002:00072640       ?CancelSelection@CFreePcbView@@QAEXH@Z 004e9640 f   FreePcbView.obj
 0002:00072d80       ?ProjectRunInfoBox@CFreePcbView@@QAEXXZ 004e9d80 f   FreePcbView.obj
 0002:000730e0       ?OnProjectRunInfoBox@CFreePcbView@@QAEXXZ 004ea0e0 f   FreePcbView.obj
 0002:00073150       ?OnSetOriginToSelectedItem@CFreePcbView@@QAEXXZ 004ea150 f   FreePcbView.obj
 0002:000731b0       ?SetOriginToSelectedItem@CFreePcbView@@QAEXXZ 004ea1b0 f   FreePcbView.obj
 0002:00073410       ?OnContextMenu@CFreePcbView@@QAEXPAVCWnd@@VCPoint@@@Z 004ea410 f   FreePcbView.obj
 0002:00073b10       ?OnTextMove@CFreePcbView@@QAEXXZ 004eab10 f   FreePcbView.obj
 0002:00073cc0       ?OnPartRemoveMerge@CFreePcbView@@QAEXXZ 004eacc0 f   FreePcbView.obj
 0002:00073e00       ?OnTextEdit@CFreePcbView@@QAEXXZ 004eae00 f   FreePcbView.obj
 0002:000742e0       ?OnOPCornerMove@CFreePcbView@@QAEXXZ 004eb2e0 f   FreePcbView.obj
 0002:00074490       ?OnOPCornerEdit@CFreePcbView@@QAEXXZ 004eb490 f   FreePcbView.obj
 0002:00074a60       ?GetX@DlgEditBoardCorner@@QAEHXZ 004eba60 f i FreePcbView.obj
 0002:00074aa0       ?GetY@DlgEditBoardCorner@@QAEHXZ 004ebaa0 f i FreePcbView.obj
 0002:00074ae0       ?OnOPCornerDelete@CFreePcbView@@QAEXXZ 004ebae0 f   FreePcbView.obj
 0002:00074c70       ?SelPolylineTest@CFreePcbView@@QAEXPAPAVCText@@PAV?$CStringT@DV?$StrTraitMFC_DLL@DV?$ChTraitsCRT@D@ATL@@@@@ATL@@11PAH222H@Z 004ebc70 f   FreePcbView.obj
 0002:00075320       ?MultipleAttributes@CFreePcbView@@QAEXH@Z 004ec320 f   FreePcbView.obj
 0002:000777a0       ?OnOPSetAttributes@CFreePcbView@@QAEXXZ 004ee7a0 f   FreePcbView.obj
 0002:00078c60       ?OnOPSideAddCorner@CFreePcbView@@QAEXXZ 004efc60 f   FreePcbView.obj
 0002:00078d90       ?CurNone@CFreePcbView@@QAEHXZ 004efd90 f   FreePcbView.obj
 0002:00078de0       ?CurSelected@CFreePcbView@@QAEHXZ 004efde0 f   FreePcbView.obj
 0002:00078e60       ?CurDragging@CFreePcbView@@QAEHXZ 004efe60 f   FreePcbView.obj
 0002:00078ef0       ?CurDraggingPlacement@CFreePcbView@@QAEHXZ 004efef0 f   FreePcbView.obj
 0002:00078fa0       ?SnapCursorPoint@CFreePcbView@@QAEXVCPoint@@I@Z 004effa0 f   FreePcbView.obj
 0002:0007a9b0       ?OnChangeVisibleGrid@CFreePcbView@@QAEJIJ@Z 004f19b0 f   FreePcbView.obj
 0002:0007aa80       ?OnChangePlacementGrid@CFreePcbView@@QAEJIJ@Z 004f1a80 f   FreePcbView.obj
 0002:0007ab20       ?OnChangeTextGrid@CFreePcbView@@QAEJIJ@Z 004f1b20 f   FreePcbView.obj
 0002:0007ac10       ?OnChangeSnapAngle@CFreePcbView@@QAEJIJ@Z 004f1c10 f   FreePcbView.obj
 0002:0007ad40       ?OnChangeUnits@CFreePcbView@@QAEJIJ@Z 004f1d40 f   FreePcbView.obj
 0002:0007ae30       ?OnEraseBkgnd@CFreePcbView@@QAEHPAVCDC@@@Z 004f1e30 f   FreePcbView.obj
 0002:0007ae80       ?OnOPSideConvertToStraightLine@CFreePcbView@@QAEXXZ 004f1e80 f   FreePcbView.obj
 0002:0007af90       ?OnOPSideConvertToArcCw@CFreePcbView@@QAEXXZ 004f1f90 f   FreePcbView.obj
 0002:0007b0a0       ?OnOPSideConvertToArcCcw@CFreePcbView@@QAEXXZ 004f20a0 f   FreePcbView.obj
 0002:0007b1b0       ?SaveUndoInfoForGroup@CFreePcbView@@QAEHPAVCUndoList@@HH@Z 004f21b0 f   FreePcbView.obj
 0002:0007bbb0       ??0undo_group_descriptor@@QAE@XZ 004f2bb0 f i FreePcbView.obj
 0002:0007bc60       ?SaveUndoInfoForMoveOrigin@CFreePcbView@@QAEXHHPAVCUndoList@@@Z 004f2c60 f   FreePcbView.obj
 0002:0007bd30       ?SaveUndoInfoForOutlinePoly@CFreePcbView@@QAEXHHPAVCUndoList@@@Z 004f2d30 f   FreePcbView.obj
 0002:0007be20       ?SaveUndoInfoForText@CFreePcbView@@QAEXPAVCText@@HPAVCUndoList@@@Z 004f2e20 f   FreePcbView.obj
 0002:0007bf00       ?ViewAllElements@CFreePcbView@@QAE?AUtagRECT@@XZ 004f2f00 f   FreePcbView.obj
 0002:0007c3e0       ?OnViewAllElements@CFreePcbView@@QAEXXZ 004f33e0 f   FreePcbView.obj
 0002:0007c460       ?OnViewFindAttr@CFreePcbView@@QAEXXZ 004f3460 f   FreePcbView.obj
 0002:0007d0b0       ?OnDrc@CFreePcbView@@QAEXXZ 004f40b0 f   FreePcbView.obj
 0002:0007d110       ?OnClearDRC@CFreePcbView@@QAEXXZ 004f4110 f   FreePcbView.obj
 0002:0007d170       ?AddOutlinePoly@CFreePcbView@@QAEXHH@Z 004f4170 f   FreePcbView.obj
 0002:0007d920       ?OnAddOutlinePoly@CFreePcbView@@QAEXXZ 004f4920 f   FreePcbView.obj
 0002:0007d980       ?OnAddCutout@CFreePcbView@@QAEXXZ 004f4980 f   FreePcbView.obj
 0002:0007da60       ?OPSetWidth@CFreePcbView@@QAEHXZ 004f4a60 f   FreePcbView.obj
 0002:0007e1b0       ?GetWidth@CDlgAddPoly@@QAEHXZ 004f51b0 f i FreePcbView.obj
 0002:0007e1f0       ?GetClosedFlag@CDlgAddPoly@@QAEHXZ 004f51f0 f i FreePcbView.obj
 0002:0007e230       ?OnOPSetWidth@CFreePcbView@@QAEXXZ 004f5230 f   FreePcbView.obj
 0002:0007e290       ?OPHatchStyle@CFreePcbView@@QAEXXZ 004f5290 f   FreePcbView.obj
 0002:0007e5d0       ?OnOPHatchStyle@CFreePcbView@@QAEXXZ 004f55d0 f   FreePcbView.obj
 0002:0007e630       ?OnToolsMoveOrigin@CFreePcbView@@QAEXXZ 004f5630 f   FreePcbView.obj
 0002:0007e880       ?MoveOrigin@CFreePcbView@@QAEXHH@Z 004f5880 f   FreePcbView.obj
 0002:0007ea10       ?OnLButtonDown@CFreePcbView@@IAEXIVCPoint@@@Z 004f5a10 f   FreePcbView.obj
 0002:0007eab0       ?SelectItemsInRect@CFreePcbView@@QAEXVCRect@@I@Z 004f5ab0 f   FreePcbView.obj
 0002:0007fad0       ?StartDraggingGroup@CFreePcbView@@QAEXHHH@Z 004f6ad0 f   FreePcbView.obj
 0002:000815e0       ?CancelDraggingGroup@CFreePcbView@@QAEXXZ 004f85e0 f   FreePcbView.obj
 0002:00081810       ?TurnGroup@CFreePcbView@@QAEXXZ 004f8810 f   FreePcbView.obj
 0002:00082010       ?OnGroupMove@CFreePcbView@@QAEXXZ 004f9010 f   FreePcbView.obj
 0002:00082160       ?MoveGroup@CFreePcbView@@QAEXHHH@Z 004f9160 f   FreePcbView.obj
 0002:00082690       ?OnInsidePolyline@CFreePcbView@@QAEXXZ 004f9690 f   FreePcbView.obj
 0002:00082de0       ?HighlightGroup@CFreePcbView@@QAEXH@Z 004f9de0 f   FreePcbView.obj
 0002:000831d0       ?SetSelMaskArray@CFreePcbView@@QAEXH@Z 004fa1d0 f   FreePcbView.obj
 0002:00083270       ?OnGroupCopy@CFreePcbView@@QAEXXZ 004fa270 f   FreePcbView.obj
 0002:00083560       ?OnGroupCut@CFreePcbView@@QAEXXZ 004fa560 f   FreePcbView.obj
 0002:000835c0       ?OnGroupDelete@CFreePcbView@@QAEXXZ 004fa5c0 f   FreePcbView.obj
 0002:00083620       ?DeleteGroup@CFreePcbView@@QAEXH@Z 004fa620 f   FreePcbView.obj
 0002:000836d0       ?OnGroupPaste@CFreePcbView@@QAEXHH@Z 004fa6d0 f   FreePcbView.obj
 0002:000856d0       ?OnGroupStaticHighlight@CFreePcbView@@QAEXXZ 004fc6d0 f   FreePcbView.obj
 0002:00085750       ?OnGroupCancelHighlight@CFreePcbView@@QAEXXZ 004fc750 f   FreePcbView.obj
 0002:000857b0       ?GroupCancelHighlight@CFreePcbView@@QAEXXZ 004fc7b0 f   FreePcbView.obj
 0002:00085820       ?OnApproximationArc@CFreePcbView@@QAEXXZ 004fc820 f   FreePcbView.obj
 0002:000858c0       ?OnGroupSaveToFile@CFreePcbView@@QAEXXZ 004fc8c0 f   FreePcbView.obj
 0002:00085e40       ?OnEditCopy@CFreePcbView@@QAEXXZ 004fce40 f   FreePcbView.obj
 0002:00085eb0       ?OnEditPaste@CFreePcbView@@QAEXXZ 004fceb0 f   FreePcbView.obj
 0002:00085f50       ?OnEditCut@CFreePcbView@@QAEXXZ 004fcf50 f   FreePcbView.obj
 0002:00085fc0       ?RotateGroup@CFreePcbView@@QAEXHH@Z 004fcfc0 f   FreePcbView.obj
 0002:00086af0       ?FindGroupCenter@CFreePcbView@@QAEXXZ 004fdaf0 f   FreePcbView.obj
 0002:00086ff0       ?CreateUndoDescriptor@CFreePcbView@@QAEPAXPAVCUndoList@@HPAV?$CStringT@DV?$StrTraitMFC_DLL@DV?$ChTraitsCRT@D@ATL@@@@@ATL@@1HH1PAX@Z 004fdff0 f   FreePcbView.obj
 0002:00087160       ??0undo_descriptor@@QAE@XZ 004fe160 f i FreePcbView.obj
 0002:00087200       ?UndoCallback@CFreePcbView@@SAXPAXH@Z 004fe200 f   FreePcbView.obj
 0002:000874a0       ??_Gundo_descriptor@@QAEPAXI@Z 004fe4a0 f i FreePcbView.obj
 0002:00087510       ??1undo_descriptor@@QAE@XZ 004fe510 f i FreePcbView.obj
 0002:000875b0       ?UndoGroupCallback@CFreePcbView@@SAXPAXH@Z 004fe5b0 f   FreePcbView.obj
 0002:00087930       ??_Gundo_group_descriptor@@QAEPAXI@Z 004fe930 f i FreePcbView.obj
 0002:000879a0       ??1undo_group_descriptor@@QAE@XZ 004fe9a0 f i FreePcbView.obj
 0002:00087a50       ?OnGroupRotate@CFreePcbView@@QAEXXZ 004fea50 f   FreePcbView.obj
 0002:00087ab0       ?RotateGroup@CFreePcbView@@QAEXH@Z 004feab0 f   FreePcbView.obj
 0002:00087b50       ?SetMainMenu@CFreePcbView@@QAEXH@Z 004feb50 f   FreePcbView.obj
 0002:00087c50       ?AlignSides@CFreePcbView@@QAEXHHH@Z 004fec50 f   FreePcbView.obj
 0002:00087fb0       ?TestSelElements@CFreePcbView@@QAEHH@Z 004fefb0 f   FreePcbView.obj
 0002:00087ff0       ?OnSetClearance@CFreePcbView@@QAEXXZ 004feff0 f   FreePcbView.obj
 0002:00089990       ?abs@@YAMM@Z               00500990 f i FreePcbView.obj
 0002:000899f0       _fabsf                     005009f0 f i FreePcbView.obj
 0002:00089a60       ?FindNEXTSegmentOfGroup@CFreePcbView@@QAEXMPAVid@@0@Z 00500a60 f   FreePcbView.obj
 0002:00089d00       ?find_side_for_set_clearance@CFreePcbView@@QAEHPAVCPolyLine@@PAVid@@HMH@Z 00500d00 f   FreePcbView.obj
 0002:0008a030       ?ApproximArc@CFreePcbView@@QAEXXZ 00501030 f   FreePcbView.obj
 0002:0008a1c0       ?ArcApp@CFreePcbView@@QAEHPAVCPolyLine@@HH@Z 005011c0 f   FreePcbView.obj
 0002:0008aa00       ?GetSelCount@CFreePcbView@@QAEHXZ 00501a00 f   FreePcbView.obj
 0002:0008ac30       ?DeleteWithRecalculationPoint@CFreePcbView@@QAEHPAVCPolyLine@@H@Z 00501c30 f   FreePcbView.obj
 0002:0008b470       ?TracesRadiusUpDown@CFreePcbView@@QAEXH@Z 00502470 f   FreePcbView.obj
 0002:0008b4b0       ?SelectContour@CFreePcbView@@QAEXXZ 005024b0 f   FreePcbView.obj
 0002:0008b8f0       ?MergeGroup@CFreePcbView@@QAEXH@Z 005028f0 f   FreePcbView.obj
 0002:0008bcf0       ?MergeGroup@CFreePcbView@@QAEXXZ 00502cf0 f   FreePcbView.obj
 0002:0008c3d0       ?ExplodeGroup@CFreePcbView@@QAEXXZ 005033d0 f   FreePcbView.obj
 0002:0008c480       ?NewSelectP@CFreePcbView@@QAEXPAVCText@@0@Z 00503480 f   FreePcbView.obj
 0002:0008c530       ?NewSelectM@CFreePcbView@@QAE?AV?$CStringT@DV?$StrTraitMFC_DLL@DV?$ChTraitsCRT@D@ATL@@@@@ATL@@H@Z 00503530 f   FreePcbView.obj
 0002:0008cb00       ?OnInfoBoxMess@CFreePcbView@@QAEXHHPAV?$CArray@V?$CStringT@DV?$StrTraitMFC_DLL@DV?$ChTraitsCRT@D@ATL@@@@@ATL@@ABV12@@@@Z 00503b00 f   FreePcbView.obj
 0002:0008cb40       ?OnInfoBoxSendMess@CFreePcbView@@QAEPAVCWnd@@V?$CStringT@DV?$StrTraitMFC_DLL@DV?$ChTraitsCRT@D@ATL@@@@@ATL@@@Z 00503b40 f   FreePcbView.obj
 0002:0008cdd0       ?GetSelectedItem@CFreePcbView@@QAEHXZ 00503dd0 f   FreePcbView.obj
 0002:0008d1f0       ?UnSelect@CFreePcbView@@QAEHPAXPAVid@@HH@Z 005041f0 f   FreePcbView.obj
 0002:0008d4f0       ?NewSelect@CFreePcbView@@QAEHPAXPAVid@@HH@Z 005044f0 f   FreePcbView.obj
 0002:0008df90       ?MarkAllOutlinePoly@CFreePcbView@@QAEXHH@Z 00504f90 f   FreePcbView.obj
 0002:0008e0a0       ??0?$CArray@Vid@@ABV1@@@QAE@XZ 005050a0 f i FreePcbView.obj
 0002:0008e130       ?GetSize@?$CArray@Vid@@ABV1@@@QBEHXZ 00505130 f i FreePcbView.obj
 0002:0008e170       ??A?$CArray@Vid@@ABV1@@@QAEAAVid@@H@Z 00505170 f i FreePcbView.obj
 0002:0008e1d0       ??$strcpy@$0CA@@@YAPADAAY0CA@DPBD@Z 005051d0 f i FreePcbView.obj
 0002:0008e240       ?ElementAt@?$CArray@Vid@@ABV1@@@QAEAAVid@@H@Z 00505240 f i FreePcbView.obj
 0002:0008e2f0       ??9@YAHVid@@0@Z            005052f0 f i FreePcbView.obj
 0002:0008e380       ?Clear@id@@QAEXXZ          00505380 f i FreePcbView.obj
 0002:0008e400       ?Set@id@@QAEXHHHHH@Z       00505400 f i FreePcbView.obj
 0002:0008e470       ?SetLayerDrawOrder@CDisplayList@@QAEXHH@Z 00505470 f i FreePcbView.obj
 0002:0008e4d0       ?SetInflectionMode@CDisplayList@@QAEXH@Z 005054d0 f i FreePcbView.obj
 0002:0008e520       ?GetNumTexts@CTextList@@QAEHXZ 00505520 f i FreePcbView.obj
 0002:0008e580       ?GetUtility@CPolyLine@@QAEHH@Z 00505580 f i FreePcbView.obj
 0002:0008e5f0       ?GetGroupRect@CPolyLine@@QAEPAUtagRECT@@XZ 005055f0 f i FreePcbView.obj
 0002:0008e670       ?SetUtility@CPolyLine@@QAEXHH@Z 00505670 f i FreePcbView.obj
 0002:0008e6e0       ?mark0@StrList@@QAEXXZ     005056e0 f i FreePcbView.obj
 0002:0008e770       ?mark1@StrList@@QAEXHH@Z   00505770 f i FreePcbView.obj
 0002:0008e7f0       ?GetMark@StrList@@QAEHH@Z  005057f0 f i FreePcbView.obj
 0002:0008e870       ?GetSelected@StrList@@QAEHXZ 00505870 f i FreePcbView.obj
 0002:0008e900       ?CopyFrom@StrList@@QAEXPAV1@@Z 00505900 f i FreePcbView.obj
 0002:0008eab0       ?GetSize@?$CArray@PAVCText@@ABQAV1@@@QBEHXZ 00505ab0 f i FreePcbView.obj
 0002:0008eaf0       ??A?$CArray@VCPolyPt@@ABV1@@@QAEAAVCPolyPt@@H@Z 00505af0 f i FreePcbView.obj
 0002:0008eb50       ??1?$CArray@Vid@@ABV1@@@UAE@XZ 00505b50 f i FreePcbView.obj
 0002:0008ec60       ?Serialize@?$CArray@Vid@@ABV1@@@UAEXAAVCArchive@@@Z 00505c60 f i FreePcbView.obj
 0002:0008ed30       ?Dump@?$CArray@Vid@@ABV1@@@UBEXAAVCDumpContext@@@Z 00505d30 f i FreePcbView.obj
 0002:0008ee10       ?AssertValid@?$CArray@Vid@@ABV1@@@UBEXXZ 00505e10 f i FreePcbView.obj
 0002:0008ef70       ??_G?$CArray@Vid@@ABV1@@@UAEPAXI@Z 00505f70 f i FreePcbView.obj
 0002:0008ef70       ??_E?$CArray@Vid@@ABV1@@@UAEPAXI@Z 00505f70 f i FreePcbView.obj
 0002:0008efe0       ?ElementAt@?$CArray@VCPolyPt@@ABV1@@@QAEAAVCPolyPt@@H@Z 00505fe0 f i FreePcbView.obj
 0002:0008f090       ?SetSize@?$CArray@Vid@@ABV1@@@QAEXHH@Z 00506090 f i FreePcbView.obj
 0002:0008f780       ??$SerializeElements@Vid@@@@YGXAAVCArchive@@PAVid@@H@Z 00506780 f i FreePcbView.obj
 0002:0008f970       ??$DumpElements@Vid@@@@YGXAAVCDumpContext@@PBVid@@H@Z 00506970 f i FreePcbView.obj
 0002:0008fa60       ?GetMessageMap@CFreePcbApp@@MBEPBUAFX_MSGMAP@@XZ 00506a60 f   FreeSch.obj
 0002:0008fab0       ?GetThisMessageMap@CFreePcbApp@@KGPBUAFX_MSGMAP@@XZ 00506ab0 f   FreeSch.obj
 0002:0008faf0       ??0CFreePcbApp@@QAE@XZ     00506af0 f   FreeSch.obj
 0002:0008fbf0       ??_GCFreePcbApp@@UAEPAXI@Z 00506bf0 f i FreeSch.obj
 0002:0008fbf0       ??_ECFreePcbApp@@UAEPAXI@Z 00506bf0 f i FreeSch.obj
 0002:0008fc60       ??1CFreePcbApp@@UAE@XZ     00506c60 f i FreeSch.obj
 0002:0008fd50       ?InitInstance@CFreePcbApp@@UAEHXZ 00506d50 f   FreeSch.obj
 0002:00090230       ??0CAboutDlg@@QAE@XZ       00507230 f   FreeSch.obj
 0002:000902f0       ??_ECAboutDlg@@UAEPAXI@Z   005072f0 f i FreeSch.obj
 0002:000902f0       ??_GCAboutDlg@@UAEPAXI@Z   005072f0 f i FreeSch.obj
 0002:00090360       ??1CAboutDlg@@UAE@XZ       00507360 f i FreeSch.obj
 0002:00090410       ?DoDataExchange@CAboutDlg@@MAEXPAVCDataExchange@@@Z 00507410 f   FreeSch.obj
 0002:000904b0       ?GetMessageMap@CAboutDlg@@MBEPBUAFX_MSGMAP@@XZ 005074b0 f   FreeSch.obj
 0002:00090500       ?GetThisMessageMap@CAboutDlg@@KGPBUAFX_MSGMAP@@XZ 00507500 f   FreeSch.obj
 0002:00090540       ?OnAppAbout@CFreePcbApp@@QAEXXZ 00507540 f   FreeSch.obj
 0002:00090640       ?SwitchToView@CFreePcbApp@@QAEHPAUCRuntimeClass@@@Z 00507640 f   FreeSch.obj
 0002:00090b60       ?ExitInstance@CFreePcbApp@@UAEHXZ 00507b60 f   FreeSch.obj
 0002:00090bb0       ?OnHelpGotoWebsite@CFreePcbApp@@QAEXXZ 00507bb0 f   FreeSch.obj
 0002:00090d00       ?OnFileMruFile1@CFreePcbApp@@QAEXXZ 00507d00 f   FreeSch.obj
 0002:00090e70       ?OnFileMruFile2@CFreePcbApp@@QAEXXZ 00507e70 f   FreeSch.obj
 0002:00090fe0       ?OnFileMruFile3@CFreePcbApp@@QAEXXZ 00507fe0 f   FreeSch.obj
 0002:00091150       ?OnFileMruFile4@CFreePcbApp@@QAEXXZ 00508150 f   FreeSch.obj
 0002:000912c0       ?OnFileMruFile5@CFreePcbApp@@QAEXXZ 005082c0 f   FreeSch.obj
 0002:00091430       ?OnFileMruFile6@CFreePcbApp@@QAEXXZ 00508430 f   FreeSch.obj
 0002:000915a0       ?OnFileMruFile7@CFreePcbApp@@QAEXXZ 005085a0 f   FreeSch.obj
 0002:00091710       ?OnOpenRecentFile@CFreePcbApp@@QAEHI@Z 00508710 f   FreeSch.obj
 0002:00091770       ?GetMRUFile@CFreePcbApp@@QAE?AV?$CStringT@DV?$StrTraitMFC_DLL@DV?$ChTraitsCRT@D@ATL@@@@@ATL@@XZ 00508770 f   FreeSch.obj
 0002:00091950       ?AddMRUFile@CFreePcbApp@@QAEXPAV?$CStringT@DV?$StrTraitMFC_DLL@DV?$ChTraitsCRT@D@ATL@@@@@ATL@@@Z 00508950 f   FreeSch.obj
 0002:00091a00       ?OnHelpKeyboardshortcuts@CFreePcbApp@@QAEXXZ 00508a00 f   FreeSch.obj
 0002:00091b90       ?OnHelpUserGuidePdf@CFreePcbApp@@QAEXXZ 00508b90 f   FreeSch.obj
 0002:00091ce0       ?DoMessageBox@CFreePcbApp@@UAEHPBDII@Z 00508ce0 f   FreeSch.obj
 0002:00091d80       ?SupportsRestartManager@CWinApp@@UBEHXZ 00508d80 f i FreeSch.obj
 0002:00091dd0       ?SupportsApplicationRecovery@CWinApp@@UBEHXZ 00508dd0 f i FreeSch.obj
 0002:00091e20       ?SupportsAutosaveAtRestart@CWinApp@@UBEHXZ 00508e20 f i FreeSch.obj
 0002:00091e70       ?SupportsAutosaveAtInterval@CWinApp@@UBEHXZ 00508e70 f i FreeSch.obj
 0002:00091ec0       ?ReopenPreviousFilesAtRestart@CWinApp@@UBEHXZ 00508ec0 f i FreeSch.obj
 0002:00091f10       ?RestoreAutosavedFilesAtRestart@CWinApp@@UBEHXZ 00508f10 f i FreeSch.obj
 0002:00091f60       ?GetApplicationRestartFlags@CWinApp@@UAEKXZ 00508f60 f i FreeSch.obj
 0002:00091fa0       ?GetApplicationRecoveryParameter@CWinApp@@UAEPAXXZ 00508fa0 f i FreeSch.obj
 0002:00091fe0       ?GetApplicationRecoveryPingInterval@CWinApp@@UAEKXZ 00508fe0 f i FreeSch.obj
 0002:00092020       ?GetSize@CRecentFileList@@QBEHXZ 00509020 f i FreeSch.obj
 0002:00092060       ??ACRecentFileList@@QAEAAV?$CStringT@DV?$StrTraitMFC_DLL@DV?$ChTraitsCRT@D@ATL@@@@@ATL@@H@Z 00509060 f i FreeSch.obj
 0002:00092130       ??0CAperture@@QAE@XZ       00509130 f   Gerber.obj
 0002:00092190       ??0CAperture@@QAE@HHHHH@Z  00509190 f   Gerber.obj
 0002:00092210       ??1CAperture@@QAE@XZ       00509210 f   Gerber.obj
 0002:00092250       ?Equals@CAperture@@QAEHPAV1@@Z 00509250 f   Gerber.obj
 0002:00092530       ?FindInArray@CAperture@@QAEHPAV?$CArray@VCAperture@@V1@@@H@Z 00509530 f   Gerber.obj
 0002:00092670       ?WriteMoveTo@@YAXPAVCStdioFile@@HHH@Z 00509670 f   Gerber.obj
 0002:00092860       ?WritePolygonSide@@YAXPAVCStdioFile@@HHHHHHH@Z 00509860 f   Gerber.obj
 0002:00092f90       ?ChangeAperture@@YAXPAVCAperture@@0PAV?$CArray@VCAperture@@V1@@@HPAVCStdioFile@@@Z 00509f90 f   Gerber.obj
 0002:00093180       ?WriteTiltPolygon@@YAXHHHHHHHHHPAVCStdioFile@@@Z 0050a180 f   Gerber.obj
 0002:00094e90       ?WriteGerberFile@@YAHPAVCStdioFile@@HHPAVCDlgLog@@HHHHPAV?$CArray@VCPolyLine@@ABV1@@@PAUCAttrib@@PAVCDisplayList@@PAVStrList@@@Z 0050be90 f   Gerber.obj
 0002:00098ad0       ?AddToArray@@YAHHPAV?$CArray@HH@@@Z 0050fad0 f   Gerber.obj
 0002:00098b80       ??0?$CArray@VCAperture@@V1@@@QAE@XZ 0050fb80 f i Gerber.obj
 0002:00098c10       ?GetSize@?$CArray@VCAperture@@V1@@@QBEHXZ 0050fc10 f i Gerber.obj
 0002:00098c50       ?GetAt@?$CArray@VCAperture@@V1@@@QAEAAVCAperture@@H@Z 0050fc50 f i Gerber.obj
 0002:00098d00       ?Add@?$CArray@VCAperture@@V1@@@QAEHVCAperture@@@Z 0050fd00 f i Gerber.obj
 0002:00098df0       ??A?$CArray@VCAperture@@V1@@@QAEAAVCAperture@@H@Z 0050fdf0 f i Gerber.obj
 0002:00098e50       ??1?$CArray@VCAperture@@V1@@@UAE@XZ 0050fe50 f i Gerber.obj
 0002:00098f80       ?Serialize@?$CArray@VCAperture@@V1@@@UAEXAAVCArchive@@@Z 0050ff80 f i Gerber.obj
 0002:00099050       ?Dump@?$CArray@VCAperture@@V1@@@UBEXAAVCDumpContext@@@Z 00510050 f i Gerber.obj
 0002:00099130       ?AssertValid@?$CArray@VCAperture@@V1@@@UBEXXZ 00510130 f i Gerber.obj
 0002:00099290       ?GetSize@?$CArray@HH@@QBEHXZ 00510290 f i Gerber.obj
 0002:000992d0       ?GetAt@?$CArray@HH@@QAEAAHH@Z 005102d0 f i Gerber.obj
 0002:00099380       ?Add@?$CArray@HH@@QAEHH@Z  00510380 f i Gerber.obj
 0002:000993f0       ??_G?$CArray@VCAperture@@V1@@@UAEPAXI@Z 005103f0 f i Gerber.obj
 0002:000993f0       ??_E?$CArray@VCAperture@@V1@@@UAEPAXI@Z 005103f0 f i Gerber.obj
 0002:00099460       ??_GCAperture@@QAEPAXI@Z   00510460 f i Gerber.obj
 0002:000994d0       ?SetSize@?$CArray@VCAperture@@V1@@@QAEXHH@Z 005104d0 f i Gerber.obj
 0002:00099bd0       ?ElementAt@?$CArray@VCAperture@@V1@@@QAEAAVCAperture@@H@Z 00510bd0 f i Gerber.obj
 0002:00099c80       ?SetAtGrow@?$CArray@VCAperture@@V1@@@QAEXHVCAperture@@@Z 00510c80 f i Gerber.obj
 0002:00099dc0       ??$SerializeElements@VCAperture@@@@YGXAAVCArchive@@PAVCAperture@@H@Z 00510dc0 f i Gerber.obj
 0002:00099fb0       ??$DumpElements@VCAperture@@@@YGXAAVCDumpContext@@PBVCAperture@@H@Z 00510fb0 f i Gerber.obj
 0002:0009a0a0       ?SetAtGrow@?$CArray@HH@@QAEXHH@Z 005110a0 f i Gerber.obj
 0002:0009a170       ?SetSize@?$CArray@HH@@QAEXHH@Z 00511170 f i Gerber.obj
 0002:0009a700       ?gpc_free_polygon@@YAXPAUgpc_polygon@@@Z 00511700 f   gpc_232.obj
 0002:0009a830       ?gpc_read_polygon@@YAXPAU_iobuf@@HPAUgpc_polygon@@@Z 00511830 f   gpc_232.obj
 0002:0009abf0       ?gpc_write_polygon@@YAXPAU_iobuf@@HPAUgpc_polygon@@@Z 00511bf0 f   gpc_232.obj
 0002:0009ad90       ?gpc_add_contour@@YAXPAUgpc_polygon@@PAUgpc_vertex_list@@H@Z 00511d90 f   gpc_232.obj
 0002:0009b1d0       ?gpc_polygon_clip@@YAXW4gpc_op@@PAUgpc_polygon@@11@Z 005121d0 f   gpc_232.obj
 0002:000a0a50       ?gpc_free_tristrip@@YAXPAUgpc_tristrip@@@Z 00517a50 f   gpc_232.obj
 0002:000a0b50       ?gpc_polygon_to_tristrip@@YAXPAUgpc_polygon@@PAUgpc_tristrip@@@Z 00517b50 f   gpc_232.obj
 0002:000a0c00       ?gpc_tristrip_clip@@YAXW4gpc_op@@PAUgpc_polygon@@1PAUgpc_tristrip@@@Z 00517c00 f   gpc_232.obj
 0002:000a4c90       ?CreateObject@CMainFrame@@SGPAVCObject@@XZ 0051bc90 f   MainFrm.obj
 0002:000a4d80       ?_GetBaseClass@CMainFrame@@KGPAUCRuntimeClass@@XZ 0051bd80 f   MainFrm.obj
 0002:000a4dd0       ?GetThisClass@CMainFrame@@SGPAUCRuntimeClass@@XZ 0051bdd0 f   MainFrm.obj
 0002:000a4e10       ?GetRuntimeClass@CMainFrame@@UBEPAUCRuntimeClass@@XZ 0051be10 f   MainFrm.obj
 0002:000a4e50       ?GetMessageMap@CMainFrame@@MBEPBUAFX_MSGMAP@@XZ 0051be50 f   MainFrm.obj
 0002:000a4ea0       ?GetThisMessageMap@CMainFrame@@KGPBUAFX_MSGMAP@@XZ 0051bea0 f   MainFrm.obj
 0002:000a4ee0       ??0CMainFrame@@IAE@XZ      0051bee0 f   MainFrm.obj
 0002:000a5000       ??_ECMainFrame@@UAEPAXI@Z  0051c000 f i MainFrm.obj
 0002:000a5000       ??_GCMainFrame@@UAEPAXI@Z  0051c000 f i MainFrm.obj
 0002:000a5070       ??1CMainFrame@@UAE@XZ      0051c070 f   MainFrm.obj
 0002:000a5140       ?OnCreate@CMainFrame@@IAEHPAUtagCREATESTRUCTA@@@Z 0051c140 f   MainFrm.obj
 0002:000a5b60       ?PreCreateWindow@CMainFrame@@UAEHAAUtagCREATESTRUCTA@@@Z 0051cb60 f   MainFrm.obj
 0002:000a5c60       ?DrawStatus@CMainFrame@@QAEHHPAV?$CStringT@DV?$StrTraitMFC_DLL@DV?$ChTraitsCRT@D@ATL@@@@@ATL@@@Z 0051cc60 f   MainFrm.obj
 0002:000a5ce0       ?AssertValid@CMainFrame@@UBEXXZ 0051cce0 f   MainFrm.obj
 0002:000a5d30       ?Dump@CMainFrame@@UBEXAAVCDumpContext@@@Z 0051cd30 f   MainFrm.obj
 0002:000a5d90       ?OnChangeVisibleGrid@CMainFrame@@QAEJIJ@Z 0051cd90 f   MainFrm.obj
 0002:000a5e30       ?OnChangePlacementGrid@CMainFrame@@QAEJIJ@Z 0051ce30 f   MainFrm.obj
 0002:000a5ed0       ?OnChangeTextGrid@CMainFrame@@QAEJIJ@Z 0051ced0 f   MainFrm.obj
 0002:000a5f70       ?OnChangeSnapAngle@CMainFrame@@QAEJIJ@Z 0051cf70 f   MainFrm.obj
 0002:000a6010       ?OnChangeUnits@CMainFrame@@QAEJIJ@Z 0051d010 f   MainFrm.obj
 0002:000a60b0       ?Wm__DropFiles@CMainFrame@@QAEJIJ@Z 0051d0b0 f   MainFrm.obj
 0002:000a6310       ?OnCopyData@CMainFrame@@QAEHPAVCWnd@@PAUtagCOPYDATASTRUCT@@@Z 0051d310 f   MainFrm.obj
 0002:000a69c0       ?OnSysCommand@CMainFrame@@QAEXIJ@Z 0051d9c0 f   MainFrm.obj
 0002:000a6aa0       ?OnEditUndo@CMainFrame@@QAEXXZ 0051daa0 f   MainFrm.obj
 0002:000a6b50       ?OnTimer@CMainFrame@@QAEXI@Z 0051db50 f   MainFrm.obj
 0002:000a6c20       ?OnSetCursor@CMainFrame@@QAEHPAVCWnd@@II@Z 0051dc20 f   MainFrm.obj
 0002:000a6df0       ?OnMove@CMainFrame@@QAEXHH@Z 0051ddf0 f   MainFrm.obj
 0002:000a6f70       ?OnSize@CMainFrame@@QAEXIHH@Z 0051df70 f   MainFrm.obj
 0002:000a7090       ?SetHideCursor@CMainFrame@@QAEXHPAVCRect@@@Z 0051e090 f   MainFrm.obj
 0002:000a7160       ?DestroyWindow@CMainFrame@@UAEHXZ 0051e160 f   MainFrm.obj
 0002:000a72b0       ?_GetBaseClass@CMyToolBar@@KGPAUCRuntimeClass@@XZ 0051e2b0 f   MyToolBar.obj
 0002:000a7300       ?GetThisClass@CMyToolBar@@SGPAUCRuntimeClass@@XZ 0051e300 f   MyToolBar.obj
 0002:000a7340       ?GetRuntimeClass@CMyToolBar@@UBEPAUCRuntimeClass@@XZ 0051e340 f   MyToolBar.obj
 0002:000a7380       ??0CMyToolBar@@QAE@XZ      0051e380 f   MyToolBar.obj
 0002:000a7530       ??_GCMyToolBar@@UAEPAXI@Z  0051e530 f i MyToolBar.obj
 0002:000a7530       ??_ECMyToolBar@@UAEPAXI@Z  0051e530 f i MyToolBar.obj
 0002:000a75a0       ??1CMyToolBar@@UAE@XZ      0051e5a0 f   MyToolBar.obj
 0002:000a7740       ?GetMessageMap@CMyToolBar@@MBEPBUAFX_MSGMAP@@XZ 0051e740 f   MyToolBar.obj
 0002:000a7790       ?GetThisMessageMap@CMyToolBar@@KGPBUAFX_MSGMAP@@XZ 0051e790 f   MyToolBar.obj
 0002:000a77d0       ?OnCreate@CMyToolBar@@QAEHPAUtagCREATESTRUCTA@@@Z 0051e7d0 f   MyToolBar.obj
 0002:000a8060       ?SetLists@CMyToolBar@@QAEXPAV?$CArray@NABN@@00NNNHH@Z 0051f060 f   MyToolBar.obj
 0002:000a9570       ?OnEditVisibleGrid@CMyToolBar@@QAEXXZ 00520570 f   MyToolBar.obj
 0002:000a96b0       ?OnEditPlacementGrid@CMyToolBar@@QAEXXZ 005206b0 f   MyToolBar.obj
 0002:000a97f0       ?OnSelectVisibleGrid@CMyToolBar@@QAEXXZ 005207f0 f   MyToolBar.obj
 0002:000a9940       ?OnSelectPlacementGrid@CMyToolBar@@QAEXXZ 00520940 f   MyToolBar.obj
 0002:000a9a90       ?OnSelectTextGrid@CMyToolBar@@QAEXXZ 00520a90 f   MyToolBar.obj
 0002:000a9bb0       ?OnSelectSnapAngle@CMyToolBar@@QAEXXZ 00520bb0 f   MyToolBar.obj
 0002:000a9cd0       ?OnSelectUnits@CMyToolBar@@QAEXXZ 00520cd0 f   MyToolBar.obj
 0002:000a9df0       ?SetUnits@CMyToolBar@@QAEXH@Z 00520df0 f   MyToolBar.obj
 0002:000a9f30       ?GetMessageMap@CPathDialogSub@@MBEPBUAFX_MSGMAP@@XZ 00520f30 f   PathDialog.obj
 0002:000a9f80       ?GetThisMessageMap@CPathDialogSub@@KGPBUAFX_MSGMAP@@XZ 00520f80 f   PathDialog.obj
 0002:000a9fc0       ?OnOK@CPathDialogSub@@IAEXXZ 00520fc0 f   PathDialog.obj
 0002:000aa0e0       ?OnChangeEditPath@CPathDialogSub@@IAEXXZ 005210e0 f   PathDialog.obj
 0002:000aa1b0       ??0CPathDialog@@QAE@PBD00PAVCWnd@@@Z 005211b0 f   PathDialog.obj
 0002:000aa370       ??0CPathDialogSub@@QAE@XZ  00521370 f i PathDialog.obj
 0002:000aa3d0       ??_GCPathDialogSub@@UAEPAXI@Z 005213d0 f i PathDialog.obj
 0002:000aa3d0       ??_ECPathDialogSub@@UAEPAXI@Z 005213d0 f i PathDialog.obj
 0002:000aa440       ?GetPathName@CPathDialog@@QAE?AV?$CStringT@DV?$StrTraitMFC_DLL@DV?$ChTraitsCRT@D@ATL@@@@@ATL@@XZ 00521440 f   PathDialog.obj
 0002:000aa4d0       ?BrowseCallbackProc@CPathDialog@@CGHPAUHWND__@@IJJ@Z 005214d0 f   PathDialog.obj
 0002:000aa940       ?DoModal@CPathDialog@@UAEHXZ 00521940 f   PathDialog.obj
 0002:000aab50       ?IsFileNameValid@CPathDialog@@SAHPBD@Z 00521b50 f   PathDialog.obj
 0002:000aad40       ?MakeSurePathExists@CPathDialog@@SAHPBD@Z 00521d40 f   PathDialog.obj
 0002:000ab180       ?Touch@CPathDialog@@SAHPBDH@Z 00522180 f   PathDialog.obj
 0002:000ab4a0       ?ConcatPath@CPathDialog@@SAHPADPBD@Z 005224a0 f   PathDialog.obj
 0002:000ab570       ??$strcat@PAD@@YAPADAAPADPBD@Z 00522570 f i PathDialog.obj
 0002:000ab5d0       ___insecure_strcat         005225d0 f i PathDialog.obj
 0002:000ab630       ??$strcpy@$0BAE@@@YAPADAAY0BAE@DPBD@Z 00522630 f i PathDialog.obj
 0002:000ab6a0       ??0polygon@@QAE@PAVvertex@@@Z 005226a0 f   php_polygon.obj
 0002:000ab700       ??1polygon@@QAE@XZ         00522700 f   php_polygon.obj
 0002:000ab7d0       ??_Gvertex@@QAEPAXI@Z      005227d0 f i php_polygon.obj
 0002:000ab840       ?getFirst@polygon@@QAEPAVvertex@@XZ 00522840 f   php_polygon.obj
 0002:000ab880       ?NextPoly@polygon@@QAEPAV1@XZ 00522880 f   php_polygon.obj
 0002:000ab8e0       ?NextPoly@vertex@@QAEPAVpolygon@@XZ 005228e0 f i php_polygon.obj
 0002:000ab920       ?add@polygon@@QAEXPAVvertex@@@Z 00522920 f   php_polygon.obj
 0002:000aba70       ?setNext@vertex@@QAEXPAV1@@Z 00522a70 f i php_polygon.obj
 0002:000abac0       ?setPrev@vertex@@QAEXPAV1@@Z 00522ac0 f i php_polygon.obj
 0002:000abb10       ?Prev@vertex@@QAEPAV1@XZ   00522b10 f i php_polygon.obj
 0002:000abb50       ?Nseg@vertex@@QAEPAVsegment@@XZ 00522b50 f i php_polygon.obj
 0002:000abb90       ?setPseg@vertex@@QAEXPAVsegment@@@Z 00522b90 f i php_polygon.obj
 0002:000abbe0       ?addv@polygon@@QAEXNNNNH@Z 00522be0 f   php_polygon.obj
 0002:000abd40       ?del@polygon@@QAEPAVvertex@@PAV2@@Z 00522d40 f   php_polygon.obj
 0002:000abe80       ?Next@vertex@@QAEPAV1@XZ   00522e80 f i php_polygon.obj
 0002:000abec0       ?res@polygon@@QAEXXZ       00522ec0 f   php_polygon.obj
 0002:000abf70       ?id@vertex@@QAEHXZ         00522f70 f i php_polygon.obj
 0002:000abfb0       ?isIntersect@vertex@@QAEHXZ 00522fb0 f i php_polygon.obj
 0002:000abff0       ?copy_poly@polygon@@QAEPAV1@XZ 00522ff0 f   php_polygon.obj
 0002:000ac1a0       ?X@vertex@@QAENXZ          005231a0 f i php_polygon.obj
 0002:000ac1e0       ?Y@vertex@@QAENXZ          005231e0 f i php_polygon.obj
 0002:000ac220       ?insertSort@polygon@@QAEXPAVvertex@@00@Z 00523220 f   php_polygon.obj
 0002:000ac360       ?Alpha@vertex@@QAENXZ      00523360 f i php_polygon.obj
 0002:000ac3a0       ?nxt@polygon@@QAEPAVvertex@@PAV2@@Z 005233a0 f   php_polygon.obj
 0002:000ac420       ?unckd_remain@polygon@@QAEHXZ 00523420 f   php_polygon.obj
 0002:000ac4d0       ?isChecked@vertex@@QAEHXZ  005234d0 f i php_polygon.obj
 0002:000ac510       ?first_unckd_intersect@polygon@@QAEPAVvertex@@XZ 00523510 f   php_polygon.obj
 0002:000ac5c0       ?dist@polygon@@QAENNNNN@Z  005235c0 f   php_polygon.obj
 0002:000ac640       ?angle@polygon@@QAENNNNN@Z 00523640 f   php_polygon.obj
 0002:000ac740       ?aAlpha@polygon@@QAENNNNNNNNNN@Z 00523740 f   php_polygon.obj
 0002:000ac8d0       ?perturb@polygon@@QAEXPAVvertex@@000NN@Z 005238d0 f   php_polygon.obj
 0002:000accd0       ?abs@@YANN@Z               00523cd0 f i php_polygon.obj
 0002:000acd30       ?setX@vertex@@QAEXN@Z      00523d30 f i php_polygon.obj
 0002:000acd80       ?setY@vertex@@QAEXN@Z      00523d80 f i php_polygon.obj
 0002:000acdd0       ?ints@polygon@@QAEHPAVvertex@@000PAHQAN222@Z 00523dd0 f   php_polygon.obj
 0002:000ae9b0       ?pow@@YANNH@Z              005259b0 f i php_polygon.obj
 0002:000aea10       ?isInside@polygon@@QAEHPAVvertex@@@Z 00525a10 f   php_polygon.obj
 0002:000af250       ?boolean@polygon@@QAEPAV1@PAV1@H@Z 00526250 f   php_polygon.obj
 0002:000b01d0       ?setNextPoly@vertex@@QAEXPAVpolygon@@@Z 005271d0 f i php_polygon.obj
 0002:000b0220       ?setNeighbor@vertex@@QAEXPAV1@@Z 00527220 f i php_polygon.obj
 0002:000b0270       ?Neighbor@vertex@@QAEPAV1@XZ 00527270 f i php_polygon.obj
 0002:000b02b0       ?setEntry@vertex@@QAEXH@Z  005272b0 f i php_polygon.obj
 0002:000b0300       ?isEntry@vertex@@QAEHXZ    00527300 f i php_polygon.obj
 0002:000b0340       ??$_Pow_int@N@@YANNH@Z     00527340 f i php_polygon.obj
 0002:000b03f0       ??0segment@@QAE@NNH@Z      005273f0 f   php_polygon_vertex.obj
 0002:000b0450       ??0vertex@@QAE@NNNNNPAV0@0PAVpolygon@@H0NHH@Z 00527450 f   php_polygon_vertex.obj
 0002:000b0610       ??1vertex@@QAE@XZ          00527610 f   php_polygon_vertex.obj
 0002:000b0690       ?Xc@vertex@@QAENH@Z        00527690 f   php_polygon_vertex.obj
 0002:000b0750       ?Xc@segment@@QAENXZ        00527750 f i php_polygon_vertex.obj
 0002:000b0790       ?Yc@vertex@@QAENH@Z        00527790 f   php_polygon_vertex.obj
 0002:000b0850       ?Yc@segment@@QAENXZ        00527850 f i php_polygon_vertex.obj
 0002:000b0890       ?d@vertex@@QAENH@Z         00527890 f   php_polygon_vertex.obj
 0002:000b09a0       ?d@segment@@QAEHXZ         005279a0 f i php_polygon_vertex.obj
 0002:000b09e0       ?setChecked@vertex@@QAEXH@Z 005279e0 f   php_polygon_vertex.obj
 0002:000b0a60       ??0CPolyLine@@QAE@PAVCDisplayList@@@Z 00527a60 f   PolyLine.obj
 0002:000b0e90       ??0CPolyLine@@QAE@XZ       00527e90 f   PolyLine.obj
 0002:000b12c0       ??1CPolyLine@@QAE@XZ       005282c0 f   PolyLine.obj
 0002:000b1490       ??_Gpolygon@@QAEPAXI@Z     00528490 f i PolyLine.obj
 0002:000b1500       ?NormalizeWithGpc@CPolyLine@@QAEHPAV?$CArray@PAVCPolyLine@@ABQAV1@@@H@Z 00528500 f   PolyLine.obj
 0002:000b1e30       ?MakePhpPoly@CPolyLine@@QAEHXZ 00528e30 f   PolyLine.obj
 0002:000b1fe0       ?FreePhpPoly@CPolyLine@@QAEXXZ 00528fe0 f   PolyLine.obj
 0002:000b20f0       ?ClipPhpPolygon@CPolyLine@@QAEXHPAV1@@Z 005290f0 f   PolyLine.obj
 0002:000b2370       ?MakeGpcPoly@CPolyLine@@QAEHHPAV?$CArray@VCArc@@ABV1@@@@Z 00529370 f   PolyLine.obj
 0002:000b30e0       ?FreeGpcPoly@CPolyLine@@QAEHXZ 0052a0e0 f   PolyLine.obj
 0002:000b31a0       ?RestoreArcs@CPolyLine@@QAEHPAV?$CArray@VCArc@@ABV1@@@PAV?$CArray@PAVCPolyLine@@ABQAV1@@@@Z 0052a1a0 f   PolyLine.obj
 0002:000b39a0       ?Start@CPolyLine@@QAEXHHHHHHPAVid@@PAXH@Z 0052a9a0 f   PolyLine.obj
 0002:000b3d30       ?AppendCorner@CPolyLine@@QAEXHHHH@Z 0052ad30 f   PolyLine.obj
 0002:000b43c0       ?Close@CPolyLine@@QAEXHHH@Z 0052b3c0 f   PolyLine.obj
 0002:000b4580       ?UnClose@CPolyLine@@QAEXXZ 0052b580 f   PolyLine.obj
 0002:000b4630       ?ModifyGroupRect@CPolyLine@@QAEXPAUtagRECT@@@Z 0052b630 f   PolyLine.obj
 0002:000b46a0       ?ModifyGroupRect@CPolyLine@@QAEXHH@Z 0052b6a0 f   PolyLine.obj
 0002:000b4740       ?RecalcRectC@CPolyLine@@QAEXH@Z 0052b740 f   PolyLine.obj
 0002:000b4b00       ?MoveCorner@CPolyLine@@QAEXHHHH@Z 0052bb00 f   PolyLine.obj
 0002:000b4bd0       ?DeleteCorner@CPolyLine@@QAEXHHHH@Z 0052bbd0 f   PolyLine.obj
 0002:000b4fb0       ?RemoveContour@CPolyLine@@QAEXHH@Z 0052bfb0 f   PolyLine.obj
 0002:000b5380       ?InsertCorner@CPolyLine@@QAEXHHHH@Z 0052c380 f   PolyLine.obj
 0002:000b5870       ?Undraw@CPolyLine@@QAEXXZ  0052c870 f   PolyLine.obj
 0002:000b5a50       ?Draw@CPolyLine@@QAEXPAVCDisplayList@@@Z 0052ca50 f   PolyLine.obj
 0002:000b6410       ?SetSideVisible@CPolyLine@@QAEXHH@Z 0052d410 f   PolyLine.obj
 0002:000b64a0       ?StartDraggingToInsertCorner@CPolyLine@@QAEXPAVCDC@@HHHH@Z 0052d4a0 f   PolyLine.obj
 0002:000b66f0       ?CancelDraggingToInsertCorner@CPolyLine@@QAEXH@Z 0052d6f0 f   PolyLine.obj
 0002:000b6840       ?StartDraggingToMoveCorner@CPolyLine@@QAEXPAVCDC@@HHHH@Z 0052d840 f   PolyLine.obj
 0002:000b6f30       ?CancelDraggingToMoveCorner@CPolyLine@@QAEXH@Z 0052df30 f   PolyLine.obj
 0002:000b70a0       ?HighlightSide@CPolyLine@@QAEXHHH@Z 0052e0a0 f   PolyLine.obj
 0002:000b7280       ?HighlightCorner@CPolyLine@@QAEPAVdl_element@@HH@Z 0052e280 f   PolyLine.obj
 0002:000b7380       ?GetX@CPolyLine@@QAEHH@Z   0052e380 f   PolyLine.obj
 0002:000b73e0       ?GetY@CPolyLine@@QAEHH@Z   0052e3e0 f   PolyLine.obj
 0002:000b7450       ?GetHatchLoc@CPolyLine@@QAE?AUtagRECT@@H@Z 0052e450 f   PolyLine.obj
 0002:000b7640       ?GetHatchSize@CPolyLine@@QAEHXZ 0052e640 f   PolyLine.obj
 0002:000b7680       ?GetMerge@CPolyLine@@QAEHH@Z 0052e680 f   PolyLine.obj
 0002:000b76e0       ?Check@CPolyLine@@QAEHH@Z  0052e6e0 f   PolyLine.obj
 0002:000b7750       ?GetLength@CPolyLine@@QAEHXZ 0052e750 f   PolyLine.obj
 0002:000b7910       ?GetSel@CPolyLine@@QAEHXZ  0052e910 f   PolyLine.obj
 0002:000b7a20       ?GetSel@CPolyLine@@QAEHH@Z 0052ea20 f   PolyLine.obj
 0002:000b7ad0       ?GetSideSel@CPolyLine@@QAEHH@Z 0052ead0 f   PolyLine.obj
 0002:000b7ba0       ?SetMerge@CPolyLine@@QAEXHH@Z 0052eba0 f   PolyLine.obj
 0002:000b7c00       ?SetSel@CPolyLine@@QAEXHH@Z 0052ec00 f   PolyLine.obj
 0002:000b7c60       ?SetSideSel@CPolyLine@@QAEXHH@Z 0052ec60 f   PolyLine.obj
 0002:000b7cd0       ?GetNumContour@CPolyLine@@QAEHH@Z 0052ecd0 f   PolyLine.obj
 0002:000b7d40       ?GetVisible@CPolyLine@@QAEHXZ 0052ed40 f   PolyLine.obj
 0002:000b7d80       ?MakeVisible@CPolyLine@@QAEXH@Z 0052ed80 f   PolyLine.obj
 0002:000b7f00       ?MakeVisible@CPolyLine@@QAEXHH@Z 0052ef00 f   PolyLine.obj
 0002:000b80a0       ?GetBounds@CPolyLine@@QAE?AUtagRECT@@XZ 0052f0a0 f   PolyLine.obj
 0002:000b81a0       ?GetCornerBounds@CPolyLine@@QAE?AUtagRECT@@H@Z 0052f1a0 f   PolyLine.obj
 0002:000b8230       ?GetNumCorners@CPolyLine@@QAEHXZ 0052f230 f   PolyLine.obj
 0002:000b8270       ?GetNumArcs@CPolyLine@@QAEHXZ 0052f270 f   PolyLine.obj
 0002:000b8310       ?GetNumSides@CPolyLine@@QAEHXZ 0052f310 f   PolyLine.obj
 0002:000b83c0       ?GetLayer@CPolyLine@@QAEHXZ 0052f3c0 f   PolyLine.obj
 0002:000b8400       ?GetW@CPolyLine@@QAEHXZ    0052f400 f   PolyLine.obj
 0002:000b8440       ?GetSelBoxSize@CPolyLine@@QAEHXZ 0052f440 f   PolyLine.obj
 0002:000b8480       ?GetNumContours@CPolyLine@@QAEHXZ 0052f480 f   PolyLine.obj
 0002:000b8510       ?GetContour@CPolyLine@@QAEHH@Z 0052f510 f   PolyLine.obj
 0002:000b8580       ?GetContourStart@CPolyLine@@QAEHH@Z 0052f580 f   PolyLine.obj
 0002:000b85e0       ?GetContourEnd@CPolyLine@@QAEHH@Z 0052f5e0 f   PolyLine.obj
 0002:000b8680       ?GetIndexCornerBack@CPolyLine@@QAEHH@Z 0052f680 f   PolyLine.obj
 0002:000b8790       ?GetIndexCornerNext@CPolyLine@@QAEHH@Z 0052f790 f   PolyLine.obj
 0002:000b8860       ?GetContourSize@CPolyLine@@QAEHH@Z 0052f860 f   PolyLine.obj
 0002:000b88d0       ?SetSideStyle@CPolyLine@@QAEXHHH@Z 0052f8d0 f   PolyLine.obj
 0002:000b8af0       ?GetSideStyle@CPolyLine@@QAEHH@Z 0052faf0 f   PolyLine.obj
 0002:000b8b70       ?SetId@CPolyLine@@QAEXPAVid@@@Z 0052fb70 f   PolyLine.obj
 0002:000b8e40       ?GetId@CPolyLine@@QAE?AVid@@XZ 0052fe40 f   PolyLine.obj
 0002:000b8eb0       ?GetClosed@CPolyLine@@QAEHXZ 0052feb0 f   PolyLine.obj
 0002:000b8f70       ?TransparentHatch@CPolyLine@@QAEXH@Z 0052ff70 f   PolyLine.obj
 0002:000b9050       ?Hatch@CPolyLine@@QAEXXZ   00530050 f   PolyLine.obj
 0002:000ba6d0       ?TestPointInside@CPolyLine@@QAEHHHH@Z 005316d0 f   PolyLine.obj
 0002:000baf40       ?TestPointInsideContour@CPolyLine@@QAEHHH@Z 00531f40 f   PolyLine.obj
 0002:000bafa0       ?TestPolygonIntersection@CPolyLine@@QAEHHH@Z 00531fa0 f   PolyLine.obj
 0002:000bb820       ?TestPolygonIntersection@CPolyLine@@QAEHPAV1@@Z 00532820 f   PolyLine.obj
 0002:000bbfd0       ?SetSelBoxSize@CPolyLine@@QAEXH@Z 00532fd0 f   PolyLine.obj
 0002:000bc050       ?SetDisplayList@CPolyLine@@QAEXPAVCDisplayList@@@Z 00533050 f   PolyLine.obj
 0002:000bc0f0       ?Copy@CPolyLine@@QAEXPAV1@@Z 005330f0 f   PolyLine.obj
 0002:000bc5d0       ?MoveOrigin@CPolyLine@@QAEXHH@Z 005335d0 f   PolyLine.obj
 0002:000bc6e0       ?SetX@CPolyLine@@QAEXHH@Z  005336e0 f   PolyLine.obj
 0002:000bc8b0       ?SetY@CPolyLine@@QAEXHH@Z  005338b0 f   PolyLine.obj
 0002:000bca80       ?SetEndContour@CPolyLine@@QAEXHH@Z 00533a80 f   PolyLine.obj
 0002:000bcb10       ?SetLayer@CPolyLine@@QAEXH@Z 00533b10 f   PolyLine.obj
 0002:000bcb60       ?SetW@CPolyLine@@QAEXH@Z   00533b60 f   PolyLine.obj
 0002:000bcbb0       ?SetVisible@CPolyLine@@QAEXH@Z 00533bb0 f   PolyLine.obj
 0002:000bcc00       ?AppendArc@CPolyLine@@QAEXHHHHHHH@Z 00533c00 f   PolyLine.obj
 0002:000bce10       ?ClipGpcPolygon@CPolyLine@@QAEXW4gpc_op@@PAV1@@Z 00533e10 f   PolyLine.obj
 0002:000bcf00       ?ApproximateAllArcSides@CPolyLine@@QAEXXZ 00533f00 f   PolyLine.obj
 0002:000bd1f0       ??0?$CArray@PAVdl_element@@ABQAV1@@@QAE@XZ 005341f0 f i PolyLine.obj
 0002:000bd280       ?GetSize@?$CArray@PAVdl_element@@ABQAV1@@@QBEHXZ 00534280 f i PolyLine.obj
 0002:000bd2c0       ?RemoveAll@?$CArray@PAVdl_element@@ABQAV1@@@QAEXXZ 005342c0 f i PolyLine.obj
 0002:000bd320       ?SetAtGrow@?$CArray@PAVdl_element@@ABQAV1@@@QAEXHABQAVdl_element@@@Z 00534320 f i PolyLine.obj
 0002:000bd3f0       ?InsertAt@?$CArray@HABH@@QAEXHABHH@Z 005343f0 f i PolyLine.obj
 0002:000bd650       ?memmove_s@Checked@ATL@@YAXPAXIPBXI@Z 00534650 f i PolyLine.obj
 0002:000bd6d0       ?RemoveAt@?$CArray@HABH@@QAEXHH@Z 005346d0 f i PolyLine.obj
 0002:000bd880       ??0?$CArray@VCPolyPt@@ABV1@@@QAE@XZ 00534880 f i PolyLine.obj
 0002:000bd910       ?GetSize@?$CArray@VCPolyPt@@ABV1@@@QBEHXZ 00534910 f i PolyLine.obj
 0002:000bd950       ?RemoveAll@?$CArray@VCPolyPt@@ABV1@@@QAEXXZ 00534950 f i PolyLine.obj
 0002:000bd9b0       ?InsertAt@?$CArray@VCPolyPt@@ABV1@@@QAEXHABVCPolyPt@@H@Z 005349b0 f i PolyLine.obj
 0002:000bdcc0       ?RemoveAt@?$CArray@VCPolyPt@@ABV1@@@QAEXHH@Z 00534cc0 f i PolyLine.obj
 0002:000bde70       ??0?$CArray@VCContourData@@ABV1@@@QAE@XZ 00534e70 f i PolyLine.obj
 0002:000bdf00       ?GetSize@?$CArray@VCContourData@@ABV1@@@QBEHXZ 00534f00 f i PolyLine.obj
 0002:000bdf40       ?RemoveAll@?$CArray@VCContourData@@ABV1@@@QAEXXZ 00534f40 f i PolyLine.obj
 0002:000bdfa0       ??A?$CArray@VCContourData@@ABV1@@@QAEAAVCContourData@@H@Z 00534fa0 f i PolyLine.obj
 0002:000be000       ?GetSize@?$CArray@VCArc@@ABV1@@@QBEHXZ 00535000 f i PolyLine.obj
 0002:000be040       ??A?$CArray@VCArc@@ABV1@@@QAEAAVCArc@@H@Z 00535040 f i PolyLine.obj
 0002:000be0a0       ?ElementAt@?$CArray@VCContourData@@ABV1@@@QAEAAVCContourData@@H@Z 005350a0 f i PolyLine.obj
 0002:000be150       ?ElementAt@?$CArray@VCArc@@ABV1@@@QAEAAVCArc@@H@Z 00535150 f i PolyLine.obj
 0002:000be200       ??0CPolyPt@@QAE@HHH@Z      00535200 f i PolyLine.obj
 0002:000be270       ??1?$CArray@PAVdl_element@@ABQAV1@@@UAE@XZ 00535270 f i PolyLine.obj
 0002:000be380       ?Serialize@?$CArray@PAVdl_element@@ABQAV1@@@UAEXAAVCArchive@@@Z 00535380 f i PolyLine.obj
 0002:000be450       ?Dump@?$CArray@PAVdl_element@@ABQAV1@@@UBEXAAVCDumpContext@@@Z 00535450 f i PolyLine.obj
 0002:000be530       ?AssertValid@?$CArray@PAVdl_element@@ABQAV1@@@UBEXXZ 00535530 f i PolyLine.obj
 0002:000be690       ??1?$CArray@VCPolyPt@@ABV1@@@UAE@XZ 00535690 f i PolyLine.obj
 0002:000be7a0       ?Serialize@?$CArray@VCPolyPt@@ABV1@@@UAEXAAVCArchive@@@Z 005357a0 f i PolyLine.obj
 0002:000be870       ?Dump@?$CArray@VCPolyPt@@ABV1@@@UBEXAAVCDumpContext@@@Z 00535870 f i PolyLine.obj
 0002:000be950       ?AssertValid@?$CArray@VCPolyPt@@ABV1@@@UBEXXZ 00535950 f i PolyLine.obj
 0002:000beab0       ??1?$CArray@VCContourData@@ABV1@@@UAE@XZ 00535ab0 f i PolyLine.obj
 0002:000bebc0       ?Serialize@?$CArray@VCContourData@@ABV1@@@UAEXAAVCArchive@@@Z 00535bc0 f i PolyLine.obj
 0002:000bec90       ?Dump@?$CArray@VCContourData@@ABV1@@@UBEXAAVCDumpContext@@@Z 00535c90 f i PolyLine.obj
 0002:000bed70       ?AssertValid@?$CArray@VCContourData@@ABV1@@@UBEXXZ 00535d70 f i PolyLine.obj
 0002:000beed0       ??_G?$CArray@PAVdl_element@@ABQAV1@@@UAEPAXI@Z 00535ed0 f i PolyLine.obj
 0002:000beed0       ??_E?$CArray@PAVdl_element@@ABQAV1@@@UAEPAXI@Z 00535ed0 f i PolyLine.obj
 0002:000bef40       ??_G?$CArray@VCPolyPt@@ABV1@@@UAEPAXI@Z 00535f40 f i PolyLine.obj
 0002:000bef40       ??_E?$CArray@VCPolyPt@@ABV1@@@UAEPAXI@Z 00535f40 f i PolyLine.obj
 0002:000befb0       ??_E?$CArray@VCContourData@@ABV1@@@UAEPAXI@Z 00535fb0 f i PolyLine.obj
 0002:000befb0       ??_G?$CArray@VCContourData@@ABV1@@@UAEPAXI@Z 00535fb0 f i PolyLine.obj
 0002:000bf020       ?SetSize@?$CArray@PAVdl_element@@ABQAV1@@@QAEXHH@Z 00536020 f i PolyLine.obj
 0002:000bf5b0       ??$SerializeElements@PAVdl_element@@@@YGXAAVCArchive@@PAPAVdl_element@@H@Z 005365b0 f i PolyLine.obj
 0002:000bf7a0       ??$DumpElements@PAVdl_element@@@@YGXAAVCDumpContext@@PBQAVdl_element@@H@Z 005367a0 f i PolyLine.obj
 0002:000bf890       ?SetSize@?$CArray@VCPolyPt@@ABV1@@@QAEXHH@Z 00536890 f i PolyLine.obj
 0002:000bff70       ??$SerializeElements@VCPolyPt@@@@YGXAAVCArchive@@PAVCPolyPt@@H@Z 00536f70 f i PolyLine.obj
 0002:000c0160       ??$DumpElements@VCPolyPt@@@@YGXAAVCDumpContext@@PBVCPolyPt@@H@Z 00537160 f i PolyLine.obj
 0002:000c0250       ?SetSize@?$CArray@VCContourData@@ABV1@@@QAEXHH@Z 00537250 f i PolyLine.obj
 0002:000c07f0       ??$SerializeElements@VCContourData@@@@YGXAAVCArchive@@PAVCContourData@@H@Z 005377f0 f i PolyLine.obj
 0002:000c09e0       ??$DumpElements@VCContourData@@@@YGXAAVCDumpContext@@PBVCContourData@@H@Z 005379e0 f i PolyLine.obj
 0002:000c0ad0       ?DirExists0@@YA_NPBD@Z     00537ad0 f   QAFDebug.obj
 0002:000c0b50       ?CreateSubFolders0@@YA_NPBD@Z 00537b50 f   QAFDebug.obj
 0002:000c0d10       ??$strcpy@PAD@@YAPADAAPADPBD@Z 00537d10 f i QAFDebug.obj
 0002:000c0d70       ___insecure_strcpy         00537d70 f i QAFDebug.obj
 0002:000c0dd0       ?SHGetSpecialFolderPathCustom@@YAJPAUHWND__@@HPAXKPAD@Z 00537dd0 f   QAFDebug.obj
 0002:000c0ef0       ?qafGetLogFileName@CQAFDebug@@KAKPADK@Z 00537ef0 f   QAFDebug.obj
 0002:000c0f80       ?tryEnable@QAFDebug@@YA_NXZ 00537f80 f   QAFDebug.obj
 0002:000c0fd0       ?tryEnable@CQAFDebug@@SA_NXZ 00537fd0 f i QAFDebug.obj
 0002:000c10d0       ??0CSync@@QAE@PAU_RTL_CRITICAL_SECTION@@W4CSOP@0@@Z 005380d0 f i QAFDebug.obj
 0002:000c1170       ??1CSync@@QAE@XZ           00538170 f i QAFDebug.obj
 0002:000c1200       ?SetSharedFlag@CQAFDebug@@IAE_NK@Z 00538200 f i QAFDebug.obj
 0002:000c1290       ?tryLock@CQAFDebug@@IAE_NXZ 00538290 f i QAFDebug.obj
 0002:000c1300       ?unLock@CQAFDebug@@IAEXXZ  00538300 f i QAFDebug.obj
 0002:000c1360       ?instance@CQAFDebug@@KAAAV1@XZ 00538360 f i QAFDebug.obj
 0002:000c1430       ??0CQAFDebug@@QAE@XZ       00538430 f i QAFDebug.obj
 0002:000c1670       ?ODS@@YAXPBD@Z             00538670 f i QAFDebug.obj
 0002:000c16d0       ?tryDisable@QAFDebug@@YA_NXZ 005386d0 f   QAFDebug.obj
 0002:000c1720       ?tryDisable@CQAFDebug@@SA_NXZ 00538720 f i QAFDebug.obj
 0002:000c1820       ?OutputDebugStringEx@QAFDebug@@YAXPBDH00@Z 00538820 f   QAFDebug.obj
 0002:000c1dc0       ?tryOpenLogFile@CQAFDebug@@SAPAXXZ 00538dc0 f i QAFDebug.obj
 0002:000c20c0       ?qafReportComError@QAFDebug@@YAJJPBDH@Z 005390c0 f   QAFDebug.obj
 0002:000c2270       ?SetLogDir@QAFDebug@@YAXPAV?$CStringT@DV?$StrTraitMFC_DLL@DV?$ChTraitsCRT@D@ATL@@@@@ATL@@@Z 00539270 f   QAFDebug.obj
 0002:000c22d0       ?GetLogDir@QAFDebug@@YAKPADK@Z 005392d0 f   QAFDebug.obj
 0002:000c2510       ?_tcsrchr@@YAPADPADI@Z     00539510 f i QAFDebug.obj
 0002:000c2570       __tcsrchr                  00539570 f i QAFDebug.obj
 0002:000c25d0       ??1CQAFDebug@@QAE@XZ       005395d0 f i QAFDebug.obj
 0002:000c2760       ?SpawnAndRedirect@@YAPAXPBDPAPAX0@Z 00539760 f   RTcall.obj
 0002:000c2ab0       ?RunConsoleProcess@@YAHPBDPAVCDlgLog@@@Z 00539ab0 f   RTcall.obj
 0002:000c2c80       ??$strcpy@$0EAA@@@YAPADAAY0EAA@DPBD@Z 00539c80 f i RTcall.obj
 0002:000c2cf0       ??0SMCharacter@@QAE@XZ     00539cf0 f   smcharacter.obj
 0002:000c2d40       ??0SMCharacter@@QAE@PAV0@@Z 00539d40 f   smcharacter.obj
 0002:000c2e50       ??1SMCharacter@@QAE@XZ     00539e50 f   smcharacter.obj
 0002:000c2ed0       ?Read@SMCharacter@@QAEXPAU_iobuf@@@Z 00539ed0 f   smcharacter.obj
 0002:000c2fc0       ?Write@SMCharacter@@QAEXPAU_iobuf@@@Z 00539fc0 f   smcharacter.obj
 0002:000c3060       ?ReadOldStyle@SMCharacter@@QAEHPAU_iobuf@@@Z 0053a060 f   smcharacter.obj
 0002:000c3310       ?GetFirstVertex@SMCharacter@@QAE?AW4CHARVERTEX_TYPE@1@AAUCharVertex@@AAH@Z 0053a310 f   smcharacter.obj
 0002:000c33a0       ?GetNextVertex@SMCharacter@@QAE?AW4CHARVERTEX_TYPE@1@AAUCharVertex@@AAH@Z 0053a3a0 f   smcharacter.obj
 0002:000c34a0       ??0SMFontUtil@@QAE@PAV?$CStringT@DV?$StrTraitMFC_DLL@DV?$ChTraitsCRT@D@ATL@@@@@ATL@@@Z 0053a4a0 f   smfontutil.obj
 0002:000c3620       ??0?$CTypedPtrArray@VCPtrArray@@PAVSMCharacter@@@@QAE@XZ 0053a620 f i smfontutil.obj
 0002:000c3680       ??1?$CTypedPtrArray@VCPtrArray@@PAVSMCharacter@@@@UAE@XZ 0053a680 f i smfontutil.obj
 0002:000c36d0       ??_G?$CTypedPtrArray@VCPtrArray@@PAVSMCharacter@@@@UAEPAXI@Z 0053a6d0 f i smfontutil.obj
 0002:000c36d0       ??_E?$CTypedPtrArray@VCPtrArray@@PAVSMCharacter@@@@UAEPAXI@Z 0053a6d0 f i smfontutil.obj
 0002:000c3740       ??1SMFontUtil@@QAE@XZ      0053a740 f   smfontutil.obj
 0002:000c3880       ??_GSMCharacter@@QAEPAXI@Z 0053a880 f i smfontutil.obj
 0002:000c38f0       ?LoadFontData@SMFontUtil@@IAEHXZ 0053a8f0 f   smfontutil.obj
 0002:000c3c40       ?LoadXlationData@SMFontUtil@@IAEHXZ 0053ac40 f   smfontutil.obj
 0002:000c3fe0       ?SaveXlationData@SMFontUtil@@IAEXXZ 0053afe0 f   smfontutil.obj
 0002:000c41c0       ?SaveFontData@SMFontUtil@@IAEXXZ 0053b1c0 f   smfontutil.obj
 0002:000c4310       ?LoadOldStyleXlation@SMFontUtil@@IAEXXZ 0053b310 f   smfontutil.obj
 0002:000c4720       ?LoadOldStyleFile@SMFontUtil@@IAEXXZ 0053b720 f   smfontutil.obj
 0002:000c4a70       ?GetCharID@SMFontUtil@@QAEHEW4FONT_TYPE@@@Z 0053ba70 f   smfontutil.obj
 0002:000c4af0       ?DrawString@SMFontUtil@@QAEXPAVCDC@@VCPoint@@NNNW4FONT_TYPE@@V?$CStringT@DV?$StrTraitMFC_DLL@DV?$ChTraitsCRT@D@ATL@@@@@ATL@@@Z 0053baf0 f   smfontutil.obj
 0002:000c4f10       ?GetCharStrokes@SMFontUtil@@QAEHDW4FONT_TYPE@@PAN111QAY03NH@Z 0053bf10 f   smfontutil.obj
 0002:000c52c0       ?GetCharacter@SMFontUtil@@QAEPAVSMCharacter@@H@Z 0053c2c0 f i smfontutil.obj
 0002:000c5320       ?Add@?$CTypedPtrArray@VCPtrArray@@PAVSMCharacter@@@@QAEHPAVSMCharacter@@@Z 0053c320 f i smfontutil.obj
 0002:000c5380       ??A?$CTypedPtrArray@VCPtrArray@@PAVSMCharacter@@@@QAEAAPAVSMCharacter@@H@Z 0053c380 f i smfontutil.obj
 0002:000c53e0       ?_AfxInitManaged@@YAHXZ    0053c3e0 f i StdAfx.obj
 0002:000c5410       ??_Estringdispid@CComTypeInfoHolder@ATL@@QAEPAXI@Z 0053c410 f i StdAfx.obj
 0002:000c54d0       ??1stringdispid@CComTypeInfoHolder@ATL@@QAE@XZ 0053c4d0 f i StdAfx.obj
 0002:000c5520       ??1CComBSTR@ATL@@QAE@XZ    0053c520 f i StdAfx.obj
 0002:000c5580       ??0Thank_you@Define_the_symbol__ATL_MIXED@@QAE@XZ 0053c580 f i StdAfx.obj
 0002:000c55d0       ?one@Thank_you@Define_the_symbol__ATL_MIXED@@UAEXXZ 0053c5d0 f i StdAfx.obj
 0002:000c5610       ??0CText@@QAE@PAVCTextList@@HHHHHHPAV?$CStringT@DV?$StrTraitMFC_DLL@DV?$ChTraitsCRT@D@ATL@@@@@ATL@@@Z 0053c610 f   TextList.obj
 0002:000c5800       ??1CText@@QAE@XZ           0053c800 f   TextList.obj
 0002:000c58b0       ?MakeVisible@CText@@QAEXXZ 0053c8b0 f   TextList.obj
 0002:000c5930       ?InVisible@CText@@QAEXXZ   0053c930 f   TextList.obj
 0002:000c5990       ?Draw@CText@@QAEXPAVCDisplayList@@PAVSMFontUtil@@PAV?$CArray@VCPoint@@ABV1@@@@Z 0053c990 f   TextList.obj
 0002:000c6500       ?Undraw@CText@@QAEXXZ      0053d500 f   TextList.obj
 0002:000c65e0       ??0CTextList@@QAE@XZ       0053d5e0 f   TextList.obj
 0002:000c6650       ??0CTextList@@QAE@PAVCDisplayList@@PAVSMFontUtil@@@Z 0053d650 f   TextList.obj
 0002:000c66c0       ??1CTextList@@QAE@XZ       0053d6c0 f   TextList.obj
 0002:000c67f0       ??_GCText@@QAEPAXI@Z       0053d7f0 f i TextList.obj
 0002:000c6860       ?AddText@CTextList@@QAEPAVCText@@HHHHHHPAV?$CStringT@DV?$StrTraitMFC_DLL@DV?$ChTraitsCRT@D@ATL@@@@@ATL@@H@Z 0053d860 f   TextList.obj
 0002:000c6a10       ?GetSelCount@CTextList@@QAEHXZ 0053da10 f   TextList.obj
 0002:000c6ac0       ?RemoveText@CTextList@@QAEHPAVCText@@@Z 0053dac0 f   TextList.obj
 0002:000c6b70       ?RemoveText@CTextList@@QAEHH@Z 0053db70 f   TextList.obj
 0002:000c6c50       ?RemoveAllTexts@CTextList@@QAEXXZ 0053dc50 f   TextList.obj
 0002:000c6cf0       ?HighlightText@CTextList@@QAEXPAVCText@@H@Z 0053dcf0 f   TextList.obj
 0002:000c6df0       ?StartDraggingText@CTextList@@QAEXPAVCDC@@PAVCText@@@Z 0053ddf0 f   TextList.obj
 0002:000c6f70       ?CancelDraggingText@CTextList@@QAEXPAVCText@@@Z 0053df70 f   TextList.obj
 0002:000c6fe0       ?MoveText@CTextList@@QAEXPAVCText@@HHHH@Z 0053dfe0 f   TextList.obj
 0002:000c7090       ?CreateUndoRecord@CTextList@@QAEPAUundo_text@@PAVCText@@@Z 0053e090 f   TextList.obj
 0002:000c7220       ??0undo_text@@QAE@XZ       0053e220 f i TextList.obj
 0002:000c7290       ?TextUndoCallback@CTextList@@SAXPAXH@Z 0053e290 f   TextList.obj
 0002:000c7480       ??_Gundo_text@@QAEPAXI@Z   0053e480 f i TextList.obj
 0002:000c74f0       ??1undo_text@@QAE@XZ       0053e4f0 f i TextList.obj
 0002:000c7550       ?MoveOrigin@CTextList@@QAEXHH@Z 0053e550 f   TextList.obj
 0002:000c7630       ?MarkAllTexts@CTextList@@QAEXH@Z 0053e630 f   TextList.obj
 0002:000c76d0       ?GetText@CTextList@@QAEPAVCText@@PAU_GUID@@@Z 0053e6d0 f   TextList.obj
 0002:000c7780       _==                        0053e780 f i TextList.obj
 0002:000c77e0       _IsEqualGUID               0053e7e0 f i TextList.obj
 0002:000c7840       ?GetText@CTextList@@QAEPAVCText@@HH@Z 0053e840 f   TextList.obj
 0002:000c7920       ?GetText@CTextList@@QAEPAVCText@@PAV?$CStringT@DV?$StrTraitMFC_DLL@DV?$ChTraitsCRT@D@ATL@@@@@ATL@@PAH@Z 0053e920 f   TextList.obj
 0002:000c7a30       ?GetNextText@CTextList@@QAEPAVCText@@PAHH@Z 0053ea30 f   TextList.obj
 0002:000c7b10       ?GetNextInvisibleText@CTextList@@QAEPAVCText@@PAH@Z 0053eb10 f   TextList.obj
 0002:000c7be0       ?GetNumDifferentTexts@CTextList@@QAEHXZ 0053ebe0 f   TextList.obj
 0002:000c7e10       ?GetTextBoundaries@CTextList@@QAEHPAUtagRECT@@@Z 0053ee10 f   TextList.obj
 0002:000c8340       ?GetTextRectOnPCB@CTextList@@QAEHPAVCText@@PAUtagRECT@@@Z 0053f340 f   TextList.obj
 0002:000c8440       ?ReassignALayers@CTextList@@QAEXHPAH@Z 0053f440 f   TextList.obj
 0002:000c85a0       ?SetAt@?$CArray@VCPoint@@ABV1@@@QAEXHABVCPoint@@@Z 0053f5a0 f i TextList.obj
 0002:000c8660       ??0?$CArray@PAVCText@@ABQAV1@@@QAE@XZ 0053f660 f i TextList.obj
 0002:000c86f0       ?Add@?$CArray@PAVCText@@ABQAV1@@@QAEHABQAVCText@@@Z 0053f6f0 f i TextList.obj
 0002:000c8760       ??A?$CArray@PAVCText@@ABQAV1@@@QAEAAPAVCText@@H@Z 0053f760 f i TextList.obj
 0002:000c87c0       ?RemoveAt@?$CArray@PAVCText@@ABQAV1@@@QAEXHH@Z 0053f7c0 f i TextList.obj
 0002:000c8970       ?ElementAt@?$CArray@PAVCText@@ABQAV1@@@QAEAAPAVCText@@H@Z 0053f970 f i TextList.obj
 0002:000c8a20       ?SetAtGrow@?$CArray@PAVCText@@ABQAV1@@@QAEXHABQAVCText@@@Z 0053fa20 f i TextList.obj
 0002:000c8af0       ??1?$CArray@PAVCText@@ABQAV1@@@UAE@XZ 0053faf0 f i TextList.obj
 0002:000c8c00       ?Serialize@?$CArray@PAVCText@@ABQAV1@@@UAEXAAVCArchive@@@Z 0053fc00 f i TextList.obj
 0002:000c8cd0       ?Dump@?$CArray@PAVCText@@ABQAV1@@@UBEXAAVCDumpContext@@@Z 0053fcd0 f i TextList.obj
 0002:000c8db0       ?AssertValid@?$CArray@PAVCText@@ABQAV1@@@UBEXXZ 0053fdb0 f i TextList.obj
 0002:000c8f10       ??_E?$CArray@PAVCText@@ABQAV1@@@UAEPAXI@Z 0053ff10 f i TextList.obj
 0002:000c8f10       ??_G?$CArray@PAVCText@@ABQAV1@@@UAEPAXI@Z 0053ff10 f i TextList.obj
 0002:000c8f80       ?SetSize@?$CArray@PAVCText@@ABQAV1@@@QAEXHH@Z 0053ff80 f i TextList.obj
 0002:000c9510       ??$SerializeElements@PAVCText@@@@YGXAAVCArchive@@PAPAVCText@@H@Z 00540510 f i TextList.obj
 0002:000c9700       ??$DumpElements@PAVCText@@@@YGXAAVCDumpContext@@PBQAVCText@@H@Z 00540700 f i TextList.obj
 0002:000c97f0       ??0CUndoList@@QAE@HH@Z     005407f0 f   UndoList.obj
 0002:000c98a0       ??1CUndoList@@QAE@XZ       005408a0 f   UndoList.obj
 0002:000c98f0       ?Clear@CUndoList@@QAEXXZ   005408f0 f   UndoList.obj
 0002:000c9950       ?DropFirstEvent@CUndoList@@QAEXXZ 00540950 f   UndoList.obj
 0002:000c9aa0       ?Push@CUndoList@@QAEXPAXP6AX0H@ZH@Z 00540aa0 f   UndoList.obj
 0002:000c9ba0       ?Pop@CUndoList@@QAEHXZ     00540ba0 f   UndoList.obj
 0002:000c9d30       ?NewEvent@CUndoList@@QAEXXZ 00540d30 f   UndoList.obj
 0002:000c9dd0       ?PCB_lay@@YAHH@Z           00540dd0 f   utility.obj
 0002:000c9e80       ?FP_lay@@YAHH@Z            00540e80 f   utility.obj
 0002:000c9f30       ?Get_Side@@YAHH@Z          00540f30 f   utility.obj
 0002:000c9fb0       ?Get_fp_Side@@YAHH@Z       00540fb0 f   utility.obj
 0002:000ca030       ?GetInflectionPoint@@YA?AVCPoint@@V1@0H@Z 00541030 f   utility.obj
 0002:000ca310       ?getbit@@YAEHH@Z           00541310 f   utility.obj
 0002:000ca380       ?RotatePoint@@YAXPAVCPoint@@MV1@@Z 00541380 f   utility.obj
 0002:000ca4b0       ?RotatePOINTS@@YAXPAVCPoint@@HMV1@@Z 005414b0 f   utility.obj
 0002:000ca620       ?Angle@@YAMVCPoint@@00@Z   00541620 f   utility.obj
 0002:000ca720       ?FindArcElements@@YAHPAVCPolyLine@@PAH1@Z 00541720 f   utility.obj
 0002:000cace0       ?Check_45@@YAHVCPoint@@0@Z 00541ce0 f   utility.obj
 0002:000cade0       ?Check_90@@YAHVCPoint@@0@Z 00541de0 f   utility.obj
 0002:000caee0       ?Check_45@@YAHVCPoint@@00@Z 00541ee0 f   utility.obj
 0002:000caf10       ?Check_90@@YAHVCPoint@@00@Z 00541f10 f   utility.obj
 0002:000caf40       ?Angle@@YAMMMMMH@Z         00541f40 f   utility.obj
 0002:000cb0d0       ?Rotate_i_Vertex@@YAXPAH0HHH@Z 005420d0 f   utility.obj
 0002:000cb1e0       ?Rotate_Vertex@@YAXPAM0M@Z 005421e0 f   utility.obj
 0002:000cb420       ?atan@@YAMM@Z              00542420 f i utility.obj
 0002:000cb480       _atanf                     00542480 f i utility.obj
 0002:000cb4f0       ?Colinear@@YAHHHHHHH@Z     005424f0 f   utility.obj
 0002:000cb800       ?AlignPoints@@YA?AVCPoint@@V1@00HM@Z 00542800 f   utility.obj
 0002:000cc4e0       ?sqrt@@YAMM@Z              005434e0 f i utility.obj
 0002:000cc540       _sqrtf                     00543540 f i utility.obj
 0002:000cc5b0       ?TripplePointArc@@YAHHHHHHHPAVCPoint@@H@Z 005435b0 f   utility.obj
 0002:000cc7e0       ?Gen_HollowLinePoly@@YAHHHHHHPAVCPoint@@H@Z 005437e0 f   utility.obj
 0002:000ccb60       ?cos@@YAMM@Z               00543b60 f i utility.obj
 0002:000ccbc0       _cosf                      00543bc0 f i utility.obj
 0002:000ccc30       ?sin@@YAMM@Z               00543c30 f i utility.obj
 0002:000ccc90       _sinf                      00543c90 f i utility.obj
 0002:000ccd00       ?Gen_RndRectPoly@@YAHHHHHMMPAVCPoint@@H@Z 00543d00 f   utility.obj
 0002:000cd3f0       ?Generate_Arc@@YAHHHHHHPAVCPoint@@H@Z 005443f0 f   utility.obj
 0002:000cd900       ?Rnd_Func@@YAHMMMMMMMMPAMH@Z 00544900 f   utility.obj
 0002:000ce2e0       ?MirrorRect@@YAXPAUtagRECT@@VCPoint@@@Z 005452e0 f   utility.obj
 0002:000ce370       ?RotateRect@@YAXPAH000HHH@Z 00545370 f   utility.obj
 0002:000ce490       ?RotateRect@@YAXPAUtagRECT@@HVCPoint@@@Z 00545490 f   utility.obj
 0002:000ce7e0       ?RectsIntersection@@YAHUtagRECT@@0@Z 005457e0 f   utility.obj
 0002:000ce8f0       ?SwellRect@@YAXPAUtagRECT@@H@Z 005458f0 f   utility.obj
 0002:000ce970       ?SwellRect@@YAXPAUtagRECT@@U1@@Z 00545970 f   utility.obj
 0002:000ceac0       ?SwellRect@@YAXPAUtagRECT@@VCPoint@@@Z 00545ac0 f   utility.obj
 0002:000cebd0       ?SwellRect@@YAXPAUtagRECT@@HH@Z 00545bd0 f   utility.obj
 0002:000cece0       ?MoveRect@@YAXPAUtagRECT@@HH@Z 00545ce0 f   utility.obj
 0002:000ced60       ?rect@@YA?AUtagRECT@@HHHH@Z 00545d60 f   utility.obj
 0002:000ceec0       ?abs@@YA_J_J@Z             00545ec0 f i utility.obj
 0002:000cef20       ?SwellPolygon@@YAHPAVCPoint@@H0H@Z 00545f20 f   utility.obj
 0002:000cfa60       ?TestPolygon@@YAHHHPAVCPoint@@H@Z 00546a60 f   utility.obj
 0002:000cfcb0       ?TestLineHit@@YAHHHHHHHN@Z 00546cb0 f   utility.obj
 0002:000cfff0       ?ReadFontFile@@YAHPAD@Z    00546ff0 f   utility.obj
 0002:000d0020       ?mystrtok@@YAPADPBD0@Z     00547020 f   utility.obj
 0002:000d01b0       ?GetDimensionFromString@@YANPAV?$CStringT@DV?$StrTraitMFC_DLL@DV?$ChTraitsCRT@D@ATL@@@@@ATL@@HH@Z 005471b0 f   utility.obj
 0002:000d04d0       ?MakeCStringFromDimension@@YAXPAV?$CStringT@DV?$StrTraitMFC_DLL@DV?$ChTraitsCRT@D@ATL@@@@@ATL@@HHHHHHH@Z 005474d0 f   utility.obj
 0002:000d0d70       ?MakeCStringFromDouble@@YAXPAV?$CStringT@DV?$StrTraitMFC_DLL@DV?$ChTraitsCRT@D@ATL@@@@@ATL@@N@Z 00547d70 f   utility.obj
 0002:000d1070       ?ParseRef@@YAHPAV?$CStringT@DV?$StrTraitMFC_DLL@DV?$ChTraitsCRT@D@ATL@@@@@ATL@@0@Z 00548070 f   utility.obj
 0002:000d12d0       ?CheckLegalPinName@@YAHPAV?$CStringT@DV?$StrTraitMFC_DLL@DV?$ChTraitsCRT@D@ATL@@@@@ATL@@00PAH@Z 005482d0 f   utility.obj
 0002:000d1990       ?FindLineIntersection@@YAHNNNNPAN0@Z 00548990 f   utility.obj
 0002:000d19f0       ?FindLineIntersection@@YAHNNNNNNNNPAN0@Z 005489f0 f   utility.obj
 0002:000d1b60       ?MakeEllipseFromArc@@YAHHHHHHPAUEllipseTag@@@Z 00548b60 f   utility.obj
 0002:000d1d70       ?FindSegmentIntersections@@YAHHHHHHHHHHHQAN0@Z 00548d70 f   utility.obj
 0002:000d2940       ?FindLineSegmentIntersection@@YAHNNHHHHHPAN0000@Z 00549940 f   utility.obj
 0002:000d3750       ?TestForIntersectionOfStraightLineSegments@@YAHHHHHHHHHPAH0PAN@Z 0054a750 f   utility.obj
 0002:000d4500       ?DunselFunction@@YAXXZ     0054b500 f   utility.obj
 0002:000d4530       ?CalibrateTimer@@YAXXZ     0054b530 f   utility.obj
 0002:000d4620       ?StartTimer@@YAXXZ         0054b620 f   utility.obj
 0002:000d46a0       ?GetElapsedTime@@YANXZ     0054b6a0 f   utility.obj
 0002:000d48b0       _Int64ShrlMod32@12         0054b8b0 f i utility.obj
 0002:000d4910       ?quickSort@@YAXQAH0H@Z     0054b910 f   utility.obj
 0002:000d4970       ?q_sort@@YAXQAH0HH@Z       0054b970 f   utility.obj
 0002:000d4b60       ?q_sort_3way@@YAXQAH0HH@Z  0054bb60 f   utility.obj
 0002:000d4fe0       ?ccw@@YAHH@Z               0054bfe0 f   utility.obj
 0002:000d5030       ?t_octant@@YA?AVCPoint@@HAAV1@@Z 0054c030 f   utility.obj
 0002:000d5300       ?Quadratic@@YAHNNNPAN0@Z   0054c300 f   utility.obj
 0002:000d53d0       ?FindVerticalLineEllipseIntersections@@YAHNNNPAN0@Z 0054c3d0 f   utility.obj
 0002:000d5480       ?FindLineEllipseIntersections@@YAHNNNNPAN0@Z 0054c480 f   utility.obj
 0002:000d5540       ?DrawArc@@YAXPAVCDC@@HHHHHH@Z 0054c540 f   utility.obj
 0002:000d59a0       ?DrawCurve@@YAXPAVCDC@@HHHHHH@Z 0054c9a0 f   utility.obj
 0002:000d66a0       ?GetClearanceBetweenSegments@@YAHHHHHHHHHHHHHHPAH0@Z 0054d6a0 f   utility.obj
 0002:000d7630       ?GetPointToLineDistance@@YANNNHHPAN0@Z 0054e630 f   utility.obj
 0002:000d7760       ?GetPointToLineSegmentDistance@@YANHHHHHH@Z 0054e760 f   utility.obj
 0002:000d7bd0       ?InRange@@YAHNNN@Z         0054ebd0 f   utility.obj
 0002:000d7c70       ?Distance@@YANHHHHH@Z      0054ec70 f   utility.obj
 0002:000d7f40       ?GetArcIntersections@@YAHPAUEllipseTag@@0PAN111@Z 0054ef40 f   utility.obj
 0002:000d85b0       ?GetArcClearance@@YANPAUEllipseTag@@0PAN1@Z 0054f5b0 f   utility.obj
 0002:000d8df0       ?SetGuidFromString@@YAXPAV?$CStringT@DV?$StrTraitMFC_DLL@DV?$ChTraitsCRT@D@ATL@@@@@ATL@@PAU_GUID@@@Z 0054fdf0 f   utility.obj
 0002:000d8ed0       ?GetStringFromGuid@@YAXPAU_GUID@@PAV?$CStringT@DV?$StrTraitMFC_DLL@DV?$ChTraitsCRT@D@ATL@@@@@ATL@@@Z 0054fed0 f   utility.obj
 0002:000d8fb0       ?SplitString@@YAHPAV?$CStringT@DV?$StrTraitMFC_DLL@DV?$ChTraitsCRT@D@ATL@@@@@ATL@@00DH@Z 0054ffb0 f   utility.obj
 0002:000d92e0       ?GetReportedAngleForPart@@YAHHHH@Z 005502e0 f   utility.obj
 0002:000d9370       ?GetPartAngleForReportedAngle@@YAHHHH@Z 00550370 f   utility.obj
 0002:000d9400       ?sign@@YAHH@Z              00550400 f   utility.obj
 0002:000d9450       ??$strcpy@$0BAA@@@YAPADAAY0BAA@DPBD@Z 00550450 f i utility.obj
 0002:000d94c0       ??$strcpy@PAD@@YAPADABQADPBD@Z 005504c0 f i utility.obj
 0002:000d9516       _UuidCreate@4              00550516 f   rpcrt4:RPCRT4.dll
 0002:000d951c       _UuidFromStringA@8         0055051c f   rpcrt4:RPCRT4.dll
 0002:000d9522       _UuidToStringA@8           00550522 f   rpcrt4:RPCRT4.dll
 0002:000d9528       ??3@YAXPAX@Z               00550528 f   mfc100d:mfc100d.dll
 0002:000d952e       ??1?$CStringT@DV?$StrTraitMFC_DLL@DV?$ChTraitsCRT@D@ATL@@@@@ATL@@QAE@XZ 0055052e f   mfc100d:mfc100d.dll
 0002:000d9534       ??0?$CStringT@DV?$StrTraitMFC_DLL@DV?$ChTraitsCRT@D@ATL@@@@@ATL@@QAE@XZ 00550534 f   mfc100d:mfc100d.dll
 0002:000d953a       ??0CPtrList@@QAE@H@Z       0055053a f   mfc100d:mfc100d.dll
 0002:000d9540       ??1CPtrList@@UAE@XZ        00550540 f   mfc100d:mfc100d.dll
 0002:000d9546       ?RemoveHead@CPtrList@@QAEPAXXZ 00550546 f   mfc100d:mfc100d.dll
 0002:000d954c       ?GetHead@CPtrList@@QAEAAPAXXZ 0055054c f   mfc100d:mfc100d.dll
 0002:000d9552       ?IsEmpty@CPtrList@@QBEHXZ  00550552 f   mfc100d:mfc100d.dll
 0002:000d9558       ?RemoveAt@CPtrList@@QAEXPAU__POSITION@@@Z 00550558 f   mfc100d:mfc100d.dll
 0002:000d955e       ?Find@CPtrList@@QBEPAU__POSITION@@PAXPAU2@@Z 0055055e f   mfc100d:mfc100d.dll
 0002:000d9564       ??3@YAXPAXPBDH@Z           00550564 f   mfc100d:mfc100d.dll
 0002:000d956a       ?AddTail@CPtrList@@QAEPAU__POSITION@@PAX@Z 0055056a f   mfc100d:mfc100d.dll
 0002:000d9570       ?Trim@?$CStringT@DV?$StrTraitMFC_DLL@DV?$ChTraitsCRT@D@ATL@@@@@ATL@@QAEAAV12@XZ 00550570 f   mfc100d:mfc100d.dll
 0002:000d9576       ??4?$CStringT@DV?$StrTraitMFC_DLL@DV?$ChTraitsCRT@D@ATL@@@@@ATL@@QAEAAV01@ABV01@@Z 00550576 f   mfc100d:mfc100d.dll
 0002:000d957c       ?GetSize@CPtrList@@QBEHXZ  0055057c f   mfc100d:mfc100d.dll
 0002:000d9582       ??2@YAPAXIPBDH@Z           00550582 f   mfc100d:mfc100d.dll
 0002:000d9588       ?GetNext@CPtrList@@QAEAAPAXAAPAU__POSITION@@@Z 00550588 f   mfc100d:mfc100d.dll
 0002:000d958e       ?GetHeadPosition@CPtrList@@QBEPAU__POSITION@@XZ 0055058e f   mfc100d:mfc100d.dll
 0002:000d9594       ?AfxThrowInvalidArgException@@YGXXZ 00550594 f   mfc100d:mfc100d.dll
 0002:000d959a       ?Ellipse@CDC@@QAEHPBUtagRECT@@@Z 0055059a f   mfc100d:mfc100d.dll
 0002:000d95a0       ?CreatePen@CPen@@QAEHHHK@Z 005505a0 f   mfc100d:mfc100d.dll
 0002:000d95a6       ??0CPen@@QAE@XZ            005505a6 f   mfc100d:mfc100d.dll
 0002:000d95ac       ?SetPixel@CDC@@QAEKHHK@Z   005505ac f   mfc100d:mfc100d.dll
 0002:000d95b2       ??1CBrush@@UAE@XZ          005505b2 f   mfc100d:mfc100d.dll
 0002:000d95b8       ?Rectangle@CDC@@QAEHHHHH@Z 005505b8 f   mfc100d:mfc100d.dll
 0002:000d95be       ?Polyline@CDC@@QAEHPBUtagPOINT@@H@Z 005505be f   mfc100d:mfc100d.dll
 0002:000d95c4       ?LineTo@CDC@@QAEHHH@Z      005505c4 f   mfc100d:mfc100d.dll
 0002:000d95ca       ?MoveTo@CDC@@QAE?AVCPoint@@HH@Z 005505ca f   mfc100d:mfc100d.dll
 0002:000d95d0       ?Ellipse@CDC@@QAEHHHHH@Z   005505d0 f   mfc100d:mfc100d.dll
 0002:000d95d6       ?SelectObject@CDC@@QAEPAXPAX@Z 005505d6 f   mfc100d:mfc100d.dll
 0002:000d95dc       ??BCGdiObject@@QBEPAXXZ    005505dc f   mfc100d:mfc100d.dll
 0002:000d95e2       ?SetROP2@CDC@@QAEHH@Z      005505e2 f   mfc100d:mfc100d.dll
 0002:000d95e8       ?BitBlt@CDC@@QAEHHHHHPAV1@HHK@Z 005505e8 f   mfc100d:mfc100d.dll
 0002:000d95ee       ??1CPen@@UAE@XZ            005505ee f   mfc100d:mfc100d.dll
 0002:000d95f4       ?LineTo@CDC@@QAEHUtagPOINT@@@Z 005505f4 f   mfc100d:mfc100d.dll
 0002:000d95fa       ?MoveTo@CDC@@QAE?AVCPoint@@UtagPOINT@@@Z 005505fa f   mfc100d:mfc100d.dll
 0002:000d9600       ?Rectangle@CDC@@QAEHPBUtagRECT@@@Z 00550600 f   mfc100d:mfc100d.dll
 0002:000d9606       ?GetBkMode@CDC@@QBEHXZ     00550606 f   mfc100d:mfc100d.dll
 0002:000d960c       ?SelectObject@CDC@@QAEPAVCBrush@@PAV2@@Z 0055060c f   mfc100d:mfc100d.dll
 0002:000d9612       ?SelectObject@CDC@@QAEPAVCPen@@PAV2@@Z 00550612 f   mfc100d:mfc100d.dll
 0002:000d9618       ??0CPen@@QAE@HHK@Z         00550618 f   mfc100d:mfc100d.dll
 0002:000d961e       ??0CBrush@@QAE@K@Z         0055061e f   mfc100d:mfc100d.dll
 0002:000d9624       ?GetROP2@CDC@@QBEHXZ       00550624 f   mfc100d:mfc100d.dll
 0002:000d962a       ?SetWindowOrg@CDC@@QAE?AVCPoint@@HH@Z 0055062a f   mfc100d:mfc100d.dll
 0002:000d9630       ??0CObject@@IAE@XZ         00550630 f   mfc100d:mfc100d.dll
 0002:000d9636       ?GetRuntimeClass@CObject@@UBEPAUCRuntimeClass@@XZ 00550636 f   mfc100d:mfc100d.dll
 0002:000d963c       ??1CObject@@UAE@XZ         0055063c f   mfc100d:mfc100d.dll
 0002:000d9642       ??_V@YAXPAX@Z              00550642 f   mfc100d:mfc100d.dll
 0002:000d9648       ?AfxAssertValidObject@@YGXPBVCObject@@PBDH@Z 00550648 f   mfc100d:mfc100d.dll
 0002:000d964e       ?ReadCount@CArchive@@QAEKXZ 0055064e f   mfc100d:mfc100d.dll
 0002:000d9654       ?WriteCount@CArchive@@QAEXK@Z 00550654 f   mfc100d:mfc100d.dll
 0002:000d965a       ?IsStoring@CArchive@@QBEHXZ 0055065a f   mfc100d:mfc100d.dll
 0002:000d9660       ?Serialize@CObject@@UAEXAAVCArchive@@@Z 00550660 f   mfc100d:mfc100d.dll
 0002:000d9666       ?GetDepth@CDumpContext@@QBEHXZ 00550666 f   mfc100d:mfc100d.dll
 0002:000d966c       ??6CDumpContext@@QAEAAV0@H@Z 0055066c f   mfc100d:mfc100d.dll
 0002:000d9672       ??6CDumpContext@@QAEAAV0@PBD@Z 00550672 f   mfc100d:mfc100d.dll
 0002:000d9678       ?Dump@CObject@@UBEXAAVCDumpContext@@@Z 00550678 f   mfc100d:mfc100d.dll
 0002:000d967e       ?AfxIsValidAddress@@YGHPBXIH@Z 0055067e f   mfc100d:mfc100d.dll
 0002:000d9684       ?AssertValid@CObject@@UBEXXZ 00550684 f   mfc100d:mfc100d.dll
 0002:000d968a       ??3CObject@@SGXPAX@Z       0055068a f   mfc100d:mfc100d.dll
 0002:000d9690       ??_U@YAPAXI@Z              00550690 f   mfc100d:mfc100d.dll
 0002:000d9696       ??_U@YAPAXIPBDH@Z          00550696 f   mfc100d:mfc100d.dll
 0002:000d969c       ?AfxThrowMemoryException@@YGXXZ 0055069c f   mfc100d:mfc100d.dll
 0002:000d96a2       ?EnsureRead@CArchive@@QAEXPAXI@Z 005506a2 f   mfc100d:mfc100d.dll
 0002:000d96a8       ?Write@CArchive@@QAEXPBXI@Z 005506a8 f   mfc100d:mfc100d.dll
 0002:000d96ae       ?GetThisMessageMap@CDialog@@KGPBUAFX_MSGMAP@@XZ 005506ae f   mfc100d:mfc100d.dll
 0002:000d96b4       ?GetThisClass@CDialog@@SGPAUCRuntimeClass@@XZ 005506b4 f   mfc100d:mfc100d.dll
 0002:000d96ba       ??1CButton@@UAE@XZ         005506ba f   mfc100d:mfc100d.dll
 0002:000d96c0       ??1CComboBox@@UAE@XZ       005506c0 f   mfc100d:mfc100d.dll
 0002:000d96c6       ??1CDialog@@UAE@XZ         005506c6 f   mfc100d:mfc100d.dll
 0002:000d96cc       ??0CButton@@QAE@XZ         005506cc f   mfc100d:mfc100d.dll
 0002:000d96d2       ??0CComboBox@@QAE@XZ       005506d2 f   mfc100d:mfc100d.dll
 0002:000d96d8       ??0CDialog@@QAE@IPAVCWnd@@@Z 005506d8 f   mfc100d:mfc100d.dll
 0002:000d96de       ?AssertValid@CDialog@@UBEXXZ 005506de f   mfc100d:mfc100d.dll
 0002:000d96e4       ?Dump@CDialog@@UBEXAAVCDumpContext@@@Z 005506e4 f   mfc100d:mfc100d.dll
 0002:000d96ea       ?OnCmdMsg@CDialog@@UAEHIHPAXPAUAFX_CMDHANDLERINFO@@@Z 005506ea f   mfc100d:mfc100d.dll
 0002:000d96f0       ?OnFinalRelease@CWnd@@UAEXXZ 005506f0 f   mfc100d:mfc100d.dll
 0002:000d96f6       ?IsInvokeAllowed@CCmdTarget@@UAEHJ@Z 005506f6 f   mfc100d:mfc100d.dll
 0002:000d96fc       ?GetDispatchIID@CCmdTarget@@UAEHPAU_GUID@@@Z 005506fc f   mfc100d:mfc100d.dll
 0002:000d9702       ?GetTypeInfoCount@CCmdTarget@@UAEIXZ 00550702 f   mfc100d:mfc100d.dll
 0002:000d9708       ?GetTypeLibCache@CCmdTarget@@UAEPAVCTypeLibCache@@XZ 00550708 f   mfc100d:mfc100d.dll
 0002:000d970e       ?GetTypeLib@CCmdTarget@@UAEJKPAPAUITypeLib@@@Z 0055070e f   mfc100d:mfc100d.dll
 0002:000d9714       ?GetCommandMap@CCmdTarget@@MBEPBUAFX_OLECMDMAP@@XZ 00550714 f   mfc100d:mfc100d.dll
 0002:000d971a       ?GetDispatchMap@CCmdTarget@@MBEPBUAFX_DISPMAP@@XZ 0055071a f   mfc100d:mfc100d.dll
 0002:000d9720       ?GetConnectionMap@CCmdTarget@@MBEPBUAFX_CONNECTIONMAP@@XZ 00550720 f   mfc100d:mfc100d.dll
 0002:000d9726       ?GetInterfaceMap@CWnd@@MBEPBUAFX_INTERFACEMAP@@XZ 00550726 f   mfc100d:mfc100d.dll
 0002:000d972c       ?GetEventSinkMap@CCmdTarget@@MBEPBUAFX_EVENTSINKMAP@@XZ 0055072c f   mfc100d:mfc100d.dll
 0002:000d9732       ?OnCreateAggregates@CCmdTarget@@UAEHXZ 00550732 f   mfc100d:mfc100d.dll
 0002:000d9738       ?GetInterfaceHook@CCmdTarget@@UAEPAUIUnknown@@PBX@Z 00550738 f   mfc100d:mfc100d.dll
 0002:000d973e       ?GetExtraConnectionPoints@CCmdTarget@@MAEHPAVCPtrArray@@@Z 0055073e f   mfc100d:mfc100d.dll
 0002:000d9744       ?GetConnectionHook@CCmdTarget@@MAEPAUIConnectionPoint@@ABU_GUID@@@Z 00550744 f   mfc100d:mfc100d.dll
 0002:000d974a       ?PreSubclassWindow@CWnd@@UAEXXZ 0055074a f   mfc100d:mfc100d.dll
 0002:000d9750       ?Create@CWnd@@UAEHPBD0KABUtagRECT@@PAV1@IPAUCCreateContext@@@Z 00550750 f   mfc100d:mfc100d.dll
 0002:000d9756       ?CreateEx@CWnd@@UAEHKPBD0KABUtagRECT@@PAV1@IPAX@Z 00550756 f   mfc100d:mfc100d.dll
 0002:000d975c       ?CreateEx@CWnd@@UAEHKPBD0KHHHHPAUHWND__@@PAUHMENU__@@PAX@Z 0055075c f   mfc100d:mfc100d.dll
 0002:000d9762       ?DestroyWindow@CWnd@@UAEHXZ 00550762 f   mfc100d:mfc100d.dll
 0002:000d9768       ?PreCreateWindow@CWnd@@UAEHAAUtagCREATESTRUCTA@@@Z 00550768 f   mfc100d:mfc100d.dll
 0002:000d976e       ?CalcWindowRect@CWnd@@UAEXPAUtagRECT@@I@Z 0055076e f   mfc100d:mfc100d.dll
 0002:000d9774       ?GetMenu@CWnd@@UBEPAVCMenu@@XZ 00550774 f   mfc100d:mfc100d.dll
 0002:000d977a       ?SetMenu@CWnd@@UAEHPAVCMenu@@@Z 0055077a f   mfc100d:mfc100d.dll
 0002:000d9780       ?OnToolHitTest@CWnd@@UBEHVCPoint@@PAUtagTOOLINFOA@@@Z 00550780 f   mfc100d:mfc100d.dll
 0002:000d9786       ?GetScrollBarCtrl@CWnd@@UBEPAVCScrollBar@@H@Z 00550786 f   mfc100d:mfc100d.dll
 0002:000d978c       ?WinHelpA@CWnd@@UAEXKI@Z   0055078c f   mfc100d:mfc100d.dll
 0002:000d9792       ?HtmlHelpA@CWnd@@UAEXKI@Z  00550792 f   mfc100d:mfc100d.dll
 0002:000d9798       ?WinHelpInternal@CWnd@@UAEXKI@Z 00550798 f   mfc100d:mfc100d.dll
 0002:000d979e       ?ContinueModal@CWnd@@UAEHXZ 0055079e f   mfc100d:mfc100d.dll
 0002:000d97a4       ?EndModalLoop@CWnd@@UAEXH@Z 005507a4 f   mfc100d:mfc100d.dll
 0002:000d97aa       ?OnDrawIconicThumbnailOrLivePreview@CWnd@@UAEXAAVCDC@@VCRect@@VCSize@@HAAH@Z 005507aa f   mfc100d:mfc100d.dll
 0002:000d97b0       ?EnsureStdObj@CWnd@@UAEJXZ 005507b0 f   mfc100d:mfc100d.dll
 0002:000d97b6       ?get_accParent@CWnd@@UAEJPAPAUIDispatch@@@Z 005507b6 f   mfc100d:mfc100d.dll
 0002:000d97bc       ?get_accChildCount@CWnd@@UAEJPAJ@Z 005507bc f   mfc100d:mfc100d.dll
 0002:000d97c2       ?get_accChild@CWnd@@UAEJUtagVARIANT@@PAPAUIDispatch@@@Z 005507c2 f   mfc100d:mfc100d.dll
 0002:000d97c8       ?get_accName@CWnd@@UAEJUtagVARIANT@@PAPA_W@Z 005507c8 f   mfc100d:mfc100d.dll
 0002:000d97ce       ?get_accValue@CWnd@@UAEJUtagVARIANT@@PAPA_W@Z 005507ce f   mfc100d:mfc100d.dll
 0002:000d97d4       ?get_accDescription@CWnd@@UAEJUtagVARIANT@@PAPA_W@Z 005507d4 f   mfc100d:mfc100d.dll
 0002:000d97da       ?get_accRole@CWnd@@UAEJUtagVARIANT@@PAU2@@Z 005507da f   mfc100d:mfc100d.dll
 0002:000d97e0       ?get_accState@CWnd@@UAEJUtagVARIANT@@PAU2@@Z 005507e0 f   mfc100d:mfc100d.dll
 0002:000d97e6       ?get_accHelp@CWnd@@UAEJUtagVARIANT@@PAPA_W@Z 005507e6 f   mfc100d:mfc100d.dll
 0002:000d97ec       ?get_accHelpTopic@CWnd@@UAEJPAPA_WUtagVARIANT@@PAJ@Z 005507ec f   mfc100d:mfc100d.dll
 0002:000d97f2       ?get_accKeyboardShortcut@CWnd@@UAEJUtagVARIANT@@PAPA_W@Z 005507f2 f   mfc100d:mfc100d.dll
 0002:000d97f8       ?get_accFocus@CWnd@@UAEJPAUtagVARIANT@@@Z 005507f8 f   mfc100d:mfc100d.dll
 0002:000d97fe       ?get_accSelection@CWnd@@UAEJPAUtagVARIANT@@@Z 005507fe f   mfc100d:mfc100d.dll
 0002:000d9804       ?get_accDefaultAction@CWnd@@UAEJUtagVARIANT@@PAPA_W@Z 00550804 f   mfc100d:mfc100d.dll
 0002:000d980a       ?accSelect@CWnd@@UAEJJUtagVARIANT@@@Z 0055080a f   mfc100d:mfc100d.dll
 0002:000d9810       ?accLocation@CWnd@@UAEJPAJ000UtagVARIANT@@@Z 00550810 f   mfc100d:mfc100d.dll
 0002:000d9816       ?accNavigate@CWnd@@UAEJJUtagVARIANT@@PAU2@@Z 00550816 f   mfc100d:mfc100d.dll
 0002:000d981c       ?accHitTest@CWnd@@UAEJJJPAUtagVARIANT@@@Z 0055081c f   mfc100d:mfc100d.dll
 0002:000d9822       ?accDoDefaultAction@CWnd@@UAEJUtagVARIANT@@@Z 00550822 f   mfc100d:mfc100d.dll
 0002:000d9828       ?put_accName@CWnd@@UAEJUtagVARIANT@@PA_W@Z 00550828 f   mfc100d:mfc100d.dll
 0002:000d982e       ?put_accValue@CWnd@@UAEJUtagVARIANT@@PA_W@Z 0055082e f   mfc100d:mfc100d.dll
 0002:000d9834       ?SetProxy@CWnd@@UAEJPAUIAccessibleProxy@@@Z 00550834 f   mfc100d:mfc100d.dll
 0002:000d983a       ?CreateAccessibleProxy@CWnd@@UAEJIJPAJ@Z 0055083a f   mfc100d:mfc100d.dll
 0002:000d9840       ?OnCommand@CWnd@@MAEHIJ@Z  00550840 f   mfc100d:mfc100d.dll
 0002:000d9846       ?OnNotify@CWnd@@MAEHIJPAJ@Z 00550846 f   mfc100d:mfc100d.dll
 0002:000d984c       ?GetSuperWndProcAddr@CWnd@@MAEPAP6GJPAUHWND__@@IIJ@ZXZ 0055084c f   mfc100d:mfc100d.dll
 0002:000d9852       ?BeginModalState@CWnd@@UAEXXZ 00550852 f   mfc100d:mfc100d.dll
 0002:000d9858       ?EndModalState@CWnd@@UAEXXZ 00550858 f   mfc100d:mfc100d.dll
 0002:000d985e       ?PreTranslateMessage@CDialog@@UAEHPAUtagMSG@@@Z 0055085e f   mfc100d:mfc100d.dll
 0002:000d9864       ?OnAmbientProperty@CWnd@@UAEHPAVCOleControlSite@@JPAUtagVARIANT@@@Z 00550864 f   mfc100d:mfc100d.dll
 0002:000d986a       ?WindowProc@CWnd@@MAEJIIJ@Z 0055086a f   mfc100d:mfc100d.dll
 0002:000d9870       ?OnWndMsg@CWnd@@MAEHIIJPAJ@Z 00550870 f   mfc100d:mfc100d.dll
 0002:000d9876       ?DefWindowProcA@CWnd@@MAEJIIJ@Z 00550876 f   mfc100d:mfc100d.dll
 0002:000d987c       ?PostNcDestroy@CWnd@@MAEXXZ 0055087c f   mfc100d:mfc100d.dll
 0002:000d9882       ?OnChildNotify@CWnd@@MAEHIIJPAJ@Z 00550882 f   mfc100d:mfc100d.dll
 0002:000d9888       ?OnTouchInputs@CWnd@@MAEHIPAUtagTOUCHINPUT@@@Z 00550888 f   mfc100d:mfc100d.dll
 0002:000d988e       ?OnTouchInput@CWnd@@MAEHVCPoint@@HHPAUtagTOUCHINPUT@@@Z 0055088e f   mfc100d:mfc100d.dll
 0002:000d9894       ?GetGestureStatus@CWnd@@MAEKVCPoint@@@Z 00550894 f   mfc100d:mfc100d.dll
 0002:000d989a       ?OnGestureZoom@CWnd@@MAEHVCPoint@@J@Z 0055089a f   mfc100d:mfc100d.dll
 0002:000d98a0       ?OnGesturePan@CWnd@@MAEHVCPoint@@0@Z 005508a0 f   mfc100d:mfc100d.dll
 0002:000d98a6       ?OnGestureRotate@CWnd@@MAEHVCPoint@@N@Z 005508a6 f   mfc100d:mfc100d.dll
 0002:000d98ac       ?OnGestureTwoFingerTap@CWnd@@MAEHVCPoint@@@Z 005508ac f   mfc100d:mfc100d.dll
 0002:000d98b2       ?OnGesturePressAndTap@CWnd@@MAEHVCPoint@@J@Z 005508b2 f   mfc100d:mfc100d.dll
 0002:000d98b8       ?CheckAutoCenter@CDialog@@UAEHXZ 005508b8 f   mfc100d:mfc100d.dll
 0002:000d98be       ?IsFrameWnd@CWnd@@UBEHXZ   005508be f   mfc100d:mfc100d.dll
 0002:000d98c4       ?CreateControlContainer@CWnd@@MAEHPAPAVCOleControlContainer@@@Z 005508c4 f   mfc100d:mfc100d.dll
 0002:000d98ca       ?CreateControlSite@CWnd@@MAEHPAVCOleControlContainer@@PAPAVCOleControlSite@@IABU_GUID@@@Z 005508ca f   mfc100d:mfc100d.dll
 0002:000d98d0       ?SetOccDialogInfo@CDialog@@MAEHPAU_AFX_OCC_DIALOG_INFO@@@Z 005508d0 f   mfc100d:mfc100d.dll
 0002:000d98d6       ?GetOccDialogInfo@CDialog@@MAEPAU_AFX_OCC_DIALOG_INFO@@XZ 005508d6 f   mfc100d:mfc100d.dll
 0002:000d98dc       ?Create@CDialog@@UAEHIPAVCWnd@@@Z 005508dc f   mfc100d:mfc100d.dll
 0002:000d98e2       ?Create@CDialog@@UAEHPBDPAVCWnd@@@Z 005508e2 f   mfc100d:mfc100d.dll
 0002:000d98e8       ?CreateIndirect@CDialog@@UAEHPAXPAVCWnd@@@Z 005508e8 f   mfc100d:mfc100d.dll
 0002:000d98ee       ?CreateIndirect@CDialog@@UAEHPBUDLGTEMPLATE@@PAVCWnd@@PAX@Z 005508ee f   mfc100d:mfc100d.dll
 0002:000d98f4       ?DoModal@CDialog@@UAEHXZ   005508f4 f   mfc100d:mfc100d.dll
 0002:000d98fa       ?OnInitDialog@CDialog@@UAEHXZ 005508fa f   mfc100d:mfc100d.dll
 0002:000d9900       ?OnSetFont@CDialog@@UAEXPAVCFont@@@Z 00550900 f   mfc100d:mfc100d.dll
 0002:000d9906       ?OnOK@CDialog@@MAEXXZ      00550906 f   mfc100d:mfc100d.dll
 0002:000d990c       ?OnCancel@CDialog@@MAEXXZ  0055090c f   mfc100d:mfc100d.dll
 0002:000d9912       ?PreInitDialog@CDialog@@MAEXXZ 00550912 f   mfc100d:mfc100d.dll
 0002:000d9918       ?GetCheck@CButton@@QBEHXZ  00550918 f   mfc100d:mfc100d.dll
 0002:000d991e       ?GetCurSel@CComboBox@@QBEHXZ 0055091e f   mfc100d:mfc100d.dll
 0002:000d9924       ?SetCheck@CButton@@QAEXH@Z 00550924 f   mfc100d:mfc100d.dll
 0002:000d992a       ?SetCurSel@CComboBox@@QAEHH@Z 0055092a f   mfc100d:mfc100d.dll
 0002:000d9930       ?GetCount@CComboBox@@QBEHXZ 00550930 f   mfc100d:mfc100d.dll
 0002:000d9936       ?InsertString@CComboBox@@QAEHHPBD@Z 00550936 f   mfc100d:mfc100d.dll
 0002:000d993c       ?DDX_Control@@YGXPAVCDataExchange@@HAAVCWnd@@@Z 0055093c f   mfc100d:mfc100d.dll
 0002:000d9942       ?DoDataExchange@CWnd@@MAEXPAVCDataExchange@@@Z 00550942 f   mfc100d:mfc100d.dll
 0002:000d9948       ??1CEdit@@UAE@XZ           00550948 f   mfc100d:mfc100d.dll
 0002:000d994e       ??4?$CStringT@DV?$StrTraitMFC_DLL@DV?$ChTraitsCRT@D@ATL@@@@@ATL@@QAEAAV01@PBD@Z 0055094e f   mfc100d:mfc100d.dll
 0002:000d9954       ??0CEdit@@QAE@XZ           00550954 f   mfc100d:mfc100d.dll
 0002:000d995a       ?SetWindowTextA@CWnd@@QAEXPBD@Z 0055095a f   mfc100d:mfc100d.dll
 0002:000d9960       ??B?$CSimpleStringT@D$00@ATL@@QBEPBDXZ 00550960 f   mfc100d:mfc100d.dll
 0002:000d9966       ?AddString@CComboBox@@QAEHPBD@Z 00550966 f   mfc100d:mfc100d.dll
 0002:000d996c       ?Format@?$CStringT@DV?$StrTraitMFC_DLL@DV?$ChTraitsCRT@D@ATL@@@@@ATL@@QAAXPBDZZ 0055096c f   mfc100d:mfc100d.dll
 0002:000d9972       ??0?$CStringT@DV?$StrTraitMFC_DLL@DV?$ChTraitsCRT@D@ATL@@@@@ATL@@QAE@ABV01@@Z 00550972 f   mfc100d:mfc100d.dll
 0002:000d9978       ?GetLength@?$CSimpleStringT@D$00@ATL@@QBEHXZ 00550978 f   mfc100d:mfc100d.dll
 0002:000d997e       ??Y?$CStringT@DV?$StrTraitMFC_DLL@DV?$ChTraitsCRT@D@ATL@@@@@ATL@@QAEAAV01@PBD@Z 0055097e f   mfc100d:mfc100d.dll
 0002:000d9984       ??0?$CStringT@DV?$StrTraitMFC_DLL@DV?$ChTraitsCRT@D@ATL@@@@@ATL@@QAE@PBD@Z 00550984 f   mfc100d:mfc100d.dll
 0002:000d998a       ?Left@?$CStringT@DV?$StrTraitMFC_DLL@DV?$ChTraitsCRT@D@ATL@@@@@ATL@@QBE?AV12@H@Z 0055098a f   mfc100d:mfc100d.dll
 0002:000d9990       ?Fail@CDataExchange@@QAEXXZ 00550990 f   mfc100d:mfc100d.dll
 0002:000d9996       ?AfxMessageBox@@YGHPBDII@Z 00550996 f   mfc100d:mfc100d.dll
 0002:000d999c       ?Find@?$CStringT@DV?$StrTraitMFC_DLL@DV?$ChTraitsCRT@D@ATL@@@@@ATL@@QBEHPBDH@Z 0055099c f   mfc100d:mfc100d.dll
 0002:000d99a2       ?GetWindowTextA@CWnd@@QBEXAAV?$CStringT@DV?$StrTraitMFC_DLL@DV?$ChTraitsCRT@D@ATL@@@@@ATL@@@Z 005509a2 f   mfc100d:mfc100d.dll
 0002:000d99a8       ?Compare@?$CStringT@DV?$StrTraitMFC_DLL@DV?$ChTraitsCRT@D@ATL@@@@@ATL@@QBEHPBD@Z 005509a8 f   mfc100d:mfc100d.dll
 0002:000d99ae       ?PrepareEditCtrl@CDataExchange@@QAEPAUHWND__@@H@Z 005509ae f   mfc100d:mfc100d.dll
 0002:000d99b4       ?EnableWindow@CWnd@@QAEHH@Z 005509b4 f   mfc100d:mfc100d.dll
 0002:000d99ba       ??1CListBox@@UAE@XZ        005509ba f   mfc100d:mfc100d.dll
 0002:000d99c0       ??0CListBox@@QAE@XZ        005509c0 f   mfc100d:mfc100d.dll
 0002:000d99c6       ?GetCurSel@CListBox@@QBEHXZ 005509c6 f   mfc100d:mfc100d.dll
 0002:000d99cc       ?Find@?$CStringT@DV?$StrTraitMFC_DLL@DV?$ChTraitsCRT@D@ATL@@@@@ATL@@QBEHDH@Z 005509cc f   mfc100d:mfc100d.dll
 0002:000d99d2       ?DDX_Text@@YGXPAVCDataExchange@@HAAV?$CStringT@DV?$StrTraitMFC_DLL@DV?$ChTraitsCRT@D@ATL@@@@@ATL@@@Z 005509d2 f   mfc100d:mfc100d.dll
 0002:000d99d8       ?InsertString@CListBox@@QAEHHPBD@Z 005509d8 f   mfc100d:mfc100d.dll
 0002:000d99de       ?SetCurSel@CListBox@@QAEHH@Z 005509de f   mfc100d:mfc100d.dll
 0002:000d99e4       ?GetAt@?$CSimpleStringT@D$00@ATL@@QBEDH@Z 005509e4 f   mfc100d:mfc100d.dll
 0002:000d99ea       ??1CBitmap@@UAE@XZ         005509ea f   mfc100d:mfc100d.dll
 0002:000d99f0       ??1CStatic@@UAE@XZ         005509f0 f   mfc100d:mfc100d.dll
 0002:000d99f6       ??0CBitmap@@QAE@XZ         005509f6 f   mfc100d:mfc100d.dll
 0002:000d99fc       ??0CStatic@@QAE@XZ         005509fc f   mfc100d:mfc100d.dll
 0002:000d9a02       ?MakeLower@?$CStringT@DV?$StrTraitMFC_DLL@DV?$ChTraitsCRT@D@ATL@@@@@ATL@@QAEAAV12@XZ 00550a02 f   mfc100d:mfc100d.dll
 0002:000d9a08       ??1CStdioFile@@UAE@XZ      00550a08 f   mfc100d:mfc100d.dll
 0002:000d9a0e       ?Close@CStdioFile@@UAEXXZ  00550a0e f   mfc100d:mfc100d.dll
 0002:000d9a14       ?WriteString@CStdioFile@@UAEXPBD@Z 00550a14 f   mfc100d:mfc100d.dll
 0002:000d9a1a       ?Open@CStdioFile@@UAEHPBDIPAVCFileException@@@Z 00550a1a f   mfc100d:mfc100d.dll
 0002:000d9a20       ??0CStdioFile@@QAE@XZ      00550a20 f   mfc100d:mfc100d.dll
 0002:000d9a26       ?Right@?$CStringT@DV?$StrTraitMFC_DLL@DV?$ChTraitsCRT@D@ATL@@@@@ATL@@QBE?AV12@H@Z 00550a26 f   mfc100d:mfc100d.dll
 0002:000d9a2c       ?ReverseFind@?$CStringT@DV?$StrTraitMFC_DLL@DV?$ChTraitsCRT@D@ATL@@@@@ATL@@QBEHD@Z 00550a2c f   mfc100d:mfc100d.dll
 0002:000d9a32       ?BringWindowToTop@CWnd@@QAEXXZ 00550a32 f   mfc100d:mfc100d.dll
 0002:000d9a38       ?UpdateWindow@CWnd@@QAEXXZ 00550a38 f   mfc100d:mfc100d.dll
 0002:000d9a3e       ?ShowWindow@CWnd@@QAEHH@Z  00550a3e f   mfc100d:mfc100d.dll
 0002:000d9a44       ?CompareNoCase@?$CStringT@DV?$StrTraitMFC_DLL@DV?$ChTraitsCRT@D@ATL@@@@@ATL@@QBEHPBD@Z 00550a44 f   mfc100d:mfc100d.dll
 0002:000d9a4a       ??1CWnd@@UAE@XZ            00550a4a f   mfc100d:mfc100d.dll
 0002:000d9a50       ?SetBitmap@CStatic@@QAEPAUHBITMAP__@@PAU2@@Z 00550a50 f   mfc100d:mfc100d.dll
 0002:000d9a56       ??BCBitmap@@QBEPAUHBITMAP__@@XZ 00550a56 f   mfc100d:mfc100d.dll
 0002:000d9a5c       ?LoadBitmapA@CBitmap@@QAEHI@Z 00550a5c f   mfc100d:mfc100d.dll
 0002:000d9a62       ?DeleteObject@CGdiObject@@QAEHXZ 00550a62 f   mfc100d:mfc100d.dll
 0002:000d9a68       ?Concatenate@?$CSimpleStringT@D$00@ATL@@KAXAAV12@PBDH1H@Z 00550a68 f   mfc100d:mfc100d.dll
 0002:000d9a6e       ??0?$CStringT@DV?$StrTraitMFC_DLL@DV?$ChTraitsCRT@D@ATL@@@@@ATL@@QAE@PAUIAtlStringMgr@1@@Z 00550a6e f   mfc100d:mfc100d.dll
 0002:000d9a74       ?GetManager@?$CStringT@DV?$StrTraitMFC_DLL@DV?$ChTraitsCRT@D@ATL@@@@@ATL@@QBEPAUIAtlStringMgr@2@XZ 00550a74 f   mfc100d:mfc100d.dll
 0002:000d9a7a       ?StringLength@?$CSimpleStringT@D$00@ATL@@SAHPBD@Z 00550a7a f   mfc100d:mfc100d.dll
 0002:000d9a80       ?Lookup@CMapStringToPtr@@QBEHPBDAAPAX@Z 00550a80 f   mfc100d:mfc100d.dll
 0002:000d9a86       ?DDX_CBIndex@@YGXPAVCDataExchange@@HAAH@Z 00550a86 f   mfc100d:mfc100d.dll
 0002:000d9a8c       ?Append@?$CSimpleStringT@D$00@ATL@@QAEXPBD@Z 00550a8c f   mfc100d:mfc100d.dll
 0002:000d9a92       ?DDX_Check@@YGXPAVCDataExchange@@HAAH@Z 00550a92 f   mfc100d:mfc100d.dll
 0002:000d9a98       ??0CBrush@@QAE@XZ          00550a98 f   mfc100d:mfc100d.dll
 0002:000d9a9e       ?GetDlgItem@CWnd@@QBEPAV1@H@Z 00550a9e f   mfc100d:mfc100d.dll
 0002:000d9aa4       ??BCBrush@@QBEPAUHBRUSH__@@XZ 00550aa4 f   mfc100d:mfc100d.dll
 0002:000d9aaa       ?CreateSolidBrush@CBrush@@QAEHK@Z 00550aaa f   mfc100d:mfc100d.dll
 0002:000d9ab0       ?SetBkMode@CDC@@QAEHH@Z    00550ab0 f   mfc100d:mfc100d.dll
 0002:000d9ab6       ?GetDlgCtrlID@CWnd@@QBEHXZ 00550ab6 f   mfc100d:mfc100d.dll
 0002:000d9abc       ?OnCtlColor@CWnd@@IAEPAUHBRUSH__@@PAVCDC@@PAV1@I@Z 00550abc f   mfc100d:mfc100d.dll
 0002:000d9ac2       ?Invalidate@CWnd@@QAEXH@Z  00550ac2 f   mfc100d:mfc100d.dll
 0002:000d9ac8       ?GetColor@CColorDialog@@QBEKXZ 00550ac8 f   mfc100d:mfc100d.dll
 0002:000d9ace       ?DoModal@CColorDialog@@UAEHXZ 00550ace f   mfc100d:mfc100d.dll
 0002:000d9ad4       ??0CColorDialog@@QAE@KKPAVCWnd@@@Z 00550ad4 f   mfc100d:mfc100d.dll
 0002:000d9ada       ?GetRuntimeClass@CCommonDialog@@UBEPAUCRuntimeClass@@XZ 00550ada f   mfc100d:mfc100d.dll
 0002:000d9ae0       ?GetMessageMap@CCommonDialog@@MBEPBUAFX_MSGMAP@@XZ 00550ae0 f   mfc100d:mfc100d.dll
 0002:000d9ae6       ?OnOK@CCommonDialog@@MAEXXZ 00550ae6 f   mfc100d:mfc100d.dll
 0002:000d9aec       ?OnCancel@CCommonDialog@@MAEXXZ 00550aec f   mfc100d:mfc100d.dll
 0002:000d9af2       ?LimitText@CEdit@@QAEXH@Z  00550af2 f   mfc100d:mfc100d.dll
 0002:000d9af8       ?MoveWindow@CWnd@@QAEXPBUtagRECT@@H@Z 00550af8 f   mfc100d:mfc100d.dll
 0002:000d9afe       ?GetWindowRect@CWnd@@QBEXPAUtagRECT@@@Z 00550afe f   mfc100d:mfc100d.dll
 0002:000d9b04       ?ReplaceSel@CEdit@@QAEXPBDH@Z 00550b04 f   mfc100d:mfc100d.dll
 0002:000d9b0a       ?SetSel@CEdit@@QAEXHHH@Z   00550b0a f   mfc100d:mfc100d.dll
 0002:000d9b10       ?AfxGetMainWnd@@YGPAVCWnd@@XZ 00550b10 f   mfc100d:mfc100d.dll
 0002:000d9b16       ?OnSetCursor@CWnd@@IAEHPAV1@II@Z 00550b16 f   mfc100d:mfc100d.dll
 0002:000d9b1c       ??1CListCtrl@@UAE@XZ       00550b1c f   mfc100d:mfc100d.dll
 0002:000d9b22       ??0CListCtrl@@QAE@XZ       00550b22 f   mfc100d:mfc100d.dll
 0002:000d9b28       ?DDV_MinMaxInt@@YGXPAVCDataExchange@@HHH@Z 00550b28 f   mfc100d:mfc100d.dll
 0002:000d9b2e       ?DDX_Text@@YGXPAVCDataExchange@@HAAH@Z 00550b2e f   mfc100d:mfc100d.dll
 0002:000d9b34       ?InsertColumn@CListCtrl@@QAEHHPBDHHH@Z 00550b34 f   mfc100d:mfc100d.dll
 0002:000d9b3a       ?SetExtendedStyle@CListCtrl@@QAEKK@Z 00550b3a f   mfc100d:mfc100d.dll
 0002:000d9b40       ?GetExtendedStyle@CListCtrl@@QBEKXZ 00550b40 f   mfc100d:mfc100d.dll
 0002:000d9b46       ?SortItems@CListCtrl@@QAEHP6GHJJJ@ZK@Z 00550b46 f   mfc100d:mfc100d.dll
 0002:000d9b4c       ?SetItem@CListCtrl@@QAEHHHIPBDHIIJ@Z 00550b4c f   mfc100d:mfc100d.dll
 0002:000d9b52       ?InsertItem@CListCtrl@@QAEHHPBD@Z 00550b52 f   mfc100d:mfc100d.dll
 0002:000d9b58       ?GetItemCount@CListCtrl@@QBEHXZ 00550b58 f   mfc100d:mfc100d.dll
 0002:000d9b5e       ?DeleteItem@CListCtrl@@QAEHH@Z 00550b5e f   mfc100d:mfc100d.dll
 0002:000d9b64       ?GetItemText@CListCtrl@@QBEHHHPADH@Z 00550b64 f   mfc100d:mfc100d.dll
 0002:000d9b6a       ?GetNextSelectedItem@CListCtrl@@QBEHAAPAU__POSITION@@@Z 00550b6a f   mfc100d:mfc100d.dll
 0002:000d9b70       ?GetFirstSelectedItemPosition@CListCtrl@@QBEPAU__POSITION@@XZ 00550b70 f   mfc100d:mfc100d.dll
 0002:000d9b76       ?DDX_Radio@@YGXPAVCDataExchange@@HAAH@Z 00550b76 f   mfc100d:mfc100d.dll
 0002:000d9b7c       ?FreeDataChain@CPlex@@QAEXXZ 00550b7c f   mfc100d:mfc100d.dll
 0002:000d9b82       ?Create@CPlex@@SGPAU1@AAPAU1@II@Z 00550b82 f   mfc100d:mfc100d.dll
 0002:000d9b88       ?SetItemData@CListBox@@QAEHHK@Z 00550b88 f   mfc100d:mfc100d.dll
 0002:000d9b8e       ?DeleteString@CListBox@@QAEHI@Z 00550b8e f   mfc100d:mfc100d.dll
 0002:000d9b94       ?GetItemData@CListBox@@QBEKH@Z 00550b94 f   mfc100d:mfc100d.dll
 0002:000d9b9a       ?GetText@CListBox@@QBEXHAAV?$CStringT@DV?$StrTraitMFC_DLL@DV?$ChTraitsCRT@D@ATL@@@@@ATL@@@Z 00550b9a f   mfc100d:mfc100d.dll
 0002:000d9ba0       ?GetCount@CListBox@@QBEHXZ 00550ba0 f   mfc100d:mfc100d.dll
 0002:000d9ba6       ?GetSelItems@CListBox@@QBEHHPAH@Z 00550ba6 f   mfc100d:mfc100d.dll
 0002:000d9bac       ?GetSelCount@CListBox@@QBEHXZ 00550bac f   mfc100d:mfc100d.dll
 0002:000d9bb2       ?SetSel@CListBox@@QAEHHH@Z 00550bb2 f   mfc100d:mfc100d.dll
 0002:000d9bb8       ??$SerializeElements@V?$CStringT@DV?$StrTraitMFC_DLL@DV?$ChTraitsCRT@D@ATL@@@@@ATL@@@@YGXAAVCArchive@@PAV?$CStringT@DV?$StrTraitMFC_DLL@DV?$ChTraitsCRT@D@ATL@@@@@ATL@@H@Z 00550bb8 f   mfc100d:mfc100d.dll
 0002:000d9bbe       ?DDX_CBString@@YGXPAVCDataExchange@@HAAV?$CStringT@DV?$StrTraitMFC_DLL@DV?$ChTraitsCRT@D@ATL@@@@@ATL@@@Z 00550bbe f   mfc100d:mfc100d.dll
 0002:000d9bc4       ?FindString@CComboBox@@QBEHHPBD@Z 00550bc4 f   mfc100d:mfc100d.dll
 0002:000d9bca       ?GetLBText@CComboBox@@QBEXHAAV?$CStringT@DV?$StrTraitMFC_DLL@DV?$ChTraitsCRT@D@ATL@@@@@ATL@@@Z 00550bca f   mfc100d:mfc100d.dll
 0002:000d9bd0       ?Insert@?$CStringT@DV?$StrTraitMFC_DLL@DV?$ChTraitsCRT@D@ATL@@@@@ATL@@QAEHHPBD@Z 00550bd0 f   mfc100d:mfc100d.dll
 0002:000d9bd6       ?Delete@?$CStringT@DV?$StrTraitMFC_DLL@DV?$ChTraitsCRT@D@ATL@@@@@ATL@@QAEHHH@Z 00550bd6 f   mfc100d:mfc100d.dll
 0002:000d9bdc       ?AppendChar@?$CSimpleStringT@D$00@ATL@@QAEXD@Z 00550bdc f   mfc100d:mfc100d.dll
 0002:000d9be2       ??A?$CSimpleStringT@D$00@ATL@@QBEDH@Z 00550be2 f   mfc100d:mfc100d.dll
 0002:000d9be8       ?Tokenize@?$CStringT@DV?$StrTraitMFC_DLL@DV?$ChTraitsCRT@D@ATL@@@@@ATL@@QBE?AV12@PBDAAH@Z 00550be8 f   mfc100d:mfc100d.dll
 0002:000d9bee       ?GetThisMessageMap@CDocument@@KGPBUAFX_MSGMAP@@XZ 00550bee f   mfc100d:mfc100d.dll
 0002:000d9bf4       ??3CObject@@SGXPAXPBDH@Z   00550bf4 f   mfc100d:mfc100d.dll
 0002:000d9bfa       ??2CObject@@SGPAXIPBDH@Z   00550bfa f   mfc100d:mfc100d.dll
 0002:000d9c00       ?GetThisClass@CDocument@@SGPAUCRuntimeClass@@XZ 00550c00 f   mfc100d:mfc100d.dll
 0002:000d9c06       ??1CDocument@@UAE@XZ       00550c06 f   mfc100d:mfc100d.dll
 0002:000d9c0c       ??0CDocument@@QAE@XZ       00550c0c f   mfc100d:mfc100d.dll
 0002:000d9c12       ?OnCmdMsg@CDocument@@UAEHIHPAXPAUAFX_CMDHANDLERINFO@@@Z 00550c12 f   mfc100d:mfc100d.dll
 0002:000d9c18       ?OnFinalRelease@CDocument@@UAEXXZ 00550c18 f   mfc100d:mfc100d.dll
 0002:000d9c1e       ?GetInterfaceMap@CCmdTarget@@MBEPBUAFX_INTERFACEMAP@@XZ 00550c1e f   mfc100d:mfc100d.dll
 0002:000d9c24       ?SetTitle@CDocument@@UAEXPBD@Z 00550c24 f   mfc100d:mfc100d.dll
 0002:000d9c2a       ?SetPathName@CDocument@@UAEXPBDH@Z 00550c2a f   mfc100d:mfc100d.dll
 0002:000d9c30       ?ClearPathName@CDocument@@UAEXXZ 00550c30 f   mfc100d:mfc100d.dll
 0002:000d9c36       ?IsModified@CDocument@@UAEHXZ 00550c36 f   mfc100d:mfc100d.dll
 0002:000d9c3c       ?SetModifiedFlag@CDocument@@UAEXH@Z 00550c3c f   mfc100d:mfc100d.dll
 0002:000d9c42       ?GetFirstViewPosition@CDocument@@UBEPAU__POSITION@@XZ 00550c42 f   mfc100d:mfc100d.dll
 0002:000d9c48       ?GetNextView@CDocument@@UBEPAVCView@@AAPAU__POSITION@@@Z 00550c48 f   mfc100d:mfc100d.dll
 0002:000d9c4e       ?OnChangedViewList@CDocument@@UAEXXZ 00550c4e f   mfc100d:mfc100d.dll
 0002:000d9c54       ?DeleteContents@CDocument@@UAEXXZ 00550c54 f   mfc100d:mfc100d.dll
 0002:000d9c5a       ?OnOpenDocument@CDocument@@UAEHPBD@Z 00550c5a f   mfc100d:mfc100d.dll
 0002:000d9c60       ?OnCloseDocument@CDocument@@UAEXXZ 00550c60 f   mfc100d:mfc100d.dll
 0002:000d9c66       ?ReportSaveLoadException@CDocument@@UAEXPBDPAVCException@@HI@Z 00550c66 f   mfc100d:mfc100d.dll
 0002:000d9c6c       ?GetFile@CDocument@@UAEPAVCFile@@PBDIPAVCFileException@@@Z 00550c6c f   mfc100d:mfc100d.dll
 0002:000d9c72       ?ReleaseFile@CDocument@@UAEXPAVCFile@@H@Z 00550c72 f   mfc100d:mfc100d.dll
 0002:000d9c78       ?OnRichPreviewUnload@CDocument@@UAEXXZ 00550c78 f   mfc100d:mfc100d.dll
 0002:000d9c7e       ?LoadDocumentFromStream@CDocument@@UAEJPAUIStream@@K@Z 00550c7e f   mfc100d:mfc100d.dll
 0002:000d9c84       ?GetThumbnail@CDocument@@UAEHIPAPAUHBITMAP__@@PAW4WTS_ALPHATYPE@@@Z 00550c84 f   mfc100d:mfc100d.dll
 0002:000d9c8a       ?ClearChunkList@CDocument@@UAEXXZ 00550c8a f   mfc100d:mfc100d.dll
 0002:000d9c90       ?SetChunkValue@CDocument@@UAEHPAUIFilterChunkValue@ATL@@@Z 00550c90 f   mfc100d:mfc100d.dll
 0002:000d9c96       ?BeginReadChunks@CDocument@@UAEXXZ 00550c96 f   mfc100d:mfc100d.dll
 0002:000d9c9c       ?ReadNextChunkValue@CDocument@@UAEHPAPAUIFilterChunkValue@ATL@@@Z 00550c9c f   mfc100d:mfc100d.dll
 0002:000d9ca2       ?RemoveChunk@CDocument@@UAEXABU_GUID@@K@Z 00550ca2 f   mfc100d:mfc100d.dll
 0002:000d9ca8       ?FindChunk@CDocument@@UAEPAU__POSITION@@ABU_GUID@@K@Z 00550ca8 f   mfc100d:mfc100d.dll
 0002:000d9cae       ?OnDocumentEvent@CDocument@@UAEXW4DocumentEvent@1@@Z 00550cae f   mfc100d:mfc100d.dll
 0002:000d9cb4       ?CanCloseFrame@CDocument@@UAEHPAVCFrameWnd@@@Z 00550cb4 f   mfc100d:mfc100d.dll
 0002:000d9cba       ?SaveModified@CDocument@@UAEHXZ 00550cba f   mfc100d:mfc100d.dll
 0002:000d9cc0       ?PreCloseFrame@CDocument@@UAEXPAVCFrameWnd@@@Z 00550cc0 f   mfc100d:mfc100d.dll
 0002:000d9cc6       ?DoSave@CDocument@@UAEHPBDH@Z 00550cc6 f   mfc100d:mfc100d.dll
 0002:000d9ccc       ?DoFileSave@CDocument@@UAEHXZ 00550ccc f   mfc100d:mfc100d.dll
 0002:000d9cd2       ?UpdateFrameCounts@CDocument@@UAEXXZ 00550cd2 f   mfc100d:mfc100d.dll
 0002:000d9cd8       ?GetDefaultMenu@CDocument@@UAEPAUHMENU__@@XZ 00550cd8 f   mfc100d:mfc100d.dll
 0002:000d9cde       ?GetDefaultAccelerator@CDocument@@UAEPAUHACCEL__@@XZ 00550cde f   mfc100d:mfc100d.dll
 0002:000d9ce4       ?OnIdle@CDocument@@UAEXXZ  00550ce4 f   mfc100d:mfc100d.dll
 0002:000d9cea       ?OnLoadDocumentFromStream@CDocument@@UAEJPAUIStream@@K@Z 00550cea f   mfc100d:mfc100d.dll
 0002:000d9cf0       ?OnPreviewHandlerQueryFocus@CDocument@@UAEJPAPAUHWND__@@@Z 00550cf0 f   mfc100d:mfc100d.dll
 0002:000d9cf6       ?OnPreviewHandlerTranslateAccelerator@CDocument@@UAEJPAUtagMSG@@@Z 00550cf6 f   mfc100d:mfc100d.dll
 0002:000d9cfc       ?OnCreatePreviewFrame@CDocument@@UAEHXZ 00550cfc f   mfc100d:mfc100d.dll
 0002:000d9d02       ?OnUnloadHandler@CDocument@@UAEXXZ 00550d02 f   mfc100d:mfc100d.dll
 0002:000d9d08       ?OnDrawThumbnail@CDocument@@UAEXAAVCDC@@PAUtagRECT@@@Z 00550d08 f   mfc100d:mfc100d.dll
 0002:000d9d0e       ?SendInitialUpdate@CDocument@@QAEXXZ 00550d0e f   mfc100d:mfc100d.dll
 0002:000d9d14       ?OnNewDocument@CDocument@@UAEHXZ 00550d14 f   mfc100d:mfc100d.dll
 0002:000d9d1a       ?AssertValid@CDocument@@UBEXXZ 00550d1a f   mfc100d:mfc100d.dll
 0002:000d9d20       ?Dump@CDocument@@UBEXAAVCDumpContext@@@Z 00550d20 f   mfc100d:mfc100d.dll
 0002:000d9d26       ?OnSaveDocument@CDocument@@UAEHPBD@Z 00550d26 f   mfc100d:mfc100d.dll
 0002:000d9d2c       ?DrawMenuBar@CWnd@@QAEXXZ  00550d2c f   mfc100d:mfc100d.dll
 0002:000d9d32       ?GetSubMenu@CMenu@@QBEPAV1@H@Z 00550d32 f   mfc100d:mfc100d.dll
 0002:000d9d38       ?EnableMenuItem@CMenu@@QAEIII@Z 00550d38 f   mfc100d:mfc100d.dll
 0002:000d9d3e       ?ReadString@CStdioFile@@UAEHAAV?$CStringT@DV?$StrTraitMFC_DLL@DV?$ChTraitsCRT@D@ATL@@@@@ATL@@@Z 00550d3e f   mfc100d:mfc100d.dll
 0002:000d9d44       ?GetSafeHwnd@CWnd@@QBEPAUHWND__@@XZ 00550d44 f   mfc100d:mfc100d.dll
 0002:000d9d4a       ?GetMainWnd@CWinThread@@UAEPAVCWnd@@XZ 00550d4a f   mfc100d:mfc100d.dll
 0002:000d9d50       ?ReleaseDC@CWnd@@QAEHPAVCDC@@@Z 00550d50 f   mfc100d:mfc100d.dll
 0002:000d9d56       ?GetDC@CWnd@@QAEPAVCDC@@XZ 00550d56 f   mfc100d:mfc100d.dll
 0002:000d9d5c       ?GetActiveWindow@CWnd@@SGPAV1@XZ 00550d5c f   mfc100d:mfc100d.dll
 0002:000d9d62       ?AfxGetApp@@YGPAVCWinApp@@XZ 00550d62 f   mfc100d:mfc100d.dll
 0002:000d9d68       ??1CFileFind@@UAE@XZ       00550d68 f   mfc100d:mfc100d.dll
 0002:000d9d6e       ?Close@CFileFind@@QAEXXZ   00550d6e f   mfc100d:mfc100d.dll
 0002:000d9d74       ?GetLastWriteTime@CFileFind@@UBEHAAVCTime@ATL@@@Z 00550d74 f   mfc100d:mfc100d.dll
 0002:000d9d7a       ?IsDirectory@CFileFind@@QBEHXZ 00550d7a f   mfc100d:mfc100d.dll
 0002:000d9d80       ?GetFileName@CFileFind@@UBE?AV?$CStringT@DV?$StrTraitMFC_DLL@DV?$ChTraitsCRT@D@ATL@@@@@ATL@@XZ 00550d80 f   mfc100d:mfc100d.dll
 0002:000d9d86       ?FindNextFileA@CFileFind@@UAEHXZ 00550d86 f   mfc100d:mfc100d.dll
 0002:000d9d8c       ?FindFile@CFileFind@@UAEHPBDK@Z 00550d8c f   mfc100d:mfc100d.dll
 0002:000d9d92       ??0CFileFind@@QAE@XZ       00550d92 f   mfc100d:mfc100d.dll
 0002:000d9d98       ??1CMapStringToPtr@@UAE@XZ 00550d98 f   mfc100d:mfc100d.dll
 0002:000d9d9e       ??0CMapStringToPtr@@QAE@H@Z 00550d9e f   mfc100d:mfc100d.dll
 0002:000d9da4       ?SendMessageA@CWnd@@QBEJIIJ@Z 00550da4 f   mfc100d:mfc100d.dll
 0002:000d9daa       ?Seek@CStdioFile@@UAE_K_JI@Z 00550daa f   mfc100d:mfc100d.dll
 0002:000d9db0       ??Y?$CStringT@DV?$StrTraitMFC_DLL@DV?$ChTraitsCRT@D@ATL@@@@@ATL@@QAEAAV01@ABV?$CSimpleStringT@D$00@1@@Z 00550db0 f   mfc100d:mfc100d.dll
 0002:000d9db6       ?GetFilePath@CFileFind@@UBE?AV?$CStringT@DV?$StrTraitMFC_DLL@DV?$ChTraitsCRT@D@ATL@@@@@ATL@@XZ 00550db6 f   mfc100d:mfc100d.dll
 0002:000d9dbc       ?IsDots@CFileFind@@UBEHXZ  00550dbc f   mfc100d:mfc100d.dll
 0002:000d9dc2       ?Delete@CException@@QAEXXZ 00550dc2 f   mfc100d:mfc100d.dll
 0002:000d9dc8       ??2@YAPAXI@Z               00550dc8 f   mfc100d:mfc100d.dll
 0002:000d9dce       ?GetThisMessageMap@CView@@KGPBUAFX_MSGMAP@@XZ 00550dce f   mfc100d:mfc100d.dll
 0002:000d9dd4       ?OnMove@CWnd@@IAEXHH@Z     00550dd4 f   mfc100d:mfc100d.dll
 0002:000d9dda       ?GetThisClass@CView@@SGPAUCRuntimeClass@@XZ 00550dda f   mfc100d:mfc100d.dll
 0002:000d9de0       ??1CDC@@UAE@XZ             00550de0 f   mfc100d:mfc100d.dll
 0002:000d9de6       ??1CRgn@@UAE@XZ            00550de6 f   mfc100d:mfc100d.dll
 0002:000d9dec       ??1CFont@@UAE@XZ           00550dec f   mfc100d:mfc100d.dll
 0002:000d9df2       ??1CView@@UAE@XZ           00550df2 f   mfc100d:mfc100d.dll
 0002:000d9df8       ?CreateFontA@CFont@@QAEHHHHHHEEEEEEEEPBD@Z 00550df8 f   mfc100d:mfc100d.dll
 0002:000d9dfe       ??0CDC@@QAE@XZ             00550dfe f   mfc100d:mfc100d.dll
 0002:000d9e04       ??0CRgn@@QAE@XZ            00550e04 f   mfc100d:mfc100d.dll
 0002:000d9e0a       ??0CFont@@QAE@XZ           00550e0a f   mfc100d:mfc100d.dll
 0002:000d9e10       ??0CView@@IAE@XZ           00550e10 f   mfc100d:mfc100d.dll
 0002:000d9e16       ?OnCmdMsg@CView@@UAEHIHPAXPAUAFX_CMDHANDLERINFO@@@Z 00550e16 f   mfc100d:mfc100d.dll
 0002:000d9e1c       ?CalcWindowRect@CView@@UAEXPAUtagRECT@@I@Z 00550e1c f   mfc100d:mfc100d.dll
 0002:000d9e22       ?GetScrollBarCtrl@CView@@UBEPAVCScrollBar@@H@Z 00550e22 f   mfc100d:mfc100d.dll
 0002:000d9e28       ?PreTranslateMessage@CWnd@@UAEHPAUtagMSG@@@Z 00550e28 f   mfc100d:mfc100d.dll
 0002:000d9e2e       ?PostNcDestroy@CView@@MAEXXZ 00550e2e f   mfc100d:mfc100d.dll
 0002:000d9e34       ?CheckAutoCenter@CWnd@@UAEHXZ 00550e34 f   mfc100d:mfc100d.dll
 0002:000d9e3a       ?SetOccDialogInfo@CWnd@@MAEHPAU_AFX_OCC_DIALOG_INFO@@@Z 00550e3a f   mfc100d:mfc100d.dll
 0002:000d9e40       ?GetOccDialogInfo@CWnd@@MAEPAU_AFX_OCC_DIALOG_INFO@@XZ 00550e40 f   mfc100d:mfc100d.dll
 0002:000d9e46       ?IsSelected@CView@@UBEHPBVCObject@@@Z 00550e46 f   mfc100d:mfc100d.dll
 0002:000d9e4c       ?OnScroll@CView@@UAEHIIH@Z 00550e4c f   mfc100d:mfc100d.dll
 0002:000d9e52       ?OnScrollBy@CView@@UAEHVCSize@@H@Z 00550e52 f   mfc100d:mfc100d.dll
 0002:000d9e58       ?OnDragEnter@CView@@UAEKPAVCOleDataObject@@KVCPoint@@@Z 00550e58 f   mfc100d:mfc100d.dll
 0002:000d9e5e       ?OnDragOver@CView@@UAEKPAVCOleDataObject@@KVCPoint@@@Z 00550e5e f   mfc100d:mfc100d.dll
 0002:000d9e64       ?OnDragLeave@CView@@UAEXXZ 00550e64 f   mfc100d:mfc100d.dll
 0002:000d9e6a       ?OnDrop@CView@@UAEHPAVCOleDataObject@@KVCPoint@@@Z 00550e6a f   mfc100d:mfc100d.dll
 0002:000d9e70       ?OnDropEx@CView@@UAEKPAVCOleDataObject@@KKVCPoint@@@Z 00550e70 f   mfc100d:mfc100d.dll
 0002:000d9e76       ?OnDragScroll@CView@@UAEKKVCPoint@@@Z 00550e76 f   mfc100d:mfc100d.dll
 0002:000d9e7c       ?OnPrepareDC@CView@@UAEXPAVCDC@@PAUCPrintInfo@@@Z 00550e7c f   mfc100d:mfc100d.dll
 0002:000d9e82       ?OnInitialUpdate@CView@@UAEXXZ 00550e82 f   mfc100d:mfc100d.dll
 0002:000d9e88       ?OnActivateView@CView@@MAEXHPAV1@0@Z 00550e88 f   mfc100d:mfc100d.dll
 0002:000d9e8e       ?OnActivateFrame@CView@@MAEXIPAVCFrameWnd@@@Z 00550e8e f   mfc100d:mfc100d.dll
 0002:000d9e94       ?OnUpdate@CView@@MAEXPAV1@JPAVCObject@@@Z 00550e94 f   mfc100d:mfc100d.dll
 0002:000d9e9a       ?OnPrint@CView@@MAEXPAVCDC@@PAUCPrintInfo@@@Z 00550e9a f   mfc100d:mfc100d.dll
 0002:000d9ea0       ?OnEndPrintPreview@CView@@MAEXPAVCDC@@PAUCPrintInfo@@UtagPOINT@@PAVCPreviewView@@@Z 00550ea0 f   mfc100d:mfc100d.dll
 0002:000d9ea6       ?PreCreateWindow@CView@@MAEHAAUtagCREATESTRUCTA@@@Z 00550ea6 f   mfc100d:mfc100d.dll
 0002:000d9eac       ?SelectClipRgn@CDC@@QAEHPAVCRgn@@@Z 00550eac f   mfc100d:mfc100d.dll
 0002:000d9eb2       ?FillSolidRect@CDC@@QAEXPBUtagRECT@@K@Z 00550eb2 f   mfc100d:mfc100d.dll
 0002:000d9eb8       ?GetClientRect@CWnd@@QBEXPAUtagRECT@@@Z 00550eb8 f   mfc100d:mfc100d.dll
 0002:000d9ebe       ?DoPreparePrinting@CView@@QAEHPAUCPrintInfo@@@Z 00550ebe f   mfc100d:mfc100d.dll
 0002:000d9ec4       ?AssertValid@CView@@UBEXXZ 00550ec4 f   mfc100d:mfc100d.dll
 0002:000d9eca       ?Dump@CView@@UBEXAAVCDumpContext@@@Z 00550eca f   mfc100d:mfc100d.dll
 0002:000d9ed0       ?IsKindOf@CObject@@QBEHPBUCRuntimeClass@@@Z 00550ed0 f   mfc100d:mfc100d.dll
 0002:000d9ed6       ?CreateCompatibleBitmap@CBitmap@@QAEHPAVCDC@@HH@Z 00550ed6 f   mfc100d:mfc100d.dll
 0002:000d9edc       ?CreateCompatibleDC@CDC@@QAEHPAV1@@Z 00550edc f   mfc100d:mfc100d.dll
 0002:000d9ee2       ?CreateRectRgn@CRgn@@QAEHHHHH@Z 00550ee2 f   mfc100d:mfc100d.dll
 0002:000d9ee8       ?OnSize@CWnd@@IAEXIHH@Z    00550ee8 f   mfc100d:mfc100d.dll
 0002:000d9eee       ?OnLButtonUp@CWnd@@IAEXIVCPoint@@@Z 00550eee f   mfc100d:mfc100d.dll
 0002:000d9ef4       ?OnLButtonDblClk@CWnd@@IAEXIVCPoint@@@Z 00550ef4 f   mfc100d:mfc100d.dll
 0002:000d9efa       ?OnRButtonDown@CWnd@@IAEXIVCPoint@@@Z 00550efa f   mfc100d:mfc100d.dll
 0002:000d9f00       ?OnSysKeyDown@CWnd@@IAEXIII@Z 00550f00 f   mfc100d:mfc100d.dll
 0002:000d9f06       ?OnSysKeyUp@CWnd@@IAEXIII@Z 00550f06 f   mfc100d:mfc100d.dll
 0002:000d9f0c       ?OnKeyUp@CWnd@@IAEXIII@Z   00550f0c f   mfc100d:mfc100d.dll
 0002:000d9f12       ?OnKeyDown@CWnd@@IAEXIII@Z 00550f12 f   mfc100d:mfc100d.dll
 0002:000d9f18       ?DrawDragRect@CDC@@QAEXPBUtagRECT@@UtagSIZE@@01PAVCBrush@@2@Z 00550f18 f   mfc100d:mfc100d.dll
 0002:000d9f1e       ?OnMouseWheel@CWnd@@IAEHIFVCPoint@@@Z 00550f1e f   mfc100d:mfc100d.dll
 0002:000d9f24       ??1CMenu@@UAE@XZ           00550f24 f   mfc100d:mfc100d.dll
 0002:000d9f2a       ?TrackPopupMenu@CMenu@@QAEHIHHPAVCWnd@@PBUtagRECT@@@Z 00550f2a f   mfc100d:mfc100d.dll
 0002:000d9f30       ?LoadMenuA@CMenu@@QAEHI@Z  00550f30 f   mfc100d:mfc100d.dll
 0002:000d9f36       ??0CMenu@@QAE@XZ           00550f36 f   mfc100d:mfc100d.dll
 0002:000d9f3c       ?SetFocus@CWnd@@QAEPAV1@XZ 00550f3c f   mfc100d:mfc100d.dll
 0002:000d9f42       ?OnLButtonDown@CWnd@@IAEXIVCPoint@@@Z 00550f42 f   mfc100d:mfc100d.dll
 0002:000d9f48       ?FindWindowA@CWnd@@SGPAV1@PBD0@Z 00550f48 f   mfc100d:mfc100d.dll
 0002:000d9f4e       ?GetThisMessageMap@CWinApp@@KGPBUAFX_MSGMAP@@XZ 00550f4e f   mfc100d:mfc100d.dll
 0002:000d9f54       ?OnFilePrintSetup@CWinApp@@IAEXXZ 00550f54 f   mfc100d:mfc100d.dll
 0002:000d9f5a       ?OnFileOpen@CWinApp@@IAEXXZ 00550f5a f   mfc100d:mfc100d.dll
 0002:000d9f60       ?OnFileNew@CWinApp@@IAEXXZ 00550f60 f   mfc100d:mfc100d.dll
 0002:000d9f66       ??1CWinApp@@UAE@XZ         00550f66 f   mfc100d:mfc100d.dll
 0002:000d9f6c       ??0CWinApp@@QAE@PBD@Z      00550f6c f   mfc100d:mfc100d.dll
 0002:000d9f72       ?GetRuntimeClass@CWinApp@@UBEPAUCRuntimeClass@@XZ 00550f72 f   mfc100d:mfc100d.dll
 0002:000d9f78       ?AssertValid@CWinApp@@UBEXXZ 00550f78 f   mfc100d:mfc100d.dll
 0002:000d9f7e       ?Dump@CWinApp@@UBEXAAVCDumpContext@@@Z 00550f7e f   mfc100d:mfc100d.dll
 0002:000d9f84       ?OnCmdMsg@CCmdTarget@@UAEHIHPAXPAUAFX_CMDHANDLERINFO@@@Z 00550f84 f   mfc100d:mfc100d.dll
 0002:000d9f8a       ?OnFinalRelease@CCmdTarget@@UAEXXZ 00550f8a f   mfc100d:mfc100d.dll
 0002:000d9f90       ?Run@CWinApp@@UAEHXZ       00550f90 f   mfc100d:mfc100d.dll
 0002:000d9f96       ?PreTranslateMessage@CWinThread@@UAEHPAUtagMSG@@@Z 00550f96 f   mfc100d:mfc100d.dll
 0002:000d9f9c       ?PumpMessage@CWinThread@@UAEHXZ 00550f9c f   mfc100d:mfc100d.dll
 0002:000d9fa2       ?OnIdle@CWinApp@@UAEHJ@Z   00550fa2 f   mfc100d:mfc100d.dll
 0002:000d9fa8       ?IsIdleMessage@CWinThread@@UAEHPAUtagMSG@@@Z 00550fa8 f   mfc100d:mfc100d.dll
 0002:000d9fae       ?ProcessWndProcException@CWinApp@@UAEJPAVCException@@PBUtagMSG@@@Z 00550fae f   mfc100d:mfc100d.dll
 0002:000d9fb4       ?ProcessMessageFilter@CWinThread@@UAEHHPAUtagMSG@@@Z 00550fb4 f   mfc100d:mfc100d.dll
 0002:000d9fba       ?Delete@CWinThread@@UAEXXZ 00550fba f   mfc100d:mfc100d.dll
 0002:000d9fc0       ?GetProfileIntA@CWinApp@@UAEIPBD0H@Z 00550fc0 f   mfc100d:mfc100d.dll
 0002:000d9fc6       ?WriteProfileInt@CWinApp@@UAEHPBD0H@Z 00550fc6 f   mfc100d:mfc100d.dll
 0002:000d9fcc       ?GetProfileStringA@CWinApp@@UAE?AV?$CStringT@DV?$StrTraitMFC_DLL@DV?$ChTraitsCRT@D@ATL@@@@@ATL@@PBD00@Z 00550fcc f   mfc100d:mfc100d.dll
 0002:000d9fd2       ?WriteProfileStringA@CWinApp@@UAEHPBD00@Z 00550fd2 f   mfc100d:mfc100d.dll
 0002:000d9fd8       ?GetProfileBinary@CWinApp@@UAEHPBD0PAPAEPAI@Z 00550fd8 f   mfc100d:mfc100d.dll
 0002:000d9fde       ?WriteProfileBinary@CWinApp@@UAEHPBD0PAEI@Z 00550fde f   mfc100d:mfc100d.dll
 0002:000d9fe4       ?InitLibId@CWinApp@@UAEXXZ 00550fe4 f   mfc100d:mfc100d.dll
 0002:000d9fea       ?Register@CWinApp@@UAEHXZ  00550fea f   mfc100d:mfc100d.dll
 0002:000d9ff0       ?Unregister@CWinApp@@UAEHXZ 00550ff0 f   mfc100d:mfc100d.dll
 0002:000d9ff6       ?OpenDocumentFile@CWinApp@@UAEPAVCDocument@@PBDH@Z 00550ff6 f   mfc100d:mfc100d.dll
 0002:000d9ffc       ?OpenDocumentFile@CWinApp@@UAEPAVCDocument@@PBD@Z 00550ffc f   mfc100d:mfc100d.dll
 0002:000da002       ?AddToRecentFileList@CWinApp@@UAEXPBD@Z 00551002 f   mfc100d:mfc100d.dll
 0002:000da008       ?InitApplication@CWinApp@@UAEHXZ 00551008 f   mfc100d:mfc100d.dll
 0002:000da00e       ?SaveAllModified@CWinApp@@UAEHXZ 0055100e f   mfc100d:mfc100d.dll
 0002:000da014       ?DoWaitCursor@CWinApp@@UAEXH@Z 00551014 f   mfc100d:mfc100d.dll
 0002:000da01a       ?OnDDECommand@CWinApp@@UAEHPAD@Z 0055101a f   mfc100d:mfc100d.dll
 0002:000da020       ?WinHelpA@CWinApp@@UAEXKI@Z 00551020 f   mfc100d:mfc100d.dll
 0002:000da026       ?HtmlHelpA@CWinApp@@UAEXKI@Z 00551026 f   mfc100d:mfc100d.dll
 0002:000da02c       ?WinHelpInternal@CWinApp@@UAEXKI@Z 0055102c f   mfc100d:mfc100d.dll
 0002:000da032       ?RegisterWithRestartManager@CWinApp@@UAEJPB_WKP6GKPAX@Z1KK@Z 00551032 f   mfc100d:mfc100d.dll
 0002:000da038       ?RegisterWithRestartManager@CWinApp@@UAEJHABV?$CStringT@DV?$StrTraitMFC_DLL@DV?$ChTraitsCRT@D@ATL@@@@@ATL@@@Z 00551038 f   mfc100d:mfc100d.dll
 0002:000da03e       ?ApplicationRecoveryCallback@CWinApp@@UAEKPAX@Z 0055103e f   mfc100d:mfc100d.dll
 0002:000da044       ?GetDataRecoveryHandler@CWinApp@@UAEPAVCDataRecoveryHandler@@XZ 00551044 f   mfc100d:mfc100d.dll
 0002:000da04a       ?IsTaskbarInteractionEnabled@CWinApp@@UAEHXZ 0055104a f   mfc100d:mfc100d.dll
 0002:000da050       ?RestartInstance@CWinApp@@UAEHXZ 00551050 f   mfc100d:mfc100d.dll
 0002:000da056       ?LoadAppLangResourceDLL@CWinApp@@UAEPAUHINSTANCE__@@XZ 00551056 f   mfc100d:mfc100d.dll
 0002:000da05c       ?LoadSysPolicies@CWinApp@@UAEHXZ 0055105c f   mfc100d:mfc100d.dll
 0002:000da062       ?GetActiveView@CFrameWnd@@QBEPAVCView@@XZ 00551062 f   mfc100d:mfc100d.dll
 0002:000da068       ??1CCommandLineInfo@@UAE@XZ 00551068 f   mfc100d:mfc100d.dll
 0002:000da06e       ?ProcessShellCommand@CWinApp@@QAEHAAVCCommandLineInfo@@@Z 0055106e f   mfc100d:mfc100d.dll
 0002:000da074       ?ParseCommandLine@CWinApp@@QAEXAAVCCommandLineInfo@@@Z 00551074 f   mfc100d:mfc100d.dll
 0002:000da07a       ??0CCommandLineInfo@@QAE@XZ 0055107a f   mfc100d:mfc100d.dll
 0002:000da080       ?AddDocTemplate@CWinApp@@QAEXPAVCDocTemplate@@@Z 00551080 f   mfc100d:mfc100d.dll
 0002:000da086       ??0CSingleDocTemplate@@QAE@IPAUCRuntimeClass@@00@Z 00551086 f   mfc100d:mfc100d.dll
 0002:000da08c       ?EnableShellOpen@CWinApp@@IAEXXZ 0055108c f   mfc100d:mfc100d.dll
 0002:000da092       ?LoadStdProfileSettings@CWinApp@@IAEXI@Z 00551092 f   mfc100d:mfc100d.dll
 0002:000da098       ?SetRegistryKey@CWinApp@@IAEXPBD@Z 00551098 f   mfc100d:mfc100d.dll
 0002:000da09e       ?Enable3dControls@CWinApp@@IAEHXZ 0055109e f   mfc100d:mfc100d.dll
 0002:000da0a4       ?AfxEnableControlContainer@@YAXPAVCOccManager@@@Z 005510a4 f   mfc100d:mfc100d.dll
 0002:000da0aa       ?GetRuntimeClass@CDialog@@UBEPAUCRuntimeClass@@XZ 005510aa f   mfc100d:mfc100d.dll
 0002:000da0b0       ?SetActiveView@CFrameWnd@@QAEXPAVCView@@H@Z 005510b0 f   mfc100d:mfc100d.dll
 0002:000da0b6       ?AfxStaticDownCast@@YAPAVCObject@@PAUCRuntimeClass@@PAV1@@Z 005510b6 f   mfc100d:mfc100d.dll
 0002:000da0bc       ?CreateView@CFrameWnd@@QAEPAVCWnd@@PAUCCreateContext@@I@Z 005510bc f   mfc100d:mfc100d.dll
 0002:000da0c2       ??0CCreateContext@@QAE@XZ  005510c2 f   mfc100d:mfc100d.dll
 0002:000da0c8       ?ExitInstance@CWinApp@@UAEHXZ 005510c8 f   mfc100d:mfc100d.dll
 0002:000da0ce       ?OnOpenRecentFile@CWinApp@@IAEHI@Z 005510ce f   mfc100d:mfc100d.dll
 0002:000da0d4       ??BCWnd@@QBEPAUHWND__@@XZ  005510d4 f   mfc100d:mfc100d.dll
 0002:000da0da       ?DoMessageBox@CWinApp@@UAEHPBDII@Z 005510da f   mfc100d:mfc100d.dll
 0002:000da0e0       ?GetThisMessageMap@CFrameWnd@@KGPBUAFX_MSGMAP@@XZ 005510e0 f   mfc100d:mfc100d.dll
 0002:000da0e6       ?GetThisClass@CFrameWnd@@SGPAUCRuntimeClass@@XZ 005510e6 f   mfc100d:mfc100d.dll
 0002:000da0ec       ??1CFrameWnd@@UAE@XZ       005510ec f   mfc100d:mfc100d.dll
 0002:000da0f2       ??0CStatusBar@@QAE@XZ      005510f2 f   mfc100d:mfc100d.dll
 0002:000da0f8       ??0CFrameWnd@@QAE@XZ       005510f8 f   mfc100d:mfc100d.dll
 0002:000da0fe       ?OnCmdMsg@CFrameWnd@@UAEHIHPAXPAUAFX_CMDHANDLERINFO@@@Z 005510fe f   mfc100d:mfc100d.dll
 0002:000da104       ?GetMenu@CFrameWnd@@UBEPAVCMenu@@XZ 00551104 f   mfc100d:mfc100d.dll
 0002:000da10a       ?SetMenu@CFrameWnd@@UAEHPAVCMenu@@@Z 0055110a f   mfc100d:mfc100d.dll
 0002:000da110       ?OnCommand@CFrameWnd@@MAEHIJ@Z 00551110 f   mfc100d:mfc100d.dll
 0002:000da116       ?BeginModalState@CFrameWnd@@UAEXXZ 00551116 f   mfc100d:mfc100d.dll
 0002:000da11c       ?EndModalState@CFrameWnd@@UAEXXZ 0055111c f   mfc100d:mfc100d.dll
 0002:000da122       ?PreTranslateMessage@CFrameWnd@@UAEHPAUtagMSG@@@Z 00551122 f   mfc100d:mfc100d.dll
 0002:000da128       ?PostNcDestroy@CFrameWnd@@MAEXXZ 00551128 f   mfc100d:mfc100d.dll
 0002:000da12e       ?IsFrameWnd@CFrameWnd@@UBEHXZ 0055112e f   mfc100d:mfc100d.dll
 0002:000da134       ?Create@CFrameWnd@@UAEHPBD0KABUtagRECT@@PAVCWnd@@0KPAUCCreateContext@@@Z 00551134 f   mfc100d:mfc100d.dll
 0002:000da13a       ?LoadFrame@CFrameWnd@@UAEHIKPAVCWnd@@PAUCCreateContext@@@Z 0055113a f   mfc100d:mfc100d.dll
 0002:000da140       ?GetActiveDocument@CFrameWnd@@UAEPAVCDocument@@XZ 00551140 f   mfc100d:mfc100d.dll
 0002:000da146       ?GetActiveFrame@CFrameWnd@@UAEPAV1@XZ 00551146 f   mfc100d:mfc100d.dll
 0002:000da14c       ?GetMessageString@CFrameWnd@@UBEXIAAV?$CStringT@DV?$StrTraitMFC_DLL@DV?$ChTraitsCRT@D@ATL@@@@@ATL@@@Z 0055114c f   mfc100d:mfc100d.dll
 0002:000da152       ?RecalcLayout@CFrameWnd@@UAEXH@Z 00551152 f   mfc100d:mfc100d.dll
 0002:000da158       ?ActivateFrame@CFrameWnd@@UAEXH@Z 00551158 f   mfc100d:mfc100d.dll
 0002:000da15e       ?SetMenuBarVisibility@CFrameWnd@@UAEXK@Z 0055115e f   mfc100d:mfc100d.dll
 0002:000da164       ?GetMenuBarVisibility@CFrameWnd@@UBEKXZ 00551164 f   mfc100d:mfc100d.dll
 0002:000da16a       ?SetMenuBarState@CFrameWnd@@UAEHK@Z 0055116a f   mfc100d:mfc100d.dll
 0002:000da170       ?GetMenuBarState@CFrameWnd@@UBEKXZ 00551170 f   mfc100d:mfc100d.dll
 0002:000da176       ?OnSetPreviewMode@CFrameWnd@@UAEXHPAUCPrintPreviewState@@@Z 00551176 f   mfc100d:mfc100d.dll
 0002:000da17c       ?GetMessageBar@CFrameWnd@@UAEPAVCWnd@@XZ 0055117c f   mfc100d:mfc100d.dll
 0002:000da182       ?NegotiateBorderSpace@CFrameWnd@@UAEHIPAUtagRECT@@@Z 00551182 f   mfc100d:mfc100d.dll
 0002:000da188       ?OnCreateClient@CFrameWnd@@MAEHPAUtagCREATESTRUCTA@@PAUCCreateContext@@@Z 00551188 f   mfc100d:mfc100d.dll
 0002:000da18e       ?OnUpdateFrameTitle@CFrameWnd@@UAEXH@Z 0055118e f   mfc100d:mfc100d.dll
 0002:000da194       ?OnUpdateFrameMenu@CFrameWnd@@UAEXPAUHMENU__@@@Z 00551194 f   mfc100d:mfc100d.dll
 0002:000da19a       ?GetDefaultAccelerator@CFrameWnd@@UAEPAUHACCEL__@@XZ 0055119a f   mfc100d:mfc100d.dll
 0002:000da1a0       ?DelayUpdateFrameMenu@CFrameWnd@@UAEXPAUHMENU__@@@Z 005511a0 f   mfc100d:mfc100d.dll
 0002:000da1a6       ?ExitHelpMode@CFrameWnd@@UAEXXZ 005511a6 f   mfc100d:mfc100d.dll
 0002:000da1ac       ?OnShowMenuBar@CFrameWnd@@MAEXXZ 005511ac f   mfc100d:mfc100d.dll
 0002:000da1b2       ?OnHideMenuBar@CFrameWnd@@MAEXXZ 005511b2 f   mfc100d:mfc100d.dll
 0002:000da1b8       ??1CStatusBar@@UAE@XZ      005511b8 f   mfc100d:mfc100d.dll
 0002:000da1be       ?DragAcceptFiles@CWnd@@QAEXH@Z 005511be f   mfc100d:mfc100d.dll
 0002:000da1c4       ?SetTimer@CWnd@@QAEIIIP6GXPAUHWND__@@IIK@Z@Z 005511c4 f   mfc100d:mfc100d.dll
 0002:000da1ca       ?SetPaneText@CStatusBar@@QAEHHPBDH@Z 005511ca f   mfc100d:mfc100d.dll
 0002:000da1d0       ?GetFont@CWnd@@QBEPAVCFont@@XZ 005511d0 f   mfc100d:mfc100d.dll
 0002:000da1d6       ?SetPaneInfo@CStatusBar@@QAEXHIIH@Z 005511d6 f   mfc100d:mfc100d.dll
 0002:000da1dc       ?GetPaneInfo@CStatusBar@@QBEXHAAI0AAH@Z 005511dc f   mfc100d:mfc100d.dll
 0002:000da1e2       ?SetIndicators@CStatusBar@@QAEHPBIH@Z 005511e2 f   mfc100d:mfc100d.dll
 0002:000da1e8       ?OnCreate@CFrameWnd@@IAEHPAUtagCREATESTRUCTA@@@Z 005511e8 f   mfc100d:mfc100d.dll
 0002:000da1ee       ?PreCreateWindow@CFrameWnd@@MAEHAAUtagCREATESTRUCTA@@@Z 005511ee f   mfc100d:mfc100d.dll
 0002:000da1f4       ?AssertValid@CFrameWnd@@UBEXXZ 005511f4 f   mfc100d:mfc100d.dll
 0002:000da1fa       ?Dump@CFrameWnd@@UBEXAAVCDumpContext@@@Z 005511fa f   mfc100d:mfc100d.dll
 0002:000da200       ?OnSysCommand@CFrameWnd@@IAEXIJ@Z 00551200 f   mfc100d:mfc100d.dll
 0002:000da206       ?OnTimer@CWnd@@IAEXI@Z     00551206 f   mfc100d:mfc100d.dll
 0002:000da20c       ?OnSetCursor@CFrameWnd@@IAEHPAVCWnd@@II@Z 0055120c f   mfc100d:mfc100d.dll
 0002:000da212       ?OnSize@CFrameWnd@@IAEXIHH@Z 00551212 f   mfc100d:mfc100d.dll
 0002:000da218       ?GetWindowPlacement@CWnd@@QBEHPAUtagWINDOWPLACEMENT@@@Z 00551218 f   mfc100d:mfc100d.dll
 0002:000da21e       ?GetThisMessageMap@CToolBar@@KGPBUAFX_MSGMAP@@XZ 0055121e f   mfc100d:mfc100d.dll
 0002:000da224       ?GetThisClass@CToolBar@@SGPAUCRuntimeClass@@XZ 00551224 f   mfc100d:mfc100d.dll
 0002:000da22a       ??1CToolBar@@UAE@XZ        0055122a f   mfc100d:mfc100d.dll
 0002:000da230       ??0CToolBar@@QAE@XZ        00551230 f   mfc100d:mfc100d.dll
 0002:000da236       ?AssertValid@CToolBar@@UBEXXZ 00551236 f   mfc100d:mfc100d.dll
 0002:000da23c       ?Dump@CToolBar@@UBEXAAVCDumpContext@@@Z 0055123c f   mfc100d:mfc100d.dll
 0002:000da242       ?DestroyWindow@CControlBar@@UAEHXZ 00551242 f   mfc100d:mfc100d.dll
 0002:000da248       ?PreCreateWindow@CControlBar@@UAEHAAUtagCREATESTRUCTA@@@Z 00551248 f   mfc100d:mfc100d.dll
 0002:000da24e       ?OnToolHitTest@CToolBar@@UBEHVCPoint@@PAUtagTOOLINFOA@@@Z 0055124e f   mfc100d:mfc100d.dll
 0002:000da254       ?get_accName@CToolBar@@UAEJUtagVARIANT@@PAPA_W@Z 00551254 f   mfc100d:mfc100d.dll
 0002:000da25a       ?PreTranslateMessage@CControlBar@@UAEHPAUtagMSG@@@Z 0055125a f   mfc100d:mfc100d.dll
 0002:000da260       ?WindowProc@CControlBar@@UAEJIIJ@Z 00551260 f   mfc100d:mfc100d.dll
 0002:000da266       ?PostNcDestroy@CControlBar@@UAEXXZ 00551266 f   mfc100d:mfc100d.dll
 0002:000da26c       ?CalcFixedLayout@CToolBar@@UAE?AVCSize@@HH@Z 0055126c f   mfc100d:mfc100d.dll
 0002:000da272       ?CalcDynamicLayout@CToolBar@@UAE?AVCSize@@HK@Z 00551272 f   mfc100d:mfc100d.dll
 0002:000da278       ?OnUpdateCmdUI@CToolBar@@UAEXPAVCFrameWnd@@H@Z 00551278 f   mfc100d:mfc100d.dll
 0002:000da27e       ?CalcInsideRect@CControlBar@@UBEXAAVCRect@@H@Z 0055127e f   mfc100d:mfc100d.dll
 0002:000da284       ?DoPaint@CControlBar@@UAEXPAVCDC@@@Z 00551284 f   mfc100d:mfc100d.dll
 0002:000da28a       ?DrawBorders@CControlBar@@UAEXPAVCDC@@AAVCRect@@@Z 0055128a f   mfc100d:mfc100d.dll
 0002:000da290       ?DrawGripper@CControlBar@@UAEXPAVCDC@@ABVCRect@@@Z 00551290 f   mfc100d:mfc100d.dll
 0002:000da296       ?DrawNCGripper@CControlBar@@UAEXPAVCDC@@ABVCRect@@@Z 00551296 f   mfc100d:mfc100d.dll
 0002:000da29c       ?DrawThemedGripper@CControlBar@@UAEHPAVCDC@@ABVCRect@@H@Z 0055129c f   mfc100d:mfc100d.dll
 0002:000da2a2       ?DrawNonThemedGripper@CControlBar@@UAEHPAVCDC@@ABVCRect@@@Z 005512a2 f   mfc100d:mfc100d.dll
 0002:000da2a8       ?DelayShow@CControlBar@@UAEXH@Z 005512a8 f   mfc100d:mfc100d.dll
 0002:000da2ae       ?IsVisible@CControlBar@@UBEHXZ 005512ae f   mfc100d:mfc100d.dll
 0002:000da2b4       ?RecalcDelayShow@CControlBar@@UAEKPAUAFX_SIZEPARENTPARAMS@@@Z 005512b4 f   mfc100d:mfc100d.dll
 0002:000da2ba       ?IsDockBar@CControlBar@@UBEHXZ 005512ba f   mfc100d:mfc100d.dll
 0002:000da2c0       ?OnBarStyleChange@CToolBar@@UAEXKK@Z 005512c0 f   mfc100d:mfc100d.dll
 0002:000da2c6       ?SetStatusText@CControlBar@@UAEHH@Z 005512c6 f   mfc100d:mfc100d.dll
 0002:000da2cc       ?Create@CToolBar@@UAEHPAVCWnd@@KI@Z 005512cc f   mfc100d:mfc100d.dll
 0002:000da2d2       ?CreateEx@CToolBar@@UAEHPAVCWnd@@KKVCRect@@I@Z 005512d2 f   mfc100d:mfc100d.dll
 0002:000da2d8       ?GetItemRect@CToolBar@@UBEXHPAUtagRECT@@@Z 005512d8 f   mfc100d:mfc100d.dll
 0002:000da2de       ?SetFont@CWnd@@QAEXPAVCFont@@H@Z 005512de f   mfc100d:mfc100d.dll
 0002:000da2e4       ?SetButtonInfo@CToolBar@@QAEXHIIH@Z 005512e4 f   mfc100d:mfc100d.dll
 0002:000da2ea       ?LoadToolBar@CToolBar@@QAEHI@Z 005512ea f   mfc100d:mfc100d.dll
 0002:000da2f0       ?OnCreate@CControlBar@@QAEHPAUtagCREATESTRUCTA@@@Z 005512f0 f   mfc100d:mfc100d.dll
 0002:000da2f6       ?ResetContent@CComboBox@@QAEXXZ 005512f6 f   mfc100d:mfc100d.dll
 0002:000da2fc       ?GetThisMessageMap@CWnd@@KGPBUAFX_MSGMAP@@XZ 005512fc f   mfc100d:mfc100d.dll
 0002:000da302       ?GetSafeOwner@CWnd@@SGPAV1@PAV1@PAPAUHWND__@@@Z 00551302 f   mfc100d:mfc100d.dll
 0002:000da308       ??0CWnd@@QAE@XZ            00551308 f   mfc100d:mfc100d.dll
 0002:000da30e       ?GetRuntimeClass@CWnd@@UBEPAUCRuntimeClass@@XZ 0055130e f   mfc100d:mfc100d.dll
 0002:000da314       ?AssertValid@CWnd@@UBEXXZ  00551314 f   mfc100d:mfc100d.dll
 0002:000da31a       ?Dump@CWnd@@UBEXAAVCDumpContext@@@Z 0055131a f   mfc100d:mfc100d.dll
 0002:000da320       ?SubclassWindow@CWnd@@QAEHPAUHWND__@@@Z 00551320 f   mfc100d:mfc100d.dll
 0002:000da326       ?EndWaitCursor@CCmdTarget@@QAEXXZ 00551326 f   mfc100d:mfc100d.dll
 0002:000da32c       ??0CPtrArray@@QAE@XZ       0055132c f   mfc100d:mfc100d.dll
 0002:000da332       ?GetRuntimeClass@CPtrArray@@UBEPAUCRuntimeClass@@XZ 00551332 f   mfc100d:mfc100d.dll
 0002:000da338       ?AssertValid@CPtrArray@@UBEXXZ 00551338 f   mfc100d:mfc100d.dll
 0002:000da33e       ?Dump@CPtrArray@@UBEXAAVCDumpContext@@@Z 0055133e f   mfc100d:mfc100d.dll
 0002:000da344       ??1CPtrArray@@UAE@XZ       00551344 f   mfc100d:mfc100d.dll
 0002:000da34a       ?RemoveAll@CPtrArray@@QAEXXZ 0055134a f   mfc100d:mfc100d.dll
 0002:000da350       ??1CFileDialog@@UAE@XZ     00551350 f   mfc100d:mfc100d.dll
 0002:000da356       ?GetPathName@CFileDialog@@QBE?AV?$CStringT@DV?$StrTraitMFC_DLL@DV?$ChTraitsCRT@D@ATL@@@@@ATL@@XZ 00551356 f   mfc100d:mfc100d.dll
 0002:000da35c       ?DoModal@CFileDialog@@UAEHXZ 0055135c f   mfc100d:mfc100d.dll
 0002:000da362       ?GetOFN@CFileDialog@@QAEAAUtagOFNA@@XZ 00551362 f   mfc100d:mfc100d.dll
 0002:000da368       ??0CFileDialog@@QAE@HPBD0K0PAVCWnd@@KH@Z 00551368 f   mfc100d:mfc100d.dll
 0002:000da36e       ?Add@CPtrArray@@QAEHPAX@Z  0055136e f   mfc100d:mfc100d.dll
 0002:000da374       ??ACPtrArray@@QAEAAPAXH@Z  00551374 f   mfc100d:mfc100d.dll
 0002:000da37a       ?GetBuffer@?$CSimpleStringT@D$00@ATL@@QAEPADXZ 0055137a f   mfc100d:mfc100d.dll
 0002:000da380       ?SpanIncluding@?$CStringT@DV?$StrTraitMFC_DLL@DV?$ChTraitsCRT@D@ATL@@@@@ATL@@QBE?AV12@PBD@Z 00551380 f   mfc100d:mfc100d.dll
 0002:000da386       ?FindOneOf@?$CStringT@DV?$StrTraitMFC_DLL@DV?$ChTraitsCRT@D@ATL@@@@@ATL@@QBEHPBD@Z 00551386 f   mfc100d:mfc100d.dll
 0002:000da38c       ?Arc@CDC@@QAEHHHHHHHHH@Z   0055138c f   mfc100d:mfc100d.dll
 0002:000da392       ?Arc@CDC@@QAEHPBUtagRECT@@UtagPOINT@@1@Z 00551392 f   mfc100d:mfc100d.dll
 0002:000da398       ??4?$CStringT@DV?$StrTraitMFC_DLL@DV?$ChTraitsCRT@D@ATL@@@@@ATL@@QAEAAV01@PBE@Z 00551398 f   mfc100d:mfc100d.dll
 0002:000da39e       __CrtDbgReport             0055139e f   msvcrtd:MSVCR100D.dll
 0002:000da3b0       __RTC_CheckEsp             005513b0 f   msvcrtd:_stack_.obj
 0002:000da3e0       @_RTC_CheckStackVars@8     005513e0 f   msvcrtd:_stack_.obj
 0002:000da460       @_RTC_AllocaHelper@12      00551460 f   msvcrtd:_stack_.obj
 0002:000da4a0       @_RTC_CheckStackVars2@12   005514a0 f   msvcrtd:_stack_.obj
 0002:000da5b0       __RTC_InitBase             005515b0 f   msvcrtd:_init_.obj
 0002:000da5f0       __RTC_Shutdown             005515f0 f   msvcrtd:_init_.obj
 0002:000da608       _srand                     00551608 f   msvcrtd:MSVCR100D.dll
 0002:000da60e       __wassert                  0055160e f   msvcrtd:MSVCR100D.dll
 0002:000da614       _rand                      00551614 f   msvcrtd:MSVCR100D.dll
 0002:000da620       ?_RTC_Failure@@YAXPAXH@Z   00551620 f   msvcrtd:_error_.obj
 0002:000daab0       ?_RTC_StackFailure@@YAXPAXPBD@Z 00551ab0 f   msvcrtd:_error_.obj
 0002:000dabf0       ?_RTC_AllocaFailure@@YAXPAXPAU_RTC_ALLOCA_NODE@@H@Z 00551bf0 f   msvcrtd:_error_.obj
 0002:000dae00       __RTC_UninitUse            00551e00 f   msvcrtd:_error_.obj
 0002:000daf24       ___CxxFrameHandler3        00551f24 f   msvcrtd:MSVCR100D.dll
 0002:000daf30       @__security_check_cookie@4 00551f30 f   msvcrtd:secchk.obj
 0002:000daf50       __ftol2_sse                00551f50 f   msvcrtd:ftol2.obj
 0002:000daf59       __ftol2_pentium4           00551f59 f   msvcrtd:ftol2.obj
 0002:000daf6c       __ftol2_sse_excpt          00551f6c f   msvcrtd:ftol2.obj
 0002:000daf86       __ftol2                    00551f86 f   msvcrtd:ftol2.obj
 0002:000db026       _free                      00552026 f   msvcrtd:MSVCR100D.dll
 0002:000db02c       _abs                       0055202c f   msvcrtd:MSVCR100D.dll
 0002:000db040       __chkstk                   00552040 f   msvcrtd:chkstk.obj
 0002:000db040       __alloca_probe             00552040     msvcrtd:chkstk.obj
 0002:000db080       __allmul                   00552080 f   msvcrtd:llmul.obj
 0002:000db0c2       _floor                     005520c2 f   msvcrtd:MSVCR100D.dll
 0002:000db0c8       _calloc                    005520c8 f   msvcrtd:MSVCR100D.dll
 0002:000db0d0       ??0type_info@@AAE@ABV0@@Z  005520d0 f   msvcrtd:ti_inst.obj
 0002:000db100       ??_Etype_info@@UAEPAXI@Z   00552100 f i msvcrtd:ti_inst.obj
 0002:000db190       ??4type_info@@AAEAAV0@ABV0@@Z 00552190 f   msvcrtd:ti_inst.obj
 0002:000db1a6       _memset                    005521a6 f   msvcrtd:MSVCR100D.dll
 0002:000db1ac       _memcpy_s                  005521ac f   msvcrtd:MSVCR100D.dll
 0002:000db1b2       _atof                      005521b2 f   msvcrtd:MSVCR100D.dll
 0002:000db1b8       __chdir                    005521b8 f   msvcrtd:MSVCR100D.dll
 0002:000db1be       __mkdir                    005521be f   msvcrtd:MSVCR100D.dll
 0002:000db1c4       __stat64i32                005521c4 f   msvcrtd:MSVCR100D.dll
 0002:000db1d0       ??_M@YGXPAXIHP6EX0@Z@Z     005521d0 f   msvcrtd:ehvecdtr.obj
 0002:000db2b0       ?__ArrayUnwind@@YGXPAXIHP6EX0@Z@Z 005522b0 f   msvcrtd:ehvecdtr.obj
 0002:000db3a0       ??_L@YGXPAXIHP6EX0@Z1@Z    005523a0 f   msvcrtd:ehvecctr.obj
 0002:000db47c       __localtime64              0055247c f   msvcrtd:MSVCR100D.dll
 0002:000db482       __time64                   00552482 f   msvcrtd:MSVCR100D.dll
 0002:000db488       _ldiv                      00552488 f   msvcrtd:MSVCR100D.dll
 0002:000db48e       _atoi                      0055248e f   msvcrtd:MSVCR100D.dll
 0002:000db494       _strlen                    00552494 f   msvcrtd:MSVCR100D.dll
 0002:000db49a       __fullpath                 0055249a f   msvcrtd:MSVCR100D.dll
 0002:000db4a0       _memcpy                    005524a0 f   msvcrtd:MSVCR100D.dll
 0002:000db4a6       _remove                    005524a6 f   msvcrtd:MSVCR100D.dll
 0002:000db4ac       ___sys_errlist             005524ac f   msvcrtd:MSVCR100D.dll
 0002:000db4b2       __CxxThrowException@8      005524b2 f   msvcrtd:MSVCR100D.dll
 0002:000db4b8       _malloc                    005524b8 f   msvcrtd:MSVCR100D.dll
 0002:000db4be       _labs                      005524be f   msvcrtd:MSVCR100D.dll
 0002:000db4c4       __purecall                 005524c4 f   msvcrtd:MSVCR100D.dll
 0002:000db4ca       _sqrt                      005524ca f   msvcrtd:MSVCR100D.dll
 0002:000db4d0       _fabs                      005524d0 f   msvcrtd:MSVCR100D.dll
 0002:000db4d6       _fmod                      005524d6 f   msvcrtd:MSVCR100D.dll
 0002:000db4dc       _sin                       005524dc f   msvcrtd:MSVCR100D.dll
 0002:000db4e2       _cos                       005524e2 f   msvcrtd:MSVCR100D.dll
 0002:000db4e8       _atan2                     005524e8 f   msvcrtd:MSVCR100D.dll
 0002:000db4ee       _modf                      005524ee f   msvcrtd:MSVCR100D.dll
 0002:000db500       __onexit                   00552500 f   msvcrtd:atonexit.obj
 0002:000db630       _atexit                    00552630 f   msvcrtd:atonexit.obj
 0002:000db660       __alldiv                   00552660 f   msvcrtd:lldiv.obj
 0002:000db734       _tan                       00552734 f   msvcrtd:MSVCR100D.dll
 0002:000db73a       _strcpy_s                  0055273a f   msvcrtd:MSVCR100D.dll
 0002:000db740       _exit                      00552740 f   msvcrtd:MSVCR100D.dll
 0002:000db746       _fprintf                   00552746 f   msvcrtd:MSVCR100D.dll
 0002:000db74c       ___iob_func                0055274c f   msvcrtd:MSVCR100D.dll
 0002:000db752       _fscanf                    00552752 f   msvcrtd:MSVCR100D.dll
 0002:000db758       __access                   00552758 f   msvcrtd:MSVCR100D.dll
 0002:000db75e       _strcat                    0055275e f   msvcrtd:MSVCR100D.dll
 0002:000db764       _acos                      00552764 f   msvcrtd:MSVCR100D.dll
 0002:000db76a       _asin                      0055276a f   msvcrtd:MSVCR100D.dll
 0002:000db770       _memmove_s                 00552770 f   msvcrtd:MSVCR100D.dll
 0002:000db776       _strcpy                    00552776 f   msvcrtd:MSVCR100D.dll
 0002:000db77c       __mbsrchr                  0055277c f   msvcrtd:MSVCR100D.dll
 0002:000db782       _fread                     00552782 f   msvcrtd:MSVCR100D.dll
 0002:000db788       _fwrite                    00552788 f   msvcrtd:MSVCR100D.dll
 0002:000db78e       _sscanf                    0055278e f   msvcrtd:MSVCR100D.dll
 0002:000db794       _fgets                     00552794 f   msvcrtd:MSVCR100D.dll
 0002:000db79a       _feof                      0055279a f   msvcrtd:MSVCR100D.dll
 0002:000db7a0       _fclose                    005527a0 f   msvcrtd:MSVCR100D.dll
 0002:000db7a6       _fopen                     005527a6 f   msvcrtd:MSVCR100D.dll
 0002:000db7ac       __exit                     005527ac f   msvcrtd:MSVCR100D.dll
 0002:000db7b2       _memcmp                    005527b2 f   msvcrtd:MSVCR100D.dll
 0002:000db7b8       _atan                      005527b8 f   msvcrtd:MSVCR100D.dll
 0002:000db7be       _llabs                     005527be f   msvcrtd:MSVCR100D.dll
 0002:000db8f0       _WinMainCRTStartup         005528f0 f   msvcrtd:crtexew.obj
 0002:000dbcd0       _NtCurrentTeb              00552cd0 f i msvcrtd:crtexew.obj
 0002:000dbd70       __RTC_NumErrors            00552d70 f   msvcrtd:_userapi_.obj
 0002:000dbd80       __RTC_GetErrDesc           00552d80 f   msvcrtd:_userapi_.obj
 0002:000dbda0       __RTC_SetErrorType         00552da0 f   msvcrtd:_userapi_.obj
 0002:000dbdd0       __RTC_SetErrorFunc         00552dd0 f   msvcrtd:_userapi_.obj
 0002:000dbe00       __RTC_SetErrorFuncW        00552e00 f   msvcrtd:_userapi_.obj
 0002:000dbe30       ?_RTC_GetErrorFunc@@YAP6AHHPBDH00ZZPBX@Z 00552e30 f   msvcrtd:_userapi_.obj
 0002:000dbe40       ?_RTC_GetErrorFuncW@@YAP6AHHPB_WH00ZZPBX@Z 00552e40 f   msvcrtd:_userapi_.obj
 0002:000dbe46       __CRT_RTC_INITW            00552e46 f   msvcrtd:MSVCR100D.dll
 0002:000dbe50       ?_RTC_GetSrcLine@@YAHPAEPA_WKPAH1K@Z 00552e50 f   msvcrtd:_pdblkup_.obj
 0002:000dc430       __except_handler4          00553430 f   msvcrtd:chandler4gs.obj
 0002:000dc470       ___report_gsfailure        00553470 f   msvcrtd:gs_report.obj
 0002:000dc5d0       ___sse2_available_init     005535d0 f   msvcrtd:cpu_disp.obj
 0002:000dc5ec       ?terminate@@YAXXZ          005535ec f   msvcrtd:MSVCR100D.dll
 0002:000dc5f2       __unlock                   005535f2 f   msvcrtd:MSVCR100D.dll
 0002:000dc5f8       ___dllonexit               005535f8 f   msvcrtd:MSVCR100D.dll
 0002:000dc5fe       __lock                     005535fe f   msvcrtd:MSVCR100D.dll
 0002:000dc610       ?__CxxUnhandledExceptionFilter@@YGJPAU_EXCEPTION_POINTERS@@@Z 00553610 f   msvcrtd:unhandld.obj
 0002:000dc690       ___CxxSetUnhandledExceptionFilter 00553690 f   msvcrtd:unhandld.obj
 0002:000dc6aa       __configthreadlocale       005536aa f   msvcrtd:MSVCR100D.dll
 0002:000dc6b0       __setdefaultprecision      005536b0 f   msvcrtd:fp8.obj
 0002:000dc700       __invoke_watson_if_error   00553700 f i msvcrtd:fp8.obj
 0002:000dc732       ___setusermatherr          00553732 f   msvcrtd:MSVCR100D.dll
 0002:000dc740       __matherr                  00553740 f   msvcrtd:merr.obj
 0002:000dc750       __setargv                  00553750 f   msvcrtd:dllargv.obj
 0002:000dc760       __RTC_Initialize           00553760 f   msvcrtd:_initsect_.obj
 0002:000dc790       __RTC_Terminate            00553790 f   msvcrtd:_initsect_.obj
 0002:000dc7c0       ___set_app_type            005537c0 f   msvcrtd:MSVCR100D.dll
 0002:000dc7c6       __amsg_exit                005537c6 f   msvcrtd:MSVCR100D.dll
 0002:000dc7cc       ___getmainargs             005537cc f   msvcrtd:MSVCR100D.dll
 0002:000dc7e0       ___security_init_cookie    005537e0 f   msvcrtd:gs_support.obj
 0002:000dc8f8       __XcptFilter               005538f8 f   msvcrtd:MSVCR100D.dll
 0002:000dc8fe       __cexit                    005538fe f   msvcrtd:MSVCR100D.dll
 0002:000dc904       __ismbblead                00553904 f   msvcrtd:MSVCR100D.dll
 0002:000dc90a       __CrtSetCheckCount         0055390a f   msvcrtd:MSVCR100D.dll
 0002:000dc910       __ValidateImageBase        00553910 f   msvcrtd:pesect.obj
 0002:000dc990       __FindPESection            00553990 f   msvcrtd:pesect.obj
 0002:000dca30       __IsNonwritableInCurrentImage 00553a30 f   msvcrtd:pesect.obj
 0002:000dcb86       __CrtDbgReportW            00553b86 f   msvcrtd:MSVCR100D.dll
 0002:000dcb8c       __initterm                 00553b8c f   msvcrtd:MSVCR100D.dll
 0002:000dcb92       __initterm_e               00553b92 f   msvcrtd:MSVCR100D.dll
 0002:000dcb98       __except_handler4_common   00553b98 f   msvcrtd:MSVCR100D.dll
 0002:000dcb9e       __crt_debugger_hook        00553b9e f   msvcrtd:MSVCR100D.dll
 0002:000dcba4       ?_type_info_dtor_internal_method@type_info@@QAEXXZ 00553ba4 f   msvcrtd:MSVCR100D.dll
 0002:000dcba4       ??1type_info@@UAE@XZ       00553ba4 f   msvcrtd:MSVCR100D.dll
 0002:000dcbaa       __controlfp_s              00553baa f   msvcrtd:MSVCR100D.dll
 0002:000dcbb0       __invoke_watson            00553bb0 f   msvcrtd:MSVCR100D.dll
 0002:000dcbb6       _DeleteFileA@4             00553bb6 f   kernel32:KERNEL32.dll
 0002:000dcbbc       _FindNextFileA@8           00553bbc f   kernel32:KERNEL32.dll
 0002:000dcbc2       _FindFirstFileA@8          00553bc2 f   kernel32:KERNEL32.dll
 0002:000dcbc8       _GetCommandLineA@0         00553bc8 f   kernel32:KERNEL32.dll
 0002:000dcbce       _GetFullPathNameA@16       00553bce f   kernel32:KERNEL32.dll
 0002:000dcbd4       _Sleep@4                   00553bd4 f   kernel32:KERNEL32.dll
 0002:000dcbda       _GlobalAlloc@8             00553bda f   kernel32:KERNEL32.dll
 0002:000dcbe0       _CopyFileA@12              00553be0 f   kernel32:KERNEL32.dll
 0002:000dcbe6       _GetLastError@0            00553be6 f   kernel32:KERNEL32.dll
 0002:000dcbec       _GetFileAttributesA@4      00553bec f   kernel32:KERNEL32.dll
 0002:000dcbf2       _InterlockedIncrement@4    00553bf2 f   kernel32:KERNEL32.dll
 0002:000dcbf8       _InterlockedDecrement@4    00553bf8 f   kernel32:KERNEL32.dll
 0002:000dcbfe       _GetCurrentDirectoryA@8    00553bfe f   kernel32:KERNEL32.dll
 0002:000dcc04       _CreateDirectoryA@8        00553c04 f   kernel32:KERNEL32.dll
 0002:000dcc0a       _FreeLibrary@4             00553c0a f   kernel32:KERNEL32.dll
 0002:000dcc10       _GetProcAddress@8          00553c10 f   kernel32:KERNEL32.dll
 0002:000dcc16       _LoadLibraryA@4            00553c16 f   kernel32:KERNEL32.dll
 0002:000dcc1c       _EnterCriticalSection@4    00553c1c f   kernel32:KERNEL32.dll
 0002:000dcc22       _InitializeCriticalSection@4 00553c22 f   kernel32:KERNEL32.dll
 0002:000dcc28       _DeleteCriticalSection@4   00553c28 f   kernel32:KERNEL32.dll
 0002:000dcc2e       _LeaveCriticalSection@4    00553c2e f   kernel32:KERNEL32.dll
 0002:000dcc34       _WaitForSingleObject@8     00553c34 f   kernel32:KERNEL32.dll
 0002:000dcc3a       _ReleaseMutex@4            00553c3a f   kernel32:KERNEL32.dll
 0002:000dcc40       _MapViewOfFile@20          00553c40 f   kernel32:KERNEL32.dll
 0002:000dcc46       _CreateFileMappingA@24     00553c46 f   kernel32:KERNEL32.dll
 0002:000dcc4c       _CreateMutexA@12           00553c4c f   kernel32:KERNEL32.dll
 0002:000dcc52       _OutputDebugStringA@4      00553c52 f   kernel32:KERNEL32.dll
 0002:000dcc58       _CloseHandle@4             00553c58 f   kernel32:KERNEL32.dll
 0002:000dcc5e       _WriteFile@20              00553c5e f   kernel32:KERNEL32.dll
 0002:000dcc64       _SetFilePointer@16         00553c64 f   kernel32:KERNEL32.dll
 0002:000dcc6a       _GetModuleFileNameA@12     00553c6a f   kernel32:KERNEL32.dll
 0002:000dcc70       _GetCurrentThreadId@0      00553c70 f   kernel32:KERNEL32.dll
 0002:000dcc76       _GetCurrentProcessId@0     00553c76 f   kernel32:KERNEL32.dll
 0002:000dcc7c       _GetLocalTime@4            00553c7c f   kernel32:KERNEL32.dll
 0002:000dcc82       _MoveFileExA@12            00553c82 f   kernel32:KERNEL32.dll
 0002:000dcc88       _GetFileSize@8             00553c88 f   kernel32:KERNEL32.dll
 0002:000dcc8e       _CreateFileA@28            00553c8e f   kernel32:KERNEL32.dll
 0002:000dcc94       _LocalFree@4               00553c94 f   kernel32:KERNEL32.dll
 0002:000dcc9a       _FormatMessageA@28         00553c9a f   kernel32:KERNEL32.dll
 0002:000dcca0       _GetEnvironmentVariableA@12 00553ca0 f   kernel32:KERNEL32.dll
 0002:000dcca6       _UnmapViewOfFile@4         00553ca6 f   kernel32:KERNEL32.dll
 0002:000dccac       _CreateProcessA@40         00553cac f   kernel32:KERNEL32.dll
 0002:000dccb2       _GetStdHandle@4            00553cb2 f   kernel32:KERNEL32.dll
 0002:000dccb8       _DuplicateHandle@28        00553cb8 f   kernel32:KERNEL32.dll
 0002:000dccbe       _GetCurrentProcess@0       00553cbe f   kernel32:KERNEL32.dll
 0002:000dccc4       _CreatePipe@16             00553cc4 f   kernel32:KERNEL32.dll
 0002:000dccca       _ReadFile@20               00553cca f   kernel32:KERNEL32.dll
 0002:000dccd0       _QueryPerformanceFrequency@4 00553cd0 f   kernel32:KERNEL32.dll
 0002:000dccd6       _QueryPerformanceCounter@4 00553cd6 f   kernel32:KERNEL32.dll
 0002:000dccdc       _SetThreadPriority@8       00553cdc f   kernel32:KERNEL32.dll
 0002:000dcce2       _GetCurrentThread@0        00553ce2 f   kernel32:KERNEL32.dll
 0002:000dcce8       _WideCharToMultiByte@32    00553ce8 f   kernel32:KERNEL32.dll
 0002:000dccee       _IsDebuggerPresent@0       00553cee f   kernel32:KERNEL32.dll
 0002:000dccf4       _MultiByteToWideChar@24    00553cf4 f   kernel32:KERNEL32.dll
 0002:000dccfa       _RaiseException@16         00553cfa f   kernel32:KERNEL32.dll
 0002:000dcd00       _lstrlenA@4                00553d00 f   kernel32:KERNEL32.dll
 0002:000dcd06       _LoadLibraryW@4            00553d06 f   kernel32:KERNEL32.dll
 0002:000dcd0c       _EncodePointer@4           00553d0c f   kernel32:KERNEL32.dll
 0002:000dcd12       _DecodePointer@4           00553d12 f   kernel32:KERNEL32.dll
 0002:000dcd18       _InterlockedExchange@8     00553d18 f   kernel32:KERNEL32.dll
 0002:000dcd1e       _InterlockedCompareExchange@12 00553d1e f   kernel32:KERNEL32.dll
 0002:000dcd24       _HeapSetInformation@16     00553d24 f   kernel32:KERNEL32.dll
 0002:000dcd2a       _GetStartupInfoW@4         00553d2a f   kernel32:KERNEL32.dll
 0002:000dcd30       _HeapFree@12               00553d30 f   kernel32:KERNEL32.dll
 0002:000dcd36       _HeapAlloc@12              00553d36 f   kernel32:KERNEL32.dll
 0002:000dcd3c       _GetProcessHeap@0          00553d3c f   kernel32:KERNEL32.dll
 0002:000dcd42       _GetModuleFileNameW@12     00553d42 f   kernel32:KERNEL32.dll
 0002:000dcd48       _VirtualQuery@12           00553d48 f   kernel32:KERNEL32.dll
 0002:000dcd4e       _TerminateProcess@8        00553d4e f   kernel32:KERNEL32.dll
 0002:000dcd54       _UnhandledExceptionFilter@4 00553d54 f   kernel32:KERNEL32.dll
 0002:000dcd5a       _SetUnhandledExceptionFilter@4 00553d5a f   kernel32:KERNEL32.dll
 0002:000dcd60       _IsProcessorFeaturePresent@4 00553d60 f   kernel32:KERNEL32.dll
 0002:000dcd66       _GetTickCount@0            00553d66 f   kernel32:KERNEL32.dll
 0002:000dcd6c       _GetSystemTimeAsFileTime@4 00553d6c f   kernel32:KERNEL32.dll
 0002:000dcd72       _PostQuitMessage@4         00553d72 f   user32:USER32.dll
 0002:000dcd78       _PeekMessageA@20           00553d78 f   user32:USER32.dll
 0002:000dcd7e       _ShowCursor@4              00553d7e f   user32:USER32.dll
 0002:000dcd84       _UpdateWindow@4            00553d84 f   user32:USER32.dll
 0002:000dcd8a       _SetForegroundWindow@4     00553d8a f   user32:USER32.dll
 0002:000dcd90       _SendMessageA@16           00553d90 f   user32:USER32.dll
 0002:000dcd96       _ShowWindow@8              00553d96 f   user32:USER32.dll
 0002:000dcd9c       _FindWindowA@8             00553d9c f   user32:USER32.dll
 0002:000dcda2       _CloseClipboard@0          00553da2 f   user32:USER32.dll
 0002:000dcda8       _SetClipboardData@8        00553da8 f   user32:USER32.dll
 0002:000dcdae       _EmptyClipboard@0          00553dae f   user32:USER32.dll
 0002:000dcdb4       _OpenClipboard@4           00553db4 f   user32:USER32.dll
 0002:000dcdba       _SetCursorPos@8            00553dba f   user32:USER32.dll
 0002:000dcdc0       _GetKeyState@4             00553dc0 f   user32:USER32.dll
 0002:000dcdc6       _GetCursorPos@4            00553dc6 f   user32:USER32.dll
 0002:000dcdcc       _LoadCursorA@8             00553dcc f   user32:USER32.dll
 0002:000dcdd2       _SetWindowLongA@12         00553dd2 f   user32:USER32.dll
 0002:000dcdd8       _GetWindowLongA@8          00553dd8 f   user32:USER32.dll
 0002:000dcdde       _SetCursor@4               00553dde f   user32:USER32.dll
 0002:000dcde4       _SetFocus@4                00553de4 f   user32:USER32.dll
 0002:000dcdea       _EndDialog@8               00553dea f   user32:USER32.dll
 0002:000dcdf0       _GetWindowTextA@12         00553df0 f   user32:USER32.dll
 0002:000dcdf6       _GetDlgItem@8              00553df6 f   user32:USER32.dll
 0002:000dcdfc       _CreateWindowExA@48        00553dfc f   user32:USER32.dll
 0002:000dce02       _ScreenToClient@8          00553e02 f   user32:USER32.dll
 0002:000dce08       _GetWindowRect@8           00553e08 f   user32:USER32.dll
 0002:000dce0e       _SetWindowTextA@8          00553e0e f   user32:USER32.dll
 0002:000dce14       _wsprintfA                 00553e14 f   user32:USER32.dll
 0002:000dce1a       _MessageBoxA@16            00553e1a f   user32:USER32.dll
 0002:000dce20       _GetStockObject@4          00553e20 f   gdi32:GDI32.dll
 0002:000dce26       _SelectObject@8            00553e26 f   gdi32:GDI32.dll
 0002:000dce2c       _ShellExecuteA@24          00553e2c f   shell32:SHELL32.dll
 0002:000dce32       _ShellExecuteExA@4         00553e32 f   shell32:SHELL32.dll
 0002:000dce38       _DragFinish@4              00553e38 f   shell32:SHELL32.dll
 0002:000dce3e       _DragQueryFileA@16         00553e3e f   shell32:SHELL32.dll
 0002:000dce44       _SHGetPathFromIDListA@8    00553e44 f   shell32:SHELL32.dll
 0002:000dce4a       _SHBrowseForFolderA@4      00553e4a f   shell32:SHELL32.dll
 0002:000dce50       _SHGetMalloc@4             00553e50 f   shell32:SHELL32.dll
 0002:000dce60       ??0CSize@@QAE@XZ           00553e60 f   atlsd:atltypes.obj
 0002:000dce90       ??0CSize@@QAE@HH@Z         00553e90 f   atlsd:atltypes.obj
 0002:000dcec0       ??0CSize@@QAE@UtagSIZE@@@Z 00553ec0 f   atlsd:atltypes.obj
 0002:000dcef0       ??0CSize@@QAE@UtagPOINT@@@Z 00553ef0 f   atlsd:atltypes.obj
 0002:000dcf20       ??0CSize@@QAE@K@Z          00553f20 f   atlsd:atltypes.obj
 0002:000dcf70       ??8CSize@@QBEHUtagSIZE@@@Z 00553f70 f   atlsd:atltypes.obj
 0002:000dcfc0       ??9CSize@@QBEHUtagSIZE@@@Z 00553fc0 f   atlsd:atltypes.obj
 0002:000dd010       ??YCSize@@QAEXUtagSIZE@@@Z 00554010 f   atlsd:atltypes.obj
 0002:000dd050       ??ZCSize@@QAEXUtagSIZE@@@Z 00554050 f   atlsd:atltypes.obj
 0002:000dd090       ?SetSize@CSize@@QAEXHH@Z   00554090 f   atlsd:atltypes.obj
 0002:000dd0c0       ??HCSize@@QBE?AV0@UtagSIZE@@@Z 005540c0 f   atlsd:atltypes.obj
 0002:000dd100       ??GCSize@@QBE?AV0@UtagSIZE@@@Z 00554100 f   atlsd:atltypes.obj
 0002:000dd140       ??GCSize@@QBE?AV0@XZ       00554140 f   atlsd:atltypes.obj
 0002:000dd180       ??HCSize@@QBE?AVCPoint@@UtagPOINT@@@Z 00554180 f   atlsd:atltypes.obj
 0002:000dd1c0       ??GCSize@@QBE?AVCPoint@@UtagPOINT@@@Z 005541c0 f   atlsd:atltypes.obj
 0002:000dd200       ??HCSize@@QBE?AVCRect@@PBUtagRECT@@@Z 00554200 f   atlsd:atltypes.obj
 0002:000dd270       ??GCSize@@QBE?AVCRect@@PBUtagRECT@@@Z 00554270 f   atlsd:atltypes.obj
 0002:000dd2e0       ??0CPoint@@QAE@XZ          005542e0 f   atlsd:atltypes.obj
 0002:000dd310       ??0CPoint@@QAE@HH@Z        00554310 f   atlsd:atltypes.obj
 0002:000dd340       ??0CPoint@@QAE@UtagPOINT@@@Z 00554340 f   atlsd:atltypes.obj
 0002:000dd370       ??0CPoint@@QAE@UtagSIZE@@@Z 00554370 f   atlsd:atltypes.obj
 0002:000dd3a0       ??0CPoint@@QAE@J@Z         005543a0 f   atlsd:atltypes.obj
 0002:000dd3f0       ?Offset@CPoint@@QAEXHH@Z   005543f0 f   atlsd:atltypes.obj
 0002:000dd430       ?Offset@CPoint@@QAEXUtagPOINT@@@Z 00554430 f   atlsd:atltypes.obj
 0002:000dd470       ?Offset@CPoint@@QAEXUtagSIZE@@@Z 00554470 f   atlsd:atltypes.obj
 0002:000dd4b0       ?SetPoint@CPoint@@QAEXHH@Z 005544b0 f   atlsd:atltypes.obj
 0002:000dd4e0       ??8CPoint@@QBEHUtagPOINT@@@Z 005544e0 f   atlsd:atltypes.obj
 0002:000dd530       ??9CPoint@@QBEHUtagPOINT@@@Z 00554530 f   atlsd:atltypes.obj
 0002:000dd580       ??YCPoint@@QAEXUtagSIZE@@@Z 00554580 f   atlsd:atltypes.obj
 0002:000dd5c0       ??ZCPoint@@QAEXUtagSIZE@@@Z 005545c0 f   atlsd:atltypes.obj
 0002:000dd600       ??YCPoint@@QAEXUtagPOINT@@@Z 00554600 f   atlsd:atltypes.obj
 0002:000dd640       ??ZCPoint@@QAEXUtagPOINT@@@Z 00554640 f   atlsd:atltypes.obj
 0002:000dd680       ??HCPoint@@QBE?AV0@UtagSIZE@@@Z 00554680 f   atlsd:atltypes.obj
 0002:000dd6c0       ??GCPoint@@QBE?AV0@UtagSIZE@@@Z 005546c0 f   atlsd:atltypes.obj
 0002:000dd700       ??GCPoint@@QBE?AV0@XZ      00554700 f   atlsd:atltypes.obj
 0002:000dd740       ??HCPoint@@QBE?AV0@UtagPOINT@@@Z 00554740 f   atlsd:atltypes.obj
 0002:000dd780       ??GCPoint@@QBE?AVCSize@@UtagPOINT@@@Z 00554780 f   atlsd:atltypes.obj
 0002:000dd7c0       ??HCPoint@@QBE?AVCRect@@PBUtagRECT@@@Z 005547c0 f   atlsd:atltypes.obj
 0002:000dd830       ??GCPoint@@QBE?AVCRect@@PBUtagRECT@@@Z 00554830 f   atlsd:atltypes.obj
 0002:000dd8a0       ??0CRect@@QAE@XZ           005548a0 f   atlsd:atltypes.obj
 0002:000dd8f0       ??0CRect@@QAE@HHHH@Z       005548f0 f   atlsd:atltypes.obj
 0002:000dd940       ??0CRect@@QAE@ABUtagRECT@@@Z 00554940 f   atlsd:atltypes.obj
 0002:000dd970       ??0CRect@@QAE@PBUtagRECT@@@Z 00554970 f   atlsd:atltypes.obj
 0002:000dd9a0       ??0CRect@@QAE@UtagPOINT@@UtagSIZE@@@Z 005549a0 f   atlsd:atltypes.obj
 0002:000dd9f0       ??0CRect@@QAE@UtagPOINT@@0@Z 005549f0 f   atlsd:atltypes.obj
 0002:000dda40       ?Width@CRect@@QBEHXZ       00554a40 f   atlsd:atltypes.obj
 0002:000dda60       ?Height@CRect@@QBEHXZ      00554a60 f   atlsd:atltypes.obj
 0002:000dda80       ?Size@CRect@@QBE?AVCSize@@XZ 00554a80 f   atlsd:atltypes.obj
 0002:000ddac0       ?TopLeft@CRect@@QAEAAVCPoint@@XZ 00554ac0 f   atlsd:atltypes.obj
 0002:000ddae0       ?BottomRight@CRect@@QAEAAVCPoint@@XZ 00554ae0 f   atlsd:atltypes.obj
 0002:000ddb00       ?TopLeft@CRect@@QBEABVCPoint@@XZ 00554b00 f   atlsd:atltypes.obj
 0002:000ddb20       ?BottomRight@CRect@@QBEABVCPoint@@XZ 00554b20 f   atlsd:atltypes.obj
 0002:000ddb40       ?CenterPoint@CRect@@QBE?AVCPoint@@XZ 00554b40 f   atlsd:atltypes.obj
 0002:000ddb90       ?SwapLeftRight@CRect@@QAEXXZ 00554b90 f   atlsd:atltypes.obj
 0002:000ddbb0       ?SwapLeftRight@CRect@@SGXPAUtagRECT@@@Z 00554bb0 f   atlsd:atltypes.obj
 0002:000ddbf0       ??BCRect@@QAEPAUtagRECT@@XZ 00554bf0 f   atlsd:atltypes.obj
 0002:000ddc10       ??BCRect@@QBEPBUtagRECT@@XZ 00554c10 f   atlsd:atltypes.obj
 0002:000ddc30       ?IsRectEmpty@CRect@@QBEHXZ 00554c30 f   atlsd:atltypes.obj
 0002:000ddc50       ?IsRectNull@CRect@@QBEHXZ  00554c50 f   atlsd:atltypes.obj
 0002:000ddcb0       ?PtInRect@CRect@@QBEHUtagPOINT@@@Z 00554cb0 f   atlsd:atltypes.obj
 0002:000ddce0       ?SetRect@CRect@@QAEXHHHH@Z 00554ce0 f   atlsd:atltypes.obj
 0002:000ddd20       ?SetRect@CRect@@QAEXUtagPOINT@@0@Z 00554d20 f   atlsd:atltypes.obj
 0002:000ddd60       ?SetRectEmpty@CRect@@QAEXXZ 00554d60 f   atlsd:atltypes.obj
 0002:000ddd80       ?CopyRect@CRect@@QAEXPBUtagRECT@@@Z 00554d80 f   atlsd:atltypes.obj
 0002:000dddb0       ?EqualRect@CRect@@QBEHPBUtagRECT@@@Z 00554db0 f   atlsd:atltypes.obj
 0002:000ddde0       ?InflateRect@CRect@@QAEXHH@Z 00554de0 f   atlsd:atltypes.obj
 0002:000dde10       ?InflateRect@CRect@@QAEXUtagSIZE@@@Z 00554e10 f   atlsd:atltypes.obj
 0002:000dde40       ?DeflateRect@CRect@@QAEXHH@Z 00554e40 f   atlsd:atltypes.obj
 0002:000dde70       ?DeflateRect@CRect@@QAEXUtagSIZE@@@Z 00554e70 f   atlsd:atltypes.obj
 0002:000ddea0       ?OffsetRect@CRect@@QAEXHH@Z 00554ea0 f   atlsd:atltypes.obj
 0002:000dded0       ?OffsetRect@CRect@@QAEXUtagPOINT@@@Z 00554ed0 f   atlsd:atltypes.obj
 0002:000ddf00       ?OffsetRect@CRect@@QAEXUtagSIZE@@@Z 00554f00 f   atlsd:atltypes.obj
 0002:000ddf30       ?MoveToY@CRect@@QAEXH@Z    00554f30 f   atlsd:atltypes.obj
 0002:000ddf70       ?MoveToX@CRect@@QAEXH@Z    00554f70 f   atlsd:atltypes.obj
 0002:000ddfb0       ?MoveToXY@CRect@@QAEXHH@Z  00554fb0 f   atlsd:atltypes.obj
 0002:000ddfe0       ?MoveToXY@CRect@@QAEXUtagPOINT@@@Z 00554fe0 f   atlsd:atltypes.obj
 0002:000de010       ?IntersectRect@CRect@@QAEHPBUtagRECT@@0@Z 00555010 f   atlsd:atltypes.obj
 0002:000de040       ?UnionRect@CRect@@QAEHPBUtagRECT@@0@Z 00555040 f   atlsd:atltypes.obj
 0002:000de070       ??4CRect@@QAEXABUtagRECT@@@Z 00555070 f   atlsd:atltypes.obj
 0002:000de0a0       ??8CRect@@QBEHABUtagRECT@@@Z 005550a0 f   atlsd:atltypes.obj
 0002:000de0d0       ??9CRect@@QBEHABUtagRECT@@@Z 005550d0 f   atlsd:atltypes.obj
 0002:000de100       ??YCRect@@QAEXUtagPOINT@@@Z 00555100 f   atlsd:atltypes.obj
 0002:000de130       ??YCRect@@QAEXUtagSIZE@@@Z 00555130 f   atlsd:atltypes.obj
 0002:000de160       ??YCRect@@QAEXPBUtagRECT@@@Z 00555160 f   atlsd:atltypes.obj
 0002:000de190       ??ZCRect@@QAEXUtagPOINT@@@Z 00555190 f   atlsd:atltypes.obj
 0002:000de1c0       ??ZCRect@@QAEXUtagSIZE@@@Z 005551c0 f   atlsd:atltypes.obj
 0002:000de1f0       ??ZCRect@@QAEXPBUtagRECT@@@Z 005551f0 f   atlsd:atltypes.obj
 0002:000de220       ??_4CRect@@QAEXABUtagRECT@@@Z 00555220 f   atlsd:atltypes.obj
 0002:000de250       ??_5CRect@@QAEXABUtagRECT@@@Z 00555250 f   atlsd:atltypes.obj
 0002:000de280       ??HCRect@@QBE?AV0@UtagPOINT@@@Z 00555280 f   atlsd:atltypes.obj
 0002:000de310       ??GCRect@@QBE?AV0@UtagPOINT@@@Z 00555310 f   atlsd:atltypes.obj
 0002:000de3a0       ??HCRect@@QBE?AV0@UtagSIZE@@@Z 005553a0 f   atlsd:atltypes.obj
 0002:000de430       ??GCRect@@QBE?AV0@UtagSIZE@@@Z 00555430 f   atlsd:atltypes.obj
 0002:000de4c0       ??HCRect@@QBE?AV0@PBUtagRECT@@@Z 005554c0 f   atlsd:atltypes.obj
 0002:000de530       ??GCRect@@QBE?AV0@PBUtagRECT@@@Z 00555530 f   atlsd:atltypes.obj
 0002:000de5a0       ??ICRect@@QBE?AV0@ABUtagRECT@@@Z 005555a0 f   atlsd:atltypes.obj
 0002:000de620       ??UCRect@@QBE?AV0@ABUtagRECT@@@Z 00555620 f   atlsd:atltypes.obj
 0002:000de6a0       ?SubtractRect@CRect@@QAEHPBUtagRECT@@0@Z 005556a0 f   atlsd:atltypes.obj
 0002:000de6d0       ?NormalizeRect@CRect@@QAEXXZ 005556d0 f   atlsd:atltypes.obj
 0002:000de750       ?InflateRect@CRect@@QAEXPBUtagRECT@@@Z 00555750 f   atlsd:atltypes.obj
 0002:000de7c0       ?InflateRect@CRect@@QAEXHHHH@Z 005557c0 f   atlsd:atltypes.obj
 0002:000de820       ?DeflateRect@CRect@@QAEXPBUtagRECT@@@Z 00555820 f   atlsd:atltypes.obj
 0002:000de890       ?DeflateRect@CRect@@QAEXHHHH@Z 00555890 f   atlsd:atltypes.obj
 0002:000de8f0       ?MulDiv@CRect@@QBE?AV1@HH@Z 005558f0 f   atlsd:atltypes.obj
 0002:000de980       ??0CTimeSpan@ATL@@QAE@XZ   00555980 f   atlsd:atltime.obj
 0002:000de9b0       ??0CTimeSpan@ATL@@QAE@_J@Z 005559b0 f   atlsd:atltime.obj
 0002:000de9e0       ??0CTimeSpan@ATL@@QAE@JHHH@Z 005559e0 f   atlsd:atltime.obj
 0002:000dea80       ?GetDays@CTimeSpan@ATL@@QBE_JXZ 00555a80 f   atlsd:atltime.obj
 0002:000deab0       ?GetTotalHours@CTimeSpan@ATL@@QBE_JXZ 00555ab0 f   atlsd:atltime.obj
 0002:000deae0       ?GetHours@CTimeSpan@ATL@@QBEJXZ 00555ae0 f   atlsd:atltime.obj
 0002:000deb30       ?GetTotalMinutes@CTimeSpan@ATL@@QBE_JXZ 00555b30 f   atlsd:atltime.obj
 0002:000deb60       ?GetMinutes@CTimeSpan@ATL@@QBEJXZ 00555b60 f   atlsd:atltime.obj
 0002:000debb0       ?GetTotalSeconds@CTimeSpan@ATL@@QBE_JXZ 00555bb0 f   atlsd:atltime.obj
 0002:000debd0       ?GetSeconds@CTimeSpan@ATL@@QBEJXZ 00555bd0 f   atlsd:atltime.obj
 0002:000dec20       ?GetTimeSpan@CTimeSpan@ATL@@QBE_JXZ 00555c20 f   atlsd:atltime.obj
 0002:000dec40       ??HCTimeSpan@ATL@@QBE?AV01@V01@@Z 00555c40 f   atlsd:atltime.obj
 0002:000dec80       ??GCTimeSpan@ATL@@QBE?AV01@V01@@Z 00555c80 f   atlsd:atltime.obj
 0002:000decc0       ??YCTimeSpan@ATL@@QAEAAV01@V01@@Z 00555cc0 f   atlsd:atltime.obj
 0002:000ded00       ??ZCTimeSpan@ATL@@QAEAAV01@V01@@Z 00555d00 f   atlsd:atltime.obj
 0002:000ded40       ??8CTimeSpan@ATL@@QBE_NV01@@Z 00555d40 f   atlsd:atltime.obj
 0002:000ded90       ??9CTimeSpan@ATL@@QBE_NV01@@Z 00555d90 f   atlsd:atltime.obj
 0002:000dede0       ??MCTimeSpan@ATL@@QBE_NV01@@Z 00555de0 f   atlsd:atltime.obj
 0002:000dee40       ??OCTimeSpan@ATL@@QBE_NV01@@Z 00555e40 f   atlsd:atltime.obj
 0002:000deea0       ??NCTimeSpan@ATL@@QBE_NV01@@Z 00555ea0 f   atlsd:atltime.obj
 0002:000def00       ??PCTimeSpan@ATL@@QBE_NV01@@Z 00555f00 f   atlsd:atltime.obj
 0002:000def60       ?GetTickCount@CTime@ATL@@SG?AV12@XZ 00555f60 f   atlsd:atltime.obj
 0002:000def90       ?IsValidFILETIME@CTime@ATL@@SGHABU_FILETIME@@@Z 00555f90 f   atlsd:atltime.obj
 0002:000df000       ??0CTime@ATL@@QAE@XZ       00556000 f   atlsd:atltime.obj
 0002:000df030       ??0CTime@ATL@@QAE@_J@Z     00556030 f   atlsd:atltime.obj
 0002:000df060       ??0CTime@ATL@@QAE@HHHHHHH@Z 00556060 f   atlsd:atltime.obj
 0002:000df440       ??0CTime@ATL@@QAE@GGH@Z    00556440 f   atlsd:atltime.obj
 0002:000df580       ??0CTime@ATL@@QAE@ABU_SYSTEMTIME@@H@Z 00556580 f   atlsd:atltime.obj
 0002:000df640       ??0CTime@ATL@@QAE@ABU_FILETIME@@H@Z 00556640 f   atlsd:atltime.obj
 0002:000df710       ??4CTime@ATL@@QAEAAV01@_J@Z 00556710 f   atlsd:atltime.obj
 0002:000df740       ??YCTime@ATL@@QAEAAV01@VCTimeSpan@1@@Z 00556740 f   atlsd:atltime.obj
 0002:000df780       ??ZCTime@ATL@@QAEAAV01@VCTimeSpan@1@@Z 00556780 f   atlsd:atltime.obj
 0002:000df7c0       ??GCTime@ATL@@QBE?AVCTimeSpan@1@V01@@Z 005567c0 f   atlsd:atltime.obj
 0002:000df800       ??GCTime@ATL@@QBE?AV01@VCTimeSpan@1@@Z 00556800 f   atlsd:atltime.obj
 0002:000df840       ??HCTime@ATL@@QBE?AV01@VCTimeSpan@1@@Z 00556840 f   atlsd:atltime.obj
 0002:000df880       ??8CTime@ATL@@QBE_NV01@@Z  00556880 f   atlsd:atltime.obj
 0002:000df8d0       ??9CTime@ATL@@QBE_NV01@@Z  005568d0 f   atlsd:atltime.obj
 0002:000df920       ??MCTime@ATL@@QBE_NV01@@Z  00556920 f   atlsd:atltime.obj
 0002:000df980       ??OCTime@ATL@@QBE_NV01@@Z  00556980 f   atlsd:atltime.obj
 0002:000df9e0       ??NCTime@ATL@@QBE_NV01@@Z  005569e0 f   atlsd:atltime.obj
 0002:000dfa40       ??PCTime@ATL@@QBE_NV01@@Z  00556a40 f   atlsd:atltime.obj
 0002:000dfaa0       ?GetGmtTm@CTime@ATL@@QBEPAUtm@@PAU3@@Z 00556aa0 f   atlsd:atltime.obj
 0002:000dfb80       ?GetLocalTm@CTime@ATL@@QBEPAUtm@@PAU3@@Z 00556b80 f   atlsd:atltime.obj
 0002:000dfc60       ?GetAsSystemTime@CTime@ATL@@QBE_NAAU_SYSTEMTIME@@@Z 00556c60 f   atlsd:atltime.obj
 0002:000dfd40       ?GetTime@CTime@ATL@@QBE_JXZ 00556d40 f   atlsd:atltime.obj
 0002:000dfd60       ?GetYear@CTime@ATL@@QBEHXZ 00556d60 f   atlsd:atltime.obj
 0002:000dfdd0       ?GetMonth@CTime@ATL@@QBEHXZ 00556dd0 f   atlsd:atltime.obj
 0002:000dfe40       ?GetDay@CTime@ATL@@QBEHXZ  00556e40 f   atlsd:atltime.obj
 0002:000dfea0       ?GetHour@CTime@ATL@@QBEHXZ 00556ea0 f   atlsd:atltime.obj
 0002:000dff00       ?GetMinute@CTime@ATL@@QBEHXZ 00556f00 f   atlsd:atltime.obj
 0002:000dff60       ?GetSecond@CTime@ATL@@QBEHXZ 00556f60 f   atlsd:atltime.obj
 0002:000dffc0       ?GetDayOfWeek@CTime@ATL@@QBEHXZ 00556fc0 f   atlsd:atltime.obj
 0002:000e0030       ??0CFileTimeSpan@ATL@@QAE@XZ 00557030 f   atlsd:atltime.obj
 0002:000e0060       ??0CFileTimeSpan@ATL@@QAE@ABV01@@Z 00557060 f   atlsd:atltime.obj
 0002:000e0090       ??0CFileTimeSpan@ATL@@QAE@_J@Z 00557090 f   atlsd:atltime.obj
 0002:000e00c0       ??4CFileTimeSpan@ATL@@QAEAAV01@ABV01@@Z 005570c0 f   atlsd:atltime.obj
 0002:000e00f0       ??YCFileTimeSpan@ATL@@QAEAAV01@V01@@Z 005570f0 f   atlsd:atltime.obj
 0002:000e0130       ??ZCFileTimeSpan@ATL@@QAEAAV01@V01@@Z 00557130 f   atlsd:atltime.obj
 0002:000e0170       ??HCFileTimeSpan@ATL@@QBE?AV01@V01@@Z 00557170 f   atlsd:atltime.obj
 0002:000e01b0       ??GCFileTimeSpan@ATL@@QBE?AV01@V01@@Z 005571b0 f   atlsd:atltime.obj
 0002:000e01f0       ??8CFileTimeSpan@ATL@@QBE_NV01@@Z 005571f0 f   atlsd:atltime.obj
 0002:000e0240       ??9CFileTimeSpan@ATL@@QBE_NV01@@Z 00557240 f   atlsd:atltime.obj
 0002:000e0290       ??MCFileTimeSpan@ATL@@QBE_NV01@@Z 00557290 f   atlsd:atltime.obj
 0002:000e02f0       ??OCFileTimeSpan@ATL@@QBE_NV01@@Z 005572f0 f   atlsd:atltime.obj
 0002:000e0350       ??NCFileTimeSpan@ATL@@QBE_NV01@@Z 00557350 f   atlsd:atltime.obj
 0002:000e03b0       ??PCFileTimeSpan@ATL@@QBE_NV01@@Z 005573b0 f   atlsd:atltime.obj
 0002:000e0410       ?GetTimeSpan@CFileTimeSpan@ATL@@QBE_JXZ 00557410 f   atlsd:atltime.obj
 0002:000e0430       ?SetTimeSpan@CFileTimeSpan@ATL@@QAEX_J@Z 00557430 f   atlsd:atltime.obj
 0002:000e0460       ??0CFileTime@ATL@@QAE@XZ   00557460 f   atlsd:atltime.obj
 0002:000e0490       ??0CFileTime@ATL@@QAE@ABU_FILETIME@@@Z 00557490 f   atlsd:atltime.obj
 0002:000e04d0       ??0CFileTime@ATL@@QAE@_K@Z 005574d0 f   atlsd:atltime.obj
 0002:000e0510       ??4CFileTime@ATL@@QAEAAV01@ABU_FILETIME@@@Z 00557510 f   atlsd:atltime.obj
 0002:000e0550       ?GetTickCount@CFileTime@ATL@@SG?AV12@XZ 00557550 f   atlsd:atltime.obj
 0002:000e0590       ??YCFileTime@ATL@@QAEAAV01@VCFileTimeSpan@1@@Z 00557590 f   atlsd:atltime.obj
 0002:000e05e0       ??ZCFileTime@ATL@@QAEAAV01@VCFileTimeSpan@1@@Z 005575e0 f   atlsd:atltime.obj
 0002:000e0630       ??HCFileTime@ATL@@QBE?AV01@VCFileTimeSpan@1@@Z 00557630 f   atlsd:atltime.obj
 0002:000e0680       ??GCFileTime@ATL@@QBE?AV01@VCFileTimeSpan@1@@Z 00557680 f   atlsd:atltime.obj
 0002:000e06d0       ??GCFileTime@ATL@@QBE?AVCFileTimeSpan@1@V01@@Z 005576d0 f   atlsd:atltime.obj
 0002:000e0720       ??8CFileTime@ATL@@QBE_NV01@@Z 00557720 f   atlsd:atltime.obj
 0002:000e0790       ??9CFileTime@ATL@@QBE_NV01@@Z 00557790 f   atlsd:atltime.obj
 0002:000e0800       ??MCFileTime@ATL@@QBE_NV01@@Z 00557800 f   atlsd:atltime.obj
 0002:000e0870       ??OCFileTime@ATL@@QBE_NV01@@Z 00557870 f   atlsd:atltime.obj
 0002:000e08e0       ??NCFileTime@ATL@@QBE_NV01@@Z 005578e0 f   atlsd:atltime.obj
 0002:000e0950       ??PCFileTime@ATL@@QBE_NV01@@Z 00557950 f   atlsd:atltime.obj
 0002:000e09c0       ?GetTime@CFileTime@ATL@@QBE_KXZ 005579c0 f   atlsd:atltime.obj
 0002:000e0a00       ?SetTime@CFileTime@ATL@@QAEX_K@Z 00557a00 f   atlsd:atltime.obj
 0002:000e0a40       ?UTCToLocal@CFileTime@ATL@@QBE?AV12@XZ 00557a40 f   atlsd:atltime.obj
 0002:000e0a90       ?LocalToUTC@CFileTime@ATL@@QBE?AV12@XZ 00557a90 f   atlsd:atltime.obj
 0002:000e0ae0       ?AtlThrowImpl@ATL@@YGXJ@Z  00557ae0 f i atlsd:atltime.obj
 0002:000e0b90       ??RCTraceFileAndLineInfo@ATL@@QBAXKIPBDZZ 00557b90 f i atlsd:atltime.obj
 0002:000e0bf0       ?_AtlRaiseException@ATL@@YAXKK@Z 00557bf0 f i atlsd:atltime.obj
 0002:000e0c10       ??0CAtlAllocator@@QAE@XZ   00557c10 f i atlsd:Externs.obj
 0002:000e0c70       ??0CTraceSnapshot@@QAE@XZ  00557c70 f i atlsd:Externs.obj
 0002:000e0ca0       ??0?$CSimpleArray@UCModuleInfo@CTraceSnapshot@@V?$CSimpleArrayEqualHelper@UCModuleInfo@CTraceSnapshot@@@ATL@@@ATL@@QAE@XZ 00557ca0 f i atlsd:Externs.obj
 0002:000e0ce0       ??0?$CSimpleArray@KV?$CSimpleArrayEqualHelper@K@ATL@@@ATL@@QAE@XZ 00557ce0 f i atlsd:Externs.obj
 0002:000e0e50       ??0CAtlException@ATL@@QAE@J@Z 00557e50 f i atlsd:Externs.obj
 0002:000e0e70       ?AtlCrtErrorCheck@ATL@@YAHH@Z 00557e70 f i atlsd:Externs.obj
 0002:000e0f50       ??0CTrace@ATL@@AAE@P6AHHPBDH00ZZ@Z 00557f50 f i atlsd:Externs.obj
 0002:000e0fa0       ??1CAtlAllocator@@QAE@XZ   00557fa0 f i atlsd:Externs.obj
 0002:000e0fd0       ??1CTraceSnapshot@@QAE@XZ  00557fd0 f i atlsd:Externs.obj
 0002:000e1000       ??1?$CSimpleArray@UCModuleInfo@CTraceSnapshot@@V?$CSimpleArrayEqualHelper@UCModuleInfo@CTraceSnapshot@@@ATL@@@ATL@@QAE@XZ 00558000 f i atlsd:Externs.obj
 0002:000e1020       ??1?$CSimpleArray@KV?$CSimpleArrayEqualHelper@K@ATL@@@ATL@@QAE@XZ 00558020 f i atlsd:Externs.obj
 0002:000e1040       ?RemoveAll@?$CSimpleArray@UCModuleInfo@CTraceSnapshot@@V?$CSimpleArrayEqualHelper@UCModuleInfo@CTraceSnapshot@@@ATL@@@ATL@@QAEXXZ 00558040 f i atlsd:Externs.obj
 0002:000e10c0       ?RemoveAll@?$CSimpleArray@KV?$CSimpleArrayEqualHelper@K@ATL@@@ATL@@QAEXXZ 005580c0 f i atlsd:Externs.obj
 0002:000e1140       ??1CTrace@ATL@@AAE@XZ      00558140 f i atlsd:Externs.obj
 0002:000e1160       ??0CTraceCategory@ATL@@QAE@PBDI@Z 00558160 f i atlsd:atltrace.obj
 0002:000e11c0       ?ChangeCategory@CTrace@ATL@@QAE_NKIW4ATLTRACESTATUS@2@@Z 005581c0 f i atlsd:atltrace.obj
 0002:000e1200       ?RegisterCategory@CTrace@ATL@@QAEKPBD@Z 00558200 f i atlsd:atltrace.obj
 0002:000e1230       ?NotifyTool@ATL@@YGXXZ     00558230 f   atlsd:AtlDebugAPI.obj
 0002:000e1280       _AtlTraceRegister@8        00558280 f   atlsd:AtlDebugAPI.obj
 0002:000e1310       _AtlTraceUnregister@4      00558310 f   atlsd:AtlDebugAPI.obj
 0002:000e1350       _AtlTraceRegisterCategoryA@8 00558350 f   atlsd:AtlDebugAPI.obj
 0002:000e13d0       _AtlTraceRegisterCategoryU@8 005583d0 f   atlsd:AtlDebugAPI.obj
 0002:000e1430       _AtlTraceModifyProcess@20  00558430 f   atlsd:AtlDebugAPI.obj
 0002:000e1500       ?GetProcess@CAtlAllocator@@QBEPAVCAtlTraceProcess@@XZ 00558500 f i atlsd:AtlDebugAPI.obj
 0002:000e1520       _AtlTraceModifyModule@16   00558520 f   atlsd:AtlDebugAPI.obj
 0002:000e1640       _AtlTraceModifyCategory@16 00558640 f   atlsd:AtlDebugAPI.obj
 0002:000e1720       _AtlTraceGetProcess@20     00558720 f   atlsd:AtlDebugAPI.obj
 0002:000e1830       _AtlTraceGetModule@16      00558830 f   atlsd:AtlDebugAPI.obj
 0002:000e1980       _AtlTraceGetCategory@16    00558980 f   atlsd:AtlDebugAPI.obj
 0002:000e1aa0       _AtlTraceGetUpdateEventNameA@4 00558aa0 f   atlsd:AtlDebugAPI.obj
 0002:000e1ae0       _AtlTraceGetUpdateEventNameA_s@8 00558ae0 f   atlsd:AtlDebugAPI.obj
 0002:000e1b20       _AtlTraceGetUpdateEventNameU@4 00558b20 f   atlsd:AtlDebugAPI.obj
 0002:000e1ba0       _AtlTraceGetUpdateEventNameU_s@8 00558ba0 f   atlsd:AtlDebugAPI.obj
 0002:000e1c30       _AtlTraceVA                00558c30 f   atlsd:AtlDebugAPI.obj
 0002:000e2010       ?Name@CAtlTraceCategory@@QBEPB_WXZ 00559010 f i atlsd:AtlDebugAPI.obj
 0002:000e2030       _AtlTraceVU                00559030 f   atlsd:AtlDebugAPI.obj
 0002:000e2450       _AtlTraceOpenProcess@4     00559450 f   atlsd:AtlDebugAPI.obj
 0002:000e2580       ??_GCAtlAllocator@@QAEPAXI@Z 00559580 f i atlsd:AtlDebugAPI.obj
 0002:000e25c0       _AtlTraceCloseProcess@4    005595c0 f   atlsd:AtlDebugAPI.obj
 0002:000e2680       _AtlTraceSnapshotProcess@4 00559680 f   atlsd:AtlDebugAPI.obj
 0002:000e2710       _AtlTraceGetProcessInfo@8  00559710 f   atlsd:AtlDebugAPI.obj
 0002:000e2920       ?Path@CAtlTraceModuleInfo@@QBEPB_WXZ 00559920 f i atlsd:AtlDebugAPI.obj
 0002:000e2940       ?Name@CAtlTraceModuleInfo@@QBEPB_WXZ 00559940 f i atlsd:AtlDebugAPI.obj
 0002:000e2960       ?Id@CAtlTraceProcess@@QBEKXZ 00559960 f i atlsd:AtlDebugAPI.obj
 0002:000e2980       _AtlTraceGetModuleInfo@12  00559980 f   atlsd:AtlDebugAPI.obj
 0002:000e2b80       _AtlTraceGetCategoryInfo@16 00559b80 f   atlsd:AtlDebugAPI.obj
 0002:000e2fe0       ?CrtDbgReport@CAtlTraceModule@@QBEP6AHHPBDH00ZZXZ 00559fe0 f i atlsd:AtlDebugAPI.obj
 0002:000e3000       ?_IsTracingEnabled@ATL@@YA_NKKI@Z 0055a000 f   atlsd:AtlDebugAPI.obj
 0002:000e3040       ?GetSize@?$CSimpleArray@UCModuleInfo@CTraceSnapshot@@V?$CSimpleArrayEqualHelper@UCModuleInfo@CTraceSnapshot@@@ATL@@@ATL@@QBEHXZ 0055a040 f i atlsd:AtlDebugAPI.obj
 0002:000e3060       ??A?$CSimpleArray@UCModuleInfo@CTraceSnapshot@@V?$CSimpleArrayEqualHelper@UCModuleInfo@CTraceSnapshot@@@ATL@@@ATL@@QAEAAUCModuleInfo@CTraceSnapshot@@H@Z 0055a060 f i atlsd:AtlDebugAPI.obj
 0002:000e30f0       ?strcpy_s@Checked@ATL@@YAXPADIPBD@Z 0055a0f0 f i atlsd:AtlDebugAPI.obj
 0002:000e3120       ?wcscpy_s@Checked@ATL@@YAXPA_WIPB_W@Z 0055a120 f i atlsd:AtlDebugAPI.obj
 0002:000e3150       ??0?$CA2WEX@$0IA@@ATL@@QAE@PBD@Z 0055a150 f i atlsd:AtlDebugAPI.obj
 0002:000e3190       ?_AtlGetConversionACP@ATL@@YGIXZ 0055a190 f i atlsd:AtlDebugAPI.obj
 0002:000e31a0       ??1?$CA2WEX@$0IA@@ATL@@QAE@XZ 0055a1a0 f i atlsd:AtlDebugAPI.obj
 0002:000e31d0       ??B?$CA2WEX@$0IA@@ATL@@QBEPA_WXZ 0055a1d0 f i atlsd:AtlDebugAPI.obj
 0002:000e31f0       ?Init@?$CA2WEX@$0IA@@ATL@@AAEXPBDI@Z 0055a1f0 f i atlsd:AtlDebugAPI.obj
 0002:000e3330       ?AtlThrowLastWin32@ATL@@YGXXZ 0055a330 f i atlsd:AtlDebugAPI.obj
 0002:000e3360       _HRESULT_FROM_WIN32        0055a360 f i atlsd:AtlDebugAPI.obj
 0002:000e33a0       ??$AtlConvFreeMemory@_W@ATL@@YAXPA_W0H@Z 0055a3a0 f i atlsd:AtlDebugAPI.obj
 0002:000e33f0       ??$AtlConvAllocMemory@_W@ATL@@YAXPAPA_WHPA_WH@Z 0055a3f0 f i atlsd:AtlDebugAPI.obj
 0002:000e35e0       ?Init@CAtlAllocator@@QAE_NPBDK@Z 0055a5e0 f   atlsd:Allocate.obj
 0002:000e39e0       ?IncRef@CAtlTraceProcess@@QAEIXZ 0055a9e0 f i atlsd:Allocate.obj
 0002:000e3a20       ?Base@CAtlTraceProcess@@QBEPAXXZ 0055aa20 f i atlsd:Allocate.obj
 0002:000e3a40       ?Open@CAtlAllocator@@QAE_NPBD@Z 0055aa40 f   atlsd:Allocate.obj
 0002:000e3bd0       ?Close@CAtlAllocator@@QAEX_N@Z 0055abd0 f   atlsd:Allocate.obj
 0002:000e3c50       ?DecRef@CAtlTraceProcess@@QAEIXZ 0055ac50 f i atlsd:Allocate.obj
 0002:000e3c90       ?GetModule@CAtlAllocator@@QBEPAVCAtlTraceModule@@H@Z 0055ac90 f   atlsd:Allocate.obj
 0002:000e3d50       ?ModuleCount@CAtlTraceProcess@@QBEHXZ 0055ad50 f i atlsd:Allocate.obj
 0002:000e3d70       ?GetCategory@CAtlAllocator@@QBEPAVCAtlTraceCategory@@H@Z 0055ad70 f   atlsd:Allocate.obj
 0002:000e3e50       ?MaxSize@CAtlTraceProcess@@QBEKXZ 0055ae50 f i atlsd:Allocate.obj
 0002:000e3e70       ?CategoryCount@CAtlTraceProcess@@QBEHXZ 0055ae70 f i atlsd:Allocate.obj
 0002:000e3e90       ?GetCategoryCount@CAtlAllocator@@QBEHH@Z 0055ae90 f   atlsd:Allocate.obj
 0002:000e3f30       ?GetCategoryCount@CAtlAllocator@@QBEHABVCAtlTraceModule@@@Z 0055af30 f   atlsd:Allocate.obj
 0002:000e3fb0       ?GetModuleCount@CAtlAllocator@@QBEHXZ 0055afb0 f   atlsd:Allocate.obj
 0002:000e4020       ?FindModule@CAtlAllocator@@QBE_NPB_WPAI@Z 0055b020 f   atlsd:Allocate.obj
 0002:000e40c0       ?AddModule@CAtlAllocator@@QAEHPAUHINSTANCE__@@@Z 0055b0c0 f   atlsd:Allocate.obj
 0002:000e4300       ?TryAllocate@CAtlTraceSettings@@QAE_NXZ 0055b300 f i atlsd:Allocate.obj
 0002:000e4350       ?MarkValid@CAtlTraceSettings@@QAEXJ@Z 0055b350 f i atlsd:Allocate.obj
 0002:000e43a0       ?IncModuleCount@CAtlTraceProcess@@QAEXI@Z 0055b3a0 f i atlsd:Allocate.obj
 0002:000e43d0       ?AddCategory@CAtlAllocator@@QAEHHPB_W@Z 0055b3d0 f   atlsd:Allocate.obj
 0002:000e4690       ?TryAddRef@CAtlTraceSettings@@QAE_NXZ 0055b690 f i atlsd:Allocate.obj
 0002:000e46e0       ?Release@CAtlTraceSettings@@QAEXXZ 0055b6e0 f i atlsd:Allocate.obj
 0002:000e4720       ?IncCategoryCount@CAtlTraceProcess@@QAEXI@Z 0055b720 f i atlsd:Allocate.obj
 0002:000e4750       ?RemoveModule@CAtlAllocator@@QAE_NH@Z 0055b750 f   atlsd:Allocate.obj
 0002:000e4830       ?CleanUp@CAtlAllocator@@QAEXXZ 0055b830 f   atlsd:Allocate.obj
 0002:000e4850       ?TakeSnapshot@CAtlAllocator@@QAEXXZ 0055b850 f   atlsd:Allocate.obj
 0002:000e4ab0       ?ReleaseSnapshot@CAtlAllocator@@QAEXXZ 0055bab0 f   atlsd:Allocate.obj
 0002:000e4bc0       ?Add@?$CSimpleArray@UCModuleInfo@CTraceSnapshot@@V?$CSimpleArrayEqualHelper@UCModuleInfo@CTraceSnapshot@@@ATL@@@ATL@@QAEHABUCModuleInfo@CTraceSnapshot@@@Z 0055bbc0 f i atlsd:Allocate.obj
 0002:000e4d40       ?GetSize@?$CSimpleArray@KV?$CSimpleArrayEqualHelper@K@ATL@@@ATL@@QBEHXZ 0055bd40 f i atlsd:Allocate.obj
 0002:000e4d60       ?Add@?$CSimpleArray@KV?$CSimpleArrayEqualHelper@K@ATL@@@ATL@@QAEHABK@Z 0055bd60 f i atlsd:Allocate.obj
 0002:000e4ee0       ?RemoveAt@?$CSimpleArray@KV?$CSimpleArrayEqualHelper@K@ATL@@@ATL@@QAEHH@Z 0055bee0 f i atlsd:Allocate.obj
 0002:000e4fd0       ??A?$CSimpleArray@KV?$CSimpleArrayEqualHelper@K@ATL@@@ATL@@QAEAAKH@Z 0055bfd0 f i atlsd:Allocate.obj
 0002:000e5060       ?InternalSetAtIndex@?$CSimpleArray@UCModuleInfo@CTraceSnapshot@@V?$CSimpleArrayEqualHelper@UCModuleInfo@CTraceSnapshot@@@ATL@@@ATL@@QAEXHABUCModuleInfo@CTraceSnapshot@@@Z 0055c060 f i atlsd:Allocate.obj
 0002:000e50c0       ?InternalSetAtIndex@?$CSimpleArray@KV?$CSimpleArrayEqualHelper@K@ATL@@@ATL@@QAEXHABK@Z 0055c0c0 f i atlsd:Allocate.obj
 0002:000e5120       ??0Wrapper@?$CSimpleArray@UCModuleInfo@CTraceSnapshot@@V?$CSimpleArrayEqualHelper@UCModuleInfo@CTraceSnapshot@@@ATL@@@ATL@@QAE@ABUCModuleInfo@CTraceSnapshot@@@Z 0055c120 f i atlsd:Allocate.obj
 0002:000e5160       ??0Wrapper@?$CSimpleArray@KV?$CSimpleArrayEqualHelper@K@ATL@@@ATL@@QAE@ABK@Z 0055c160 f i atlsd:Allocate.obj
 0002:000e5190       ??$?2UCModuleInfo@CTraceSnapshot@@@Wrapper@?$CSimpleArray@UCModuleInfo@CTraceSnapshot@@V?$CSimpleArrayEqualHelper@UCModuleInfo@CTraceSnapshot@@@ATL@@@ATL@@SAPAXIPAUCModuleInfo@CTraceSnapshot@@@Z 0055c190 f i atlsd:Allocate.obj
 0002:000e51a0       ??$?2K@Wrapper@?$CSimpleArray@KV?$CSimpleArrayEqualHelper@K@ATL@@@ATL@@SAPAXIPAK@Z 0055c1a0 f i atlsd:Allocate.obj
 0002:000e51b0       ??0CAtlTraceModuleInfo@@QAE@XZ 0055c1b0 f   atlsd:AtlTraceModuleManager.obj
 0002:000e5210       ?Reset@CAtlTraceModuleInfo@@QAEXPAUHINSTANCE__@@@Z 0055c210 f   atlsd:AtlTraceModuleManager.obj
 0002:000e53a0       ??0CAtlTraceCategory@@QAE@XZ 0055c3a0 f   atlsd:AtlTraceModuleManager.obj
 0002:000e53f0       ??0CAtlTraceSettings@@QAE@XZ 0055c3f0 f i atlsd:AtlTraceModuleManager.obj
 0002:000e5440       ?Reset@CAtlTraceCategory@@QAEXPB_WJ@Z 0055c440 f   atlsd:AtlTraceModuleManager.obj
 0002:000e54a0       ??0CAtlTraceModule@@QAE@XZ 0055c4a0 f   atlsd:AtlTraceModuleManager.obj
 0002:000e54e0       ?CrtDbgReport@CAtlTraceModule@@QAEXP6AHHPBDH00ZZ@Z 0055c4e0 f   atlsd:AtlTraceModuleManager.obj
 0002:000e5520       ??0CAtlTraceProcess@@QAE@K@Z 0055c520 f   atlsd:AtlTraceModuleManager.obj
 0002:000e5630       ?GetNextCookie@CAtlTraceProcess@@QAEJXZ 0055c630 f   atlsd:AtlTraceModuleManager.obj
 0002:000e5654       _SysFreeString@4           0055c654 f   oleaut32:OLEAUT32.dll
 0002:000e5660       _WinMain@16                0055c660 f   mfcs100d:appmodul.obj
 0002:000e5690       ?AfxInitialize@@YGHHK@Z    0055c690 f   mfcs100d:appmodul.obj
 0002:000e56fc       __mktime64                 0055c6fc f   msvcrtd:MSVCR100D.dll
 0002:000e5702       __gmtime64_s               0055c702 f   msvcrtd:MSVCR100D.dll
 0002:000e5708       __localtime64_s            0055c708 f   msvcrtd:MSVCR100D.dll
 0002:000e5710       __aullshr                  0055c710 f   msvcrtd:ullshr.obj
 0002:000e5740       __allshl                   0055c740 f   msvcrtd:llshl.obj
 0002:000e5766       __snprintf_s               0055c766 f   msvcrtd:MSVCR100D.dll
 0002:000e576c       __errno                    0055c76c f   msvcrtd:MSVCR100D.dll
 0002:000e5772       _wcscpy                    0055c772 f   msvcrtd:MSVCR100D.dll
 0002:000e5778       __vsnprintf_s              0055c778 f   msvcrtd:MSVCR100D.dll
 0002:000e577e       __vsnwprintf_s             0055c77e f   msvcrtd:MSVCR100D.dll
 0002:000e5784       __snwprintf_s              0055c784 f   msvcrtd:MSVCR100D.dll
 0002:000e578a       _wcscpy_s                  0055c78a f   msvcrtd:MSVCR100D.dll
 0002:000e5790       _wcsncpy_s                 0055c790 f   msvcrtd:MSVCR100D.dll
 0002:000e5796       __recalloc                 0055c796 f   msvcrtd:MSVCR100D.dll
 0002:000e579c       __wcsicmp                  0055c79c f   msvcrtd:MSVCR100D.dll
 0002:000e57a2       _wcslen                    0055c7a2 f   msvcrtd:MSVCR100D.dll
 0002:000e57a8       __setmbcp                  0055c7a8 f   msvcrtd:MSVCR100D.dll
 0002:000e57ae       _MulDiv@12                 0055c7ae f   kernel32:KERNEL32.dll
 0002:000e57b4       _FileTimeToSystemTime@8    0055c7b4 f   kernel32:KERNEL32.dll
 0002:000e57ba       _FileTimeToLocalFileTime@8 0055c7ba f   kernel32:KERNEL32.dll
 0002:000e57c0       _LocalFileTimeToFileTime@8 0055c7c0 f   kernel32:KERNEL32.dll
 0002:000e57c6       _SetEvent@4                0055c7c6 f   kernel32:KERNEL32.dll
 0002:000e57cc       _OpenEventA@12             0055c7cc f   kernel32:KERNEL32.dll
 0002:000e57d2       _OutputDebugStringW@4      0055c7d2 f   kernel32:KERNEL32.dll
 0002:000e57d8       _VirtualAlloc@16           0055c7d8 f   kernel32:KERNEL32.dll
 0002:000e57de       _GetSystemInfo@4           0055c7de f   kernel32:KERNEL32.dll
 0002:000e57e4       _OpenFileMappingA@12       0055c7e4 f   kernel32:KERNEL32.dll
 0002:000e57ea       _CopyRect@8                0055c7ea f   user32:USER32.dll
 0002:000e57f0       _IsRectEmpty@4             0055c7f0 f   user32:USER32.dll
 0002:000e57f6       _PtInRect@12               0055c7f6 f   user32:USER32.dll
 0002:000e57fc       _SetRect@20                0055c7fc f   user32:USER32.dll
 0002:000e5802       _SetRectEmpty@4            0055c802 f   user32:USER32.dll
 0002:000e5808       _EqualRect@8               0055c808 f   user32:USER32.dll
 0002:000e580e       _InflateRect@12            0055c80e f   user32:USER32.dll
 0002:000e5814       _OffsetRect@12             0055c814 f   user32:USER32.dll
 0002:000e581a       _IntersectRect@12          0055c81a f   user32:USER32.dll
 0002:000e5820       _UnionRect@12              0055c820 f   user32:USER32.dll
 0002:000e5826       _SubtractRect@12           0055c826 f   user32:USER32.dll
 0002:000e582c       _SetThreadToken@8          0055c82c f   advapi32:ADVAPI32.dll
 0002:000e5832       _RevertToSelf@0            0055c832 f   advapi32:ADVAPI32.dll
 0002:000e5838       _OpenThreadToken@16        0055c838 f   advapi32:ADVAPI32.dll
 0002:000e583e       ?AfxWinMain@@YGHPAUHINSTANCE__@@0PADH@Z 0055c83e f   mfc100d:mfc100d.dll
 0002:000e5844       ?AfxGetModuleState@@YGPAVAFX_MODULE_STATE@@XZ 0055c844 f   mfc100d:mfc100d.dll
 0002:000f3040       ??__Fstd_err@?1??instance@CQAFDebug@@KAAAV1@XZ@YAXXZ 0056a040 f i QAFDebug.obj
 0003:00000000       ___xc_a                    0056c000     msvcrtd:cinitexe.obj
 0003:000005f0       ___xc_z                    0056c5f0     msvcrtd:cinitexe.obj
 0003:000006f4       ___xi_a                    0056c6f4     msvcrtd:cinitexe.obj
 0003:00000b04       ___xi_z                    0056cb04     msvcrtd:cinitexe.obj
 0003:00000c2c       ??_C@_13COJANIEC@?$AA0?$AA?$AA@ 0056cc2c     Cuid.obj
 0003:00000c30       ??_C@_1CI@FJFNJJCM@?$AAc?$AA?3?$AA?2?$AAf?$AAr?$AAe?$AAe?$AAa?$AAs?$AAy?$AA?2?$AAc?$AAu?$AAi?$AAd?$AA?4?$AAc?$AAp?$AAp?$AA?$AA@ 0056cc30     Cuid.obj
 0003:00000c60       __real@4000000000000000    0056cc60     DesignRules.obj
 0003:00000c70       __real@413360f000000000    0056cc70     DesignRules.obj
 0003:00000c7c       ??_C@_0BL@GIJDDICD@c?3?2freeasy?2designrules?4cpp?$AA@ 0056cc7c     DesignRules.obj
 0003:00000ca0       ??_C@_0FB@LMHGDHBC@c?3?2program?5files?5?$CIx86?$CJ?2microsoft@ 0056cca0     DesignRules.obj
 0003:00000d08       __real@0000000000000000    0056cd08     DisplayList.obj
 0003:00000d18       __real@4093d80000000000    0056cd18     DisplayList.obj
 0003:00000d24       ??_C@_0BL@FFPGPFMI@c?3?2freeasy?2displaylist?4cpp?$AA@ 0056cd24     DisplayList.obj
 0003:00000d44       ??_C@_1DG@GAFLMLHH@?$AAc?$AA?3?$AA?2?$AAf?$AAr?$AAe?$AAe?$AAa?$AAs?$AAy?$AA?2?$AAd?$AAi?$AAs?$AAp?$AAl?$AAa?$AAy?$AAl?$AAi?$AAs?$AAt?$AA?4?$AAc?$AAp?$AAp?$AA?$AA@ 0056cd44     DisplayList.obj
 0003:00000d88       __real@403e000000000000    0056cd88     DisplayList.obj
 0003:00000d98       __real@4024000000000000    0056cd98     DisplayList.obj
 0003:00000da8       __real@402e000000000000    0056cda8     DisplayList.obj
 0003:00000db8       __real@4010000000000000    0056cdb8     DisplayList.obj
 0003:00000dc8       __real@4014000000000000    0056cdc8     DisplayList.obj
 0003:00000dd8       __real@3fe0000000000000    0056cdd8     DisplayList.obj
 0003:00000de4       ??_C@_1DM@MMGFGJEG@?$AAm?$AA_?$AAd?$AAr?$AAa?$AAg?$AA_?$AAs?$AAt?$AAy?$AAl?$AAe?$AA1?$AA?5?$AA?$DN?$AA?$DN?$AA?5?$AAD?$AAS?$AAS?$AA_?$AAS?$AAT?$AAR?$AAA?$AAI?$AAG?$AAH?$AAT?$AA?$AA@ 0056cde4     DisplayList.obj
 0003:00000e2c       ??_C@_1DM@FJBFLNND@?$AAm?$AA_?$AAd?$AAr?$AAa?$AAg?$AA_?$AAs?$AAt?$AAy?$AAl?$AAe?$AA0?$AA?5?$AA?$DN?$AA?$DN?$AA?5?$AAD?$AAS?$AAS?$AA_?$AAS?$AAT?$AAR?$AAA?$AAI?$AAG?$AAH?$AAT?$AA?$AA@ 0056ce2c     DisplayList.obj
 0003:00000e74       __real@c2b40000            0056ce74     DisplayList.obj
 0003:00000e7c       ??_7?$CArray@VCPoint@@ABV1@@@6B@ 0056ce7c     DisplayList.obj
 0003:00000e94       ??_C@_01EEMJAFIK@?6?$AA@   0056ce94     DisplayList.obj
 0003:00000e98       ??_C@_05PLCFPPOI@with?5?$AA@ 0056ce98     DisplayList.obj
 0003:00000ea0       ??_C@_09HCLNAIDE@?5elements?$AA@ 0056cea0     DisplayList.obj
 0003:00000eac       ??_C@_0BC@KHHBAGNL@CDlgAddMaskCutout?$AA@ 0056ceac     DlgAddMaskCutout.obj
 0003:00000ec4       ?classCDlgAddMaskCutout@CDlgAddMaskCutout@@2UCRuntimeClass@@B 0056cec4     DlgAddMaskCutout.obj
 0003:00000f14       ??_7CDlgAddMaskCutout@@6B@ 0056cf14     DlgAddMaskCutout.obj
 0003:000010f8       ??_C@_1EA@LLONHAJO@?$AAc?$AA?3?$AA?2?$AAf?$AAr?$AAe?$AAe?$AAa?$AAs?$AAy?$AA?2?$AAd?$AAl?$AAg?$AAa?$AAd?$AAd?$AAm?$AAa?$AAs?$AAk?$AAc?$AAu?$AAt?$AAo?$AAu?$AAt?$AA?4?$AAc?$AAp?$AAp?$AA?$AA@ 0056d0f8     DlgAddMaskCutout.obj
 0003:00001144       ??_C@_0N@DONNMJEN@CDlgAddMerge?$AA@ 0056d144     DlgAddMerge.obj
 0003:00001154       ?classCDlgAddMerge@CDlgAddMerge@@2UCRuntimeClass@@B 0056d154     DlgAddMerge.obj
 0003:0000119e       ??_C@_00CNPNBAHC@?$AA@     0056d19e     DlgAddMerge.obj
 0003:000011a4       ??_7CDlgAddMerge@@6B@      0056d1a4     DlgAddMerge.obj
 0003:00001384       ??_C@_08ELFMLPKD@Units?5NM?$AA@ 0056d384     DlgAddMerge.obj
 0003:00001390       ??_C@_09GOEKJNG@Units?5MIL?$AA@ 0056d390     DlgAddMerge.obj
 0003:0000139c       ??_C@_08EJBKABPK@Units?5MM?$AA@ 0056d39c     DlgAddMerge.obj
 0003:000013a8       ??_C@_03MDAFIFFL@0?40?$AA@ 0056d3a8     DlgAddMerge.obj
 0003:000013ac       ??_C@_04OHJIHAFH@None?$AA@ 0056d3ac     DlgAddMerge.obj
 0003:000013b4       ??_C@_08PJDIHONO@Merge?9?$CFs?$AA@ 0056d3b4     DlgAddMerge.obj
 0003:000013c0       ??_C@_07GGADEGEP@Merge?91?$AA@ 0056d3c0     DlgAddMerge.obj
 0003:000013cc       ??_C@_05LGDANENA@Empty?$AA@ 0056d3cc     DlgAddMerge.obj
 0003:000013d4       ??_C@_03JEECBGEF@MIL?$AA@  0056d3d4     DlgAddMerge.obj
 0003:000013d8       ??_C@_02DNCLAJDG@MM?$AA@   0056d3d8     DlgAddMerge.obj
 0003:000013e0       ??_C@_0EA@ELJPDJIE@Illegal?5merge?5name?4?5The?5name?5can@ 0056d3e0     DlgAddMerge.obj
 0003:0000142c       ??_C@_01CLKCMJKC@?5?$AA@   0056d42c     DlgAddMerge.obj
 0003:00001430       ??_C@_0EC@GCOJNCKG@Illegal?5merge?5name?4?5The?5name?5can@ 0056d430     DlgAddMerge.obj
 0003:00001480       ??_C@_01BJJEKLCA@?$CC?$AA@ 0056d480     DlgAddMerge.obj
 0003:00001484       ??_C@_0M@LLFCABMC@CDlgAddPoly?$AA@ 0056d484     DlgAddPoly.obj
 0003:00001494       ?classCDlgAddPoly@CDlgAddPoly@@2UCRuntimeClass@@B 0056d494     DlgAddPoly.obj
 0003:00001504       ??_7CDlgAddPoly@@6B@       0056d504     DlgAddPoly.obj
 0003:000016e4       ??_C@_0CD@GIIDCIJF@Width?5out?5of?5range?5?$CI1?5to?5999?5mil@ 0056d6e4     DlgAddPoly.obj
 0003:00001710       __real@412e848000000000    0056d710     DlgAddPoly.obj
 0003:00001720       __real@40d8ce0000000000    0056d720     DlgAddPoly.obj
 0003:0000172c       ??_C@_0M@IPOODCIH@CDlgAddText?$AA@ 0056d72c     DlgAddText.obj
 0003:0000173c       ?classCDlgAddText@CDlgAddText@@2UCRuntimeClass@@B 0056d73c     DlgAddText.obj
 0003:00001874       ??_7CDlgAddText@@6B@       0056d874     DlgAddText.obj
 0003:00001a54       ??_C@_0BM@EDNKKDNO@Text?5string?5can?8t?5contain?5?$CC?$AA@ 0056da54     DlgAddText.obj
 0003:00001a78       ??_C@_0BE@CKHKHGKB@Invalid?5text?5string?$AA@ 0056da78     DlgAddText.obj
 0003:00001a90       ??_C@_0N@IHNMGOJG@CDlgAddWidth?$AA@ 0056da90     DlgAddWidth.obj
 0003:00001aa0       ?classCDlgAddWidth@CDlgAddWidth@@2UCRuntimeClass@@B 0056daa0     DlgAddWidth.obj
 0003:00001af4       ??_7CDlgAddWidth@@6B@      0056daf4     DlgAddWidth.obj
 0003:00001cd4       ??_C@_07LFEDEKKL@CDlgCAD?$AA@ 0056dcd4     DlgCAD.obj
 0003:00001ce0       ?classCDlgCAD@CDlgCAD@@2UCRuntimeClass@@B 0056dce0     DlgCAD.obj
 0003:00001e54       ??_7CDlgCAD@@6B@           0056de54     DlgCAD.obj
 0003:00002034       ??_C@_04PMOCAHAA@open?$AA@ 0056e034     DlgCAD.obj
 0003:0000203c       ??_C@_0BA@DPBMCCAI@?2RENDER_ALL?4png?$AA@ 0056e03c     DlgCAD.obj
 0003:00002050       ??_C@_0DL@PKBLBIPK@?$CK?$CK?$CK?$CK?$CK?$CK?$CK?$CK?$CK?$CK?$CK?$CK?$CK?$CK?$CK?$CK?$CK?$CK?$CK?$CK?$CK?$CK?$CK?$CK?$CK?5DONE?5?$CK@ 0056e050     DlgCAD.obj
 0003:00002098       ??_C@_05FJMIFMML@Run?3?5?$AA@ 0056e098     DlgCAD.obj
 0003:000020a0       ??_C@_02PCIJFNDE@?$AN?6?$AA@ 0056e0a0     DlgCAD.obj
 0003:000020a4       ??_C@_0DL@OJNIJGPO@?$CK?$CK?$CK?$CK?$CK?$CK?$CK?$CK?$CK?$CK?$CK?$CK?$CK?$CK?$CK?$CK?$CK?$CK?5RENDERING?5?4PN@ 0056e0a4     DlgCAD.obj
 0003:000020ec       ??_C@_0DP@MPONDOJH@?2GerberRender?4exe?5?9r?5200?5?9a?50?404@ 0056e0ec     DlgCAD.obj
 0003:00002138       ??_C@_0DL@LNBDDELK@?$CK?$CK?$CK?$CK?$CK?$CK?$CK?$CK?$CK?$CK?$CK?$CK?5ALL?5GERBERS?5CREATED@ 0056e138     DlgCAD.obj
 0003:00002180       ??_C@_0DL@FJPIMHHJ@?$CK?$CK?$CK?$CK?$CK?$CK?5ERRORS?5OCCURRED?5DURING?5CR@ 0056e180     DlgCAD.obj
 0003:000021c8       ??_C@_05MJMNOEPO@M02?$CK?6?$AA@ 0056e1c8     DlgCAD.obj
 0003:000021d0       ??_C@_08MCNGNGCP@G04?5?$CFs?$CK?6?$AA@ 0056e1d0     DlgCAD.obj
 0003:000021dc       ??_C@_0BP@KEKOFMID@G04?5WebSite?3?5www?4freepcb?4dev?$CK?6?$AA@ 0056e1dc     DlgCAD.obj
 0003:00002204       ??_C@_0BN@MDICEDEB@G04?5Version?3?5Freeasy?91?4000?$CK?6?$AA@ 0056e204     DlgCAD.obj
 0003:00002228       ??_C@_0BO@FOKPNAJA@G04?5Freeasy?5MFC?5Application?$CK?6?$AA@ 0056e228     DlgCAD.obj
 0003:0000224c       ??_C@_0BF@HIGIJKHM@Writing?5file?3?5?$CC?$CFs?$CC?$AN?6?$AA@ 0056e24c     DlgCAD.obj
 0003:00002268       ??_C@_0CC@JLJFFLOC@ERROR?3?5Unable?5to?5open?5file?5?$CC?$CFs?$CC?$AN@ 0056e268     DlgCAD.obj
 0003:00002290       ??_C@_0P@JIGOABEA@RENDER_ALL?4gbr?$AA@ 0056e290     DlgCAD.obj
 0003:000022a4       ??_C@_0BC@LNLIGLJF@ADDITIONAL_14?4gbr?$AA@ 0056e2a4     DlgCAD.obj
 0003:000022bc       ??_C@_0BC@KALNFLCN@ADDITIONAL_13?4gbr?$AA@ 0056e2bc     DlgCAD.obj
 0003:000022d4       ??_C@_0BC@GLOBIIII@ADDITIONAL_12?4gbr?$AA@ 0056e2d4     DlgCAD.obj
 0003:000022ec       ??_C@_0BC@ONHFPKCG@ADDITIONAL_11?4gbr?$AA@ 0056e2ec     DlgCAD.obj
 0003:00002304       ??_C@_0BC@CGCJCJID@ADDITIONAL_10?4gbr?$AA@ 0056e304     DlgCAD.obj
 0003:0000231c       ??_C@_0BB@NHIEFDKD@ADDITIONAL_9?4gbr?$AA@ 0056e31c     DlgCAD.obj
 0003:00002330       ??_C@_0BB@BMNIIAAG@ADDITIONAL_8?4gbr?$AA@ 0056e330     DlgCAD.obj
 0003:00002344       ??_C@_0BB@ONIODCND@ADDITIONAL_7?4gbr?$AA@ 0056e344     DlgCAD.obj
 0003:00002358       ??_C@_0BB@CGNCOBHG@ADDITIONAL_6?4gbr?$AA@ 0056e358     DlgCAD.obj
 0003:0000236c       ??_C@_0BB@KAEGJDNI@ADDITIONAL_5?4gbr?$AA@ 0056e36c     DlgCAD.obj
 0003:00002380       ??_C@_0BB@GLBKEAHN@ADDITIONAL_4?4gbr?$AA@ 0056e380     DlgCAD.obj
 0003:00002394       ??_C@_0BB@HGBPHAMF@ADDITIONAL_3?4gbr?$AA@ 0056e394     DlgCAD.obj
 0003:000023a8       ??_C@_0BB@LNEDKDGA@ADDITIONAL_2?4gbr?$AA@ 0056e3a8     DlgCAD.obj
 0003:000023bc       ??_C@_0BB@DLNHNBMO@ADDITIONAL_1?4gbr?$AA@ 0056e3bc     DlgCAD.obj
 0003:000023d0       ??_C@_0BA@JPCMEAGG@DESCRIPTION?4gbr?$AA@ 0056e3d0     DlgCAD.obj
 0003:000023e4       ??_C@_09LPIGKGEK@VALUE?4gbr?$AA@ 0056e3e4     DlgCAD.obj
 0003:000023f0       ??_C@_0O@FJEBNAJI@FOOTPRINT?4gbr?$AA@ 0056e3f0     DlgCAD.obj
 0003:00002400       ??_C@_0N@JICMFIIA@NET_NAME?4gbr?$AA@ 0056e400     DlgCAD.obj
 0003:00002410       ??_C@_0P@LIALKDDF@CONNECTION?4gbr?$AA@ 0056e410     DlgCAD.obj
 0003:00002424       ??_C@_0N@JPJOCDCE@PIN_NAME?4gbr?$AA@ 0056e424     DlgCAD.obj
 0003:00002434       ??_C@_0N@FDGFAKIK@PIN_LINE?4gbr?$AA@ 0056e434     DlgCAD.obj
 0003:00002444       ??_C@_0M@HCJOAHJL@REF_DES?4gbr?$AA@ 0056e444     DlgCAD.obj
 0003:00002454       ??_C@_0BB@PKDNPPNP@PART_OUTLINE?4gbr?$AA@ 0056e454     DlgCAD.obj
 0003:00002468       ??_C@_0O@HCKGPGAG@FREE_LINE?4gbr?$AA@ 0056e468     DlgCAD.obj
 0003:00002478       ??_C@_01KICIPPFI@?2?$AA@   0056e478     DlgCAD.obj
 0003:0000247c       ??_C@_04GNFFGBEG@?4drl?$AA@ 0056e47c     DlgCAD.obj
 0003:00002484       ??_C@_04EEOGCCFB@?4png?$AA@ 0056e484     DlgCAD.obj
 0003:0000248c       ??_C@_04LHIHFCAH@?4gbr?$AA@ 0056e48c     DlgCAD.obj
 0003:00002494       ??_C@_02KHDDNBB@?2?$CK?$AA@ 0056e494     DlgCAD.obj
 0003:00002498       ??_C@_0EH@HAEFBFGK@Unable?5to?5create?5folder?5?$CC?$CFs?$CC?4?5Tr@ 0056e498     DlgCAD.obj
 0003:000024f0       ??_C@_0BI@BNIHJHFH@?$CFs?2cookies?2print_layers?$AA@ 0056e4f0     DlgCAD.obj
 0003:0000250c       ??_C@_01ODHLEDKK@?$CI?$AA@ 0056e50c     DlgCAD.obj
 0003:00002510       ??_C@_0BA@MEGKEBLG@?$CFs?2?$CFs?$CI?$CFd?9?$CFd?9?$CFd?$CJ?$AA@ 0056e510     DlgCAD.obj
 0003:00002524       ??_C@_0N@LHLKAIHL@?$CFs?2View2?$CI?$CFs?$CJ?$AA@ 0056e524     DlgCAD.obj
 0003:00002534       ??_C@_0N@DBCOHKNF@?$CFs?2View1?$CI?$CFs?$CJ?$AA@ 0056e534     DlgCAD.obj
 0003:00002544       ??_C@_0N@OINJIBLD@?$CFs?2Print?$CI?$CFs?$CJ?$AA@ 0056e544     DlgCAD.obj
 0003:00002554       ??_C@_0L@GIKPDBCF@?$CFs?2CAM?$CI?$CFs?$CJ?$AA@ 0056e554     DlgCAD.obj
 0003:00002564       ??_C@_0O@GBCKEAFH@Select?5Folder?$AA@ 0056e564     DlgCAD.obj
 0003:00002574       ??_C@_0BG@CLFOKELM@Set?5CAM?5output?5folder?$AA@ 0056e574     DlgCAD.obj
 0003:00002590       ??_C@_0BA@BMPJKOBI@CDlgChangeLayer?$AA@ 0056e590     DlgChangeLayer.obj
 0003:000025a4       ?classCDlgChangeLayer@CDlgChangeLayer@@2UCRuntimeClass@@B 0056e5a4     DlgChangeLayer.obj
 0003:000025f4       ??_7CDlgChangeLayer@@6B@   0056e5f4     DlgChangeLayer.obj
 0003:000027d4       ??_C@_0BC@BDEDDGEG@CDlgChooseNetName?$AA@ 0056e7d4     DlgChooseNetName.obj
 0003:000027ec       ?classCDlgChooseNetName@CDlgChooseNetName@@2UCRuntimeClass@@B 0056e7ec     DlgChooseNetName.obj
 0003:0000283c       ??_7CDlgChooseNetName@@6B@ 0056e83c     DlgChooseNetName.obj
 0003:00002a1c       ??_C@_06CGOJDMOF@DlgDRC?$AA@ 0056ea1c     DlgDRC.obj
 0003:00002a24       ?classDlgDRC@DlgDRC@@2UCRuntimeClass@@B 0056ea24     DlgDRC.obj
 0003:00002aec       ??_7DlgDRC@@6B@            0056eaec     DlgDRC.obj
 0003:00002ccc       ??_C@_0BF@FOAHHNBB@CDlgDupFootprintName?$AA@ 0056eccc     DlgDupFootprintName.obj
 0003:00002ce8       ?classCDlgDupFootprintName@CDlgDupFootprintName@@2UCRuntimeClass@@B 0056ece8     DlgDupFootprintName.obj
 0003:00002d94       ??_7CDlgDupFootprintName@@6B@ 0056ed94     DlgDupFootprintName.obj
 0003:00002f74       ??_C@_0CF@MCAODJCD@New?5footprint?5name?5is?5already?5in@ 0056ef74     DlgDupFootprintName.obj
 0003:00002fa0       ??_C@_0CE@KOLKAIDB@You?5must?5enter?5a?5new?5footprint?5n@ 0056efa0     DlgDupFootprintName.obj
 0003:00002fcc       ??_C@_0BD@MBGLLCNE@DlgEditBoardCorner?$AA@ 0056efcc     DlgEditBoardCorner.obj
 0003:00002fe4       ?classDlgEditBoardCorner@DlgEditBoardCorner@@2UCRuntimeClass@@B 0056efe4     DlgEditBoardCorner.obj
 0003:00003054       ??_7DlgEditBoardCorner@@6B@ 0056f054     DlgEditBoardCorner.obj
 0003:00003234       ??_C@_0O@CLFOLICH@CDlgExportDsn?$AA@ 0056f234     DlgExportDsn.obj
 0003:00003244       ?classCDlgExportDsn@CDlgExportDsn@@2UCRuntimeClass@@B 0056f244     DlgExportDsn.obj
 0003:00003324       ??_7CDlgExportDsn@@6B@     0056f324     DlgExportDsn.obj
 0003:00003504       ??_C@_02DPKJAMEF@?$CFd?$AA@ 0056f504     DlgExportDsn.obj
 0003:00003508       ??_C@_0N@CHDDDHOJ@CDlgFindPart?$AA@ 0056f508     DlgFindPart.obj
 0003:00003518       ?classCDlgFindPart@CDlgFindPart@@2UCRuntimeClass@@B 0056f518     DlgFindPart.obj
 0003:0000356c       ??_7CDlgFindPart@@6B@      0056f56c     DlgFindPart.obj
 0003:0000374c       ??_C@_08FIFIFIIM@CDlgHole?$AA@ 0056f74c     DlgHole.obj
 0003:00003758       ?classCDlgHole@CDlgHole@@2UCRuntimeClass@@B 0056f758     DlgHole.obj
 0003:0000383c       ??_7CDlgHole@@6B@          0056f83c     DlgHole.obj
 0003:00003a1c       ??_C@_0BC@ICACCMBB@CDlgImportOptions?$AA@ 0056fa1c     DlgImportOptions.obj
 0003:00003a34       ?classCDlgImportOptions@CDlgImportOptions@@2UCRuntimeClass@@B 0056fa34     DlgImportOptions.obj
 0003:00003abc       ??_7CDlgImportOptions@@6B@ 0056fabc     DlgImportOptions.obj
 0003:00003c9c       ??_C@_0O@PNDMIDGP@CDlgImportSes?$AA@ 0056fc9c     DlgImportSes.obj
 0003:00003cac       ?classCDlgImportSes@CDlgImportSes@@2UCRuntimeClass@@B 0056fcac     DlgImportSes.obj
 0003:00003d34       ??_7CDlgImportSes@@6B@     0056fd34     DlgImportSes.obj
 0003:00003f14       ??_C@_04HEKILFAL@?4ses?$AA@ 0056ff14     DlgImportSes.obj
 0003:00003f1c       ??_C@_0M@OODPBGFC@_routed?4fpc?$AA@ 0056ff1c     DlgImportSes.obj
 0003:00003f2c       ??_C@_03ONDPAMGP@ses?$AA@  0056ff2c     DlgImportSes.obj
 0003:00003f30       ??_C@_0N@NNLFCKGG@CDlgIndexing?$AA@ 0056ff30     DlgIndexing.obj
 0003:00003f40       ?classCDlgIndexing@CDlgIndexing@@2UCRuntimeClass@@B 0056ff40     DlgIndexing.obj
 0003:00003f94       ??_7CDlgIndexing@@6B@      0056ff94     DlgIndexing.obj
 0003:00004174       ??_C@_0L@MHKEJNED@CDlgLayers?$AA@ 00570174     DlgLayers.obj
 0003:00004184       ?classCDlgLayers@CDlgLayers@@2UCRuntimeClass@@B 00570184     DlgLayers.obj
 0003:0000456c       ??_7CDlgLayers@@6B@        0057056c     DlgLayers.obj
 0003:00004754       ??_7CCommonDialog@@6B@     00570754     DlgLayers.obj
 0003:00004934       ??_C@_07GBFKEGHG@CDlgLog?$AA@ 00570934     DlgLog.obj
 0003:00004940       ?classCDlgLog@CDlgLog@@2UCRuntimeClass@@B 00570940     DlgLog.obj
 0003:000049ec       ??_7CDlgLog@@6B@           005709ec     DlgLog.obj
 0003:00004bcc       ??_C@_0P@DPLMKJBL@CDlgMoveOrigin?$AA@ 00570bcc     DlgMoveOrigin.obj
 0003:00004be0       ?classCDlgMoveOrigin@CDlgMoveOrigin@@2UCRuntimeClass@@B 00570be0     DlgMoveOrigin.obj
 0003:00004c8c       ??_7CDlgMoveOrigin@@6B@    00570c8c     DlgMoveOrigin.obj
 0003:00004e6c       ??_C@_0BB@FCGLJEHF@CDlgMyMessageBox?$AA@ 00570e6c     DlgMyMessageBox.obj
 0003:00004e80       ?classCDlgMyMessageBox@CDlgMyMessageBox@@2UCRuntimeClass@@B 00570e80     DlgMyMessageBox.obj
 0003:00004eec       ??_7CDlgMyMessageBox@@6B@  00570eec     DlgMyMessageBox.obj
 0003:000050cc       ??_C@_0BC@MNENLKFG@CDlgMyMessageBox2?$AA@ 005710cc     DlgMyMessageBox2.obj
 0003:000050e4       ?classCDlgMyMessageBox2@CDlgMyMessageBox2@@2UCRuntimeClass@@B 005710e4     DlgMyMessageBox2.obj
 0003:00005154       ??_7CDlgMyMessageBox2@@6B@ 00571154     DlgMyMessageBox2.obj
 0003:00005334       ??_C@_0BD@LNPBMPBJ@CDlgProjectOptions?$AA@ 00571334     DlgProjectOptions.obj
 0003:0000534c       ?classCDlgProjectOptions@CDlgProjectOptions@@2UCRuntimeClass@@B 0057134c     DlgProjectOptions.obj
 0003:000054dc       ??_7CDlgProjectOptions@@6B@ 005714dc     DlgProjectOptions.obj
 0003:000056bc       ??_C@_02JAOCGLHE@mm?$AA@   005716bc     DlgProjectOptions.obj
 0003:000056c0       ??_C@_0BM@HFEHFNEO@Please?5enter?5library?5folder?$AA@ 005716c0     DlgProjectOptions.obj
 0003:000056e4       ??_C@_0BM@JJJIOJBL@Please?5enter?5project?5folder?$AA@ 005716e4     DlgProjectOptions.obj
 0003:00005708       ??_C@_0BO@EDGNJEK@Please?5enter?5name?5for?5project?$AA@ 00571708     DlgProjectOptions.obj
 0003:0000572c       ??_C@_0L@DHDDJIDP@fp_lib?2lib?$AA@ 0057172c     DlgProjectOptions.obj
 0003:00005740       ??_C@_1EC@EABMACAB@?$AAc?$AA?3?$AA?2?$AAf?$AAr?$AAe?$AAe?$AAa?$AAs?$AAy?$AA?2?$AAd?$AAl?$AAg?$AAp?$AAr?$AAo?$AAj?$AAe?$AAc?$AAt?$AAo?$AAp?$AAt?$AAi?$AAo?$AAn?$AAs?$AA?4?$AAc?$AAp?$AAp@ 00571740     DlgProjectOptions.obj
 0003:00005790       ??_C@_01HIHLOKLC@1?$AA@    00571790     DlgProjectOptions.obj
 0003:00005794       ??_C@_0P@ICBHMAND@Via?5hole?5width?$AA@ 00571794     DlgProjectOptions.obj
 0003:000057a8       ??_C@_0O@KDFAJHIF@Via?5pad?5width?$AA@ 005717a8     DlgProjectOptions.obj
 0003:000057b8       ??_C@_0M@NJPJJPIP@Trace?5width?$AA@ 005717b8     DlgProjectOptions.obj
 0003:000057c8       ??_C@_0GH@ECHMCLAN@Illegal?5values?5?$CIAfter?5the?5number@ 005717c8     DlgProjectOptions.obj
 0003:00005844       ??_C@_07DLHCIBDH@default?$AA@ 00571844     DlgProjectOptions.obj
 0003:00005850       __real@3f50624dd2f1a9fc    00571850     DlgProjectOptions.obj
 0003:00005860       __real@40a3d80000000000    00571860     DlgProjectOptions.obj
 0003:0000586c       ??_C@_0BF@LPKJCMHB@Illegal?5trace?5width?4?$AA@ 0057186c     DlgProjectOptions.obj
 0003:00005888       ??_C@_0BG@KHLKLJCP@no?5menu?5item?5selected?$AA@ 00571888     DlgProjectOptions.obj
 0003:000058a4       ??_C@_01GBGANLPD@0?$AA@    005718a4     DlgProjectOptions.obj
 0003:000058a8       ??_C@_0P@IAANDAHI@Library?5Folder?$AA@ 005718a8     DlgProjectOptions.obj
 0003:000058bc       ??_C@_0BO@GKKHCOCJ@Select?5default?5library?5folder?$AA@ 005718bc     DlgProjectOptions.obj
 0003:000058e0       ??_C@_0P@GMNCIECN@Project?5Folder?$AA@ 005718e0     DlgProjectOptions.obj
 0003:000058f4       ??_C@_0BG@EEGBEHGB@Select?5project?5folder?$AA@ 005718f4     DlgProjectOptions.obj
 0003:00005910       ??_C@_0BD@KKBGMADI@CDlgReassignLayers?$AA@ 00571910     DlgReassignLayers.obj
 0003:00005928       ?classCDlgReassignLayers@CDlgReassignLayers@@2UCRuntimeClass@@B 00571928     DlgReassignLayers.obj
 0003:0000597c       ??_7CDlgReassignLayers@@6B@ 0057197c     DlgReassignLayers.obj
 0003:00005b5c       ??_C@_06FOBLBEIN@delete?$AA@ 00571b5c     DlgReassignLayers.obj
 0003:00005b64       ??_C@_0L@EGDICMBE@CDlgReport?$AA@ 00571b64     DlgReport.obj
 0003:00005b74       ?classCDlgReport@CDlgReport@@2UCRuntimeClass@@B 00571b74     DlgReport.obj
 0003:00005bfc       ??_7CDlgReport@@6B@        00571bfc     DlgReport.obj
 0003:00005ddc       ??_C@_01JLIPDDHJ@?3?$AA@   00571ddc     DlgReport.obj
 0003:00005de0       ??_C@_0BF@HCDPKGIN@?$DN?$DN?$DN?$DN?$DN?$DN?$DN?$DN?$DN?$DN?$DN?$DN?$DN?$DN?$DN?$DN?$DN?$DN?$DN?6?$AA@ 00571de0     DlgReport.obj
 0003:00005dfc       ??_C@_0BG@JOHJHIMM@?6Connectivity?5errors?6?$AA@ 00571dfc     DlgReport.obj
 0003:00005e18       ??_C@_0BH@BJGDPMLN@routed?5connection?5from?$AA@ 00571e18     DlgReport.obj
 0003:00005e34       ??_C@_0N@PNAFHMCO@?6DRC?5errors?6?$AA@ 00571e34     DlgReport.obj
 0003:00005e44       ??_C@_0CP@GGNNHMMM@Minimum?5copper?5area?5to?5copper?5ar@ 00571e44     DlgReport.obj
 0003:00005e7c       ??_C@_0CH@CKPJHELF@Minimum?5board?5edge?5to?5hole?5clear@ 00571e7c     DlgReport.obj
 0003:00005eac       ??_C@_0CJ@ENMKIKLM@Minimum?5board?5edge?5to?5copper?5cle@ 00571eac     DlgReport.obj
 0003:00005ee0       ??_C@_0BO@MODNAPBL@Minimum?5annular?5ring?5?$CIvias?$CJ?3?5?$AA@ 00571ee0     DlgReport.obj
 0003:00005f04       ??_C@_0BO@PJAELEEJ@Minimum?5annular?5ring?5?$CIpins?$CJ?3?5?$AA@ 00571f04     DlgReport.obj
 0003:00005f28       ??_C@_0CB@EJKFGGK@Minimum?5hole?5to?5hole?5clearance?3?5@ 00571f28     DlgReport.obj
 0003:00005f50       ??_C@_0CD@JOAKDMOL@Minimum?5hole?5to?5copper?5clearance@ 00571f50     DlgReport.obj
 0003:00005f7c       ??_C@_0CD@OOABKODA@Minimum?5trace?5to?5trace?5clearance@ 00571f7c     DlgReport.obj
 0003:00005fa8       ??_C@_0CB@CMOGICAN@Minimum?5pad?5to?5trace?5clearance?3?5@ 00571fa8     DlgReport.obj
 0003:00005fd0       ??_C@_0CO@KEIFMLOM@Minimum?5pad?5to?5pad?5clearance?$CIbet@ 00571fd0     DlgReport.obj
 0003:00006008       ??_C@_0BG@IKCHFPOK@Minimum?5trace?5width?3?5?$AA@ 00572008     DlgReport.obj
 0003:00006024       ??_C@_0O@LLACHEDF@?$DN?$DN?$DN?$DN?$DN?$DN?$DN?$DN?$DN?$DN?$DN?$DN?6?$AA@ 00572024     DlgReport.obj
 0003:00006034       ??_C@_0P@IHGGGGKM@?6DRC?5settings?6?$AA@ 00572034     DlgReport.obj
 0003:00006048       ??_C@_0BG@EILANLKE@?$DN?$DN?$DN?$DN?$DN?$DN?$DN?$DN?$DN?$DN?$DN?$DN?$DN?$DN?$DN?$DN?$DN?$DN?$DN?$DN?6?$AA@ 00572048     DlgReport.obj
 0003:00006064       ??_C@_0BH@EHNDGFEP@?6Gerber?5file?5settings?6?$AA@ 00572064     DlgReport.obj
 0003:00006080       ??_C@_0P@NAICGEFI@?$CF5d?5?5?5?$CFs?5?$CI?$CFs?$CJ?6?$AA@ 00572080     DlgReport.obj
 0003:00006094       ??_C@_09LHGCAGOA@?$CF5d?5?5?5?$CFs?6?$AA@ 00572094     DlgReport.obj
 0003:000060a0       ??_C@_0BC@GPIOKBNI@?9?9?9?9?9?9?5?5?9?9?9?9?9?9?9?9?6?$AA@ 005720a0     DlgReport.obj
 0003:000060b8       ??_C@_0BC@HMEFPPFL@NUMBER?5?5DIAMETER?6?$AA@ 005720b8     DlgReport.obj
 0003:000060d0       ??_C@_0M@ENBFHCCD@?$DN?$DN?$DN?$DN?$DN?$DN?$DN?$DN?$DN?$DN?6?$AA@ 005720d0     DlgReport.obj
 0003:000060e0       ??_C@_0N@LLCKJEON@?6Drill?5list?6?$AA@ 005720e0     DlgReport.obj
 0003:000060f0       ??_C@_0BF@ILNJEOOM@Number?5of?5holes?3?5?$CFd?6?$AA@ 005720f0     DlgReport.obj
 0003:0000610c       ??_C@_0BE@ONKKBONL@Number?5of?5vias?3?5?$CFd?6?$AA@ 0057210c     DlgReport.obj
 0003:00006124       ??_C@_0CO@IBCKNJFD@Number?5of?5pins?3?5?$CFd?5?$CI?$CFd?5through?9h@ 00572124     DlgReport.obj
 0003:0000615c       ??_C@_0BF@FFDGPDIH@Number?5of?5parts?3?5?$CFd?6?$AA@ 0057215c     DlgReport.obj
 0003:00006178       ??_C@_0CP@NGABAIMC@Number?5of?5parts?3?5?$CFd?5?$CIwithout?5foo@ 00572178     DlgReport.obj
 0003:000061b0       ??_C@_0BJ@KLKMPAIB@Default?5library?5folder?3?5?$AA@ 005721b0     DlgReport.obj
 0003:000061d0       ??_C@_0P@CCOHGPJC@Project?5file?3?5?$AA@ 005721d0     DlgReport.obj
 0003:000061e4       ??_C@_0P@MADLIKCI@Project?5name?3?5?$AA@ 005721e4     DlgReport.obj
 0003:000061f8       ??_C@_0CO@EHDLHOBC@?$DN?$DN?$DN?$DN?$DN?$DN?$DN?$DN?$DN?$DN?$DN?$DN?$DN?$DN?$DN?$DN?$DN?$DN?$DN?$DN?$DN?$DN?$DN?$DN?$DN?$DN?$DN?$DN?$DN?$DN?$DN?$DN@ 005721f8     DlgReport.obj
 0003:00006230       ??_C@_0CJ@GOPAAOEA@FreePCB?5project?5report?5?$CIdefault?5@ 00572230     DlgReport.obj
 0003:00006264       ??_C@_02MNMNLDAI@?$CJ?6?$AA@ 00572264     DlgReport.obj
 0003:00006268       ??_C@_0BH@LNGEDDIN@Unable?5to?5open?5file?5?$CC?5?$AA@ 00572268     DlgReport.obj
 0003:00006284       ??_C@_0L@JMMJLGLG@report?4txt?$AA@ 00572284     DlgReport.obj
 0003:00006298       ??_7?$CMap@HHHH@@6B@       00572298     DlgReport.obj
 0003:000062b0       ??_C@_04OAFLPOMH@?$FN?5?$DN?5?$AA@ 005722b0     DlgReport.obj
 0003:000062b8       ??_C@_03OHJIHPJH@?6?7?$FL?$AA@ 005722b8     DlgReport.obj
 0003:000062bc       ??_C@_0M@ONFBIFPE@CDlgSaveLib?$AA@ 005722bc     DlgSaveLib.obj
 0003:000062cc       ?classCDlgSaveLib@CDlgSaveLib@@2UCRuntimeClass@@B 005722cc     DlgSaveLib.obj
 0003:000063ac       ??_7CDlgSaveLib@@6B@       005723ac     DlgSaveLib.obj
 0003:0000658c       ??_C@_0BK@KNHABLDE@c?3?2freeasy?2dlgsavelib?4cpp?$AA@ 0057258c     DlgSaveLib.obj
 0003:000065b0       ??_7?$CArray@V?$CStringT@DV?$StrTraitMFC_DLL@DV?$ChTraitsCRT@D@ATL@@@@@ATL@@ABV12@@@6B@ 005725b0     DlgSaveLib.obj
 0003:000065c8       ??_C@_0BB@DIEEDJNF@CDlgSetAreaHatch?$AA@ 005725c8     DlgSetAreaHatch.obj
 0003:000065dc       ?classCDlgSetAreaHatch@CDlgSetAreaHatch@@2UCRuntimeClass@@B 005725dc     DlgSetAreaHatch.obj
 0003:0000662c       ??_7CDlgSetAreaHatch@@6B@  0057262c     DlgSetAreaHatch.obj
 0003:0000680c       ??_C@_0BD@BHPNFEGH@DlgSetSegmentWidth?$AA@ 0057280c     DlgSetSegmentWidth.obj
 0003:00006824       ?classDlgSetSegmentWidth@DlgSetSegmentWidth@@2UCRuntimeClass@@B 00572824     DlgSetSegmentWidth.obj
 0003:000069b4       ??_7DlgSetSegmentWidth@@6B@ 005729b4     DlgSetSegmentWidth.obj
 0003:00006b94       ??_C@_0BD@GFPNNHFP@illegal?5hole?5width?$AA@ 00572b94     DlgSetSegmentWidth.obj
 0003:00006bac       ??_C@_0BC@PEMMALA@illegal?5via?5width?$AA@ 00572bac     DlgSetSegmentWidth.obj
 0003:00006bc4       ??_C@_0BE@LPGHDKPH@illegal?5trace?5width?$AA@ 00572bc4     DlgSetSegmentWidth.obj
 0003:00006bdc       ??_C@_0BD@OMFNOBDG@CDlgSetTraceWidths?$AA@ 00572bdc     DlgSetTraceWidths.obj
 0003:00006bf4       ?classCDlgSetTraceWidths@CDlgSetTraceWidths@@2UCRuntimeClass@@B 00572bf4     DlgSetTraceWidths.obj
 0003:00006d64       ??_7CDlgSetTraceWidths@@6B@ 00572d64     DlgSetTraceWidths.obj
 0003:00006f44       ??_C@_0O@LIJBJIKC@CDlgShortcuts?$AA@ 00572f44     DlgShortcuts.obj
 0003:00006f54       ?classCDlgShortcuts@CDlgShortcuts@@2UCRuntimeClass@@B 00572f54     DlgShortcuts.obj
 0003:00006fa4       ??_7CDlgShortcuts@@6B@     00572fa4     DlgShortcuts.obj
 0003:00007184       ??_C@_0O@NMOLLEEM@CDlgSideStyle?$AA@ 00573184     DlgSideStyle.obj
 0003:00007194       ?classCDlgSideStyle@CDlgSideStyle@@2UCRuntimeClass@@B 00573194     DlgSideStyle.obj
 0003:000071e4       ??_7CDlgSideStyle@@6B@     005731e4     DlgSideStyle.obj
 0003:000073c4       ??_C@_08MFOGJMDN@CDlgAttr?$AA@ 005733c4     DlgAttr.obj
 0003:000073d0       ?classCDlgAttr@CDlgAttr@@2UCRuntimeClass@@B 005733d0     DlgAttr.obj
 0003:0000743c       ??_7CDlgAttr@@6B@          0057343c     DlgAttr.obj
 0003:0000761c       ??_C@_01LIIJDEN@?$AN?$AA@  0057361c     DlgAttr.obj
 0003:00007620       ??_C@_01DNKMNLPK@?$HM?$AA@ 00573620     DlgAttr.obj
 0003:00007624       ??_C@_04HGGBINEM@?$CFs?$CFd?$AA@ 00573624     DlgAttr.obj
 0003:00007630       ??_C@_0GE@HGHHIBDK@A?5part?5with?5the?5same?5name?5alread@ 00573630     DlgAttr.obj
 0003:000076a8       ??_C@_0II@GHIBDFB@Group?5editing?5of?5parts?5is?5not?5po@ 005736a8     DlgAttr.obj
 0003:0000774c       ??_C@_08KIGEOBLF@Multiple?$AA@ 0057374c     DlgAttr.obj
 0003:00007758       ??_C@_0BH@FDMCPDKE@Illegal?5footprint?5name?$AA@ 00573758     DlgAttr.obj
 0003:00007774       ??_C@_0BK@EPKHHHLA@Illegal?5value?5text?5height?$AA@ 00573774     DlgAttr.obj
 0003:00007794       ??_C@_0BO@GABHOPGN@Illegal?5footprint?5text?5height?$AA@ 00573794     DlgAttr.obj
 0003:000077b8       ??_C@_0BI@IAANGHNG@Illegal?5net?5text?5height?$AA@ 005737b8     DlgAttr.obj
 0003:000077d4       ??_C@_0CA@CNKHNJPM@Illegal?5description?5text?5height?$AA@ 005737d4     DlgAttr.obj
 0003:000077fc       ??_C@_0BI@LHNIOAPA@Illegal?5pin?5text?5height?$AA@ 005737fc     DlgAttr.obj
 0003:00007818       ??_C@_0BI@EGNEHCEB@Illegal?5ref?5text?5height?$AA@ 00573818     DlgAttr.obj
 0003:00007838       __real@415312d000000000    00573838     DlgAttr.obj
 0003:00007844       __real@49742400            00573844     DlgAttr.obj
 0003:00007848       __real@46c67000            00573848     DlgAttr.obj
 0003:00007850       ??_C@_0IJ@PEAPDFDE@Group?5editing?5of?5parts?5is?5not?5po@ 00573850     DlgAttr.obj
 0003:000078f4       ??_C@_05GDJIKCCN@?$CF6?42f?$AA@ 005738f4     DlgAttr.obj
 0003:000078fc       __real@358637bd            005738fc     DlgAttr.obj
 0003:00007900       __real@3825214d            00573900     DlgAttr.obj
 0003:00007904       ??_C@_0CF@FAMJCBNH@Warning?3?5error?5of?5ParseKeyString@ 00573904     file_io.obj
 0003:00007930       ??_C@_04MOKNAJPP@?5?0?6?7?$AA@ 00573930     file_io.obj
 0003:00007938       ??_C@_05JELBNFFE@?5?3?0?6?7?$AA@ 00573938     file_io.obj
 0003:00007940       ??_C@_0CF@BGFFMOCN@Unable?5to?5convert?5string?5?$CC?$CFs?$CC?5to@ 00573940     file_io.obj
 0003:0000796c       ??_C@_0BH@MADJOIDH@c?3?2freeasy?2file_io?4cpp?$AA@ 0057396c     file_io.obj
 0003:00007988       ??_C@_03JJLJNLDJ@mil?$AA@  00573988     file_io.obj
 0003:00007990       __real@c1cdcd64ff800000    00573990     file_io.obj
 0003:000079a0       __real@41cdcd64ff800000    005739a0     file_io.obj
 0003:000079ac       ??_C@_0CI@CBGOIDOF@Unable?5to?5convert?5string?5?$CC?$CFs?$CC?5to@ 005739ac     file_io.obj
 0003:000079dc       ??_C@_0M@NGADHLNA@CFreePcbDoc?$AA@ 005739dc     FreePcbDoc.obj
 0003:000079ec       ?classCFreePcbDoc@CFreePcbDoc@@2UCRuntimeClass@@B 005739ec     FreePcbDoc.obj
 0003:00007f80       __real@40004395810624dd    00573f80     FreePcbDoc.obj
 0003:00007f8c       ??_C@_1DE@EBAKANIG@?$AAc?$AA?3?$AA?2?$AAf?$AAr?$AAe?$AAe?$AAa?$AAs?$AAy?$AA?2?$AAf?$AAr?$AAe?$AAe?$AAp?$AAc?$AAb?$AAd?$AAo?$AAc?$AA?4?$AAc?$AAp?$AAp?$AA?$AA@ 00573f8c     FreePcbDoc.obj
 0003:00007fd4       ??_7CFreePcbDoc@@6B@       00573fd4     FreePcbDoc.obj
 0003:00008124       ??_C@_07NFFOPFGM@?4?4?2lib?2?$AA@ 00574124     FreePcbDoc.obj
 0003:00008130       ??_C@_0N@BGOJBGKE@?4?4?2projects?2?$AA@ 00574130     FreePcbDoc.obj
 0003:00008140       ??_C@_0BA@DEBNDJNH@no?5project?5open?$AA@ 00574140     FreePcbDoc.obj
 0003:00008154       ??_C@_0L@CAJHGEGB@FreeSCH?5?9?5?$AA@ 00574154     FreePcbDoc.obj
 0003:00008164       ??_C@_0BN@PFFOHNOK@Unable?5to?5create?5folder?5?$CC?$CFs?$CC?$AA@ 00574164     FreePcbDoc.obj
 0003:00008188       ??_C@_0CH@IOFJJIGB@Folder?5?$CC?$CFs?$CC?5doesn?8t?5exist?0?5creat@ 00574188     FreePcbDoc.obj
 0003:000081b8       ??_C@_04KAGKHFD@?4frs?$AA@ 005741b8     FreePcbDoc.obj
 0003:000081c0       ??_C@_0CG@KCMHIKDD@FreePcb?5file?5dialog?5is?5not?5conne@ 005741c0     FreePcbDoc.obj
 0003:000081f0       ??_C@_0MC@PNLEEHJ@Unable?5to?5open?5global?5configurat@ 005741f0     FreePcbDoc.obj
 0003:000082d8       ??_C@_0BM@JNMANDHG@?2VCL_Dialog?2file_dialog?4pth?$AA@ 005742d8     FreePcbDoc.obj
 0003:000082fc       ??_C@_07IHALICFI@Infobox?$AA@ 005742fc     FreePcbDoc.obj
 0003:00008308       ??_C@_0CF@GGOPCPKL@FreePcb?5file?5dialog?5already?5runn@ 00574308     FreePcbDoc.obj
 0003:00008334       ??_C@_0BE@KIBOHJIF@FreePcb?5file?5dialog?$AA@ 00574334     FreePcbDoc.obj
 0003:0000834c       ??_C@_0BM@NJICKMBH@?2VCL_Dialog?2VCL_Dialogs?4exe?$AA@ 0057434c     FreePcbDoc.obj
 0003:00008370       ??_C@_07NFOHKBLP@net_exp?$AA@ 00574370     FreePcbDoc.obj
 0003:0000837c       ??_C@_03NBFOK@net?$AA@     0057437c     FreePcbDoc.obj
 0003:00008380       ??_C@_07LJHOCIPC@frs_exp?$AA@ 00574380     FreePcbDoc.obj
 0003:0000838c       ??_C@_07OJEFPGNB@frs_imp?$AA@ 0057438c     FreePcbDoc.obj
 0003:00008398       ??_C@_03JDJBBODH@frs?$AA@  00574398     FreePcbDoc.obj
 0003:0000839c       ??_C@_08NCJIEHD@Complete?$AA@ 0057439c     FreePcbDoc.obj
 0003:000083a8       ??_C@_0P@GAKOCDB@Reading?5merges?$AA@ 005743a8     FreePcbDoc.obj
 0003:000083bc       ??_C@_0BB@KKFLKIDG@Reading?5graphics?$AA@ 005743bc     FreePcbDoc.obj
 0003:000083d0       ??_C@_0BA@DACDBJMC@Reading?5options?$AA@ 005743d0     FreePcbDoc.obj
 0003:000083e4       ??_C@_0BH@CJLNCLJP@Unable?5to?5open?5file?5?$CFs?$AA@ 005743e4     FreePcbDoc.obj
 0003:00008400       ??_C@_0BK@DIMCENCJ@FreeSCH?5?9?5no?5project?5open?$AA@ 00574400     FreePcbDoc.obj
 0003:00008420       ??_C@_0BN@ENLDEPKK@Project?5modified?0?5save?5it?5?$DP?5?$AA@ 00574420     FreePcbDoc.obj
 0003:00008444       ??_C@_0CO@KGDBLBPE@Unable?5to?5save?5file?4?5Remove?5writ@ 00574444     FreePcbDoc.obj
 0003:00008480       ??_C@_0MH@OJFHOKJO@This?5project?5file?5was?5created?5in@ 00574480     FreePcbDoc.obj
 0003:00008570       ??_C@_07KFGPDCNJ@?2?$CFd?4frs?$AA@ 00574570     FreePcbDoc.obj
 0003:0000857c       ??_C@_08DFGGPOII@?20?$CFd?4frs?$AA@ 0057457c     FreePcbDoc.obj
 0003:00008588       ??_C@_07IIAJGN@?2?$DP?$DP?4frs?$AA@ 00574588     FreePcbDoc.obj
 0003:00008594       ??_C@_0CE@LDHCIOKG@Unable?5to?5open?5autosave?5folder?5?$CC@ 00574594     FreePcbDoc.obj
 0003:000085c0       ??_C@_0CG@HMBBENF@Unable?5to?5create?5autosave?5folder@ 005745c0     FreePcbDoc.obj
 0003:000085f0       ??_C@_09GJPLBDB@?2Autosave?$AA@ 005745f0     FreePcbDoc.obj
 0003:000085fc       ??_C@_04JJJKKMIO@?4net?$AA@ 005745fc     FreePcbDoc.obj
 0003:00008604       ??_C@_06BHLFPPDE@?$FLend?$FN?6?$AA@ 00574604     FreePcbDoc.obj
 0003:0000860c       ??_C@_02GFKGEECC@?4b?$AA@  0057460c     FreePcbDoc.obj
 0003:00008610       ??_C@_08LFGKKCMD@?2cookies?$AA@ 00574610     FreePcbDoc.obj
 0003:0000861c       ??_C@_05OCJEJOIA@?$FLend?$FN?$AA@ 0057461c     FreePcbDoc.obj
 0003:00008624       ??_C@_05DPKBJALF@merge?$AA@ 00574624     FreePcbDoc.obj
 0003:0000862c       ??_C@_0CF@LLPICMJM@Unable?5to?5find?5?$FLend?$FN?5section?5in?5@ 0057462c     FreePcbDoc.obj
 0003:00008658       ??_C@_08EDDDBHGE@?$FLmerges?$FN?$AA@ 00574658     FreePcbDoc.obj
 0003:00008668       ??_C@_0EC@GDDAEPBK@This?5project?5file?5was?5created?5in@ 00574668     FreePcbDoc.obj
 0003:000086b8       ??_C@_0BJ@EGBKFBMP@File?5error?3?5?$CFd?5?$CFld?5?$CI?$CFs?$CJ?6?$AA@ 005746b8     FreePcbDoc.obj
 0003:000086d8       ??_C@_0BA@MOIJPNKF@File?5error?3?5?$CFd?6?$AA@ 005746d8     FreePcbDoc.obj
 0003:000086ec       ??_C@_0P@DHHLCMKA@?5?5merge?3?5?$CC?$CFs?$CC?6?$AA@ 005746ec     FreePcbDoc.obj
 0003:00008700       ??_C@_0L@HFDKAFAL@?$FLmerges?$FN?6?6?$AA@ 00574700     FreePcbDoc.obj
 0003:00008710       ??_C@_0BB@MDFJAPAA@File?5save?5failed?$AA@ 00574710     FreePcbDoc.obj
 0003:00008724       ??_C@_06EBHLOGGE@?$CFs?4frs?$AA@ 00574724     FreePcbDoc.obj
 0003:0000872c       ??_C@_0CC@GHJHFHIJ@CFreePcbDoc?3?3WriteOutlinesPoly?$CI?$CJ@ 0057472c     FreePcbDoc.obj
 0003:00008754       ??_C@_09PJHHCGLJ@end_part?6?$AA@ 00574754     FreePcbDoc.obj
 0003:00008760       ??_C@_0CO@KFMHJAEB@net_name?3?5?$CC?$CFs?$CC?5?$CFd?5?$CFd?5?$CFd?5?$CFd?5?$CFd?5?$CFd@ 00574760     FreePcbDoc.obj
 0003:00008798       ??_C@_0DB@GFLMJMGM@description?3?5?$CC?$CFs?$CC?5?$CFd?5?$CFd?5?$CFd?5?$CFd?5?$CFd@ 00574798     FreePcbDoc.obj
 0003:000087d4       ??_C@_0CO@EJKNHMGG@pin_name?3?5?$CC?$CFs?$CC?5?$CFd?5?$CFd?5?$CFd?5?$CFd?5?$CFd?5?$CFd@ 005747d4     FreePcbDoc.obj
 0003:0000880c       ??_C@_0BN@NAKHKDIF@polyline?3?5?$CFd?5?$CFd?5?$CFd?5?$CFd?5?$CFd?5?$CFd?6?$AA@ 0057480c     FreePcbDoc.obj
 0003:00008830       ??_C@_0BK@HLNMBKLF@?5?5corner?3?5?$CFd?5?$CFd?5?$CFd?5?$CFd?5?$CFd?6?$AA@ 00574830     FreePcbDoc.obj
 0003:00008850       ??_C@_0BJ@KICDHPFP@line?3?5?$CFd?5?$CFd?5?$CFd?5?$CFd?5?$CFd?5?$CFd?6?$AA@ 00574850     FreePcbDoc.obj
 0003:00008870       ??_C@_0DA@OPDLEICC@part_value?3?5?$CC?$CFs?$CC?5?$CFd?5?$CFd?5?$CFd?5?$CFd?5?$CFd?5@ 00574870     FreePcbDoc.obj
 0003:000088ac       ??_C@_0DE@MJLEHELJ@footprint_name?3?5?$CC?$CFs?$CC?5?$CFd?5?$CFd?5?$CFd?5?$CFd@ 005748ac     FreePcbDoc.obj
 0003:000088ec       ??_C@_0CN@EKIGLNPC@ref_des?3?5?$CC?$CFs?$CC?5?$CFd?5?$CFd?5?$CFd?5?$CFd?5?$CFd?5?$CFd?5@ 005748ec     FreePcbDoc.obj
 0003:00008924       ??_C@_0N@MJOHBMHB@?$FLgraphics?$FN?6?6?$AA@ 00574924     FreePcbDoc.obj
 0003:00008934       ??_C@_0BN@BKHDGJMF@CFreePcbDoc?3?3ReadGraphics?$CI?$CJ?6?$AA@ 00574934     FreePcbDoc.obj
 0003:00008958       ??_C@_02DPGNLHGP@NM?$AA@   00574958     FreePcbDoc.obj
 0003:0000895c       ??_C@_05CCBEFJDC@units?$AA@ 0057495c     FreePcbDoc.obj
 0003:00008964       ??_C@_0P@BHPACGAB@close_polyline?$AA@ 00574964     FreePcbDoc.obj
 0003:00008978       ??_C@_0M@OIBPMAPE@next_corner?$AA@ 00574978     FreePcbDoc.obj
 0003:00008988       ??_C@_0BB@PEKFHNBF@outline_polyline?$AA@ 00574988     FreePcbDoc.obj
 0003:0000899c       ??_C@_0BA@JPJMCKHC@outline_polygon?$AA@ 0057499c     FreePcbDoc.obj
 0003:000089b0       ??_C@_08COCMDPIC@end_part?$AA@ 005749b0     FreePcbDoc.obj
 0003:000089bc       ??_C@_0N@COINJMCJ@description?3?$AA@ 005749bc     FreePcbDoc.obj
 0003:000089cc       ??_C@_0BA@DNKDCKLP@footprint_name?3?$AA@ 005749cc     FreePcbDoc.obj
 0003:000089e0       ??_C@_0M@MFEJPDDE@part_value?3?$AA@ 005749e0     FreePcbDoc.obj
 0003:000089f0       ??_C@_09MHNKJCO@net_name?3?$AA@ 005749f0     FreePcbDoc.obj
 0003:000089fc       ??_C@_09DOFFMGIC@pin_name?3?$AA@ 005749fc     FreePcbDoc.obj
 0003:00008a08       ??_C@_08FJECLDOM@ref_des?3?$AA@ 00574a08     FreePcbDoc.obj
 0003:00008a14       ??_C@_05HKGIJGOH@name?3?$AA@ 00574a14     FreePcbDoc.obj
 0003:00008a1c       ??_C@_06CKJBOKFG@corner?$AA@ 00574a1c     FreePcbDoc.obj
 0003:00008a24       ??_C@_0DB@DMNLDGOC@error?5parsing?5?$FLgraphics?$FN?5section@ 00574a24     FreePcbDoc.obj
 0003:00008a60       ??_C@_08MAIKLLAG@polyline?$AA@ 00574a60     FreePcbDoc.obj
 0003:00008a6c       ??_C@_04HJPCFDOP@line?$AA@ 00574a6c     FreePcbDoc.obj
 0003:00008a74       ??_C@_01OHGJGJJP@?$FL?$AA@ 00574a74     FreePcbDoc.obj
 0003:00008a78       ??_C@_0BP@NCAAIDEN@unexpected?5EOF?5in?5project?5file?$AA@ 00574a78     FreePcbDoc.obj
 0003:00008aa0       ??_C@_0N@PEIJFCGK@?$FLfootprints?$FN?$AA@ 00574aa0     FreePcbDoc.obj
 0003:00008ab0       ??_C@_0L@NCBEKFNB@?$FLgraphics?$FN?$AA@ 00574ab0     FreePcbDoc.obj
 0003:00008ac0       ??_C@_0CK@BLNIFLAJ@Unable?5to?5find?5?$FLgraphics?$FN?5sectio@ 00574ac0     FreePcbDoc.obj
 0003:00008af4       ??_C@_0BN@KJIHECLG@CFreePcbDoc?3?3WriteOptions?$CI?$CJ?6?$AA@ 00574af4     FreePcbDoc.obj
 0003:00008b18       ??_C@_0L@FDFDNACF@layer_info?$AA@ 00574b18     FreePcbDoc.obj
 0003:00008b28       ??_C@_0BH@NOHKOING@default_via_hole_width?$AA@ 00574b28     FreePcbDoc.obj
 0003:00008b44       ??_C@_0BG@JNEGIJOI@default_via_pad_width?$AA@ 00574b44     FreePcbDoc.obj
 0003:00008b60       ??_C@_0BH@CHFDECLH@default_polyline_width?$AA@ 00574b60     FreePcbDoc.obj
 0003:00008b7c       ??_C@_0BC@OKFJGFAC@drc_copper_copper?$AA@ 00574b7c     FreePcbDoc.obj
 0003:00008b94       ??_C@_0O@KEKPMIMF@drc_hole_hole?$AA@ 00574b94     FreePcbDoc.obj
 0003:00008ba4       ??_C@_0BE@OECHOMCB@drc_board_edge_hole?$AA@ 00574ba4     FreePcbDoc.obj
 0003:00008bbc       ??_C@_0BG@LGOGMEPM@drc_board_edge_copper?$AA@ 00574bbc     FreePcbDoc.obj
 0003:00008bd8       ??_C@_0BG@FBICDALC@drc_annular_ring_vias?$AA@ 00574bd8     FreePcbDoc.obj
 0003:00008bf4       ??_C@_0BG@NFJOICCP@drc_annular_ring_pins?$AA@ 00574bf4     FreePcbDoc.obj
 0003:00008c10       ??_C@_0BA@LAPHFGEN@drc_hole_copper?$AA@ 00574c10     FreePcbDoc.obj
 0003:00008c24       ??_C@_0BA@NLNHGELD@drc_trace_trace?$AA@ 00574c24     FreePcbDoc.obj
 0003:00008c38       ??_C@_0O@CLFKHJDK@drc_pad_trace?$AA@ 00574c38     FreePcbDoc.obj
 0003:00008c48       ??_C@_0M@BFAHNILO@drc_pad_pad?$AA@ 00574c48     FreePcbDoc.obj
 0003:00008c58       ??_C@_0BA@NBGKILAE@drc_trace_width?$AA@ 00574c58     FreePcbDoc.obj
 0003:00008c6c       ??_C@_0BD@PBLMOPFK@drc_check_unrouted?$AA@ 00574c6c     FreePcbDoc.obj
 0003:00008c84       ??_C@_0P@FOJBKKHG@report_options?$AA@ 00574c84     FreePcbDoc.obj
 0003:00008c98       ??_C@_09JPOHJGEH@cam_units?$AA@ 00574c98     FreePcbDoc.obj
 0003:00008ca4       ??_C@_0L@GGKCLPBH@cam_layers?$AA@ 00574ca4     FreePcbDoc.obj
 0003:00008cb4       ??_C@_09LLLBIANE@cam_flags?$AA@ 00574cb4     FreePcbDoc.obj
 0003:00008cc0       ??_C@_0BA@DHOBACLD@highlight_width?$AA@ 00574cc0     FreePcbDoc.obj
 0003:00008cd4       ??_C@_0BG@PMEJHNHG@min_text_stroke_width?$AA@ 00574cd4     FreePcbDoc.obj
 0003:00008cf0       ??_C@_0M@JJBGGPDJ@text_height?$AA@ 00574cf0     FreePcbDoc.obj
 0003:00008d00       ??_C@_0P@LPAFOKGL@polyline_width?$AA@ 00574d00     FreePcbDoc.obj
 0003:00008d14       ??_C@_0BA@JFBHLDLM@m_seg_clearance?$AA@ 00574d14     FreePcbDoc.obj
 0003:00008d28       ??_C@_0L@BEFPKEME@snap_angle?$AA@ 00574d28     FreePcbDoc.obj
 0003:00008d38       ??_C@_0P@MOFEDNNL@text_grid_item?$AA@ 00574d38     FreePcbDoc.obj
 0003:00008d4c       ??_C@_0BC@JEHMFBAI@text_grid_spacing?$AA@ 00574d4c     FreePcbDoc.obj
 0003:00008d64       ??_C@_0BE@BPNJKHFP@placement_grid_item?$AA@ 00574d64     FreePcbDoc.obj
 0003:00008d7c       ??_C@_0BG@CBCOELGC@polyline_grid_spacing?$AA@ 00574d7c     FreePcbDoc.obj
 0003:00008d98       ??_C@_0BC@GDNHCHNI@visible_grid_item?$AA@ 00574d98     FreePcbDoc.obj
 0003:00008db0       ??_C@_0BF@FCKGMHLN@visible_grid_spacing?$AA@ 00574db0     FreePcbDoc.obj
 0003:00008dcc       ??_C@_0L@JFEKMCGK@m_sel_mask?$AA@ 00574dcc     FreePcbDoc.obj
 0003:00008ddc       ??_C@_0BB@NIGCGKII@m_visible_layers?$AA@ 00574ddc     FreePcbDoc.obj
 0003:00008df0       ??_C@_0M@ECGCHCLI@m_top_layer?$AA@ 00574df0     FreePcbDoc.obj
 0003:00008e00       ??_C@_0N@MDIAGLAO@m_grid_style?$AA@ 00574e00     FreePcbDoc.obj
 0003:00008e10       ??_C@_0BA@HGOGIGBE@m_system_colors?$AA@ 00574e10     FreePcbDoc.obj
 0003:00008e24       ??_C@_0P@DAIBJKLG@m_scale_factor?$AA@ 00574e24     FreePcbDoc.obj
 0003:00008e38       ??_C@_0M@FNHODELL@m_attr_size?$AA@ 00574e38     FreePcbDoc.obj
 0003:00008e48       ??_C@_07EBPCGGAK@m_org_y?$AA@ 00574e48     FreePcbDoc.obj
 0003:00008e54       ??_C@_07FIOJFHEL@m_org_x?$AA@ 00574e54     FreePcbDoc.obj
 0003:00008e60       ??_C@_0BF@KAECOLLM@m_client_rect_bottom?$AA@ 00574e60     FreePcbDoc.obj
 0003:00008e7c       ??_C@_0BE@JDKEHMB@m_client_rect_right?$AA@ 00574e7c     FreePcbDoc.obj
 0003:00008e94       ??_C@_0BD@KJNAPOBI@m_client_rect_left?$AA@ 00574e94     FreePcbDoc.obj
 0003:00008eac       ??_C@_0BC@LPJKLBLI@m_client_rect_top?$AA@ 00574eac     FreePcbDoc.obj
 0003:00008ec4       ??_C@_0BC@JPNCICMC@netlist_completed?$AA@ 00574ec4     FreePcbDoc.obj
 0003:00008edc       ??_C@_0BO@BFLBHLGE@auto_ratline_disable_min_pins?$AA@ 00574edc     FreePcbDoc.obj
 0003:00008f00       ??_C@_0BF@OIDBLMCB@auto_ratline_disable?$AA@ 00574f00     FreePcbDoc.obj
 0003:00008f1c       ??_C@_0BC@MCKCGFAG@autosave_interval?$AA@ 00574f1c     FreePcbDoc.obj
 0003:00008f34       ??_C@_0BA@JCLPLCFA@n_copper_layers?$AA@ 00574f34     FreePcbDoc.obj
 0003:00008f48       ??_C@_0BD@OGEBDBHN@default_node_width?$AA@ 00574f48     FreePcbDoc.obj
 0003:00008f60       ??_C@_0M@OFKHCBOJ@part_search?$AA@ 00574f60     FreePcbDoc.obj
 0003:00008f70       ??_C@_0BC@PNFMPOM@netlist_file_path?$AA@ 00574f70     FreePcbDoc.obj
 0003:00008f88       ??_C@_0L@KDCGHEKO@CAM_folder?$AA@ 00574f88     FreePcbDoc.obj
 0003:00008f98       ??_C@_0BE@NMBMEMDD@full_library_folder?$AA@ 00574f98     FreePcbDoc.obj
 0003:00008fb0       ??_C@_0P@LCAFLEEG@library_folder?$AA@ 00574fb0     FreePcbDoc.obj
 0003:00008fc4       ??_C@_0O@LKIMHIDA@parent_folder?$AA@ 00574fc4     FreePcbDoc.obj
 0003:00008fd4       ??_C@_0CP@BPFFIDMH@Reading?5project?5file?5failed?3?5Can@ 00574fd4     FreePcbDoc.obj
 0003:00009010       ??_C@_0EI@OJEJJFHN@?6?6Errors?5may?5occur?6?6Click?5on?5OK?5@ 00575010     FreePcbDoc.obj
 0003:00009068       ??_C@_0FF@HCJOBJGJ@Warning?3?5the?5file?5version?5is?5?$CF5?4@ 00575068     FreePcbDoc.obj
 0003:000090d0       ??_C@_0N@JOHPBADG@file_version?$AA@ 005750d0     FreePcbDoc.obj
 0003:000090e0       ??_C@_07CPCPJPKL@version?$AA@ 005750e0     FreePcbDoc.obj
 0003:000090ec       ??_C@_0N@NHJFJPKH@project_name?$AA@ 005750ec     FreePcbDoc.obj
 0003:000090fc       ??_C@_09NMOOAKMF@?$FLoptions?$FN?$AA@ 005750fc     FreePcbDoc.obj
 0003:00009108       ??_C@_0CJ@IOIGKAAF@Unable?5to?5find?5?$FLoptions?$FN?5section@ 00575108     FreePcbDoc.obj
 0003:00009140       __real@3ff3333333333333    00575140     FreePcbDoc.obj
 0003:0000914c       ??_C@_0CC@CCFIBKLK@CFreePcbDoc?3?3WriteBoardOutline?$CI?$CJ@ 0057514c     FreePcbDoc.obj
 0003:00009174       ??_C@_0CD@DAGLIIAM@?5?5layer_info?3?5?$CC?$CFs?$CC?5?$CFd?5?$CFd?5?$CFd?5?$CFd?5?$CF@ 00575174     FreePcbDoc.obj
 0003:000091a0       ??_C@_0BJ@EAHKHJPF@n_additional_layers?3?5?$CFd?6?$AA@ 005751a0     FreePcbDoc.obj
 0003:000091c0       ??_C@_0BI@EKMHNDHA@default_via_hole_width?3?$AA@ 005751c0     FreePcbDoc.obj
 0003:000091dc       ??_C@_0BH@ILOFPCLK@default_via_pad_width?3?$AA@ 005751dc     FreePcbDoc.obj
 0003:000091f8       ??_C@_0BI@HAILKLBE@default_polyline_width?3?$AA@ 005751f8     FreePcbDoc.obj
 0003:00009214       ??_C@_0BH@PHDJIFLN@drc_copper_copper?3?5?$CFd?6?$AA@ 00575214     FreePcbDoc.obj
 0003:00009230       ??_C@_0BD@MMLOBNEH@drc_hole_hole?3?5?$CFd?6?$AA@ 00575230     FreePcbDoc.obj
 0003:00009248       ??_C@_0BJ@CBOFEBAM@drc_board_edge_hole?3?5?$CFd?6?$AA@ 00575248     FreePcbDoc.obj
 0003:00009268       ??_C@_0BL@CNOGLOJE@drc_board_edge_copper?3?5?$CFd?6?$AA@ 00575268     FreePcbDoc.obj
 0003:00009288       ??_C@_0BL@JNMANPJL@drc_annular_ring_vias?3?5?$CFd?6?$AA@ 00575288     FreePcbDoc.obj
 0003:000092a8       ??_C@_0BL@EJPOLNHA@drc_annular_ring_pins?3?5?$CFd?6?$AA@ 005752a8     FreePcbDoc.obj
 0003:000092c8       ??_C@_0BF@FMLGNINO@drc_hole_copper?3?5?$CFd?6?$AA@ 005752c8     FreePcbDoc.obj
 0003:000092e4       ??_C@_0BF@EPNEPCEE@drc_trace_trace?3?5?$CFd?6?$AA@ 005752e4     FreePcbDoc.obj
 0003:00009300       ??_C@_0BD@KMAAMGIL@drc_pad_trace?3?5?$CFd?6?$AA@ 00575300     FreePcbDoc.obj
 0003:00009318       ??_C@_0BB@DIBAAICH@drc_pad_pad?3?5?$CFd?6?$AA@ 00575318     FreePcbDoc.obj
 0003:0000932c       ??_C@_0BF@FEEGPCOH@drc_trace_width?3?5?$CFd?6?$AA@ 0057532c     FreePcbDoc.obj
 0003:00009348       ??_C@_0BI@HLKBIODJ@drc_check_unrouted?3?5?$CFd?6?$AA@ 00575348     FreePcbDoc.obj
 0003:00009364       ??_C@_0BE@MKFAJBKG@report_options?3?5?$CFd?6?$AA@ 00575364     FreePcbDoc.obj
 0003:0000937c       ??_C@_0P@GOHBLFGE@cam_units?3?5?$CFd?6?$AA@ 0057537c     FreePcbDoc.obj
 0003:00009390       ??_C@_0BA@DIHHIPME@cam_layers?3?5?$CFd?6?$AA@ 00575390     FreePcbDoc.obj
 0003:000093a4       ??_C@_0P@BEHMFDED@cam_flags?3?5?$CFd?6?$AA@ 005753a4     FreePcbDoc.obj
 0003:000093b8       ??_C@_0BF@IDLEHPFJ@highlight_width?3?5?$CFd?6?$AA@ 005753b8     FreePcbDoc.obj
 0003:000093d4       ??_C@_0BL@GOHIKKGF@min_text_stroke_width?3?5?$CFd?6?$AA@ 005753d4     FreePcbDoc.obj
 0003:000093f4       ??_C@_0BB@DBKBAMIG@text_height?3?5?$CFd?6?$AA@ 005753f4     FreePcbDoc.obj
 0003:00009408       ??_C@_0BE@HEELEICJ@polyline_width?3?5?$CFd?6?$AA@ 00575408     FreePcbDoc.obj
 0003:00009420       ??_C@_0BF@IJFCBAHO@m_seg_clearance?3?5?$CFd?6?$AA@ 00575420     FreePcbDoc.obj
 0003:0000943c       ??_C@_0BA@NBCPKBCE@snap_angle?3?5?$CFd?6?$AA@ 0057543c     FreePcbDoc.obj
 0003:00009450       ??_C@_0BD@OOPJCMID@?5?5text_grid_item?3?5?$AA@ 00575450     FreePcbDoc.obj
 0003:00009468       ??_C@_0BH@EOHOPGPH@text_grid_spacing?3?5?$CFf?6?$AA@ 00575468     FreePcbDoc.obj
 0003:00009484       ??_C@_0BI@DODCKFMP@?5?5placement_grid_item?3?5?$AA@ 00575484     FreePcbDoc.obj
 0003:000094a0       ??_C@_0BL@FENCIOMD@polyline_grid_spacing?3?5?$CFf?6?$AA@ 005754a0     FreePcbDoc.obj
 0003:000094c0       ??_C@_0BG@OIDIEADJ@?5?5visible_grid_item?3?5?$AA@ 005754c0     FreePcbDoc.obj
 0003:000094dc       ??_C@_0BK@BDMMAPMF@visible_grid_spacing?3?5?$CFf?6?$AA@ 005754dc     FreePcbDoc.obj
 0003:000094fc       ??_C@_0BC@BEAIIONL@m_grid_style?3?5?$CFd?6?$AA@ 005754fc     FreePcbDoc.obj
 0003:00009514       ??_C@_0BB@COGAMGLO@m_top_layer?3?5?$CFd?6?$AA@ 00575514     FreePcbDoc.obj
 0003:00009528       ??_C@_0BG@JBECGDNI@m_visible_layers?3?5?$CFd?6?$AA@ 00575528     FreePcbDoc.obj
 0003:00009544       ??_C@_0BA@DIAAOAJN@m_sel_mask?3?5?$CFd?6?$AA@ 00575544     FreePcbDoc.obj
 0003:00009558       ??_C@_0M@KNNJNHDE@units?3?5MM?6?6?$AA@ 00575558     FreePcbDoc.obj
 0003:00009568       ??_C@_0N@JAAJGEMJ@units?3?5MIL?6?6?$AA@ 00575568     FreePcbDoc.obj
 0003:00009578       ??_C@_0BF@MPKFHFHC@m_system_colors?3?5?$CFd?6?$AA@ 00575578     FreePcbDoc.obj
 0003:00009594       ??_C@_0DC@HJBFMOJC@m_attr_size?3?5?$CFd?5?$CFd?5?$CFd?5?$CFd?5?$CFd?5?$CFd?5?$CF@ 00575594     FreePcbDoc.obj
 0003:000095d0       ??_C@_0BE@DEDGGEIF@m_scale_factor?3?5?$CFd?6?$AA@ 005755d0     FreePcbDoc.obj
 0003:000095e8       ??_C@_0N@ENCCLGDB@m_org_y?3?5?$CFd?6?$AA@ 005755e8     FreePcbDoc.obj
 0003:000095f8       ??_C@_0N@OLFFLNIF@m_org_x?3?5?$CFd?6?$AA@ 005755f8     FreePcbDoc.obj
 0003:00009608       ??_C@_0BH@FAFNDKMO@m_client_rect_top?3?5?$CFd?6?$AA@ 00575608     FreePcbDoc.obj
 0003:00009624       ??_C@_0BK@EPKNBJNO@m_client_rect_bottom?3?5?$CFd?6?$AA@ 00575624     FreePcbDoc.obj
 0003:00009644       ??_C@_0BJ@GMHFKFFF@m_client_rect_right?3?5?$CFd?6?$AA@ 00575644     FreePcbDoc.obj
 0003:00009664       ??_C@_0BI@ICJIFAPC@m_client_rect_left?3?5?$CFd?6?$AA@ 00575664     FreePcbDoc.obj
 0003:00009680       ??_C@_0CF@LJOLHLMN@auto_ratline_disable_min_pins?3?5?$CC@ 00575680     FreePcbDoc.obj
 0003:000096ac       ??_C@_0BM@GGNPHBPH@auto_ratline_disable?3?5?$CC?$CFd?$CC?6?$AA@ 005756ac     FreePcbDoc.obj
 0003:000096d0       ??_C@_0BH@OGHFBBOG@autosave_interval?3?5?$CFd?6?$AA@ 005756d0     FreePcbDoc.obj
 0003:000096ec       ??_C@_0BK@DJIJGCMO@default_node_width?3?5?$CC?$CFd?$CC?6?$AA@ 005756ec     FreePcbDoc.obj
 0003:0000970c       ??_C@_0BJ@BNJBIHGL@netlist_file_path?3?5?$CC?$CFs?$CC?6?$AA@ 0057570c     FreePcbDoc.obj
 0003:0000972c       ??_C@_0BH@GAONCJOE@netlist_file_path?3?5?$CC?$CC?6?$AA@ 0057572c     FreePcbDoc.obj
 0003:00009748       ??_C@_0BD@FJDHMAMN@part_search?3?5?$CC?$CFs?$CC?6?$AA@ 00575748     FreePcbDoc.obj
 0003:00009760       ??_C@_0BB@GNEJDHMH@part_search?3?5?$CC?$CC?6?$AA@ 00575760     FreePcbDoc.obj
 0003:00009774       ??_C@_0BJ@PDHLIOIK@netlist_completed?3?5?$CC?$CFd?$CC?6?$AA@ 00575774     FreePcbDoc.obj
 0003:00009794       ??_C@_0BC@LGCBIMLN@CAM_folder?3?5?$CC?$CFs?$CC?6?$AA@ 00575794     FreePcbDoc.obj
 0003:000097ac       ??_C@_0BF@GJJCNOIF@parent_folder?3?5?$CC?$CFs?$CC?6?$AA@ 005757ac     FreePcbDoc.obj
 0003:000097c8       ??_C@_0BL@INKAOGM@full_library_folder?3?5?$CC?$CFs?$CC?6?$AA@ 005757c8     FreePcbDoc.obj
 0003:000097e8       ??_C@_0BG@PJECBPFH@library_folder?3?5?$CC?$CFs?$CC?6?$AA@ 005757e8     FreePcbDoc.obj
 0003:00009804       ??_C@_0BE@OMAAGHCA@project_name?3?5?$CC?$CFs?$CC?6?$AA@ 00575804     FreePcbDoc.obj
 0003:0000981c       ??_C@_0BF@BBLPNBFM@file_version?3?5?$CF5?43f?6?$AA@ 0057581c     FreePcbDoc.obj
 0003:00009838       ??_C@_0BA@PKENMDDE@version?3?5?$CF5?43f?6?$AA@ 00575838     FreePcbDoc.obj
 0003:0000984c       ??_C@_0M@KBCAHLKH@?$FLoptions?$FN?6?6?$AA@ 0057584c     FreePcbDoc.obj
 0003:0000985c       ??_C@_0CF@JJPJHHIA@CFreePcbDoc?3?3InitializeNewProjec@ 0057585c     FreePcbDoc.obj
 0003:00009888       ??_C@_0FC@CJIHHGON@Unable?5to?5open?5global?5configurat@ 00575888     FreePcbDoc.obj
 0003:000098ec       ??_C@_0N@PHBMMOOC@?2default?4cfg?$AA@ 005758ec     FreePcbDoc.obj
 0003:00009900       __real@4119d695555549f8    00575900     FreePcbDoc.obj
 0003:00009910       __real@4109d69555555432    00575910     FreePcbDoc.obj
 0003:00009920       __real@40ff018000000000    00575920     FreePcbDoc.obj
 0003:00009930       __real@40f8ce0000000000    00575930     FreePcbDoc.obj
 0003:00009940       __real@40f4abaaaaaaa865    00575940     FreePcbDoc.obj
 0003:00009950       __real@40ef018000000000    00575950     FreePcbDoc.obj
 0003:00009960       __real@40e8ce0000000000    00575960     FreePcbDoc.obj
 0003:00009970       __real@412f018000000000    00575970     FreePcbDoc.obj
 0003:00009980       __real@412360f000000000    00575980     FreePcbDoc.obj
 0003:00009990       __real@411f018000000000    00575990     FreePcbDoc.obj
 0003:000099a0       __real@410f018000000000    005759a0     FreePcbDoc.obj
 0003:000099b0       __real@4178392c00000000    005759b0     FreePcbDoc.obj
 0003:000099c0       __real@4168392c00000000    005759c0     FreePcbDoc.obj
 0003:000099d0       __real@416360f000000000    005759d0     FreePcbDoc.obj
 0003:000099e0       __real@4158392c00000000    005759e0     FreePcbDoc.obj
 0003:000099f0       __real@415360f000000000    005759f0     FreePcbDoc.obj
 0003:00009a00       __real@4148392c00000000    00575a00     FreePcbDoc.obj
 0003:00009a10       __real@414360f000000000    00575a10     FreePcbDoc.obj
 0003:00009a1c       ??_C@_01NBENCBCI@?$CK?$AA@ 00575a1c     FreePcbDoc.obj
 0003:00009a20       ??_C@_0BM@JLFOPJBD@CFreePcbDoc?3?3SaveOptions?$CI?$CJ?6?$AA@ 00575a20     FreePcbDoc.obj
 0003:00009a44       ??_C@_0BJ@PHCGFKGP@Unable?5to?5open?5file?5?$CC?$CFs?$CC?$AA@ 00575a44     FreePcbDoc.obj
 0003:00009a64       ??_C@_0M@BAINMAIF@default?4cfg?$AA@ 00575a64     FreePcbDoc.obj
 0003:00009a74       ??_C@_06MBFCENLJ@Inner_?$AA@ 00575a74     FreePcbDoc.obj
 0003:00009a7c       ??_C@_06DDHCBBGN@Bottom?$AA@ 00575a7c     FreePcbDoc.obj
 0003:00009a84       ??_C@_03PGGAENPN@Top?$AA@  00575a84     FreePcbDoc.obj
 0003:00009a88       ??_C@_06GKELNPHC@?$CKEND?$CK?6?$AA@ 00575a88     FreePcbDoc.obj
 0003:00009a90       ??_C@_06CHEFEJDP@?$CKNET?$CK?6?$AA@ 00575a90     FreePcbDoc.obj
 0003:00009a98       ??_C@_07NMDDEBJE@?$CKPART?$CK?6?$AA@ 00575a98     FreePcbDoc.obj
 0003:00009aa4       ??_C@_0M@GEKCNEKF@?$CKPADS?9PCB?$CK?6?$AA@ 00575aa4     FreePcbDoc.obj
 0003:00009ab4       ??_C@_0M@PIPDPGGB@gerberlogix?$AA@ 00575ab4     FreePcbDoc.obj
 0003:00009ac4       ??_C@_05PJBODAKK@gerbv?$AA@ 00575ac4     FreePcbDoc.obj
 0003:00009acc       ??_C@_08DDAIMIFB@viewmate?$AA@ 00575acc     FreePcbDoc.obj
 0003:00009ad8       ??_C@_0DC@PCCIJCHA@A?5outline?5must?5be?5present?5for?5CA@ 00575ad8     FreePcbDoc.obj
 0003:00009b14       ??_C@_0CI@NDFMMOME@Currently?5only?5FRS?5files?5are?5sup@ 00575b14     FreePcbDoc.obj
 0003:00009b48       ??_C@_0KB@EJNNLAJB@There?5is?5a?5?8Shortcut?8?5folder?5in?5@ 00575b48     FreePcbDoc.obj
 0003:00009c0c       ??_C@_08HADIGFPG@ViewMate?$AA@ 00575c0c     FreePcbDoc.obj
 0003:00009c18       ??_C@_04OEDFLLKD@?$CC?$CFs?$CC?$AA@ 00575c18     FreePcbDoc.obj
 0003:00009c20       ??_C@_02KOPDJAMB@?$CC?5?$AA@ 00575c20     FreePcbDoc.obj
 0003:00009c24       ??_C@_04FGAJMCLA@?2?$CK?4?$CK?$AA@ 00575c24     FreePcbDoc.obj
 0003:00009c2c       ??_C@_0DC@ODCKPHLA@If?5they?5are?5complex?0?5this?5may?5ta@ 00575c2c     FreePcbDoc.obj
 0003:00009c68       ??_C@_0DF@COJBDJJH@Polylines?5?$CFd?5and?5?$CFd?5intersect?5an@ 00575c68     FreePcbDoc.obj
 0003:00009ca8       ??_C@_04PCJMIFHK@?4lnk?$AA@ 00575ca8     FreePcbDoc.obj
 0003:00009cb0       ??_C@_0BI@NIADKJOL@Shortcut?5path?5not?5found?$AA@ 00575cb0     FreePcbDoc.obj
 0003:00009ccc       ??_C@_09PADAKPJP@?2Shortcut?$AA@ 00575ccc     FreePcbDoc.obj
 0003:00009cd8       ??_C@_07ENBLBBNH@NET?$CF?45d?$AA@ 00575cd8     FreePcbDoc.obj
 0003:00009ce4       ??_C@_0DN@EHPNGKPG@?$AN?6?$CK?$CK?$CK?$CK?$CK?$CK?$CK?$CK?$CK?$CK?$CK?$CK?$CK?$CK?$CK?$CK?$CK?$CK?$CK?$CK?$CK?$CK?$CK?$CK?$CK?5DONE@ 00575ce4     FreePcbDoc.obj
 0003:00009d30       ??_C@_0DL@MBHGBHBN@?$AN?6?5?5?5?5?5?5?5?5ERROR?$CB?5The?5polyline?5?$CFs@ 00575d30     FreePcbDoc.obj
 0003:00009d78       ??_C@_0BB@CEJPGIHH@?$AN?6?5?5?5?5?$CFs?5created?$AA@ 00575d78     FreePcbDoc.obj
 0003:00009d8c       ??_C@_0DN@JBKKMMCL@?$AN?6?5?5?5?5?5?5?5?5WARNING?$CB?5Free?5polyline@ 00575d8c     FreePcbDoc.obj
 0003:00009dd8       ??_C@_0EC@JFCPMJAL@?$AN?6?5?5?5?5?5?5?5?5WARNING?$CB?5Pin?5?$CFs?4?$CFs?5is?5@ 00575dd8     FreePcbDoc.obj
 0003:00009e28       ??_C@_0CC@BJJMHCEG@?$AN?6Creating?5NETxxxxx?5format?5nets?3@ 00575e28     FreePcbDoc.obj
 0003:00009e50       ??_C@_0BF@FEIHHFFM@?$AN?6?5?5?5?5Net?5?$CFs?5created?$AA@ 00575e50     FreePcbDoc.obj
 0003:00009e6c       ??_C@_0CM@IJECNPGG@?$AN?6?5?5?5?5?5?5?5?5ERROR?$CB?5Duplicate?5net?5l@ 00575e6c     FreePcbDoc.obj
 0003:00009ea0       ??_C@_0EF@JILMJDPD@?$AN?6?5?5?5?5?5?5?5?5ERROR?$CB?5Two?5different?5n@ 00575ea0     FreePcbDoc.obj
 0003:00009ef4       ??_C@_0DB@MFLPFFJC@?$AN?6?5?5?5?5?5?5?5?5ERROR?$CB?5Net?5label?5is?5un@ 00575ef4     FreePcbDoc.obj
 0003:00009f30       ??_C@_0BP@CPLIKBPN@OK?$AN?6Creating?5User?5Named?5Nets?3?5?$AA@ 00575f30     FreePcbDoc.obj
 0003:00009f58       ??_C@_0CA@LLNGOBNF@Removing?5obsolete?5connections?3?5?$AA@ 00575f58     FreePcbDoc.obj
 0003:00009f80       ??_C@_0BB@HADJEBAO@Praparing?4?4?4?4?4?$AN?6?$AA@ 00575f80     FreePcbDoc.obj
 0003:00009f94       ??_C@_09BELGILAI@?$CFs?5?9?9?$DO?5?$CFs?$AA@ 00575f94     FreePcbDoc.obj
 0003:00009fa0       ??_C@_0CC@FOAFAIPC@No?5selected?5items?5for?5renumberin@ 00575fa0     FreePcbDoc.obj
 0003:00009fc8       ??_C@_06NNNEPAFD@?2?$CK?4fpl?$AA@ 00575fc8     FreePcbDoc.obj
 0003:00009fd0       ??_C@_0CA@MHBLHLML@Unable?5to?5open?5library?5file?6?6?5?$CC?$AA@ 00575fd0     FreePcbDoc.obj
 0003:00009ffc       ??_7?$CArray@PAVCPolyLine@@ABQAV1@@@6B@ 00575ffc     FreePcbDoc.obj
 0003:0000a018       ??_7?$CArray@VCPolyLine@@ABV1@@@6B@ 00576018     FreePcbDoc.obj
 0003:0000a034       ??_7?$CArray@NABN@@6B@     00576034     FreePcbDoc.obj
 0003:0000a050       ??_7?$CArray@VCArc@@ABV1@@@6B@ 00576050     FreePcbDoc.obj
 0003:0000a06c       ??_7CDocumentAdapter@CDocument@@6B@ 0057606c     FreePcbDoc.obj
 0003:0000a0b0       ??_7IDocument@ATL@@6B@     005760b0     FreePcbDoc.obj
 0003:0000a0f0       ??_C@_0FD@MMFFHGDC@c?3?2program?5files?5?$CIx86?$CJ?2microsoft@ 005760f0     FreePcbDoc.obj
 0003:0000a154       ??_C@_02DKCKIIND@?$CFs?$AA@ 00576154     FreePcbDoc.obj
 0003:0000a158       ??_C@_0EH@JMHNMKFO@CDocumentAdapter?3?3LoadFromStream@ 00576158     FreePcbDoc.obj
 0003:0000a1b0       ??_C@_0EP@OBDLBAMC@c?3?2program?5files?5?$CIx86?$CJ?2microsoft@ 005761b0     FreePcbDoc.obj
 0003:0000a210       ??_C@_0FA@LMOECOHI@CDocumentAdapter?3?3InitializeSear@ 00576210     FreePcbDoc.obj
 0003:0000a270       ??_C@_0EH@DLNJCMOG@CDocumentAdapter?3?3ClearChunkList@ 00576270     FreePcbDoc.obj
 0003:0000a2c8       ??_C@_0EG@KJPNJGOD@CDocumentAdapter?3?3SetChunkValue?5@ 005762c8     FreePcbDoc.obj
 0003:0000a320       ??_C@_0EI@OACGLLFN@CDocumentAdapter?3?3BeginReadChunk@ 00576320     FreePcbDoc.obj
 0003:0000a378       ??_C@_0EL@JFJHODOO@CDocumentAdapter?3?3ReadNextChunkV@ 00576378     FreePcbDoc.obj
 0003:0000a3d8       ??_C@_0EE@DGBLNKAJ@CDocumentAdapter?3?3RemoveChunk?5is@ 005763d8     FreePcbDoc.obj
 0003:0000a430       ??_C@_0EC@LNKAMCLD@CDocumentAdapter?3?3FindChunk?5is?5c@ 00576430     FreePcbDoc.obj
 0003:0000a480       ??_C@_0EF@JFFEAAHE@CDocumentAdapter?3?3GetThumbnail?5i@ 00576480     FreePcbDoc.obj
 0003:0000a4d8       ??_C@_0FE@IDJJLJDH@Override?5this?5method?5in?5a?5derive@ 005764d8     FreePcbDoc.obj
 0003:0000a540       ??_7StrList@@6B@           00576540     FreePcbDoc.obj
 0003:0000a54c       ??_7?$CArray@HABH@@6B@     0057654c     FreePcbDoc.obj
 0003:0000a564       ??_C@_0N@NNLNNJBC@CFreePcbView?$AA@ 00576564     FreePcbView.obj
 0003:0000a574       ?classCFreePcbView@CFreePcbView@@2UCRuntimeClass@@B 00576574     FreePcbView.obj
 0003:0000c0ac       ??_C@_05MPFIAJAP@Arial?$AA@ 005780ac     FreePcbView.obj
 0003:0000c0bc       ??_7CFreePcbView@@6B@      005780bc     FreePcbView.obj
 0003:0000c2cc       __real@bf800000            005782cc     FreePcbView.obj
 0003:0000c2d0       __real@c14360f000000000    005782d0     FreePcbView.obj
 0003:0000c2dc       ??_C@_1DG@MANBGNGK@?$AAc?$AA?3?$AA?2?$AAf?$AAr?$AAe?$AAe?$AAa?$AAs?$AAy?$AA?2?$AAf?$AAr?$AAe?$AAe?$AAp?$AAc?$AAb?$AAv?$AAi?$AAe?$AAw?$AA?4?$AAc?$AAp?$AAp?$AA?$AA@ 005782dc     FreePcbView.obj
 0003:0000c31c       ??_C@_0P@GNNIJBCL@SELECTION?5MASK?$AA@ 0057831c     FreePcbView.obj
 0003:0000c330       ??_C@_1GK@EFBHHBH@?$AAm?$AA_?$AAp?$AAD?$AAo?$AAc?$AAu?$AAm?$AAe?$AAn?$AAt?$AA?9?$AA?$DO?$AAI?$AAs?$AAK?$AAi?$AAn?$AAd?$AAO?$AAf?$AA?$CI?$AA?$CI?$AAC?$AAF?$AAr?$AAe?$AAe?$AAP?$AAc?$AAb?$AAD@ 00578330     FreePcbView.obj
 0003:0000c3b0       ??_C@_0L@CDEPKPII@part_list?5?$AA@ 005783b0     FreePcbView.obj
 0003:0000c3c0       __real@4066800000000000    005783c0     FreePcbView.obj
 0003:0000c3d0       __real@4076800000000000    005783d0     FreePcbView.obj
 0003:0000c3e0       __real@3ff6666666666666    005783e0     FreePcbView.obj
 0003:0000c3f0       __real@406fc00000000000    005783f0     FreePcbView.obj
 0003:0000c400       ??_C@_0IP@NNEPLDNC@Information?4?5You?5can?5only?5change@ 00578400     FreePcbView.obj
 0003:0000c4ac       ??_C@_0BF@CGLINOIF@Move?5entire?5contour?$DP?$AA@ 005784ac     FreePcbView.obj
 0003:0000c4c8       ??_C@_0GM@JACKCINF@This?5polyline?5is?5connected?5to?5ot@ 005784c8     FreePcbView.obj
 0003:0000c550       __real@408f380000000000    00578550     FreePcbView.obj
 0003:0000c55c       ??_C@_0CG@PLOAIJNC@To?5Right?5?9?5SELECT?5?5To?5Left?5?9?5UNS@ 0057855c     FreePcbView.obj
 0003:0000c58c       ??_C@_02LCPENACN@F1?$AA@   0057858c     FreePcbView.obj
 0003:0000c590       ??_C@_0BP@OKEHFGFN@dx?5?$DN?5?$CF?43f?0?5dy?5?$DN?5?$CF?43f?0?5d?5?$DN?5?$CF?43f?$AA@ 00578590     FreePcbView.obj
 0003:0000c5b8       ??_C@_0BP@FCOCEFCO@dx?5?$DN?5?$CF?41f?0?5dy?5?$DN?5?$CF?41f?0?5d?5?$DN?5?$CF?42f?$AA@ 005785b8     FreePcbView.obj
 0003:0000c5e0       ??_C@_0DD@CEODGNKI@x?5?$DN?5?$CF?43f?0?5y?5?$DN?5?$CF?43f?0?5dx?5?$DN?5?$CF?43f?0?5d@ 005785e0     FreePcbView.obj
 0003:0000c620       ??_C@_0DD@EEFGABND@x?5?$DN?5?$CF?41f?0?5y?5?$DN?5?$CF?41f?0?5dx?5?$DN?5?$CF?41f?0?5d@ 00578620     FreePcbView.obj
 0003:0000c660       ??_C@_0CG@EGBKOPKF@Measurement?5mode?3?5left?9click?5to?5@ 00578660     FreePcbView.obj
 0003:0000c690       ??_C@_0BB@LCKNKJPD@Moving?5text?5?$CC?$CFs?$CC?$AA@ 00578690     FreePcbView.obj
 0003:0000c6a4       ??_C@_0BM@ICPEAFGH@Moving?5corner?5?$CFd?5of?5outline?$AA@ 005786a4     FreePcbView.obj
 0003:0000c6c8       ??_C@_0BP@GLJAFLNA@Inserting?5corner?5?$CFd?5of?5outline?$AA@ 005786c8     FreePcbView.obj
 0003:0000c6f0       ??_C@_0BN@NHKDLKLL@Placing?5corner?5?$CFd?5of?5outline?$AA@ 005786f0     FreePcbView.obj
 0003:0000c714       ??_C@_0CB@KHKIGPJL@Placing?5second?5corner?5of?5outline@ 00578714     FreePcbView.obj
 0003:0000c73c       ??_C@_0CA@KEMNJNEE@Placing?5first?5corner?5of?5outline?$AA@ 0057873c     FreePcbView.obj
 0003:0000c764       ??_C@_0BH@FFJKAKIN@?0?5len?$DN?$CFs?0?5dx?$DN?$CFs?0?5dy?$DN?$CFs?$AA@ 00578764     FreePcbView.obj
 0003:0000c780       ??_C@_07KMOPNNAK@?0?5part?$DN?$AA@ 00578780     FreePcbView.obj
 0003:0000c78c       ??_C@_06PKHPIAIN@?0?5pin?$DN?$AA@ 0057878c     FreePcbView.obj
 0003:0000c794       ??_C@_06HOMIDAHA@?0?5net?$DN?$AA@ 00578794     FreePcbView.obj
 0003:0000c79c       ??_C@_0BC@EKLLCGPD@Clearance?5value?3?5?$AA@ 0057879c     FreePcbView.obj
 0003:0000c7b4       ??_C@_0BF@CEOCCBEN@Group?5selected?5?$CI?$CFd?$CJ?5?$AA@ 005787b4     FreePcbView.obj
 0003:0000c7d0       ??_C@_09HKILNDK@Text?5?$CC?$CFs?$CC?$AA@ 005787d0     FreePcbView.obj
 0003:0000c7dc       ??_C@_0CC@BLJFIAMA@outline?5?$CFd?0?5corner?5?$CFd?0?5x?$DN?$CFs?0?5y?$DN?$CF@ 005787dc     FreePcbView.obj
 0003:0000c804       ??_C@_0CD@IHBCFJCB@polyline?5?$CFd?0?5corner?5?$CFd?0?5x?$DN?$CFs?0?5y?$DN@ 00578804     FreePcbView.obj
 0003:0000c830       ??_C@_06JJCEAOCO@DRE?5?$CFs?$AA@ 00578830     FreePcbView.obj
 0003:0000c838       ??_C@_0N@ECBDDNEI@No?5selection?$AA@ 00578838     FreePcbView.obj
 0003:0000c848       ??_C@_08IPOAECHC@Y?3?5?$CF8?43f?$AA@ 00578848     FreePcbView.obj
 0003:0000c854       ??_C@_08JIJLFGDB@X?3?5?$CF8?43f?$AA@ 00578854     FreePcbView.obj
 0003:0000c860       ??_C@_08IMGEJGBM@Y?3?5?$CF8?41f?$AA@ 00578860     FreePcbView.obj
 0003:0000c86c       ??_C@_08JLBPICFP@X?3?5?$CF8?41f?$AA@ 0057886c     FreePcbView.obj
 0003:0000c878       __real@4039000000000000    00578878     FreePcbView.obj
 0003:0000c884       ??_C@_0P@JOFFHEHE@Successfully?$CB?6?$AA@ 00578884     FreePcbView.obj
 0003:0000c898       ??_C@_08OPNBKLNK@Failed?$CB?6?$AA@ 00578898     FreePcbView.obj
 0003:0000c8a4       ??_C@_0CL@NOMEJPJP@?2FPC_EXE?2FreePCB_InfoBox?2ObjectM@ 005788a4     FreePcbView.obj
 0003:0000c8d8       ??_C@_1BI@BMKEOGLI@?$AAp?$AAP?$AAo?$AAp?$AAu?$AAp?$AA?5?$AA?$CB?$AA?$DN?$AA?5?$AA0?$AA?$AA@ 005788d8     FreePcbView.obj
 0003:0000c8f4       ??_C@_1CI@CLHHKNDG@?$AAm?$AAe?$AAn?$AAu?$AA?4?$AAL?$AAo?$AAa?$AAd?$AAM?$AAe?$AAn?$AAu?$AAA?$AA?$CI?$AA1?$AA4?$AA4?$AA?$CJ?$AA?$AA@ 005788f4     FreePcbView.obj
 0003:0000c924       ??_C@_0BA@NPNJHBNH@Corner?5Position?$AA@ 00578924     FreePcbView.obj
 0003:0000c938       ??_C@_0BM@KHHIDAGJ@Outline?5has?5too?5few?5corners?$AA@ 00578938     FreePcbView.obj
 0003:0000c95c       ??_C@_05HEFDBBLE@?4?4?4?4?4?$AA@ 0057895c     FreePcbView.obj
 0003:0000c964       ??_C@_01LFCBOECM@?4?$AA@   00578964     FreePcbView.obj
 0003:0000c968       ??_C@_02KNHHEEKP@?5?5?$AA@ 00578968     FreePcbView.obj
 0003:0000c96c       ??_C@_03OMOEFKGE@?3?5?5?$AA@ 0057896c     FreePcbView.obj
 0003:0000c970       __real@411e848000000000    00578970     FreePcbView.obj
 0003:0000c980       __real@4008000000000000    00578980     FreePcbView.obj
 0003:0000c98c       ??_C@_04JKHNIKCB@TEMP?$AA@ 0057898c     FreePcbView.obj
 0003:0000c994       ??_C@_0BD@NDABKNNM@?6?6continue?5anyway?$DP?$AA@ 00578994     FreePcbView.obj
 0003:0000c9ac       ??_C@_04CGEEFOBJ@?6?6?$CFs?$AA@ 005789ac     FreePcbView.obj
 0003:0000c9b8       ??_C@_0ED@NNFKDGHK@Attention?$CB?5You?5want?5to?5set?5the?5s@ 005789b8     FreePcbView.obj
 0003:0000ca08       ??_C@_0CF@LICAIBJC@This?5group?5contains?5the?5?$CFd?5parts@ 00578a08     FreePcbView.obj
 0003:0000ca38       ??_C@_0BBJ@CDJAMDBC@You?5want?5to?5edit?5polylines?5with?5@ 00578a38     FreePcbView.obj
 0003:0000cb8c       ??_C@_0DA@LFAPLDDC@You?5want?5to?5dock?5adjacent?5polyli@ 00578b8c     FreePcbView.obj
 0003:0000cbc8       ??_C@_0BH@ECEADBOE@different?5footprints?3?6?$AA@ 00578bc8     FreePcbView.obj
 0003:0000cbe4       ??_C@_0BD@NMDBNCPG@different?5values?3?6?$AA@ 00578be4     FreePcbView.obj
 0003:0000cc00       __real@4020000000000000    00578c00     FreePcbView.obj
 0003:0000cc10       __real@400921fb54442eea    00578c10     FreePcbView.obj
 0003:0000cc20       __real@54b249ad2594c37d    00578c20     FreePcbView.obj
 0003:0000cc30       __real@4012e26c22844b21    00578c30     FreePcbView.obj
 0003:0000cc40       __real@4012d08cdbe1f883    00578c40     FreePcbView.obj
 0003:0000cc50       __real@3ff945b9e188d252    00578c50     FreePcbView.obj
 0003:0000cc60       __real@3ff8fe3cc6ff87de    00578c60     FreePcbView.obj
 0003:0000cc70       __real@400933da9ae67fb5    00578c70     FreePcbView.obj
 0003:0000cc80       __real@4009101c0da1da7b    00578c80     FreePcbView.obj
 0003:0000cc90       __real@40192aeaf7955667    00578c90     FreePcbView.obj
 0003:0000cca0       __real@4019190bb0f303c9    00578ca0     FreePcbView.obj
 0003:0000ccb0       __real@3f81df46a2529d39    00578cb0     FreePcbView.obj
 0003:0000ccc0       __real@bf81df46a2529d39    00578cc0     FreePcbView.obj
 0003:0000cccc       ??_C@_0BD@JMGAEPOJ@grid_spacing?3?5?$CFd?$AN?6?$AA@ 00578ccc     FreePcbView.obj
 0003:0000cce4       ??_C@_0BC@DMHDBCJD@point_angle?3?5?$CFf?$AN?6?$AA@ 00578ce4     FreePcbView.obj
 0003:0000cd00       __real@401921fb54442d18    00578d00     FreePcbView.obj
 0003:0000cd10       __real@400921fb54442d18    00578d10     FreePcbView.obj
 0003:0000cd20       __real@41dfffffffc00000    00578d20     FreePcbView.obj
 0003:0000cd30       __real@3ff199999999999a    00578d30     FreePcbView.obj
 0003:0000cd3c       ??_C@_0BB@EEBIPLMF@?$CFs?0?5x?$DN?$CFs?0?5y?$DN?$CFs?$AN?6?$AA@ 00578d3c     FreePcbView.obj
 0003:0000cd50       ??_C@_0FI@BPGKNBGP@The?5number?5of?5polyline?5vertices?5@ 00578d50     FreePcbView.obj
 0003:0000cdbc       ??_C@_0DB@JAHFMHBI@?5ASSERT?$CB?5Number?5of?5corners?5?$DM?52?5?$CI@ 00578dbc     FreePcbView.obj
 0003:0000cdf8       ??_C@_0BA@NBLJDFDP@Mirror?5Lines?4?4?4?$AA@ 00578df8     FreePcbView.obj
 0003:0000ce0c       ??_C@_0BA@FNIKLIND@Mirror?5Texts?4?4?4?$AA@ 00578e0c     FreePcbView.obj
 0003:0000ce20       ??_C@_0BA@NJINIDGC@Nothing?5copied?$CB?$AA@ 00578e20     FreePcbView.obj
 0003:0000ce34       ??_C@_0BB@GFIBBONK@No?5items?5to?5drag?$AA@ 00578e34     FreePcbView.obj
 0003:0000ce48       __real@43cfffffff800000    00578e48     FreePcbView.obj
 0003:0000ce54       ??_C@_0BH@FPEJMMBA@Unable?5to?5save?5file?5?$CFs?$AA@ 00578e54     FreePcbView.obj
 0003:0000ce70       ??_C@_0KN@MNBNELKM@This?5group?5contains?5arc?5elements@ 00578e70     FreePcbView.obj
 0003:0000cf40       ??_C@_0CD@DMDLIBHH@Unable?5to?5align?5colinear?5segment@ 00578f40     FreePcbView.obj
 0003:0000cf70       __real@41bdcd6500000000    00578f70     FreePcbView.obj
 0003:0000cf80       __real@417312d000000000    00578f80     FreePcbView.obj
 0003:0000cf90       __real@4056800000000000    00578f90     FreePcbView.obj
 0003:0000cfa0       __real@4065400000000000    00578fa0     FreePcbView.obj
 0003:0000cfac       ??_C@_0CG@EGIJCDKD@Some?5parts?5already?5have?5a?5Merge?5@ 00578fac     FreePcbView.obj
 0003:0000cfdc       ??_C@_0BF@NABNGNHO@?5Delete?5this?5merger?$DP?$AA@ 00578fdc     FreePcbView.obj
 0003:0000cffc       ??_7?$CArray@Vid@@ABV1@@@6B@ 00578ffc     FreePcbView.obj
 0003:0000d1fc       ??_7CFreePcbApp@@6B@       005791fc     FreeSch.obj
 0003:0000d34c       ??_C@_08EEOHOBEO@Settings?$AA@ 0057934c     FreeSch.obj
 0003:0000d358       ??_C@_07IDECFGGC@ShowCmd?$AA@ 00579358     FreeSch.obj
 0003:0000d364       ??_C@_1DK@BDKBEOKE@?$AAm?$AA_?$AAf?$AAo?$AAo?$AAt?$AA_?$AAd?$AAr?$AAa?$AAg?$AA?4?$AAL?$AAo?$AAa?$AAd?$AAM?$AAe?$AAn?$AAu?$AAA?$AA?$CI?$AA?5?$AA2?$AA5?$AA2?$AA?5?$AA?$CJ?$AA?$AA@ 00579364     FreeSch.obj
 0003:0000d3ac       ??_C@_1DA@FCNGFPNI@?$AAm?$AA_?$AAf?$AAo?$AAo?$AAt?$AA?4?$AAL?$AAo?$AAa?$AAd?$AAM?$AAe?$AAn?$AAu?$AAA?$AA?$CI?$AA?5?$AA2?$AA4?$AA9?$AA?5?$AA?$CJ?$AA?$AA@ 005793ac     FreeSch.obj
 0003:0000d3e8       ??_C@_1DK@ELJGDMFH@?$AAm?$AA_?$AAm?$AAa?$AAi?$AAn?$AA_?$AAd?$AAr?$AAa?$AAg?$AA?4?$AAL?$AAo?$AAa?$AAd?$AAM?$AAe?$AAn?$AAu?$AAA?$AA?$CI?$AA?5?$AA2?$AA5?$AA1?$AA?5?$AA?$CJ?$AA?$AA@ 005793e8     FreeSch.obj
 0003:0000d430       ??_C@_1DA@POJCMHDJ@?$AAm?$AA_?$AAm?$AAa?$AAi?$AAn?$AA?4?$AAL?$AAo?$AAa?$AAd?$AAM?$AAe?$AAn?$AAu?$AAA?$AA?$CI?$AA?5?$AA1?$AA2?$AA8?$AA?5?$AA?$CJ?$AA?$AA@ 00579430     FreeSch.obj
 0003:0000d46c       ??_C@_1CO@BFEPKBJP@?$AAc?$AA?3?$AA?2?$AAf?$AAr?$AAe?$AAe?$AAa?$AAs?$AAy?$AA?2?$AAf?$AAr?$AAe?$AAe?$AAs?$AAc?$AAh?$AA?4?$AAc?$AAp?$AAp?$AA?$AA@ 0057946c     FreeSch.obj
 0003:0000d4a8       ??_C@_0GC@EGPAHLBE@NOTE?3?5The?5recent?5file?5list?5is?5di@ 005794a8     FreeSch.obj
 0003:0000d520       ??_C@_06OBGLOEDC@eebit3?$AA@ 00579520     FreeSch.obj
 0003:0000d52c       ??_7CAboutDlg@@6B@         0057952c     FreeSch.obj
 0003:0000d70c       ??_C@_0N@EALJBGJC@2?5Debug?3?5033?$AA@ 0057970c     FreeSch.obj
 0003:0000d71c       ??_C@_0BE@MJDKIMMA@https?3?1?1freepcb?4dev?$AA@ 0057971c     FreeSch.obj
 0003:0000d734       ??_C@_1DG@KIAAJHKM@?$AAC?$AAW?$AAi?$AAn?$AAA?$AAp?$AAp?$AA?3?$AA?3?$AAm?$AA_?$AAp?$AAR?$AAe?$AAc?$AAe?$AAn?$AAt?$AAF?$AAi?$AAl?$AAe?$AAL?$AAi?$AAs?$AAt?$AA?$AA@ 00579734     FreeSch.obj
 0003:0000d774       ??_C@_0BM@KNHHPADI@?2doc?2freepcb_user_guide?4pdf?$AA@ 00579774     FreeSch.obj
 0003:0000d798       ??_C@_0EP@FJIJEKIF@c?3?2program?5files?5?$CIx86?$CJ?2microsoft@ 00579798     FreeSch.obj
 0003:0000d7f8       ??_C@_1CM@JFMOGHOG@?$AAc?$AA?3?$AA?2?$AAf?$AAr?$AAe?$AAe?$AAa?$AAs?$AAy?$AA?2?$AAg?$AAe?$AAr?$AAb?$AAe?$AAr?$AA?4?$AAc?$AAp?$AAp?$AA?$AA@ 005797f8     Gerber.obj
 0003:0000d82c       ??_C@_0BG@DPMDHILK@G01X?$CFI64dY?$CFI64dD0?$CFd?$CK?6?$AA@ 0057982c     Gerber.obj
 0003:0000d848       __real@401921fb54442eea    00579848     Gerber.obj
 0003:0000d858       __real@4012d97c7f332330    00579858     Gerber.obj
 0003:0000d868       __real@3ff921fb54442eea    00579868     Gerber.obj
 0003:0000d874       ??_C@_09ECIHDGKL@G54D?$CF2d?$CK?6?$AA@ 00579874     Gerber.obj
 0003:0000d880       ??_C@_05BICIENHK@G37?$CK?6?$AA@ 00579880     Gerber.obj
 0003:0000d888       __real@43340000            00579888     Gerber.obj
 0003:0000d890       __real@3ff8000000000000    00579890     Gerber.obj
 0003:0000d89c       ??_C@_05KAJECKBP@G36?$CK?6?$AA@ 0057989c     Gerber.obj
 0003:0000d8a8       __real@4036800000000000    005798a8     Gerber.obj
 0003:0000d8b8       __real@3fe69fbe76c8b439    005798b8     Gerber.obj
 0003:0000d8c4       ??_C@_0BB@LBMLNOJC@?6G04?5Draw?5Text?$CK?6?$AA@ 005798c4     Gerber.obj
 0003:0000d8d8       ??_C@_05GDMECMHF@M00?$CK?6?$AA@ 005798d8     Gerber.obj
 0003:0000d8e0       ??_C@_0BG@BBHLKAID@c?3?2freeasy?2gerber?4cpp?$AA@ 005798e0     Gerber.obj
 0003:0000d8fc       ??_C@_07LANLFKBM@?$CFLPC?$CK?$CF?6?$AA@ 005798fc     Gerber.obj
 0003:0000d908       ??_C@_0DH@BKIPNCB@?6G04?5?9?9?9?9?9?9?9?9?9?9?9?9?9?9?9?9?9?9?9?9?9?9?9?5Dra@ 00579908     Gerber.obj
 0003:0000d94c       ??_C@_07CPLIGAM@?$CFLPD?$CK?$CF?6?$AA@ 0057994c     Gerber.obj
 0003:0000d958       ??_C@_0BL@LAHLDMCO@G04?5begin?5color?3?5clBlack?$CK?6?$AA@ 00579958     Gerber.obj
 0003:0000d978       ??_C@_08CEJBJBMD@G70D02?$CK?6?$AA@ 00579978     Gerber.obj
 0003:0000d984       ??_C@_05MPEPGNGC@G90?$CK?6?$AA@ 00579984     Gerber.obj
 0003:0000d98c       ??_C@_0BM@FHLGENF@ADD?$CFdRNDREC?0?$CF?46fX?$CF?46fX?$CF?46f?$CK?$AA@ 0057998c     Gerber.obj
 0003:0000d9b0       __real@4188392c00000000    005799b0     Gerber.obj
 0003:0000d9bc       ??_C@_0BC@JCOECCNA@ADD?$CFdO?0?$CF?46fX?$CF?46f?$CK?$AA@ 005799bc     Gerber.obj
 0003:0000d9d4       ??_C@_0BE@LIBPNMDP@ADD?$CFdP?0?$CF?46fX8X22?45?$CK?$AA@ 005799d4     Gerber.obj
 0003:0000d9ec       ??_C@_0BC@GBMPOEHE@ADD?$CFdR?0?$CF?46fX?$CF?46f?$CK?$AA@ 005799ec     Gerber.obj
 0003:0000da04       ??_C@_01FGNFDNOH@?$CF?$AA@ 00579a04     Gerber.obj
 0003:0000da08       ??_C@_02MENHEKGM@?$CF?6?$AA@ 00579a08     Gerber.obj
 0003:0000da0c       ??_C@_0N@BNHBEAEM@ADD?$CFdC?0?$CF?46f?$CK?$AA@ 00579a0c     Gerber.obj
 0003:0000da1c       ??_C@_0DL@POLBNGFL@1?01?0$4?$CL$4?$CL$4?$CL$4?00?9$1?9$1?$CL$4?$CL$4?$CL$4@ 00579a1c     Gerber.obj
 0003:0000da64       ??_C@_0DI@FJHMODHG@1?01?0$4?$CL$4?$CL$4?$CL$4?0$1?$CL$1?9$4?9$4?9$4?9$@ 00579a64     Gerber.obj
 0003:0000daa8       ??_C@_0DK@CLOHIHAG@1?01?0$4?$CL$4?$CL$4?$CL$4?00?9$1?9$1?$CL$4?$CL$4?00?9@ 00579aa8     Gerber.obj
 0003:0000daf0       ??_C@_0DI@NOCKMOB@1?01?0$4?$CL$4?$CL$4?$CL$4?00?9$1?9$1?$CL$4?$CL$4?0$2@ 00579af0     Gerber.obj
 0003:0000db34       ??_C@_0DI@KFEPHEFM@1?01?0$4?$CL$4?$CL$4?$CL$4?00?9$1?9$1?$CL$4?$CL$4?$CL$4@ 00579b34     Gerber.obj
 0003:0000db78       ??_C@_0DG@DCHLHCMK@1?01?0$4?$CL$4?$CL$4?$CL$4?0$1?$CL$1?9$4?9$4?9$4?9$@ 00579b78     Gerber.obj
 0003:0000dbb8       ??_C@_0DI@CCMJHKBM@1?01?0$4?$CL$4?$CL$4?$CL$4?0$1?$CL$1?9$4?9$4?00?9$2@ 00579bb8     Gerber.obj
 0003:0000dbfc       ??_C@_0DG@GOPDBMKD@1?01?0$4?$CL$4?$CL$4?$CL$4?0$1?$CL$1?9$4?9$4?0$2?$CL$@ 00579bfc     Gerber.obj
 0003:0000dc40       ??_C@_0EJ@KOOMNGA@21?01?0$1?$CL$1?$CL$1?$CL$1?9$4?9$4?9$4?9$4?9$4?9@ 00579c40     Gerber.obj
 0003:0000dc98       ??_C@_0EJ@GNPNOKLA@21?01?0$1?$CL$1?$CL$1?$CL$1?0$2?$CL$2?$CL$2?$CL$2?9$4?9@ 00579c98     Gerber.obj
 0003:0000dcf0       ??_C@_0BB@DJKNDOFF@?$CFAMRECTHERM_45?$CK?6?$AA@ 00579cf0     Gerber.obj
 0003:0000dd04       ??_C@_0CL@IMFCBDCM@1?01?0$4?$CL$4?$CL$4?$CL$4?0$3?$CL$3?$CL$4?$CL$4?0$2?$CL$@ 00579d04     Gerber.obj
 0003:0000dd38       ??_C@_0CK@KCMGHAJP@1?01?0$4?$CL$4?$CL$4?$CL$4?0$1?$CL$1?9$4?9$4?0$3?$CL$@ 00579d38     Gerber.obj
 0003:0000dd6c       ??_C@_0CK@DFNBFILD@1?01?0$4?$CL$4?$CL$4?$CL$4?0$1?$CL$1?9$4?9$4?0$2?$CL$@ 00579d6c     Gerber.obj
 0003:0000dda0       ??_C@_0EC@KFLFIJIH@21?01?0$1?$CL$1?9$3?9$3?9$4?9$4?9$4?9$4?0$2?$CL@ 00579da0     Gerber.obj
 0003:0000ddf0       ??_C@_0EC@LCNAODKA@21?01?0$1?$CL$1?9$3?9$3?9$4?9$4?0$2?$CL$2?9$3?9@ 00579df0     Gerber.obj
 0003:0000de40       ??_C@_0CM@BBPAPKJH@1?01?0$4?$CL$4?$CL$4?$CL$4?0$3?$CL$3?$CL$4?$CL$4?00?9$2@ 00579e40     Gerber.obj
 0003:0000de74       ??_C@_0CM@OLCNMHJJ@1?01?0$4?$CL$4?$CL$4?$CL$4?0$1?$CL$1?9$4?9$4?00?9$3@ 00579e74     Gerber.obj
 0003:0000dea8       ??_C@_0CM@HMDKOPLF@1?01?0$4?$CL$4?$CL$4?$CL$4?0$1?$CL$1?9$4?9$4?00?9$2@ 00579ea8     Gerber.obj
 0003:0000dee0       ??_C@_0EE@LIIAEHC@21?01?0$1?$CL$1?9$3?9$3?9$4?9$4?9$4?9$4?0$2?$CL@ 00579ee0     Gerber.obj
 0003:0000df38       ??_C@_0EE@IIGMOCAK@21?01?0$1?$CL$1?9$3?9$3?9$4?9$4?0$2?$CL$2?9$3?9@ 00579f38     Gerber.obj
 0003:0000df8c       ??_C@_0CM@BJBKLMHB@1?01?0$4?$CL$4?$CL$4?$CL$4?00?9$3?9$3?9$4?9$4?0$2@ 00579f8c     Gerber.obj
 0003:0000dfc0       ??_C@_0CM@MIHKMCMD@1?01?0$4?$CL$4?$CL$4?$CL$4?00?9$1?9$1?$CL$4?$CL$4?0$3@ 00579fc0     Gerber.obj
 0003:0000dff4       ??_C@_0CM@FPGNOKOP@1?01?0$4?$CL$4?$CL$4?$CL$4?00?9$1?9$1?$CL$4?$CL$4?0$2@ 00579ff4     Gerber.obj
 0003:0000e028       ??_C@_0EE@GPGNJJLF@21?01?0$1?$CL$1?9$3?9$3?9$4?9$4?9$4?9$4?0$2?$CL@ 0057a028     Gerber.obj
 0003:0000e080       ??_C@_0EE@PKLLKCFP@21?01?0$1?$CL$1?9$3?9$3?9$4?9$4?0$2?$CL$2?9$3?9@ 0057a080     Gerber.obj
 0003:0000e0d4       ??_C@_0CO@CCJBFAND@1?01?0$4?$CL$4?$CL$4?$CL$4?00?9$3?9$3?9$4?9$4?00?9@ 0057a0d4     Gerber.obj
 0003:0000e10c       ??_C@_0CO@NIEMGNNN@1?01?0$4?$CL$4?$CL$4?$CL$4?00?9$1?9$1?$CL$4?$CL$4?00?9@ 0057a10c     Gerber.obj
 0003:0000e144       ??_C@_0CO@EPFLEFPB@1?01?0$4?$CL$4?$CL$4?$CL$4?00?9$1?9$1?$CL$4?$CL$4?00?9@ 0057a144     Gerber.obj
 0003:0000e180       ??_C@_0EG@PLEPIKLP@21?01?0$1?$CL$1?9$3?9$3?9$4?9$4?9$4?9$4?0$2?$CL@ 0057a180     Gerber.obj
 0003:0000e1d8       ??_C@_0EG@BKJDCGBF@21?01?0$1?$CL$1?9$3?9$3?9$4?9$4?0$2?$CL$2?9$3?9@ 0057a1d8     Gerber.obj
 0003:0000e22c       ??_C@_0O@LIPJDHE@?$CFAMRECTHERM?$CK?6?$AA@ 0057a22c     Gerber.obj
 0003:0000e23c       ??_C@_0DP@PPALEEKI@G04?5Rectangular?5Thermal?5Macro?0?5p@ 0057a23c     Gerber.obj
 0003:0000e288       ??_C@_0BJ@ILGNIIMH@1?01?0$3?$CL$3?0$3?9$1?0$3?9$2?$CK?$CF?6?$AA@ 0057a288     Gerber.obj
 0003:0000e2a8       ??_C@_0BI@EFFAJJFP@1?01?0$3?$CL$3?0$1?9$3?0$3?9$2?$CK?6?$AA@ 0057a2a8     Gerber.obj
 0003:0000e2c4       ??_C@_0BI@DPDCJAPI@1?01?0$3?$CL$3?0$3?9$1?0$2?9$3?$CK?6?$AA@ 0057a2c4     Gerber.obj
 0003:0000e2e0       ??_C@_0BI@FLJLPFIO@1?01?0$3?$CL$3?0$1?9$3?0$2?9$3?$CK?6?$AA@ 0057a2e0     Gerber.obj
 0003:0000e2fc       ??_C@_0BP@DGAOAIKJ@21?01?0$1?$CL$1?9$3?9$3?0$2?$CL$2?00?00?00?$CK?6?$AA@ 0057a2fc     Gerber.obj
 0003:0000e324       ??_C@_0BP@LKLAOKMI@21?01?0$1?$CL$1?0$2?$CL$2?9$3?9$3?00?00?00?$CK?6?$AA@ 0057a324     Gerber.obj
 0003:0000e34c       ??_C@_0M@DPAMJFKI@?$CFAMRNDREC?$CK?6?$AA@ 0057a34c     Gerber.obj
 0003:0000e35c       ??_C@_0DE@NJBBKCIH@G04?5Rounded?5Rectangle?5Macro?0?5par@ 0057a35c     Gerber.obj
 0003:0000e39c       ??_C@_04OLOMLHL@?$CFLN?5?$AA@ 0057a39c     Gerber.obj
 0003:0000e3a4       ??_C@_04PDPKAEDN@?5?$CK?$CF?6?$AA@ 0057a3a4     Gerber.obj
 0003:0000e3ac       ??_C@_08BFDJGAEG@?$CFMOIN?$CK?$CF?6?$AA@ 0057a3ac     Gerber.obj
 0003:0000e3b8       ??_C@_0P@LHMBODJL@?$CFFSLAX24Y24?$CK?$CF?6?$AA@ 0057a3b8     Gerber.obj
 0003:0000e3cc       ??_C@_0DG@MFGIABEO@G04?5Scale?3?5100?5percent?0?5Rotated?3@ 0057a3cc     Gerber.obj
 0003:0000e40c       ??_C@_0BA@MOKFOOMN@G04?5?$CFs?5layer?5?$CK?6?$AA@ 0057a40c     Gerber.obj
 0003:0000e420       ??_C@_0BC@ONLJBKA@bottom?5paste?5mask?$AA@ 0057a420     Gerber.obj
 0003:0000e438       ??_C@_0P@BBBHKDDI@top?5paste?5mask?$AA@ 0057a438     Gerber.obj
 0003:0000e44c       ??_C@_04EHBMEDCO@45?40?$AA@ 0057a44c     Gerber.obj
 0003:0000e458       __real@3fd921fb54442eea    0057a458     Gerber.obj
 0003:0000e468       ??_7?$CArray@VCAperture@@V1@@@6B@ 0057a468     Gerber.obj
 0003:0000e4d8       ??_C@_07JNLHAIBP@?$CFlf?5?$CFlf?$AA@ 0057a4d8     gpc_232.obj
 0003:0000e4e4       ??_C@_0BA@EHDPPPDI@vertex?5creation?$AA@ 0057a4e4     gpc_232.obj
 0003:0000e4f8       ??_C@_0BB@OCAHDIFD@contour?5creation?$AA@ 0057a4f8     gpc_232.obj
 0003:0000e50c       ??_C@_0BI@GBJAADOD@gpc?5malloc?5failure?3?5?$CFs?6?$AA@ 0057a50c     gpc_232.obj
 0003:0000e528       ??_C@_0BJ@MPFDCKJB@hole?5flag?5array?5creation?$AA@ 0057a528     gpc_232.obj
 0003:0000e548       ??_C@_0P@OOOLJDIM@?$CF?5?4?$CKlf?5?$CF?5?4?$CKlf?6?$AA@ 0057a548     gpc_232.obj
 0003:0000e55c       ??_C@_03PMGGPEJJ@?$CFd?6?$AA@ 0057a55c     gpc_232.obj
 0003:0000e560       ??_C@_0BB@DMABKBKA@contour?5addition?$AA@ 0057a560     gpc_232.obj
 0003:0000e574       ??_C@_0BG@JNAHPLPG@contour?5hole?5addition?$AA@ 0057a574     gpc_232.obj
 0003:0000e590       ??_C@_0BJ@CMCBODNK@hole?5flag?5table?5creation?$AA@ 0057a590     gpc_232.obj
 0003:0000e5b0       __real@3cb0000000000000    0057a5b0     gpc_232.obj
 0003:0000e5c0       __real@ffefffffffffffff    0057a5c0     gpc_232.obj
 0003:0000e5cc       ??_C@_0N@FBEONJIC@sbt?5creation?$AA@ 0057a5cc     gpc_232.obj
 0003:0000e5dc       ??_C@_0BE@DDDONHEA@edge?5table?5creation?$AA@ 0057a5dc     gpc_232.obj
 0003:0000e5f4       ??_C@_0O@PACJOHFA@LMT?5insertion?$AA@ 0057a5f4     gpc_232.obj
 0003:0000e604       ??_C@_0BI@KNFEDHGK@scanbeam?5tree?5insertion?$AA@ 0057a604     gpc_232.obj
 0003:0000e620       ??_C@_0N@LELBEKD@ST?5insertion?$AA@ 0057a620     gpc_232.obj
 0003:0000e630       ??_C@_0N@IFBDNEFP@IT?5insertion?$AA@ 0057a630     gpc_232.obj
 0003:0000e640       ??_C@_0BF@EBLPDDCK@vertex?5node?5creation?$AA@ 0057a640     gpc_232.obj
 0003:0000e65c       ??_C@_0BG@KDIMFLIB@polygon?5node?5creation?$AA@ 0057a65c     gpc_232.obj
 0003:0000e678       ??_C@_0BH@KNBJDBCH@overlap?5table?5creation?$AA@ 0057a678     gpc_232.obj
 0003:0000e698       __real@7fefffffffffffff    0057a698     gpc_232.obj
 0003:0000e6a4       ??_C@_0BG@CIAEENND@Bounding?5box?5creation?$AA@ 0057a6a4     gpc_232.obj
 0003:0000e6c0       ??_C@_0BC@FHGMEMGM@tristrip?5creation?$AA@ 0057a6c0     gpc_232.obj
 0003:0000e6d8       ??_C@_0BH@PBKADNOF@tristrip?5list?5creation?$AA@ 0057a6d8     gpc_232.obj
 0003:0000e6f4       ??_C@_0BJ@LHDPKNGJ@tristrip?5vertex?5creation?$AA@ 0057a6f4     gpc_232.obj
 0003:0000e714       ??_C@_0BH@KHNDDJON@tristrip?5node?5creation?$AA@ 0057a714     gpc_232.obj
 0003:0000e730       ??_C@_0L@GOKPKJAL@CMainFrame?$AA@ 0057a730     MainFrm.obj
 0003:0000e740       ?classCMainFrame@CMainFrame@@2UCRuntimeClass@@B 0057a740     MainFrm.obj
 0003:0000e92c       ??_7CMainFrame@@6B@        0057a92c     MainFrm.obj
 0003:0000eb48       ??_C@_09LDKJOEFJ@BottomXXX?$AA@ 0057ab48     MainFrm.obj
 0003:0000eb54       ??_C@_05CJBACGMB@hello?$AA@ 0057ab54     MainFrm.obj
 0003:0000eb60       ??_C@_0GM@ENJBHNPM@?$CK?$CK?$CK?$CK?$CK?$CK?$CK?$CK?$CK?$CK?$CK?$CK?$CK?$CK?$CK?$CK?$CK?$CK?$CK?$CK?$CK?$CK?$CK?$CK?$CK?$CK?$CK?$CK?$CK?$CK?$CK?$CK@ 0057ab60     MainFrm.obj
 0003:0000ebe4       ??_C@_04HEEDMNIO@Y?3?50?$AA@ 0057abe4     MainFrm.obj
 0003:0000ebec       ??_C@_0M@FDPOOMHK@Y?3?5?99999999?$AA@ 0057abec     MainFrm.obj
 0003:0000ebfc       ??_C@_04EJCDOEDO@X?3?50?$AA@ 0057abfc     MainFrm.obj
 0003:0000ec04       ??_C@_0M@MIFLKABF@X?3?5?99999999?$AA@ 0057ac04     MainFrm.obj
 0003:0000ec14       ??_C@_0BN@PFGMLJKC@Failed?5to?5create?5status?5bar?6?$AA@ 0057ac14     MainFrm.obj
 0003:0000ec38       ??_C@_0BH@NNIHNJIM@c?3?2freeasy?2mainfrm?4cpp?$AA@ 0057ac38     MainFrm.obj
 0003:0000ec54       ??_C@_0BK@CNGJMJO@Failed?5to?5create?5toolbar?6?$AA@ 0057ac54     MainFrm.obj
 0003:0000ec74       ??_C@_09GCIFNGNF@WinHeight?$AA@ 0057ac74     MainFrm.obj
 0003:0000ec80       ??_C@_08NENJCHMC@WinWidth?$AA@ 0057ac80     MainFrm.obj
 0003:0000ec8c       ??_C@_0M@CLCDHCIE@TopWinCoord?$AA@ 0057ac8c     MainFrm.obj
 0003:0000ec9c       ??_C@_0N@IFJPDOKN@LeftWinCoord?$AA@ 0057ac9c     MainFrm.obj
 0003:0000ecac       ??_C@_0L@CIIAKOJB@invalidate?$AA@ 0057acac     MainFrm.obj
 0003:0000ecbc       ??_C@_07CABOGMN@enquary?$AA@ 0057acbc     MainFrm.obj
 0003:0000ecc8       ??_C@_05NDLFFNHM@paste?$AA@ 0057acc8     MainFrm.obj
 0003:0000ecd0       ??_C@_04HDMMNHEL@move?$AA@ 0057acd0     MainFrm.obj
 0003:0000ecd8       ??_C@_05HHJBIPMO@parts?$AA@ 0057acd8     MainFrm.obj
 0003:0000ece0       ??_C@_04MAHKJMLL@pins?$AA@ 0057ace0     MainFrm.obj
 0003:0000ece8       ??_C@_04NJIOBGCF@jump?$AA@ 0057ace8     MainFrm.obj
 0003:0000ecf0       ??_C@_0L@IAGFAEEF@CMyToolBar?$AA@ 0057acf0     MyToolBar.obj
 0003:0000ed00       ?classCMyToolBar@CMyToolBar@@2UCRuntimeClass@@B 0057ad00     MyToolBar.obj
 0003:0000ee3c       ??_7CMyToolBar@@6B@        0057ae3c     MyToolBar.obj
 0003:0000f048       ??_C@_07LBKGAJKF@?5?5Angle?$AA@ 0057b048     MyToolBar.obj
 0003:0000f054       ??_C@_07JDLKKLEK@?5?5Texts?$AA@ 0057b054     MyToolBar.obj
 0003:0000f060       ??_C@_0M@KEBOPMFN@?5?5Polylines?$AA@ 0057b060     MyToolBar.obj
 0003:0000f070       ??_C@_0BC@MCIMOKOB@?5?5?5Grids?3?5Visible?$AA@ 0057b070     MyToolBar.obj
 0003:0000f088       ??_C@_08MGEJDAGA@?5?5?5Units?$AA@ 0057b088     MyToolBar.obj
 0003:0000f094       ??_C@_03GCDBBDDL@Off?$AA@  0057b094     MyToolBar.obj
 0003:0000f098       ??_C@_02PEECMOAB@90?$AA@   0057b098     MyToolBar.obj
 0003:0000f09c       ??_C@_02IBONKJBH@45?$AA@   0057b09c     MyToolBar.obj
 0003:0000f0a0       ??_C@_03JMFMNIFM@?9?9?9?$AA@ 0057b0a0     MyToolBar.obj
 0003:0000f0a4       ??_C@_04LPBONMDM@?5mil?$AA@ 0057b0a4     MyToolBar.obj
 0003:0000f0ac       ??_C@_03OONFMCEE@?5mm?$AA@ 0057b0ac     MyToolBar.obj
 0003:0000f0b0       ??_C@_05OAAKFPML@?$CF9?43f?$AA@ 0057b0b0     MyToolBar.obj
 0003:0000f1f4       ??_7CPathDialog@@6B@       0057b1f4     PathDialog.obj
 0003:0000f204       ??_7CPathDialogSub@@6B@    0057b204     PathDialog.obj
 0003:0000f3b4       ??_C@_04BMCEDOKO@EDIT?$AA@ 0057b3b4     PathDialog.obj
 0003:0000f3c0       ??_C@_1FG@BPOMMOH@?$AAp?$AAD?$AAl?$AAg?$AA?9?$AA?$DO?$AAm?$AA_?$AAP?$AAa?$AAt?$AAh?$AAD?$AAi?$AAa?$AAl?$AAo?$AAg?$AAS?$AAu?$AAb?$AA?4?$AAS?$AAu?$AAb?$AAc?$AAl?$AAa?$AAs?$AAs?$AAW?$AAi@ 0057b3c0     PathDialog.obj
 0003:0000f428       ??_C@_1DE@OOJEJHEH@?$AAc?$AA?3?$AA?2?$AAf?$AAr?$AAe?$AAe?$AAa?$AAs?$AAy?$AA?2?$AAp?$AAa?$AAt?$AAh?$AAd?$AAi?$AAa?$AAl?$AAo?$AAg?$AA?4?$AAc?$AAp?$AAp?$AA?$AA@ 0057b428     PathDialog.obj
 0003:0000f47c       ??_C@_0BL@FNHJOELO@c?3?2freeasy?2php_polygon?4cpp?$AA@ 0057b47c     php_polygon.obj
 0003:0000f4a0       __real@3ff0000000000000    0057b4a0     php_polygon.obj
 0003:0000f4b0       ??_C@_0HD@NAMDABKE@?5?5?5?5?5?5perturb?3?6?5?5?5?5?5?5new?5s?5?$DN?5?$CI?$CFf@ 0057b4b0     php_polygon.obj
 0003:0000f53c       ??_C@_1DG@LECEAEFO@?$AAc?$AA?3?$AA?2?$AAf?$AAr?$AAe?$AAe?$AAa?$AAs?$AAy?$AA?2?$AAp?$AAh?$AAp?$AA_?$AAp?$AAo?$AAl?$AAy?$AAg?$AAo?$AAn?$AA?4?$AAc?$AAp?$AAp?$AA?$AA@ 0057b53c     php_polygon.obj
 0003:0000f57c       ??_C@_0CC@HHKEAFBF@?5?5?5?5ints?3?5ua?5?$DN?5?$CF?417f?0?5ub?5?$DN?5?$CF?417f@ 0057b57c     php_polygon.obj
 0003:0000f5a8       __real@c1bdcd6500000000    0057b5a8     php_polygon.obj
 0003:0000f5b8       __real@41cdcd6500000000    0057b5b8     php_polygon.obj
 0003:0000f5c8       __real@4187d78400000000    0057b5c8     php_polygon.obj
 0003:0000f5d8       __real@c1cdcd6500000000    0057b5d8     php_polygon.obj
 0003:0000f5e8       __real@c187d78400000000    0057b5e8     php_polygon.obj
 0003:0000f5f4       ??_C@_0BL@IIEACNFL@boolean?4?4?4phase?51?5testing?6?$AA@ 0057b5f4     php_polygon.obj
 0003:0000f614       ??_C@_0CN@DMIFPBO@?5?5?5?5?5?5int?5at?5?$CI?$CFf?0?$CFf?$CJ?5aS?5?$DN?5?$CF?417f?0@ 0057b614     php_polygon.obj
 0003:0000f64c       ??_C@_0BN@NCONFDBL@?5?5c?$DN?$CI?$CFf?0?$CFf?$CJ?5to?5?$CI?$CFf?0?$CFf?$CJ?5I?$DN?$CFd?6?$AA@ 0057b64c     php_polygon.obj
 0003:0000f670       ??_C@_0BL@HNOINADA@s?$DN?$CI?$CFf?0?$CFf?$CJ?5to?5?$CI?$CFf?0?$CFf?$CJ?5I?$DN?$CFd?6?$AA@ 0057b670     php_polygon.obj
 0003:0000f690       ??_C@_0BD@JNADFALH@boolean?4?4?4phase?51?6?$AA@ 0057b690     php_polygon.obj
 0003:0000f6a8       ??_C@_0CC@IFEMFEDK@c?3?2freeasy?2php_polygon_vertex?4cp@ 0057b6a8     php_polygon_vertex.obj
 0003:0000f6d0       ??_C@_0BI@GHJEDBBF@c?3?2freeasy?2polyline?4cpp?$AA@ 0057b6d0     PolyLine.obj
 0003:0000f6ec       ??_C@_1DA@HNEJPKII@?$AAc?$AA?3?$AA?2?$AAf?$AAr?$AAe?$AAe?$AAa?$AAs?$AAy?$AA?2?$AAp?$AAo?$AAl?$AAy?$AAl?$AAi?$AAn?$AAe?$AA?4?$AAc?$AAp?$AAp?$AA?$AA@ 0057b6ec     PolyLine.obj
 0003:0000f728       __real@c11f018000000000    0057b728     PolyLine.obj
 0003:0000f738       __real@3f847ae147ae147b    0057b738     PolyLine.obj
 0003:0000f748       __real@3fe6a09cc319c5a4    0057b748     PolyLine.obj
 0003:0000f758       __real@c066800000000000    0057b758     PolyLine.obj
 0003:0000f764       __real@00000000            0057b764     PolyLine.obj
 0003:0000f76c       ??_7?$CArray@PAVdl_element@@ABQAV1@@@6B@ 0057b76c     PolyLine.obj
 0003:0000f788       ??_7?$CArray@VCPolyPt@@ABV1@@@6B@ 0057b788     PolyLine.obj
 0003:0000f7a4       ??_7?$CArray@VCContourData@@ABV1@@@6B@ 0057b7a4     PolyLine.obj
 0003:0000f7bc       ??_C@_0BB@IHMEONLD@SHGetFolderPathA?$AA@ 0057b7bc     QAFDebug.obj
 0003:0000f7d0       ??_C@_0N@HCMEEEOA@shfolder?4dll?$AA@ 0057b7d0     QAFDebug.obj
 0003:0000f7e0       ??_C@_0M@KFDNOLCO@shell32?4dll?$AA@ 0057b7e0     QAFDebug.obj
 0003:0000f7f0       ??_C@_0P@KFPBMHHB@FAILED?$CI0x?$CF08X?$CJ?$AA@ 0057b7f0     QAFDebug.obj
 0003:0000f804       ??_C@_0BA@PDMOOHID@QAFDbgMemFile01?$AA@ 0057b804     QAFDebug.obj
 0003:0000f818       ??_C@_0O@PPMOKONL@error?4old?4log?$AA@ 0057b818     QAFDebug.obj
 0003:0000f828       ??_C@_09EGLJBNGG@error?4log?$AA@ 0057b828     QAFDebug.obj
 0003:0000f834       ??_C@_0BA@EKKJBNIK@QAFERRORLOGPATH?$AA@ 0057b834     QAFDebug.obj
 0003:0000f848       ??_C@_0N@OLJHKIGK@FreePCB?2Log?2?$AA@ 0057b848     QAFDebug.obj
 0003:0000f858       ??_C@_0BC@PNJDLGFI@QAFDebugMutex001A?$AA@ 0057b858     QAFDebug.obj
 0003:0000f8a0       ??_C@_0FN@MJFECDCD@QAFD_FreePCB?5Debug?5System?5Error?5@ 0057b8a0     QAFDebug.obj
 0003:0000f910       ??_C@_0EI@CAEOKKOE@QAFD_FreePCB?5Debug?5System?5Error?5@ 0057b910     QAFDebug.obj
 0003:0000f968       ??_C@_0DL@LLGAKMB@QAFD_FreePCB?5Debug?5System?5Error?5@ 0057b968     QAFDebug.obj
 0003:0000f9b0       ??_C@_0JF@MDLEMIFJ@QAFD_FreePCB?5?$FL?$CF04d?9?$CF02d?9?$CF02d?5?$CF02@ 0057b9b0     QAFDebug.obj
 0003:0000fa68       ??_C@_0EH@IDGJMEBJ@QAFD_FreePCB?5Debug?5System?5Error?5@ 0057ba68     QAFDebug.obj
 0003:0000fac0       ??_C@_0M@IPILFDFN@?$CFs?$CI?$CFd?$CJ?5?3?5?$CFs?$AA@ 0057bac0     QAFDebug.obj
 0003:0000fad0       ??_C@_0FP@CGGIFKFJ@QAFD_FreePCB?5Debug?5System?5Error?5@ 0057bad0     QAFDebug.obj
 0003:0000fb44       ??_C@_0DB@BLHIBGBF@?$FLCould?5not?5find?5any?5description?5@ 0057bb44     QAFDebug.obj
 0003:0000fb80       ??_C@_09JJEJBEGO@Failed?$CB?$AN?6?$AA@ 0057bb80     RTcall.obj
 0003:0000fb8c       ??_C@_0BL@DLHANMGB@c?3?2freeasy?2smcharacter?4cpp?$AA@ 0057bb8c     smcharacter.obj
 0003:0000fbac       ??_C@_07FIEHOFBO@?$CFlf?0?$CFlf?$AA@ 0057bbac     smcharacter.obj
 0003:0000fbb8       __real@c04fc00000000000    0057bbb8     smcharacter.obj
 0003:0000fbc4       ??_C@_1DE@NHKGAONM@?$AAc?$AA?3?$AA?2?$AAf?$AAr?$AAe?$AAe?$AAa?$AAs?$AAy?$AA?2?$AAs?$AAm?$AAf?$AAo?$AAn?$AAt?$AAu?$AAt?$AAi?$AAl?$AA?4?$AAc?$AAp?$AAp?$AA?$AA@ 0057bbc4     smfontutil.obj
 0003:0000fc08       ??_7?$CTypedPtrArray@VCPtrArray@@PAVSMCharacter@@@@6B@ 0057bc08     smfontutil.obj
 0003:0000fc20       ??_C@_0BK@JFABDOIL@c?3?2freeasy?2smfontutil?4cpp?$AA@ 0057bc20     smfontutil.obj
 0003:0000fc40       ??_C@_0BP@BAOGLLJJ@Font?5stroke?5file?5was?5not?5found?$AA@ 0057bc40     smfontutil.obj
 0003:0000fc68       ??_C@_02JDPG@rb?$AA@       0057bc68     smfontutil.obj
 0003:0000fc6c       ??_C@_0CE@CKFLMBFL@Font?5translation?5file?5was?5not?5fo@ 0057bc6c     smfontutil.obj
 0003:0000fc98       ??_C@_02GMLFBBN@wb?$AA@    0057bc98     smfontutil.obj
 0003:0000fc9c       ??_C@_0DG@FLLLFILM@Translation?5file?5did?5not?5open?6Lo@ 0057bc9c     smfontutil.obj
 0003:0000fcdc       ??_C@_05NAOIJFC@Error?$AA@ 0057bcdc     smfontutil.obj
 0003:0000fce4       ??_C@_0BN@CNLEEIDP@Select?5Font?5Translation?5File?$AA@ 0057bce4     smfontutil.obj
 0003:0000fd08       ??_C@_05JALKLJPN@?$CK?4csv?$AA@ 0057bd08     smfontutil.obj
 0003:0000fd10       ??_C@_0CG@OCEJMGKH@Font?5Translation?5File?5?$CI?$CK?4csv?$CJ?$HM?$CK?4@ 0057bd10     smfontutil.obj
 0003:0000fd40       ??_C@_0CI@HPBDFLEJ@Font?5file?5did?5not?5open?6LoadOldSt@ 0057bd40     smfontutil.obj
 0003:0000fd70       ??_C@_0BI@IJMLMHNF@Select?5Font?5Stroke?5File?$AA@ 0057bd70     smfontutil.obj
 0003:0000fd8c       ??_C@_0CB@PFANHDHB@Font?5Stroke?5File?5?$CI?$CK?4csv?$CJ?$HM?$CK?4csv?$HM?$HM@ 0057bd8c     smfontutil.obj
 0003:0000fdb8       __real@4036000000000000    0057bdb8     smfontutil.obj
 0003:0000fdc8       __real@4030000000000000    0057bdc8     smfontutil.obj
 0003:0000fdd4       ??_C@_0M@CKCKOGFB@Hershey?4smf?$AA@ 0057bdd4     smfontutil.obj
 0003:0000fde4       ??_C@_0M@IKLADMKL@Hershey?4xtb?$AA@ 0057bde4     smfontutil.obj
 0003:0000fdf4       ??_C@_07KJLOKDKB@TypeLib?$AA@ 0057bdf4     StdAfx.obj
 0003:0000fe00       ??_C@_08KEKAJNJI@Software?$AA@ 0057be00     StdAfx.obj
 0003:0000fe0c       ??_C@_06FDHFNJBJ@SYSTEM?$AA@ 0057be0c     StdAfx.obj
 0003:0000fe14       ??_C@_08LOPHEHKG@SECURITY?$AA@ 0057be14     StdAfx.obj
 0003:0000fe20       ??_C@_03DDIMFGBA@SAM?$AA@  0057be20     StdAfx.obj
 0003:0000fe24       ??_C@_04IHBFOLAC@Mime?$AA@ 0057be24     StdAfx.obj
 0003:0000fe2c       ??_C@_08PPIOJEA@Hardware?$AA@ 0057be2c     StdAfx.obj
 0003:0000fe38       ??_C@_09JKPGEJCH@Interface?$AA@ 0057be38     StdAfx.obj
 0003:0000fe44       ??_C@_08PICKODJL@FileType?$AA@ 0057be44     StdAfx.obj
 0003:0000fe50       ??_C@_0BF@HDDNNDFH@Component?5Categories?$AA@ 0057be50     StdAfx.obj
 0003:0000fe6c       ??_C@_05GIBEAPNE@CLSID?$AA@ 0057be6c     StdAfx.obj
 0003:0000fe74       ??_C@_05PDIKPLII@AppID?$AA@ 0057be74     StdAfx.obj
 0003:0000fe7c       ??_C@_06JBKGCNBB@Delete?$AA@ 0057be7c     StdAfx.obj
 0003:0000fe84       ??_C@_08KAAPDIAN@NoRemove?$AA@ 0057be84     StdAfx.obj
 0003:0000fe90       ??_C@_0M@DBGDLGLL@ForceRemove?$AA@ 0057be90     StdAfx.obj
 0003:0000fea0       ??_C@_03LAIAPFCB@Val?$AA@  0057bea0     StdAfx.obj
 0003:0000fea4       ??_C@_01HMGJMAIH@B?$AA@    0057bea4     StdAfx.obj
 0003:0000fea8       ??_C@_01CKDDGHAB@D?$AA@    0057bea8     StdAfx.obj
 0003:0000feac       ??_C@_01PLPBNMEI@M?$AA@    0057beac     StdAfx.obj
 0003:0000feb0       ??_C@_01CPLAODJH@S?$AA@    0057beb0     StdAfx.obj
 0003:0000feb4       ??_C@_0BF@GPPHKJFN@Invalid?5DateTimeSpan?$AA@ 0057beb4     StdAfx.obj
 0003:0000fed0       ??_C@_0BB@KEKMKJPM@Invalid?5DateTime?$AA@ 0057bed0     StdAfx.obj
 0003:0000fee4       ?_Min@?$AtlLimits@H@ATL@@2HB 0057bee4     StdAfx.obj
 0003:0000fee8       ?_Max@?$AtlLimits@H@ATL@@2HB 0057bee8     StdAfx.obj
 0003:0000feec       ?_Min@?$AtlLimits@I@ATL@@2IB 0057beec     StdAfx.obj
 0003:0000fef0       ?_Max@?$AtlLimits@I@ATL@@2IB 0057bef0     StdAfx.obj
 0003:0000fef4       ?_Min@?$AtlLimits@J@ATL@@2JB 0057bef4     StdAfx.obj
 0003:0000fef8       ?_Max@?$AtlLimits@J@ATL@@2JB 0057bef8     StdAfx.obj
 0003:0000fefc       ?_Min@?$AtlLimits@K@ATL@@2KB 0057befc     StdAfx.obj
 0003:0000ff00       ?_Max@?$AtlLimits@K@ATL@@2KB 0057bf00     StdAfx.obj
 0003:0000ff08       ?_Min@?$AtlLimits@_J@ATL@@2_JB 0057bf08     StdAfx.obj
 0003:0000ff18       ?_Max@?$AtlLimits@_J@ATL@@2_JB 0057bf18     StdAfx.obj
 0003:0000ff28       ?_Min@?$AtlLimits@_K@ATL@@2_KB 0057bf28     StdAfx.obj
 0003:0000ff38       ?_Max@?$AtlLimits@_K@ATL@@2_KB 0057bf38     StdAfx.obj
 0003:0000ff44       ?VT@?$CVarTypeInfo@D@ATL@@2GB 0057bf44     StdAfx.obj
 0003:0000ff48       ?pmField@?$CVarTypeInfo@D@ATL@@2QQtagVARIANT@@DQ3@ 0057bf48     StdAfx.obj
 0003:0000ff4c       ?VT@?$CVarTypeInfo@E@ATL@@2GB 0057bf4c     StdAfx.obj
 0003:0000ff50       ?pmField@?$CVarTypeInfo@E@ATL@@2QQtagVARIANT@@EQ3@ 0057bf50     StdAfx.obj
 0003:0000ff54       ?VT@?$CVarTypeInfo@PAD@ATL@@2GB 0057bf54     StdAfx.obj
 0003:0000ff58       ?pmField@?$CVarTypeInfo@PAD@ATL@@2QQtagVARIANT@@PADQ3@ 0057bf58     StdAfx.obj
 0003:0000ff5c       ?VT@?$CVarTypeInfo@PAE@ATL@@2GB 0057bf5c     StdAfx.obj
 0003:0000ff60       ?pmField@?$CVarTypeInfo@PAE@ATL@@2QQtagVARIANT@@PAEQ3@ 0057bf60     StdAfx.obj
 0003:0000ff64       ?VT@?$CVarTypeInfo@F@ATL@@2GB 0057bf64     StdAfx.obj
 0003:0000ff68       ?pmField@?$CVarTypeInfo@F@ATL@@2QQtagVARIANT@@FQ3@ 0057bf68     StdAfx.obj
 0003:0000ff6c       ?VT@?$CVarTypeInfo@PAF@ATL@@2GB 0057bf6c     StdAfx.obj
 0003:0000ff70       ?pmField@?$CVarTypeInfo@PAF@ATL@@2QQtagVARIANT@@PAFQ3@ 0057bf70     StdAfx.obj
 0003:0000ff74       ?VT@?$CVarTypeInfo@G@ATL@@2GB 0057bf74     StdAfx.obj
 0003:0000ff78       ?pmField@?$CVarTypeInfo@G@ATL@@2QQtagVARIANT@@GQ3@ 0057bf78     StdAfx.obj
 0003:0000ff7c       ?VT@?$CVarTypeInfo@PAG@ATL@@2GB 0057bf7c     StdAfx.obj
 0003:0000ff80       ?pmField@?$CVarTypeInfo@PAG@ATL@@2QQtagVARIANT@@PAGQ3@ 0057bf80     StdAfx.obj
 0003:0000ff84       ?VT@?$CVarTypeInfo@H@ATL@@2GB 0057bf84     StdAfx.obj
 0003:0000ff88       ?pmField@?$CVarTypeInfo@H@ATL@@2QQtagVARIANT@@HQ3@ 0057bf88     StdAfx.obj
 0003:0000ff8c       ?VT@?$CVarTypeInfo@PAH@ATL@@2GB 0057bf8c     StdAfx.obj
 0003:0000ff90       ?pmField@?$CVarTypeInfo@PAH@ATL@@2QQtagVARIANT@@PAHQ3@ 0057bf90     StdAfx.obj
 0003:0000ff94       ?VT@?$CVarTypeInfo@I@ATL@@2GB 0057bf94     StdAfx.obj
 0003:0000ff98       ?pmField@?$CVarTypeInfo@I@ATL@@2QQtagVARIANT@@IQ3@ 0057bf98     StdAfx.obj
 0003:0000ff9c       ?VT@?$CVarTypeInfo@PAI@ATL@@2GB 0057bf9c     StdAfx.obj
 0003:0000ffa0       ?pmField@?$CVarTypeInfo@PAI@ATL@@2QQtagVARIANT@@PAIQ3@ 0057bfa0     StdAfx.obj
 0003:0000ffa4       ?VT@?$CVarTypeInfo@J@ATL@@2GB 0057bfa4     StdAfx.obj
 0003:0000ffa8       ?pmField@?$CVarTypeInfo@J@ATL@@2QQtagVARIANT@@JQ3@ 0057bfa8     StdAfx.obj
 0003:0000ffac       ?VT@?$CVarTypeInfo@PAJ@ATL@@2GB 0057bfac     StdAfx.obj
 0003:0000ffb0       ?pmField@?$CVarTypeInfo@PAJ@ATL@@2QQtagVARIANT@@PAJQ3@ 0057bfb0     StdAfx.obj
 0003:0000ffb4       ?VT@?$CVarTypeInfo@K@ATL@@2GB 0057bfb4     StdAfx.obj
 0003:0000ffb8       ?pmField@?$CVarTypeInfo@K@ATL@@2QQtagVARIANT@@KQ3@ 0057bfb8     StdAfx.obj
 0003:0000ffbc       ?VT@?$CVarTypeInfo@PAK@ATL@@2GB 0057bfbc     StdAfx.obj
 0003:0000ffc0       ?pmField@?$CVarTypeInfo@PAK@ATL@@2QQtagVARIANT@@PAKQ3@ 0057bfc0     StdAfx.obj
 0003:0000ffc4       ?VT@?$CVarTypeInfo@_J@ATL@@2GB 0057bfc4     StdAfx.obj
 0003:0000ffc8       ?pmField@?$CVarTypeInfo@_J@ATL@@2QQtagVARIANT@@_JQ3@ 0057bfc8     StdAfx.obj
 0003:0000ffcc       ?VT@?$CVarTypeInfo@PA_J@ATL@@2GB 0057bfcc     StdAfx.obj
 0003:0000ffd0       ?pmField@?$CVarTypeInfo@PA_J@ATL@@2QQtagVARIANT@@PA_JQ3@ 0057bfd0     StdAfx.obj
 0003:0000ffd4       ?VT@?$CVarTypeInfo@_K@ATL@@2GB 0057bfd4     StdAfx.obj
 0003:0000ffd8       ?pmField@?$CVarTypeInfo@_K@ATL@@2QQtagVARIANT@@_KQ3@ 0057bfd8     StdAfx.obj
 0003:0000ffdc       ?VT@?$CVarTypeInfo@PA_K@ATL@@2GB 0057bfdc     StdAfx.obj
 0003:0000ffe0       ?pmField@?$CVarTypeInfo@PA_K@ATL@@2QQtagVARIANT@@PA_KQ3@ 0057bfe0     StdAfx.obj
 0003:0000ffe4       ?VT@?$CVarTypeInfo@M@ATL@@2GB 0057bfe4     StdAfx.obj
 0003:0000ffe8       ?pmField@?$CVarTypeInfo@M@ATL@@2QQtagVARIANT@@MQ3@ 0057bfe8     StdAfx.obj
 0003:0000ffec       ?VT@?$CVarTypeInfo@PAM@ATL@@2GB 0057bfec     StdAfx.obj
 0003:0000fff0       ?pmField@?$CVarTypeInfo@PAM@ATL@@2QQtagVARIANT@@PAMQ3@ 0057bff0     StdAfx.obj
 0003:0000fff4       ?VT@?$CVarTypeInfo@N@ATL@@2GB 0057bff4     StdAfx.obj
 0003:0000fff8       ?pmField@?$CVarTypeInfo@N@ATL@@2QQtagVARIANT@@NQ3@ 0057bff8     StdAfx.obj
 0003:0000fffc       ?VT@?$CVarTypeInfo@PAN@ATL@@2GB 0057bffc     StdAfx.obj
 0003:00010000       ?pmField@?$CVarTypeInfo@PAN@ATL@@2QQtagVARIANT@@PANQ3@ 0057c000     StdAfx.obj
 0003:00010004       ?VT@?$CVarTypeInfo@PAUtagVARIANT@@@ATL@@2GB 0057c004     StdAfx.obj
 0003:00010008       ?VT@?$CVarTypeInfo@PA_W@ATL@@2GB 0057c008     StdAfx.obj
 0003:0001000c       ?pmField@?$CVarTypeInfo@PA_W@ATL@@2QQtagVARIANT@@PA_WQ3@ 0057c00c     StdAfx.obj
 0003:00010010       ?VT@?$CVarTypeInfo@PAPA_W@ATL@@2GB 0057c010     StdAfx.obj
 0003:00010014       ?pmField@?$CVarTypeInfo@PAPA_W@ATL@@2QQtagVARIANT@@PAPA_WQ3@ 0057c014     StdAfx.obj
 0003:00010018       ?VT@?$CVarTypeInfo@PAUIUnknown@@@ATL@@2GB 0057c018     StdAfx.obj
 0003:0001001c       ?pmField@?$CVarTypeInfo@PAUIUnknown@@@ATL@@2QQtagVARIANT@@PAUIUnknown@@Q3@ 0057c01c     StdAfx.obj
 0003:00010020       ?VT@?$CVarTypeInfo@PAPAUIUnknown@@@ATL@@2GB 0057c020     StdAfx.obj
 0003:00010024       ?pmField@?$CVarTypeInfo@PAPAUIUnknown@@@ATL@@2QQtagVARIANT@@PAPAUIUnknown@@Q3@ 0057c024     StdAfx.obj
 0003:00010028       ?VT@?$CVarTypeInfo@PAUIDispatch@@@ATL@@2GB 0057c028     StdAfx.obj
 0003:0001002c       ?pmField@?$CVarTypeInfo@PAUIDispatch@@@ATL@@2QQtagVARIANT@@PAUIDispatch@@Q3@ 0057c02c     StdAfx.obj
 0003:00010030       ?VT@?$CVarTypeInfo@PAPAUIDispatch@@@ATL@@2GB 0057c030     StdAfx.obj
 0003:00010034       ?pmField@?$CVarTypeInfo@PAPAUIDispatch@@@ATL@@2QQtagVARIANT@@PAPAUIDispatch@@Q3@ 0057c034     StdAfx.obj
 0003:00010038       ?VT@?$CVarTypeInfo@TtagCY@@@ATL@@2GB 0057c038     StdAfx.obj
 0003:0001003c       ?pmField@?$CVarTypeInfo@TtagCY@@@ATL@@2QQtagVARIANT@@TtagCY@@Q3@ 0057c03c     StdAfx.obj
 0003:00010040       ?VT@?$CVarTypeInfo@PATtagCY@@@ATL@@2GB 0057c040     StdAfx.obj
 0003:00010044       ?pmField@?$CVarTypeInfo@PATtagCY@@@ATL@@2QQtagVARIANT@@PATtagCY@@Q3@ 0057c044     StdAfx.obj
 0003:00010048       ?c_bIsMFCDLLTraits@?$_MFCDLLTraitsCheck@DV?$StrTraitMFC_DLL@DV?$ChTraitsCRT@D@ATL@@@@@_CSTRING_IMPL_@ATL@@2_NB 0057c048     StdAfx.obj
 0003:00010049       ?c_bIsMFCDLLTraits@?$_MFCDLLTraitsCheck@_WV?$StrTraitMFC_DLL@_WV?$ChTraitsCRT@_W@ATL@@@@@_CSTRING_IMPL_@ATL@@2_NB 0057c049     StdAfx.obj
 0003:0001004c       ?generic@CArchiveException@@2HB 0057c04c     StdAfx.obj
 0003:00010050       ?generic@CFileException@@2HB 0057c050     StdAfx.obj
 0003:00010058       ?Millisecond@CFileTime@ATL@@2_KB 0057c058     StdAfx.obj
 0003:00010068       ?Second@CFileTime@ATL@@2_KB 0057c068     StdAfx.obj
 0003:00010078       ?Minute@CFileTime@ATL@@2_KB 0057c078     StdAfx.obj
 0003:00010088       ?Hour@CFileTime@ATL@@2_KB  0057c088     StdAfx.obj
 0003:00010098       ?Day@CFileTime@ATL@@2_KB   0057c098     StdAfx.obj
 0003:000100a8       ?Week@CFileTime@ATL@@2_KB  0057c0a8     StdAfx.obj
 0003:000100b4       ?szInvalidDateTime@ATL@@3QBDB 0057c0b4     StdAfx.obj
 0003:000100b8       ?szInvalidDateTimeSpan@ATL@@3QBDB 0057c0b8     StdAfx.obj
 0003:000100bc       _LIBID_ATLLib              0057c0bc     StdAfx.obj
 0003:000100d0       _CLSID_Registrar           0057c0d0     StdAfx.obj
 0003:000100e4       _IID_IRegistrar            0057c0e4     StdAfx.obj
 0003:000100f8       _IID_IAxWinHostWindow      0057c0f8     StdAfx.obj
 0003:0001010c       _IID_IAxWinAmbientDispatch 0057c10c     StdAfx.obj
 0003:00010120       _IID_IInternalConnection   0057c120     StdAfx.obj
 0003:00010134       _IID_IDocHostUIHandlerDispatch 0057c134     StdAfx.obj
 0003:00010148       _IID_IAxWinHostWindowLic   0057c148     StdAfx.obj
 0003:0001015c       _IID_IAxWinAmbientDispatchEx 0057c15c     StdAfx.obj
 0003:00010198       ?MAX_VALUE@CRegParser@ATL@@1HB 0057c198     StdAfx.obj
 0003:0001019c       ?MAX_TYPE@CRegParser@ATL@@1HB 0057c19c     StdAfx.obj
 0003:000101a0       ?rgszNeverDelete@CRegParser@ATL@@1QBQBDB 0057c1a0     StdAfx.obj
 0003:000101dc       ?cbNeverDelete@CRegParser@ATL@@1HB 0057c1dc     StdAfx.obj
 0003:000101e0       ?c_bIsMFCDLLTraits@?$_MFCDLLTraitsCheck@DV?$StrTraitATL@DV?$ChTraitsCRT@D@ATL@@@ATL@@@_CSTRING_IMPL_@ATL@@2_NB 0057c1e0     StdAfx.obj
 0003:000101e1       ?c_bIsMFCDLLTraits@?$_MFCDLLTraitsCheck@_WV?$StrTraitATL@_WV?$ChTraitsCRT@_W@ATL@@@ATL@@@_CSTRING_IMPL_@ATL@@2_NB 0057c1e1     StdAfx.obj
 0003:000101e4       ?CLSID_WinFormsControl@@3U_GUID@@B 0057c1e4     StdAfx.obj
 0003:000101fc       ??_7Thank_you@Define_the_symbol__ATL_MIXED@@6B@ 0057c1fc     StdAfx.obj
 0003:00010204       ??_C@_03NPGNIJG@NET?$AA@   0057c204     TextList.obj
 0003:00010208       __real@4022000000000000    0057c208     TextList.obj
 0003:00010214       ??_C@_0BI@GIEIKDCL@c?3?2freeasy?2textlist?4cpp?$AA@ 0057c214     TextList.obj
 0003:00010234       ??_7?$CArray@PAVCText@@ABQAV1@@@6B@ 0057c234     TextList.obj
 0003:0001024c       ??_C@_0BI@LPOOPCLD@c?3?2freeasy?2undolist?4cpp?$AA@ 0057c24c     UndoList.obj
 0003:00010268       ??_C@_1DA@KKLGFCLC@?$AAc?$AA?3?$AA?2?$AAf?$AAr?$AAe?$AAe?$AAa?$AAs?$AAy?$AA?2?$AAu?$AAn?$AAd?$AAo?$AAl?$AAi?$AAs?$AAt?$AA?4?$AAc?$AAp?$AAp?$AA?$AA@ 0057c268     UndoList.obj
 0003:000102a4       ??_C@_1CO@ONKILLIB@?$AAc?$AA?3?$AA?2?$AAf?$AAr?$AAe?$AAe?$AAa?$AAs?$AAy?$AA?2?$AAu?$AAt?$AAi?$AAl?$AAi?$AAt?$AAy?$AA?4?$AAc?$AAp?$AAp?$AA?$AA@ 0057c2a4     utility.obj
 0003:000102e0       __real@bf50624dd2f1a9fc    0057c2e0     utility.obj
 0003:000102f0       __real@4046000000000000    0057c2f0     utility.obj
 0003:00010300       __real@4060e00000000000    0057c300     utility.obj
 0003:00010310       __real@4046800000000000    0057c310     utility.obj
 0003:00010320       __real@4066500000000000    0057c320     utility.obj
 0003:0001032c       __real@43870000            0057c32c     utility.obj
 0003:00010330       __real@42b40000            0057c330     utility.obj
 0003:00010338       __real@40667ccccccccccd    0057c338     utility.obj
 0003:00010348       __real@405679999999999a    0057c348     utility.obj
 0003:00010354       __real@42340000            0057c354     utility.obj
 0003:00010358       __real@40f00000            0057c358     utility.obj
 0003:00010360       __real@401e000000000000    0057c360     utility.obj
 0003:00010370       __real@401c000000000000    0057c370     utility.obj
 0003:00010380       __real@4067600000000000    0057c380     utility.obj
 0003:00010390       __real@4065a00000000000    0057c390     utility.obj
 0003:000103a0       __real@4076100000000000    0057c3a0     utility.obj
 0003:000103ac       __real@4e6e6b28            0057c3ac     utility.obj
 0003:000103b0       __real@4055400000000000    0057c3b0     utility.obj
 0003:000103c0       __real@4060400000000000    0057c3c0     utility.obj
 0003:000103d0       __real@4064a00000000000    0057c3d0     utility.obj
 0003:000103dc       ??_C@_0BH@EHDGFJK@c?3?2freeasy?2utility?4cpp?$AA@ 0057c3dc     utility.obj
 0003:000103f8       __real@4059000000000000    0057c3f8     utility.obj
 0003:00010408       __real@4076700000000000    0057c408     utility.obj
 0003:00010418       __real@c076700000000000    0057c418     utility.obj
 0003:00010428       __real@3fe6666666666666    0057c428     utility.obj
 0003:00010438       __real@bff0000000000000    0057c438     utility.obj
 0003:00010444       ??_C@_03EBFKBOFP@?5NM?$AA@ 0057c444     utility.obj
 0003:00010448       ??_C@_04LCOFBBEA@?5MIL?$AA@ 0057c448     utility.obj
 0003:00010450       ??_C@_03EDBMKAAG@?5MM?$AA@ 0057c450     utility.obj
 0003:00010454       ??_C@_06DGMFDLNL@11?4?$CFdf?$AA@ 0057c454     utility.obj
 0003:0001045c       ??_C@_06LKDLDKAD@?$CF12?45f?$AA@ 0057c45c     utility.obj
 0003:00010464       ??_C@_0L@FPFMPDDA@0123456789?$AA@ 0057c464     utility.obj
 0003:00010474       ??_C@_0BN@CNEPENAJ@?5?4?0?$DL?3?1?$CB?$EA?$CD$?$CF?$FO?$CG?$CK?$CI?$CJ?$HL?$HN?$FL?$FN?$HM?$DM?$DO?$DP?2?$HO?8?$CC?$AA@ 0057c474     utility.obj
 0003:00010498       __real@c00921fb54442d18    0057c498     utility.obj
 0003:000104a8       __real@bff921fb54442d18    0057c4a8     utility.obj
 0003:000104b8       __real@3ff921fb54442d18    0057c4b8     utility.obj
 0003:000104c8       __real@7fdfffffffffffff    0057c4c8     utility.obj
 0003:000104d8       __real@3d719799812dea11    0057c4d8     utility.obj
 0003:000104e8       __real@7fb9999999999999    0057c4e8     utility.obj
 0003:000104f8       __real@3fe921fb54442d18    0057c4f8     utility.obj
 0003:00010508       __real@c1e0000000000000    0057c508     utility.obj
 0003:00010518       __real@3fa9f18790ca8121    0057c518     utility.obj
 0003:00010574       ??_C@_0BO@GNIAFIKK@Unknown?5Runtime?5Check?5Error?6?$AN?$AA@ 0057c574     msvcrtd:_error_.obj
 0003:00010598       ??_C@_0CM@NGINOKPC@Stack?5memory?5around?5_alloca?5was?5@ 0057c598     msvcrtd:_error_.obj
 0003:000105cc       ??_C@_0DG@HKJMLLLP@A?5local?5variable?5was?5used?5before@ 0057c5cc     msvcrtd:_error_.obj
 0003:0001060c       ??_C@_0BN@FFOINMNJ@Stack?5memory?5was?5corrupted?6?$AN?$AA@ 0057c60c     msvcrtd:_error_.obj
 0003:00010630       ??_C@_0BBN@GPMLNJCF@A?5cast?5to?5a?5smaller?5data?5type?5ha@ 0057c630     msvcrtd:_error_.obj
 0003:00010788       ??_C@_0NN@NGPKDKPD@The?5value?5of?5ESP?5was?5not?5properl@ 0057c788     msvcrtd:_error_.obj
 0003:00010950       ??_C@_0CA@IODNCDPG@Run?9Time?5Check?5Failure?5?$CD?$CFd?5?9?5?$CFs?$AA@ 0057c950     msvcrtd:_error_.obj
 0003:00010978       ??_C@_0BE@GNBOBNCK@Unknown?5Module?5Name?$AA@ 0057c978     msvcrtd:_error_.obj
 0003:00010990       ??_C@_0BB@PFFGGCJP@Unknown?5Filename?$AA@ 0057c990     msvcrtd:_error_.obj
 0003:000109a8       ??_C@_1EA@NFKNIFJP@?$AAR?$AAu?$AAn?$AA?9?$AAT?$AAi?$AAm?$AAe?$AA?5?$AAC?$AAh?$AAe?$AAc?$AAk?$AA?5?$AAF?$AAa?$AAi?$AAl?$AAu?$AAr?$AAe?$AA?5?$AA?$CD?$AA?$CF?$AAd?$AA?5?$AA?9?$AA?5?$AA?$CF?$AAs?$AA?$AA@ 0057c9a8     msvcrtd:_error_.obj
 0003:000109f8       ??_C@_1GM@OLMCBDMB@?$AAR?$AAu?$AAn?$AAt?$AAi?$AAm?$AAe?$AA?5?$AAC?$AAh?$AAe?$AAc?$AAk?$AA?5?$AAE?$AAr?$AAr?$AAo?$AAr?$AA?4?$AA?6?$AA?$AN?$AA?5?$AAU?$AAn?$AAa?$AAb?$AAl?$AAe?$AA?5?$AAt?$AAo@ 0057c9f8     msvcrtd:_error_.obj
 0003:00010a7c       ??_C@_0CG@IAFNJNEE@Stack?5corrupted?5near?5unknown?5var@ 0057ca7c     msvcrtd:_error_.obj
 0003:00010ab0       ??_C@_0EJ@LJKNEOLN@Stack?5area?5around?5_alloca?5memory@ 0057cab0     msvcrtd:_error_.obj
 0003:00010b08       ??_C@_08KJEDNCKC@?$CFs?$CFs?$CFs?$CFs?$AA@ 0057cb08     msvcrtd:_error_.obj
 0003:00010b14       ??_C@_02LLMPMKNF@?$DO?5?$AA@ 0057cb14     msvcrtd:_error_.obj
 0003:00010b18       ??_C@_0BC@KIBAILCI@?$CFs?$CFs?$CFp?$CFs?$CFld?$CFs?$CFd?$CFs?$AA@ 0057cb18     msvcrtd:_error_.obj
 0003:00010b30       ??_C@_0EI@CLEPFNGI@Stack?5area?5around?5_alloca?5memory@ 0057cb30     msvcrtd:_error_.obj
 0003:00010b88       ??_C@_0N@MHFFIMFG@?6Address?3?50x?$AA@ 0057cb88     msvcrtd:_error_.obj
 0003:00010b98       ??_C@_07DFDJCKFN@?6Size?3?5?$AA@ 0057cb98     msvcrtd:_error_.obj
 0003:00010ba4       ??_C@_0CK@DKGBICFE@?6Allocation?5number?5within?5this?5f@ 0057cba4     msvcrtd:_error_.obj
 0003:00010bd8       ??_C@_08OMAHNMHJ@?6Data?3?5?$DM?$AA@ 0057cbd8     msvcrtd:_error_.obj
 0003:00010be4       ??_C@_09FOPFMPEJ@wsprintfA?$AA@ 0057cbe4     msvcrtd:_error_.obj
 0003:00010bf0       ??_C@_1BG@OILDLIOJ@?$AAu?$AAs?$AAe?$AAr?$AA3?$AA2?$AA?4?$AAd?$AAl?$AAl?$AA?$AA@ 0057cbf0     msvcrtd:_error_.obj
 0003:00010c0c       ??_C@_05MKKEDADM@?$CF?42X?5?$AA@ 0057cc0c     msvcrtd:_error_.obj
 0003:00010c14       ??_C@_0DE@OHJBPMBP@A?5variable?5is?5being?5used?5without@ 0057cc14     msvcrtd:_error_.obj
 0003:00010c58       ??_7type_info@@6B@         0057cc58     msvcrtd:ti_inst.obj
 0003:00010c60       ??_C@_1GA@EHAKPACL@?$AAf?$AA?3?$AA?2?$AAd?$AAd?$AA?2?$AAv?$AAc?$AAt?$AAo?$AAo?$AAl?$AAs?$AA?2?$AAc?$AAr?$AAt?$AA_?$AAb?$AAl?$AAd?$AA?2?$AAs?$AAe?$AAl?$AAf?$AA_?$AAx?$AA8?$AA6?$AA?2?$AAc@ 0057cc60     msvcrtd:crtexew.obj
 0003:00010cd8       ??_C@_1FA@DALEHHGL@?$AA_?$AA_?$AAn?$AAa?$AAt?$AAi?$AAv?$AAe?$AA_?$AAs?$AAt?$AAa?$AAr?$AAt?$AAu?$AAp?$AA_?$AAs?$AAt?$AAa?$AAt?$AAe?$AA?5?$AA?$DN?$AA?$DN?$AA?5?$AA_?$AA_?$AAi?$AAn?$AAi?$AAt@ 0057ccd8     msvcrtd:crtexew.obj
 0003:00010d38       ??_C@_0BP@OGBCLIBO@Stack?5around?5_alloca?5corrupted?$AA@ 0057cd38     msvcrtd:_userapi_.obj
 0003:00010d60       ??_C@_0CK@CNLNOEPB@Local?5variable?5used?5before?5initi@ 0057cd60     msvcrtd:_userapi_.obj
 0003:00010d94       ??_C@_0BI@CIGMDCBH@Stack?5memory?5corruption?$AA@ 0057cd94     msvcrtd:_userapi_.obj
 0003:00010db0       ??_C@_0CK@FEGOIOPB@Cast?5to?5smaller?5type?5causing?5los@ 0057cdb0     msvcrtd:_userapi_.obj
 0003:00010de4       ??_C@_0BJ@HEGAHDFO@Stack?5pointer?5corruption?$AA@ 0057cde4     msvcrtd:_userapi_.obj
 0003:00010e3c       ??_C@_01KDCPPGHE@r?$AA@    0057ce3c     msvcrtd:_pdblkup_.obj
 0003:00010e40       ??_C@_0BB@KCIACLNC@PDBOpenValidate5?$AA@ 0057ce40     msvcrtd:_pdblkup_.obj
 0003:00010e54       ??_C@_1CK@HHHCOJPD@?$AAE?$AAn?$AAv?$AAi?$AAr?$AAo?$AAn?$AAm?$AAe?$AAn?$AAt?$AAD?$AAi?$AAr?$AAe?$AAc?$AAt?$AAo?$AAr?$AAy?$AA?$AA@ 0057ce54     msvcrtd:_pdblkup_.obj
 0003:00010e88       ??_C@_1FM@DNCABAP@?$AAS?$AAO?$AAF?$AAT?$AAW?$AAA?$AAR?$AAE?$AA?2?$AAM?$AAi?$AAc?$AAr?$AAo?$AAs?$AAo?$AAf?$AAt?$AA?2?$AAV?$AAi?$AAs?$AAu?$AAa?$AAl?$AAS?$AAt?$AAu?$AAd?$AAi?$AAo?$AA?2@ 0057ce88     msvcrtd:_pdblkup_.obj
 0003:00010ef8       ??_C@_0M@HLOHPNFA@RegCloseKey?$AA@ 0057cef8     msvcrtd:_pdblkup_.obj
 0003:00010f08       ??_C@_0BB@GLNAEDBD@RegQueryValueExW?$AA@ 0057cf08     msvcrtd:_pdblkup_.obj
 0003:00010f1c       ??_C@_0O@COHOBMLB@RegOpenKeyExW?$AA@ 0057cf1c     msvcrtd:_pdblkup_.obj
 0003:00010f2c       ??_C@_1BK@GAEMIDIL@?$AAA?$AAD?$AAV?$AAA?$AAP?$AAI?$AA3?$AA2?$AA?4?$AAD?$AAL?$AAL?$AA?$AA@ 0057cf2c     msvcrtd:_pdblkup_.obj
 0003:00010f58       ?ProcessDetach@NativeDll@<CrtImplementationDetails>@@0IB 0057cf58     msvcrtd:unhandld.obj
 0003:00010f5c       ?ProcessAttach@NativeDll@<CrtImplementationDetails>@@0IB 0057cf5c     msvcrtd:unhandld.obj
 0003:00010f60       ?ThreadAttach@NativeDll@<CrtImplementationDetails>@@0IB 0057cf60     msvcrtd:unhandld.obj
 0003:00010f64       ?ThreadDetach@NativeDll@<CrtImplementationDetails>@@0IB 0057cf64     msvcrtd:unhandld.obj
 0003:00010f68       ?ProcessVerifier@NativeDll@<CrtImplementationDetails>@@0IB 0057cf68     msvcrtd:unhandld.obj
 0003:00010f70       ??_C@_1GE@KOCFNGPB@?$AA_?$AAc?$AAo?$AAn?$AAt?$AAr?$AAo?$AAl?$AAf?$AAp?$AA_?$AAs?$AA?$CI?$AA?$CI?$AA?$CI?$AAv?$AAo?$AAi?$AAd?$AA?5?$AA?$CK?$AA?$CJ?$AA0?$AA?$CJ?$AA?0?$AA?5?$AA0?$AAx?$AA0?$AA0?$AA0?$AA1@ 0057cf70     msvcrtd:fp8.obj
 0003:00010fe8       ??_C@_1CK@JMKHCBEI@?$AA_?$AAs?$AAe?$AAt?$AAd?$AAe?$AAf?$AAa?$AAu?$AAl?$AAt?$AAp?$AAr?$AAe?$AAc?$AAi?$AAs?$AAi?$AAo?$AAn?$AA?$AA@ 0057cfe8     msvcrtd:fp8.obj
 0003:00011020       ??_C@_1GG@PHGJJHBC@?$AAf?$AA?3?$AA?2?$AAd?$AAd?$AA?2?$AAv?$AAc?$AAt?$AAo?$AAo?$AAl?$AAs?$AA?2?$AAc?$AAr?$AAt?$AA_?$AAb?$AAl?$AAd?$AA?2?$AAs?$AAe?$AAl?$AAf?$AA_?$AAx?$AA8?$AA6?$AA?2?$AAc@ 0057d020     msvcrtd:fp8.obj
 0003:0001109c       _GUID_NULL                 0057d09c     uuid:cguid_i.obj
 0003:000110b0       _CATID_MARSHALER           0057d0b0     uuid:cguid_i.obj
 0003:000110c4       _IID_IRpcChannel           0057d0c4     uuid:cguid_i.obj
 0003:000110d8       _IID_IRpcStub              0057d0d8     uuid:cguid_i.obj
 0003:000110ec       _IID_IStubManager          0057d0ec     uuid:cguid_i.obj
 0003:00011100       _IID_IRpcProxy             0057d100     uuid:cguid_i.obj
 0003:00011114       _IID_IProxyManager         0057d114     uuid:cguid_i.obj
 0003:00011128       _IID_IPSFactory            0057d128     uuid:cguid_i.obj
 0003:0001113c       _IID_IInternalMoniker      0057d13c     uuid:cguid_i.obj
 0003:00011150       _IID_IDfReserved1          0057d150     uuid:cguid_i.obj
 0003:00011164       _IID_IDfReserved2          0057d164     uuid:cguid_i.obj
 0003:00011178       _IID_IDfReserved3          0057d178     uuid:cguid_i.obj
 0003:0001118c       _CLSID_StdMarshal          0057d18c     uuid:cguid_i.obj
 0003:000111a0       _IID_IStub                 0057d1a0     uuid:cguid_i.obj
 0003:000111b4       _IID_IProxy                0057d1b4     uuid:cguid_i.obj
 0003:000111c8       _IID_IEnumGeneric          0057d1c8     uuid:cguid_i.obj
 0003:000111dc       _IID_IEnumHolder           0057d1dc     uuid:cguid_i.obj
 0003:000111f0       _IID_IEnumCallback         0057d1f0     uuid:cguid_i.obj
 0003:00011204       _IID_IOleManager           0057d204     uuid:cguid_i.obj
 0003:00011218       _IID_IOlePresObj           0057d218     uuid:cguid_i.obj
 0003:0001122c       _IID_IDebug                0057d22c     uuid:cguid_i.obj
 0003:00011240       _IID_IDebugStream          0057d240     uuid:cguid_i.obj
 0003:00011254       _CLSID_PSGenObject         0057d254     uuid:cguid_i.obj
 0003:00011268       _CLSID_PSClientSite        0057d268     uuid:cguid_i.obj
 0003:0001127c       _CLSID_PSClassObject       0057d27c     uuid:cguid_i.obj
 0003:00011290       _CLSID_PSInPlaceActive     0057d290     uuid:cguid_i.obj
 0003:000112a4       _CLSID_PSInPlaceFrame      0057d2a4     uuid:cguid_i.obj
 0003:000112b8       _CLSID_PSDragDrop          0057d2b8     uuid:cguid_i.obj
 0003:000112cc       _CLSID_PSBindCtx           0057d2cc     uuid:cguid_i.obj
 0003:000112e0       _CLSID_PSEnumerators       0057d2e0     uuid:cguid_i.obj
 0003:000112f4       _CLSID_StaticMetafile      0057d2f4     uuid:cguid_i.obj
 0003:00011308       _CLSID_StaticDib           0057d308     uuid:cguid_i.obj
 0003:0001131c       _CLSID_Picture_Metafile    0057d31c     uuid:cguid_i.obj
 0003:00011330       _CLSID_Picture_EnhMetafile 0057d330     uuid:cguid_i.obj
 0003:00011344       _CLSID_Picture_Dib         0057d344     uuid:cguid_i.obj
 0003:00011358       _CLSID_DCOMAccessControl   0057d358     uuid:cguid_i.obj
 0003:0001136c       _CLSID_StdGlobalInterfaceTable 0057d36c     uuid:cguid_i.obj
 0003:00011380       _CLSID_ManualResetEvent    0057d380     uuid:cguid_i.obj
 0003:00011394       _CLSID_StdEvent            0057d394     uuid:cguid_i.obj
 0003:000113a8       _CLSID_SynchronizeContainer 0057d3a8     uuid:cguid_i.obj
 0003:000113bc       _CLSID_ComBinding          0057d3bc     uuid:cguid_i.obj
 0003:000113d0       _CLSID_StdAsyncActManager  0057d3d0     uuid:cguid_i.obj
 0003:000113e4       _CLSID_InProcFreeMarshaler 0057d3e4     uuid:cguid_i.obj
 0003:000113f8       _CLSID_RemoteUnknownPSFactory 0057d3f8     uuid:cguid_i.obj
 0003:0001140c       _IID_IRichEditOle          0057d40c     uuid:cguid_i.obj
 0003:00011420       _IID_IRichEditOleCallback  0057d420     uuid:cguid_i.obj
 0003:00011434       _CLSID_AllClasses          0057d434     uuid:cguid_i.obj
 0003:00011448       _CLSID_LocalMachineClasses 0057d448     uuid:cguid_i.obj
 0003:0001145c       _CLSID_CurrentUserClasses  0057d45c     uuid:cguid_i.obj
 0003:00011470       _CLSID_AddrControl         0057d470     uuid:cguid_i.obj
 0003:00011484       _CLSID_GlobalOptions       0057d484     uuid:cguid_i.obj
 0003:00011498       _CLSID_SurrogateManager    0057d498     uuid:cguid_i.obj
 0003:000114ac       _CLSID_ContextSwitcher     0057d4ac     uuid:cguid_i.obj
 0003:000114c0       _IID_IPropertyFrame        0057d4c0     uuid:cguid_i.obj
 0003:000114d4       _CLSID_CFontPropPage       0057d4d4     uuid:cguid_i.obj
 0003:000114e8       _CLSID_CColorPropPage      0057d4e8     uuid:cguid_i.obj
 0003:000114fc       _CLSID_CPicturePropPage    0057d4fc     uuid:cguid_i.obj
 0003:00011510       _CLSID_StockFontPage       0057d510     uuid:cguid_i.obj
 0003:00011524       _CLSID_StockColorPage      0057d524     uuid:cguid_i.obj
 0003:00011538       _CLSID_StockPicturePage    0057d538     uuid:cguid_i.obj
 0003:0001154c       _CLSID_PersistPropset      0057d54c     uuid:cguid_i.obj
 0003:00011560       _CLSID_ConvertVBX          0057d560     uuid:cguid_i.obj
 0003:00011574       _CLSID_StdFont             0057d574     uuid:cguid_i.obj
 0003:00011588       _CLSID_StdPicture          0057d588     uuid:cguid_i.obj
 0003:0001159c       _GUID_HIMETRIC             0057d59c     uuid:cguid_i.obj
 0003:000115b0       _GUID_COLOR                0057d5b0     uuid:cguid_i.obj
 0003:000115c4       _GUID_XPOSPIXEL            0057d5c4     uuid:cguid_i.obj
 0003:000115d8       _GUID_YPOSPIXEL            0057d5d8     uuid:cguid_i.obj
 0003:000115ec       _GUID_XSIZEPIXEL           0057d5ec     uuid:cguid_i.obj
 0003:00011600       _GUID_YSIZEPIXEL           0057d600     uuid:cguid_i.obj
 0003:00011614       _GUID_XPOS                 0057d614     uuid:cguid_i.obj
 0003:00011628       _GUID_YPOS                 0057d628     uuid:cguid_i.obj
 0003:0001163c       _GUID_XSIZE                0057d63c     uuid:cguid_i.obj
 0003:00011650       _GUID_YSIZE                0057d650     uuid:cguid_i.obj
 0003:00011664       _GUID_TRISTATE             0057d664     uuid:cguid_i.obj
 0003:00011678       _GUID_OPTIONVALUEEXCLUSIVE 0057d678     uuid:cguid_i.obj
 0003:0001168c       _GUID_CHECKVALUEEXCLUSIVE  0057d68c     uuid:cguid_i.obj
 0003:000116a0       _GUID_FONTNAME             0057d6a0     uuid:cguid_i.obj
 0003:000116b4       _GUID_FONTSIZE             0057d6b4     uuid:cguid_i.obj
 0003:000116c8       _GUID_FONTBOLD             0057d6c8     uuid:cguid_i.obj
 0003:000116dc       _GUID_FONTITALIC           0057d6dc     uuid:cguid_i.obj
 0003:000116f0       _GUID_FONTUNDERSCORE       0057d6f0     uuid:cguid_i.obj
 0003:00011704       _GUID_FONTSTRIKETHROUGH    0057d704     uuid:cguid_i.obj
 0003:00011718       _GUID_HANDLE               0057d718     uuid:cguid_i.obj
 0003:0001172c       _IID_StdOle                0057d72c     uuid:cguid_i.obj
 0003:00011740       _IID_ICursor               0057d740     uuid:cguid_i.obj
 0003:00011754       _IID_ICursorMove           0057d754     uuid:cguid_i.obj
 0003:00011768       _IID_ICursorScroll         0057d768     uuid:cguid_i.obj
 0003:0001177c       _IID_ICursorUpdateARow     0057d77c     uuid:cguid_i.obj
 0003:00011790       _IID_INotifyDBEvents       0057d790     uuid:cguid_i.obj
 0003:000117a4       _IID_ICursorFind           0057d7a4     uuid:cguid_i.obj
 0003:000117b8       _IID_IEntryID              0057d7b8     uuid:cguid_i.obj
 0003:000117cc       __GUID_NAMEONLY            0057d7cc     uuid:cguid_i.obj
 0003:000117e0       __DBBMKGUID                0057d7e0     uuid:cguid_i.obj
 0003:000117f4       __DBCIDGUID                0057d7f4     uuid:cguid_i.obj
 0003:00011808       _IID_IBoundObject          0057d808     uuid:cguid_i.obj
 0003:0001181c       _IID_IBoundObjectSite      0057d81c     uuid:cguid_i.obj
 0003:00011830       _CLSID_GblComponentCategoriesMgr 0057d830     uuid:cguid_i.obj
 0003:00011844       _CLSID_ThumbnailFCNHandler 0057d844     uuid:cguid_i.obj
 0003:00011858       _CLSID_ThumbnailUpdater    0057d858     uuid:cguid_i.obj
 0003:0001186c       _GUID_DEVCLASS_1394        0057d86c     uuid:cguid_i.obj
 0003:00011880       _GUID_DEVCLASS_1394DEBUG   0057d880     uuid:cguid_i.obj
 0003:00011894       _GUID_DEVCLASS_61883       0057d894     uuid:cguid_i.obj
 0003:000118a8       _GUID_DEVCLASS_ADAPTER     0057d8a8     uuid:cguid_i.obj
 0003:000118bc       _GUID_DEVCLASS_APMSUPPORT  0057d8bc     uuid:cguid_i.obj
 0003:000118d0       _GUID_DEVCLASS_AVC         0057d8d0     uuid:cguid_i.obj
 0003:000118e4       _GUID_DEVCLASS_BATTERY     0057d8e4     uuid:cguid_i.obj
 0003:000118f8       _GUID_DEVCLASS_BIOMETRIC   0057d8f8     uuid:cguid_i.obj
 0003:0001190c       _GUID_DEVCLASS_BLUETOOTH   0057d90c     uuid:cguid_i.obj
 0003:00011920       _GUID_DEVCLASS_CDROM       0057d920     uuid:cguid_i.obj
 0003:00011934       _GUID_DEVCLASS_COMPUTER    0057d934     uuid:cguid_i.obj
 0003:00011948       _GUID_DEVCLASS_DECODER     0057d948     uuid:cguid_i.obj
 0003:0001195c       _GUID_DEVCLASS_DISKDRIVE   0057d95c     uuid:cguid_i.obj
 0003:00011970       _GUID_DEVCLASS_DISPLAY     0057d970     uuid:cguid_i.obj
 0003:00011984       _GUID_DEVCLASS_DOT4        0057d984     uuid:cguid_i.obj
 0003:00011998       _GUID_DEVCLASS_DOT4PRINT   0057d998     uuid:cguid_i.obj
 0003:000119ac       _GUID_DEVCLASS_ENUM1394    0057d9ac     uuid:cguid_i.obj
 0003:000119c0       _GUID_DEVCLASS_FDC         0057d9c0     uuid:cguid_i.obj
 0003:000119d4       _GUID_DEVCLASS_FLOPPYDISK  0057d9d4     uuid:cguid_i.obj
 0003:000119e8       _GUID_DEVCLASS_GPS         0057d9e8     uuid:cguid_i.obj
 0003:000119fc       _GUID_DEVCLASS_HDC         0057d9fc     uuid:cguid_i.obj
 0003:00011a10       _GUID_DEVCLASS_HIDCLASS    0057da10     uuid:cguid_i.obj
 0003:00011a24       _GUID_DEVCLASS_IMAGE       0057da24     uuid:cguid_i.obj
 0003:00011a38       _GUID_DEVCLASS_INFINIBAND  0057da38     uuid:cguid_i.obj
 0003:00011a4c       _GUID_DEVCLASS_INFRARED    0057da4c     uuid:cguid_i.obj
 0003:00011a60       _GUID_DEVCLASS_KEYBOARD    0057da60     uuid:cguid_i.obj
 0003:00011a74       _GUID_DEVCLASS_LEGACYDRIVER 0057da74     uuid:cguid_i.obj
 0003:00011a88       _GUID_DEVCLASS_MEDIA       0057da88     uuid:cguid_i.obj
 0003:00011a9c       _GUID_DEVCLASS_MEDIUM_CHANGER 0057da9c     uuid:cguid_i.obj
 0003:00011ab0       _GUID_DEVCLASS_MODEM       0057dab0     uuid:cguid_i.obj
 0003:00011ac4       _GUID_DEVCLASS_MONITOR     0057dac4     uuid:cguid_i.obj
 0003:00011ad8       _GUID_DEVCLASS_MOUSE       0057dad8     uuid:cguid_i.obj
 0003:00011aec       _GUID_DEVCLASS_MTD         0057daec     uuid:cguid_i.obj
 0003:00011b00       _GUID_DEVCLASS_MULTIFUNCTION 0057db00     uuid:cguid_i.obj
 0003:00011b14       _GUID_DEVCLASS_MULTIPORTSERIAL 0057db14     uuid:cguid_i.obj
 0003:00011b28       _GUID_DEVCLASS_NET         0057db28     uuid:cguid_i.obj
 0003:00011b3c       _GUID_DEVCLASS_NETCLIENT   0057db3c     uuid:cguid_i.obj
 0003:00011b50       _GUID_DEVCLASS_NETSERVICE  0057db50     uuid:cguid_i.obj
 0003:00011b64       _GUID_DEVCLASS_NETTRANS    0057db64     uuid:cguid_i.obj
 0003:00011b78       _GUID_DEVCLASS_NODRIVER    0057db78     uuid:cguid_i.obj
 0003:00011b8c       _GUID_DEVCLASS_PCMCIA      0057db8c     uuid:cguid_i.obj
 0003:00011ba0       _GUID_DEVCLASS_PNPPRINTERS 0057dba0     uuid:cguid_i.obj
 0003:00011bb4       _GUID_DEVCLASS_PORTS       0057dbb4     uuid:cguid_i.obj
 0003:00011bc8       _GUID_DEVCLASS_PRINTER     0057dbc8     uuid:cguid_i.obj
 0003:00011bdc       _GUID_DEVCLASS_PRINTERUPGRADE 0057dbdc     uuid:cguid_i.obj
 0003:00011bf0       _GUID_DEVCLASS_PROCESSOR   0057dbf0     uuid:cguid_i.obj
 0003:00011c04       _GUID_DEVCLASS_SBP2        0057dc04     uuid:cguid_i.obj
 0003:00011c18       _GUID_DEVCLASS_SCSIADAPTER 0057dc18     uuid:cguid_i.obj
 0003:00011c2c       _GUID_DEVCLASS_SECURITYACCELERATOR 0057dc2c     uuid:cguid_i.obj
 0003:00011c40       _GUID_DEVCLASS_SENSOR      0057dc40     uuid:cguid_i.obj
 0003:00011c54       _GUID_DEVCLASS_SIDESHOW    0057dc54     uuid:cguid_i.obj
 0003:00011c68       _GUID_DEVCLASS_SMARTCARDREADER 0057dc68     uuid:cguid_i.obj
 0003:00011c7c       _GUID_DEVCLASS_SOUND       0057dc7c     uuid:cguid_i.obj
 0003:00011c90       _GUID_DEVCLASS_SYSTEM      0057dc90     uuid:cguid_i.obj
 0003:00011ca4       _GUID_DEVCLASS_TAPEDRIVE   0057dca4     uuid:cguid_i.obj
 0003:00011cb8       _GUID_DEVCLASS_UNKNOWN     0057dcb8     uuid:cguid_i.obj
 0003:00011ccc       _GUID_DEVCLASS_USB         0057dccc     uuid:cguid_i.obj
 0003:00011ce0       _GUID_DEVCLASS_VOLUME      0057dce0     uuid:cguid_i.obj
 0003:00011cf4       _GUID_DEVCLASS_VOLUMESNAPSHOT 0057dcf4     uuid:cguid_i.obj
 0003:00011d08       _GUID_DEVCLASS_WCEUSBS     0057dd08     uuid:cguid_i.obj
 0003:00011d1c       _GUID_DEVCLASS_WPD         0057dd1c     uuid:cguid_i.obj
 0003:00011d30       _GUID_DEVCLASS_FSFILTER_ACTIVITYMONITOR 0057dd30     uuid:cguid_i.obj
 0003:00011d44       _GUID_DEVCLASS_FSFILTER_UNDELETE 0057dd44     uuid:cguid_i.obj
 0003:00011d58       _GUID_DEVCLASS_FSFILTER_ANTIVIRUS 0057dd58     uuid:cguid_i.obj
 0003:00011d6c       _GUID_DEVCLASS_FSFILTER_REPLICATION 0057dd6c     uuid:cguid_i.obj
 0003:00011d80       _GUID_DEVCLASS_FSFILTER_CONTINUOUSBACKUP 0057dd80     uuid:cguid_i.obj
 0003:00011d94       _GUID_DEVCLASS_FSFILTER_CONTENTSCREENER 0057dd94     uuid:cguid_i.obj
 0003:00011da8       _GUID_DEVCLASS_FSFILTER_QUOTAMANAGEMENT 0057dda8     uuid:cguid_i.obj
 0003:00011dbc       _GUID_DEVCLASS_FSFILTER_SYSTEMRECOVERY 0057ddbc     uuid:cguid_i.obj
 0003:00011dd0       _GUID_DEVCLASS_FSFILTER_CFSMETADATASERVER 0057ddd0     uuid:cguid_i.obj
 0003:00011de4       _GUID_DEVCLASS_FSFILTER_HSM 0057dde4     uuid:cguid_i.obj
 0003:00011df8       _GUID_DEVCLASS_FSFILTER_COMPRESSION 0057ddf8     uuid:cguid_i.obj
 0003:00011e0c       _GUID_DEVCLASS_FSFILTER_ENCRYPTION 0057de0c     uuid:cguid_i.obj
 0003:00011e20       _GUID_DEVCLASS_FSFILTER_PHYSICALQUOTAMANAGEMENT 0057de20     uuid:cguid_i.obj
 0003:00011e34       _GUID_DEVCLASS_FSFILTER_OPENFILEBACKUP 0057de34     uuid:cguid_i.obj
 0003:00011e48       _GUID_DEVCLASS_FSFILTER_SECURITYENHANCER 0057de48     uuid:cguid_i.obj
 0003:00011e5c       _GUID_DEVCLASS_FSFILTER_COPYPROTECTION 0057de5c     uuid:cguid_i.obj
 0003:00011e70       _GUID_DEVCLASS_FSFILTER_SYSTEM 0057de70     uuid:cguid_i.obj
 0003:00011e84       _GUID_DEVCLASS_FSFILTER_INFRASTRUCTURE 0057de84     uuid:cguid_i.obj
 0003:00011e98       _GUID_DEVINTERFACE_DISK    0057de98     uuid:cguid_i.obj
 0003:00011eac       _GUID_DEVINTERFACE_CDROM   0057deac     uuid:cguid_i.obj
 0003:00011ec0       _GUID_DEVINTERFACE_PARTITION 0057dec0     uuid:cguid_i.obj
 0003:00011ed4       _GUID_DEVINTERFACE_TAPE    0057ded4     uuid:cguid_i.obj
 0003:00011ee8       _GUID_DEVINTERFACE_WRITEONCEDISK 0057dee8     uuid:cguid_i.obj
 0003:00011efc       _GUID_DEVINTERFACE_VOLUME  0057defc     uuid:cguid_i.obj
 0003:00011f10       _GUID_DEVINTERFACE_MEDIUMCHANGER 0057df10     uuid:cguid_i.obj
 0003:00011f24       _GUID_DEVINTERFACE_FLOPPY  0057df24     uuid:cguid_i.obj
 0003:00011f38       _GUID_DEVINTERFACE_CDCHANGER 0057df38     uuid:cguid_i.obj
 0003:00011f4c       _GUID_DEVINTERFACE_STORAGEPORT 0057df4c     uuid:cguid_i.obj
 0003:00011f60       _GUID_DEVINTERFACE_HIDDEN_VOLUME 0057df60     uuid:cguid_i.obj
 0003:00011f74       _GUID_DEVINTERFACE_COMPORT 0057df74     uuid:cguid_i.obj
 0003:00011f88       _GUID_DEVINTERFACE_SERENUM_BUS_ENUMERATOR 0057df88     uuid:cguid_i.obj
 0003:00011f9c       ??_C@_1BK@NHHHCKNA@?$AAm?$AA_?$AAt?$AAi?$AAm?$AAe?$AA?5?$AA?$CB?$AA?$DN?$AA?5?$AA?9?$AA1?$AA?$AA@ 0057df9c     atlsd:atltime.obj
 0003:00011fc0       ??_C@_1GM@GOMCALCH@?$AAf?$AA?3?$AA?2?$AAd?$AAd?$AA?2?$AAv?$AAc?$AAt?$AAo?$AAo?$AAl?$AAs?$AA?2?$AAv?$AAc?$AA7?$AAl?$AAi?$AAb?$AAs?$AA?2?$AAs?$AAh?$AAi?$AAp?$AA?2?$AAa?$AAt?$AAl?$AAm?$AAf@ 0057dfc0     atlsd:atltime.obj
 0003:00012044       ??_C@_1BM@GBBOFEAE@?$AA_?$AA_?$AAa?$AAt?$AAl?$AA_?$AAc?$AAo?$AAn?$AAd?$AAV?$AAa?$AAl?$AA?$AA@ 0057e044     atlsd:atltime.obj
 0003:00012068       ??_C@_1GM@OMLOBEGL@?$AAf?$AA?3?$AA?2?$AAd?$AAd?$AA?2?$AAv?$AAc?$AAt?$AAo?$AAo?$AAl?$AAs?$AA?2?$AAv?$AAc?$AA7?$AAl?$AAi?$AAb?$AAs?$AA?2?$AAs?$AAh?$AAi?$AAp?$AA?2?$AAa?$AAt?$AAl?$AAm?$AAf@ 0057e068     atlsd:atltime.obj
 0003:000120ec       ??_C@_1M@HLGKFCJM@?$AAf?$AAa?$AAl?$AAs?$AAe?$AA?$AA@ 0057e0ec     atlsd:atltime.obj
 0003:000120fc       ??_C@_0DG@BLHODJEO@f?3?2dd?2vctools?2vc7libs?2ship?2atlmf@ 0057e0fc     atlsd:atltime.obj
 0003:0001213c       ??_C@_0BF@IAAKIJDJ@AtlThrow?3?5hr?5?$DN?50x?$CFx?6?$AA@ 0057e13c     atlsd:atltime.obj
 0003:00012158       ??_C@_06JMICFIKN@?$CFs_?$CF0x?$AA@ 0057e158     atlsd:Externs.obj
 0003:00012160       ??_C@_0CM@OGPEFHLG@AtlDebugAllocator_FileMappingNam@ 0057e160     atlsd:Externs.obj
 0003:00012194       ??_C@_0CN@PLNFEEEE@AtlTraceModuleManager_ProcessAdd@ 0057e194     atlsd:Externs.obj
 0003:000121cc       ??_C@_0BA@MKMIKKJB@atlTraceGeneral?$AA@ 0057e1cc     atlsd:atltrace.obj
 0003:000121e0       ??_C@_0M@DGPFJEBB@atlTraceCOM?$AA@ 0057e1e0     atlsd:atltrace.obj
 0003:000121f0       ??_C@_0L@LHELAKBP@atlTraceQI?$AA@ 0057e1f0     atlsd:atltrace.obj
 0003:00012200       ??_C@_0BC@MALHFBAO@atlTraceRegistrar?$AA@ 0057e200     atlsd:atltrace.obj
 0003:00012218       ??_C@_0BB@ILPPDKFL@atlTraceRefcount?$AA@ 0057e218     atlsd:atltrace.obj
 0003:0001222c       ??_C@_0BC@DGHHNKDC@atlTraceWindowing?$AA@ 0057e22c     atlsd:atltrace.obj
 0003:00012244       ??_C@_0BB@GHKJKKIE@atlTraceControls?$AA@ 0057e244     atlsd:atltrace.obj
 0003:00012258       ??_C@_0BA@DKOAAGGM@atlTraceHosting?$AA@ 0057e258     atlsd:atltrace.obj
 0003:0001226c       ??_C@_0BB@BEBMGMDO@atlTraceDBClient?$AA@ 0057e26c     atlsd:atltrace.obj
 0003:00012280       ??_C@_0BD@KOADKDIA@atlTraceDBProvider?$AA@ 0057e280     atlsd:atltrace.obj
 0003:00012298       ??_C@_0P@LNEGBOLO@atlTraceSnapin?$AA@ 0057e298     atlsd:atltrace.obj
 0003:000122ac       ??_C@_0BA@MCBFIDIC@atlTraceNotImpl?$AA@ 0057e2ac     atlsd:atltrace.obj
 0003:000122c0       ??_C@_0BD@PJPCCAKP@atlTraceAllocation?$AA@ 0057e2c0     atlsd:atltrace.obj
 0003:000122d8       ??_C@_0BC@PGMFNIFA@atlTraceException?$AA@ 0057e2d8     atlsd:atltrace.obj
 0003:000122f0       ??_C@_0N@BNNILHBE@atlTraceTime?$AA@ 0057e2f0     atlsd:atltrace.obj
 0003:00012300       ??_C@_0O@MEOJAOKK@atlTraceCache?$AA@ 0057e300     atlsd:atltrace.obj
 0003:00012310       ??_C@_0BA@IDBKCKK@atlTraceStencil?$AA@ 0057e310     atlsd:atltrace.obj
 0003:00012324       ??_C@_0P@MBNHGHMI@atlTraceString?$AA@ 0057e324     atlsd:atltrace.obj
 0003:00012338       ??_C@_0M@IOBBMAHG@atlTraceMap?$AA@ 0057e338     atlsd:atltrace.obj
 0003:00012348       ??_C@_0N@FEAAACHD@atlTraceUtil?$AA@ 0057e348     atlsd:atltrace.obj
 0003:00012358       ??_C@_0BB@DNJDADMG@atlTraceSecurity?$AA@ 0057e358     atlsd:atltrace.obj
 0003:0001236c       ??_C@_0N@KLPNCFEE@atlTraceSync?$AA@ 0057e36c     atlsd:atltrace.obj
 0003:0001237c       ??_C@_0O@KHOBHOBJ@atlTraceISAPI?$AA@ 0057e37c     atlsd:atltrace.obj
 0003:0001238c       ??_C@_0N@BEIMPMHB@atlTraceUser?$AA@ 0057e38c     atlsd:atltrace.obj
 0003:0001239c       ??_C@_0O@MKGGJJCH@atlTraceUser2?$AA@ 0057e39c     atlsd:atltrace.obj
 0003:000123ac       ??_C@_0O@NDHNKIGG@atlTraceUser3?$AA@ 0057e3ac     atlsd:atltrace.obj
 0003:000123bc       ??_C@_0O@JMDMDOKB@atlTraceUser4?$AA@ 0057e3bc     atlsd:atltrace.obj
 0003:000123d0       ??_C@_1HO@MNFHLCLF@?$AAf?$AA?3?$AA?2?$AAd?$AAd?$AA?2?$AAv?$AAc?$AAt?$AAo?$AAo?$AAl?$AAs?$AA?2?$AAv?$AAc?$AA7?$AAl?$AAi?$AAb?$AAs?$AA?2?$AAs?$AAh?$AAi?$AAp?$AA?2?$AAa?$AAt?$AAl?$AAm?$AAf@ 0057e3d0     atlsd:AtlDebugAPI.obj
 0003:00012468       ??_C@_1BK@LIHAAANN@?$AAp?$AAM?$AAo?$AAd?$AAu?$AAl?$AAe?$AA?5?$AA?$CB?$AA?$DN?$AA?5?$AA0?$AA?$AA@ 0057e468     atlsd:AtlDebugAPI.obj
 0003:00012488       ??_C@_1BM@DFEBCPM@?$AAp?$AAP?$AAr?$AAo?$AAc?$AAe?$AAs?$AAs?$AA?5?$AA?$CB?$AA?$DN?$AA?5?$AA0?$AA?$AA@ 0057e488     atlsd:AtlDebugAPI.obj
 0003:000124ac       ??_C@_04FFDMEMDO@?$CFS?3?5?$AA@ 0057e4ac     atlsd:AtlDebugAPI.obj
 0003:000124b4       ??_C@_09IIMHCEDG@?$CFs?$CI?$CFd?$CJ?5?3?5?$AA@ 0057e4b4     atlsd:AtlDebugAPI.obj
 0003:000124c0       ??_C@_02KPKOKMHB@?$CFS?$AA@ 0057e4c0     atlsd:AtlDebugAPI.obj
 0003:000124c4       ??_C@_19JCANECJL@?$AA?$CF?$AAs?$AA?3?$AA?5?$AA?$AA@ 0057e4c4     atlsd:AtlDebugAPI.obj
 0003:000124d0       ??_C@_1BE@PGKGHBDF@?$AA?$CF?$AAS?$AA?$CI?$AA?$CF?$AAd?$AA?$CJ?$AA?5?$AA?3?$AA?5?$AA?$AA@ 0057e4d0     atlsd:AtlDebugAPI.obj
 0003:000124e8       ??_C@_1DA@NMHCLMEJ@?$AAp?$AAA?$AAl?$AAl?$AAo?$AAc?$AAa?$AAt?$AAo?$AAr?$AA?9?$AA?$DO?$AAm?$AA_?$AAb?$AAS?$AAn?$AAa?$AAp?$AAs?$AAh?$AAo?$AAt?$AA?$AA@ 0057e4e8     atlsd:AtlDebugAPI.obj
 0003:00012524       ??_C@_1CE@NDBHOLMF@?$AAp?$AAP?$AAr?$AAo?$AAc?$AAe?$AAs?$AAs?$AAI?$AAn?$AAf?$AAo?$AA?5?$AA?$CB?$AA?$DN?$AA?5?$AA0?$AA?$AA@ 0057e524     atlsd:AtlDebugAPI.obj
 0003:00012550       ??_C@_1CC@ONKAHKMP@?$AAp?$AAM?$AAo?$AAd?$AAu?$AAl?$AAe?$AAI?$AAn?$AAf?$AAo?$AA?5?$AA?$CB?$AA?$DN?$AA?5?$AA0?$AA?$AA@ 0057e550     atlsd:AtlDebugAPI.obj
 0003:00012578       ??_C@_1CG@BANGGBIE@?$AAp?$AAC?$AAa?$AAt?$AAe?$AAg?$AAo?$AAr?$AAy?$AAI?$AAn?$AAf?$AAo?$AA?5?$AA?$CB?$AA?$DN?$AA?5?$AA0?$AA?$AA@ 0057e578     atlsd:AtlDebugAPI.obj
 0003:000125a8       ??_C@_1BC@JOPFIJLO@?$AAp?$AAP?$AAr?$AAo?$AAc?$AAe?$AAs?$AAs?$AA?$AA@ 0057e5a8     atlsd:AtlDebugAPI.obj
 0003:000125c0       ??_C@_1DM@CECLCIOA@?$AAp?$AAp?$AAC?$AAa?$AAt?$AAe?$AAg?$AAo?$AAr?$AAy?$AA?5?$AA?$CG?$AA?$CG?$AA?5?$AAp?$AAf?$AAn?$AAC?$AAr?$AAt?$AAD?$AAb?$AAg?$AAR?$AAe?$AAp?$AAo?$AAr?$AAt?$AA?$AA@ 0057e5c0     atlsd:AtlDebugAPI.obj
 0003:00012608       ??_C@_1HA@EFGOBFOA@?$AAf?$AA?3?$AA?2?$AAd?$AAd?$AA?2?$AAv?$AAc?$AAt?$AAo?$AAo?$AAl?$AAs?$AA?2?$AAv?$AAc?$AA7?$AAl?$AAi?$AAb?$AAs?$AA?2?$AAs?$AAh?$AAi?$AAp?$AA?2?$AAa?$AAt?$AAl?$AAm?$AAf@ 0057e608     atlsd:AtlDebugAPI.obj
 0003:00012690       ??_C@_1EA@JHMKKLFC@?$AAn?$AAI?$AAn?$AAd?$AAe?$AAx?$AA?5?$AA?$DO?$AA?$DN?$AA?5?$AA0?$AA?5?$AA?$CG?$AA?$CG?$AA?5?$AAn?$AAI?$AAn?$AAd?$AAe?$AAx?$AA?5?$AA?$DM?$AA?5?$AAm?$AA_?$AAn?$AAS?$AAi?$AAz?$AAe?$AA?$AA@ 0057e690     atlsd:AtlDebugAPI.obj
 0003:000126e0       ??_C@_1GI@CLJCGCPP@?$AAf?$AA?3?$AA?2?$AAd?$AAd?$AA?2?$AAv?$AAc?$AAt?$AAo?$AAo?$AAl?$AAs?$AA?2?$AAv?$AAc?$AA7?$AAl?$AAi?$AAb?$AAs?$AA?2?$AAs?$AAh?$AAi?$AAp?$AA?2?$AAa?$AAt?$AAl?$AAm?$AAf@ 0057e6e0     atlsd:AtlDebugAPI.obj
 0003:0001275c       ??_C@_1BC@PMINONJG@?$AAb?$AAS?$AAu?$AAc?$AAc?$AAe?$AAs?$AAs?$AA?$AA@ 0057e75c     atlsd:Allocate.obj
 0003:00012778       ??_C@_1HI@MDMANKNC@?$AAf?$AA?3?$AA?2?$AAd?$AAd?$AA?2?$AAv?$AAc?$AAt?$AAo?$AAo?$AAl?$AAs?$AA?2?$AAv?$AAc?$AA7?$AAl?$AAi?$AAb?$AAs?$AA?2?$AAs?$AAh?$AAi?$AAp?$AA?2?$AAa?$AAt?$AAl?$AAm?$AAf@ 0057e778     atlsd:Allocate.obj
 0003:00012808       ??_C@_1DG@LHMNHOH@?$AA?$CB?$AAm?$AA_?$AAh?$AAM?$AAa?$AAp?$AA?5?$AA?$CG?$AA?$CG?$AA?5?$AA?$CB?$AAm?$AA_?$AAp?$AAB?$AAu?$AAf?$AAf?$AAe?$AAr?$AAS?$AAt?$AAa?$AAr?$AAt?$AA?$AA@ 0057e808     atlsd:Allocate.obj
 0003:00012848       ??_C@_1CC@JCNIBNON@?$AAi?$AAM?$AAo?$AAd?$AAu?$AAl?$AAe?$AA?5?$AA?$DM?$AA?5?$AAm?$AAo?$AAd?$AAc?$AAn?$AAt?$AA?$AA@ 0057e848     atlsd:Allocate.obj
 0003:00012870       ??_C@_1HO@KONLCGL@?$AA?$CI?$AAi?$AAC?$AAa?$AAt?$AAe?$AAg?$AAo?$AAr?$AAy?$AA?5?$AA?$DM?$AA?5?$AAm?$AA_?$AAp?$AAP?$AAr?$AAo?$AAc?$AAe?$AAs?$AAs?$AA?9?$AA?$DO?$AAC?$AAa?$AAt?$AAe?$AAg?$AAo?$AAr@ 0057e870     atlsd:Allocate.obj
 0003:00012908       ??_C@_1BG@EIHNOMMF@?$AAm?$AA_?$AAp?$AAP?$AAr?$AAo?$AAc?$AAe?$AAs?$AAs?$AA?$AA@ 0057e908     atlsd:Allocate.obj
 0003:00012928       ??_C@_1IO@GJLKCBCE@?$AAf?$AA?3?$AA?2?$AAd?$AAd?$AA?2?$AAv?$AAc?$AAt?$AAo?$AAo?$AAl?$AAs?$AA?2?$AAv?$AAc?$AA7?$AAl?$AAi?$AAb?$AAs?$AA?2?$AAs?$AAh?$AAi?$AAp?$AA?2?$AAa?$AAt?$AAl?$AAm?$AAf@ 0057e928     atlsd:Allocate.obj
 0003:000129d4       ??_C@_1BK@GFEAMNLJ@?$AAn?$AAC?$AAo?$AAo?$AAk?$AAi?$AAe?$AA?5?$AA?$CB?$AA?$DN?$AA?5?$AA0?$AA?$AA@ 0057e9d4     atlsd:Allocate.obj
 0003:000129f4       ??_C@_1BO@OAGIAJOK@?$AAp?$AAC?$AAa?$AAt?$AAe?$AAg?$AAo?$AAr?$AAy?$AA?5?$AA?$CB?$AA?$DN?$AA?5?$AA0?$AA?$AA@ 0057e9f4     atlsd:Allocate.obj
 0003:00012a18       ??_C@_11LOCGONAA@?$AA?$AA@ 0057ea18     atlsd:AtlTraceModuleManager.obj
 0003:00012a44       ??_C@_0DH@EMOHNEGB@f?3?2dd?2vctools?2vc7libs?2ship?2atlmf@ 0057ea44     mfcs100d:appmodul.obj
 0003:00013190       ??_R4?$CArray@VCPoint@@ABV1@@@6B@ 0057f190     DisplayList.obj
 0003:000131a8       ??_R3?$CArray@VCPoint@@ABV1@@@8 0057f1a8     DisplayList.obj
 0003:000131bc       ??_R2?$CArray@VCPoint@@ABV1@@@8 0057f1bc     DisplayList.obj
 0003:000131c8       ??_R1A@?0A@EA@?$CArray@VCPoint@@ABV1@@@8 0057f1c8     DisplayList.obj
 0003:000131ec       ??_R1A@?0A@EA@CObject@@8   0057f1ec     DisplayList.obj
 0003:00013210       ??_R3CObject@@8            0057f210     DisplayList.obj
 0003:00013224       ??_R2CObject@@8            0057f224     DisplayList.obj
 0003:0001322c       ??_R4CDlgAddMaskCutout@@6B@ 0057f22c     DlgAddMaskCutout.obj
 0003:00013244       ??_R3CDlgAddMaskCutout@@8  0057f244     DlgAddMaskCutout.obj
 0003:00013258       ??_R2CDlgAddMaskCutout@@8  0057f258     DlgAddMaskCutout.obj
 0003:00013274       ??_R1A@?0A@EA@CDlgAddMaskCutout@@8 0057f274     DlgAddMaskCutout.obj
 0003:00013298       ??_R1A@?0A@EA@CDialog@@8   0057f298     DlgAddMaskCutout.obj
 0003:000132bc       ??_R3CDialog@@8            0057f2bc     DlgAddMaskCutout.obj
 0003:000132d0       ??_R2CDialog@@8            0057f2d0     DlgAddMaskCutout.obj
 0003:000132e4       ??_R1A@?0A@EA@CWnd@@8      0057f2e4     DlgAddMaskCutout.obj
 0003:00013308       ??_R3CWnd@@8               0057f308     DlgAddMaskCutout.obj
 0003:0001331c       ??_R2CWnd@@8               0057f31c     DlgAddMaskCutout.obj
 0003:0001332c       ??_R1A@?0A@EA@CCmdTarget@@8 0057f32c     DlgAddMaskCutout.obj
 0003:00013350       ??_R3CCmdTarget@@8         0057f350     DlgAddMaskCutout.obj
 0003:00013364       ??_R2CCmdTarget@@8         0057f364     DlgAddMaskCutout.obj
 0003:00013370       ??_R4CDlgAddMerge@@6B@     0057f370     DlgAddMerge.obj
 0003:00013388       ??_R3CDlgAddMerge@@8       0057f388     DlgAddMerge.obj
 0003:0001339c       ??_R2CDlgAddMerge@@8       0057f39c     DlgAddMerge.obj
 0003:000133b8       ??_R1A@?0A@EA@CDlgAddMerge@@8 0057f3b8     DlgAddMerge.obj
 0003:000133dc       ??_R4CDlgAddPoly@@6B@      0057f3dc     DlgAddPoly.obj
 0003:000133f4       ??_R3CDlgAddPoly@@8        0057f3f4     DlgAddPoly.obj
 0003:00013408       ??_R2CDlgAddPoly@@8        0057f408     DlgAddPoly.obj
 0003:00013424       ??_R1A@?0A@EA@CDlgAddPoly@@8 0057f424     DlgAddPoly.obj
 0003:00013448       ??_R4CDlgAddText@@6B@      0057f448     DlgAddText.obj
 0003:00013460       ??_R3CDlgAddText@@8        0057f460     DlgAddText.obj
 0003:00013474       ??_R2CDlgAddText@@8        0057f474     DlgAddText.obj
 0003:00013490       ??_R1A@?0A@EA@CDlgAddText@@8 0057f490     DlgAddText.obj
 0003:000134b4       ??_R4CDlgAddWidth@@6B@     0057f4b4     DlgAddWidth.obj
 0003:000134cc       ??_R3CDlgAddWidth@@8       0057f4cc     DlgAddWidth.obj
 0003:000134e0       ??_R2CDlgAddWidth@@8       0057f4e0     DlgAddWidth.obj
 0003:000134fc       ??_R1A@?0A@EA@CDlgAddWidth@@8 0057f4fc     DlgAddWidth.obj
 0003:00013520       ??_R4CDlgCAD@@6B@          0057f520     DlgCAD.obj
 0003:00013538       ??_R3CDlgCAD@@8            0057f538     DlgCAD.obj
 0003:0001354c       ??_R2CDlgCAD@@8            0057f54c     DlgCAD.obj
 0003:00013568       ??_R1A@?0A@EA@CDlgCAD@@8   0057f568     DlgCAD.obj
 0003:0001358c       ??_R4CDlgChangeLayer@@6B@  0057f58c     DlgChangeLayer.obj
 0003:000135a4       ??_R3CDlgChangeLayer@@8    0057f5a4     DlgChangeLayer.obj
 0003:000135b8       ??_R2CDlgChangeLayer@@8    0057f5b8     DlgChangeLayer.obj
 0003:000135d4       ??_R1A@?0A@EA@CDlgChangeLayer@@8 0057f5d4     DlgChangeLayer.obj
 0003:000135f8       ??_R4CDlgChooseNetName@@6B@ 0057f5f8     DlgChooseNetName.obj
 0003:00013610       ??_R3CDlgChooseNetName@@8  0057f610     DlgChooseNetName.obj
 0003:00013624       ??_R2CDlgChooseNetName@@8  0057f624     DlgChooseNetName.obj
 0003:00013640       ??_R1A@?0A@EA@CDlgChooseNetName@@8 0057f640     DlgChooseNetName.obj
 0003:00013664       ??_R4DlgDRC@@6B@           0057f664     DlgDRC.obj
 0003:0001367c       ??_R3DlgDRC@@8             0057f67c     DlgDRC.obj
 0003:00013690       ??_R2DlgDRC@@8             0057f690     DlgDRC.obj
 0003:000136ac       ??_R1A@?0A@EA@DlgDRC@@8    0057f6ac     DlgDRC.obj
 0003:000136d0       ??_R4CDlgDupFootprintName@@6B@ 0057f6d0     DlgDupFootprintName.obj
 0003:000136e8       ??_R3CDlgDupFootprintName@@8 0057f6e8     DlgDupFootprintName.obj
 0003:000136fc       ??_R2CDlgDupFootprintName@@8 0057f6fc     DlgDupFootprintName.obj
 0003:00013718       ??_R1A@?0A@EA@CDlgDupFootprintName@@8 0057f718     DlgDupFootprintName.obj
 0003:0001373c       ??_R4DlgEditBoardCorner@@6B@ 0057f73c     DlgEditBoardCorner.obj
 0003:00013754       ??_R3DlgEditBoardCorner@@8 0057f754     DlgEditBoardCorner.obj
 0003:00013768       ??_R2DlgEditBoardCorner@@8 0057f768     DlgEditBoardCorner.obj
 0003:00013784       ??_R1A@?0A@EA@DlgEditBoardCorner@@8 0057f784     DlgEditBoardCorner.obj
 0003:000137a8       ??_R4CDlgExportDsn@@6B@    0057f7a8     DlgExportDsn.obj
 0003:000137c0       ??_R3CDlgExportDsn@@8      0057f7c0     DlgExportDsn.obj
 0003:000137d4       ??_R2CDlgExportDsn@@8      0057f7d4     DlgExportDsn.obj
 0003:000137f0       ??_R1A@?0A@EA@CDlgExportDsn@@8 0057f7f0     DlgExportDsn.obj
 0003:00013814       ??_R4CDlgFindPart@@6B@     0057f814     DlgFindPart.obj
 0003:0001382c       ??_R3CDlgFindPart@@8       0057f82c     DlgFindPart.obj
 0003:00013840       ??_R2CDlgFindPart@@8       0057f840     DlgFindPart.obj
 0003:0001385c       ??_R1A@?0A@EA@CDlgFindPart@@8 0057f85c     DlgFindPart.obj
 0003:00013880       ??_R4CDlgHole@@6B@         0057f880     DlgHole.obj
 0003:00013898       ??_R3CDlgHole@@8           0057f898     DlgHole.obj
 0003:000138ac       ??_R2CDlgHole@@8           0057f8ac     DlgHole.obj
 0003:000138c8       ??_R1A@?0A@EA@CDlgHole@@8  0057f8c8     DlgHole.obj
 0003:000138ec       ??_R4CDlgImportOptions@@6B@ 0057f8ec     DlgImportOptions.obj
 0003:00013904       ??_R3CDlgImportOptions@@8  0057f904     DlgImportOptions.obj
 0003:00013918       ??_R2CDlgImportOptions@@8  0057f918     DlgImportOptions.obj
 0003:00013934       ??_R1A@?0A@EA@CDlgImportOptions@@8 0057f934     DlgImportOptions.obj
 0003:00013958       ??_R4CDlgImportSes@@6B@    0057f958     DlgImportSes.obj
 0003:00013970       ??_R3CDlgImportSes@@8      0057f970     DlgImportSes.obj
 0003:00013984       ??_R2CDlgImportSes@@8      0057f984     DlgImportSes.obj
 0003:000139a0       ??_R1A@?0A@EA@CDlgImportSes@@8 0057f9a0     DlgImportSes.obj
 0003:000139c4       ??_R4CDlgIndexing@@6B@     0057f9c4     DlgIndexing.obj
 0003:000139dc       ??_R3CDlgIndexing@@8       0057f9dc     DlgIndexing.obj
 0003:000139f0       ??_R2CDlgIndexing@@8       0057f9f0     DlgIndexing.obj
 0003:00013a0c       ??_R1A@?0A@EA@CDlgIndexing@@8 0057fa0c     DlgIndexing.obj
 0003:00013a30       ??_R4CDlgLayers@@6B@       0057fa30     DlgLayers.obj
 0003:00013a48       ??_R3CDlgLayers@@8         0057fa48     DlgLayers.obj
 0003:00013a5c       ??_R2CDlgLayers@@8         0057fa5c     DlgLayers.obj
 0003:00013a78       ??_R1A@?0A@EA@CDlgLayers@@8 0057fa78     DlgLayers.obj
 0003:00013a9c       ??_R4CCommonDialog@@6B@    0057fa9c     DlgLayers.obj
 0003:00013ab4       ??_R3CCommonDialog@@8      0057fab4     DlgLayers.obj
 0003:00013ac8       ??_R2CCommonDialog@@8      0057fac8     DlgLayers.obj
 0003:00013ae4       ??_R1A@?0A@EA@CCommonDialog@@8 0057fae4     DlgLayers.obj
 0003:00013b08       ??_R4CDlgLog@@6B@          0057fb08     DlgLog.obj
 0003:00013b20       ??_R3CDlgLog@@8            0057fb20     DlgLog.obj
 0003:00013b34       ??_R2CDlgLog@@8            0057fb34     DlgLog.obj
 0003:00013b50       ??_R1A@?0A@EA@CDlgLog@@8   0057fb50     DlgLog.obj
 0003:00013b74       ??_R4CDlgMoveOrigin@@6B@   0057fb74     DlgMoveOrigin.obj
 0003:00013b8c       ??_R3CDlgMoveOrigin@@8     0057fb8c     DlgMoveOrigin.obj
 0003:00013ba0       ??_R2CDlgMoveOrigin@@8     0057fba0     DlgMoveOrigin.obj
 0003:00013bbc       ??_R1A@?0A@EA@CDlgMoveOrigin@@8 0057fbbc     DlgMoveOrigin.obj
 0003:00013be0       ??_R4CDlgMyMessageBox@@6B@ 0057fbe0     DlgMyMessageBox.obj
 0003:00013bf8       ??_R3CDlgMyMessageBox@@8   0057fbf8     DlgMyMessageBox.obj
 0003:00013c0c       ??_R2CDlgMyMessageBox@@8   0057fc0c     DlgMyMessageBox.obj
 0003:00013c28       ??_R1A@?0A@EA@CDlgMyMessageBox@@8 0057fc28     DlgMyMessageBox.obj
 0003:00013c4c       ??_R4CDlgMyMessageBox2@@6B@ 0057fc4c     DlgMyMessageBox2.obj
 0003:00013c64       ??_R3CDlgMyMessageBox2@@8  0057fc64     DlgMyMessageBox2.obj
 0003:00013c78       ??_R2CDlgMyMessageBox2@@8  0057fc78     DlgMyMessageBox2.obj
 0003:00013c94       ??_R1A@?0A@EA@CDlgMyMessageBox2@@8 0057fc94     DlgMyMessageBox2.obj
 0003:00013cb8       ??_R4CDlgProjectOptions@@6B@ 0057fcb8     DlgProjectOptions.obj
 0003:00013cd0       ??_R3CDlgProjectOptions@@8 0057fcd0     DlgProjectOptions.obj
 0003:00013ce4       ??_R2CDlgProjectOptions@@8 0057fce4     DlgProjectOptions.obj
 0003:00013d00       ??_R1A@?0A@EA@CDlgProjectOptions@@8 0057fd00     DlgProjectOptions.obj
 0003:00013d24       ??_R4CDlgReassignLayers@@6B@ 0057fd24     DlgReassignLayers.obj
 0003:00013d3c       ??_R3CDlgReassignLayers@@8 0057fd3c     DlgReassignLayers.obj
 0003:00013d50       ??_R2CDlgReassignLayers@@8 0057fd50     DlgReassignLayers.obj
 0003:00013d6c       ??_R1A@?0A@EA@CDlgReassignLayers@@8 0057fd6c     DlgReassignLayers.obj
 0003:00013d90       ??_R4CDlgReport@@6B@       0057fd90     DlgReport.obj
 0003:00013da8       ??_R3CDlgReport@@8         0057fda8     DlgReport.obj
 0003:00013dbc       ??_R2CDlgReport@@8         0057fdbc     DlgReport.obj
 0003:00013dd8       ??_R1A@?0A@EA@CDlgReport@@8 0057fdd8     DlgReport.obj
 0003:00013dfc       ??_R4?$CMap@HHHH@@6B@      0057fdfc     DlgReport.obj
 0003:00013e14       ??_R3?$CMap@HHHH@@8        0057fe14     DlgReport.obj
 0003:00013e28       ??_R2?$CMap@HHHH@@8        0057fe28     DlgReport.obj
 0003:00013e34       ??_R1A@?0A@EA@?$CMap@HHHH@@8 0057fe34     DlgReport.obj
 0003:00013e58       ??_R4CDlgSaveLib@@6B@      0057fe58     DlgSaveLib.obj
 0003:00013e70       ??_R3CDlgSaveLib@@8        0057fe70     DlgSaveLib.obj
 0003:00013e84       ??_R2CDlgSaveLib@@8        0057fe84     DlgSaveLib.obj
 0003:00013ea0       ??_R1A@?0A@EA@CDlgSaveLib@@8 0057fea0     DlgSaveLib.obj
 0003:00013ec4       ??_R4?$CArray@V?$CStringT@DV?$StrTraitMFC_DLL@DV?$ChTraitsCRT@D@ATL@@@@@ATL@@ABV12@@@6B@ 0057fec4     DlgSaveLib.obj
 0003:00013edc       ??_R3?$CArray@V?$CStringT@DV?$StrTraitMFC_DLL@DV?$ChTraitsCRT@D@ATL@@@@@ATL@@ABV12@@@8 0057fedc     DlgSaveLib.obj
 0003:00013ef0       ??_R2?$CArray@V?$CStringT@DV?$StrTraitMFC_DLL@DV?$ChTraitsCRT@D@ATL@@@@@ATL@@ABV12@@@8 0057fef0     DlgSaveLib.obj
 0003:00013efc       ??_R1A@?0A@EA@?$CArray@V?$CStringT@DV?$StrTraitMFC_DLL@DV?$ChTraitsCRT@D@ATL@@@@@ATL@@ABV12@@@8 0057fefc     DlgSaveLib.obj
 0003:00013f20       ??_R4CDlgSetAreaHatch@@6B@ 0057ff20     DlgSetAreaHatch.obj
 0003:00013f38       ??_R3CDlgSetAreaHatch@@8   0057ff38     DlgSetAreaHatch.obj
 0003:00013f4c       ??_R2CDlgSetAreaHatch@@8   0057ff4c     DlgSetAreaHatch.obj
 0003:00013f68       ??_R1A@?0A@EA@CDlgSetAreaHatch@@8 0057ff68     DlgSetAreaHatch.obj
 0003:00013f8c       ??_R4DlgSetSegmentWidth@@6B@ 0057ff8c     DlgSetSegmentWidth.obj
 0003:00013fa4       ??_R3DlgSetSegmentWidth@@8 0057ffa4     DlgSetSegmentWidth.obj
 0003:00013fb8       ??_R2DlgSetSegmentWidth@@8 0057ffb8     DlgSetSegmentWidth.obj
 0003:00013fd4       ??_R1A@?0A@EA@DlgSetSegmentWidth@@8 0057ffd4     DlgSetSegmentWidth.obj
 0003:00013ff8       ??_R4CDlgSetTraceWidths@@6B@ 0057fff8     DlgSetTraceWidths.obj
 0003:00014010       ??_R3CDlgSetTraceWidths@@8 00580010     DlgSetTraceWidths.obj
 0003:00014024       ??_R2CDlgSetTraceWidths@@8 00580024     DlgSetTraceWidths.obj
 0003:00014040       ??_R1A@?0A@EA@CDlgSetTraceWidths@@8 00580040     DlgSetTraceWidths.obj
 0003:00014064       ??_R4CDlgShortcuts@@6B@    00580064     DlgShortcuts.obj
 0003:0001407c       ??_R3CDlgShortcuts@@8      0058007c     DlgShortcuts.obj
 0003:00014090       ??_R2CDlgShortcuts@@8      00580090     DlgShortcuts.obj
 0003:000140ac       ??_R1A@?0A@EA@CDlgShortcuts@@8 005800ac     DlgShortcuts.obj
 0003:000140d0       ??_R4CDlgSideStyle@@6B@    005800d0     DlgSideStyle.obj
 0003:000140e8       ??_R3CDlgSideStyle@@8      005800e8     DlgSideStyle.obj
 0003:000140fc       ??_R2CDlgSideStyle@@8      005800fc     DlgSideStyle.obj
 0003:00014118       ??_R1A@?0A@EA@CDlgSideStyle@@8 00580118     DlgSideStyle.obj
 0003:0001413c       ??_R4CDlgAttr@@6B@         0058013c     DlgAttr.obj
 0003:00014154       ??_R3CDlgAttr@@8           00580154     DlgAttr.obj
 0003:00014168       ??_R2CDlgAttr@@8           00580168     DlgAttr.obj
 0003:00014184       ??_R1A@?0A@EA@CDlgAttr@@8  00580184     DlgAttr.obj
 0003:000141a8       ??_R4CFreePcbDoc@@6B@      005801a8     FreePcbDoc.obj
 0003:000141c0       ??_R3CFreePcbDoc@@8        005801c0     FreePcbDoc.obj
 0003:000141d4       ??_R2CFreePcbDoc@@8        005801d4     FreePcbDoc.obj
 0003:000141e8       ??_R1A@?0A@EA@CFreePcbDoc@@8 005801e8     FreePcbDoc.obj
 0003:0001420c       ??_R1A@?0A@EA@CDocument@@8 0058020c     FreePcbDoc.obj
 0003:00014230       ??_R3CDocument@@8          00580230     FreePcbDoc.obj
 0003:00014244       ??_R2CDocument@@8          00580244     FreePcbDoc.obj
 0003:00014254       ??_R4?$CArray@PAVCPolyLine@@ABQAV1@@@6B@ 00580254     FreePcbDoc.obj
 0003:0001426c       ??_R3?$CArray@PAVCPolyLine@@ABQAV1@@@8 0058026c     FreePcbDoc.obj
 0003:00014280       ??_R2?$CArray@PAVCPolyLine@@ABQAV1@@@8 00580280     FreePcbDoc.obj
 0003:0001428c       ??_R1A@?0A@EA@?$CArray@PAVCPolyLine@@ABQAV1@@@8 0058028c     FreePcbDoc.obj
 0003:000142b0       ??_R4?$CArray@VCPolyLine@@ABV1@@@6B@ 005802b0     FreePcbDoc.obj
 0003:000142c8       ??_R3?$CArray@VCPolyLine@@ABV1@@@8 005802c8     FreePcbDoc.obj
 0003:000142dc       ??_R2?$CArray@VCPolyLine@@ABV1@@@8 005802dc     FreePcbDoc.obj
 0003:000142e8       ??_R1A@?0A@EA@?$CArray@VCPolyLine@@ABV1@@@8 005802e8     FreePcbDoc.obj
 0003:0001430c       ??_R4?$CArray@NABN@@6B@    0058030c     FreePcbDoc.obj
 0003:00014324       ??_R3?$CArray@NABN@@8      00580324     FreePcbDoc.obj
 0003:00014338       ??_R2?$CArray@NABN@@8      00580338     FreePcbDoc.obj
 0003:00014344       ??_R1A@?0A@EA@?$CArray@NABN@@8 00580344     FreePcbDoc.obj
 0003:00014368       ??_R4?$CArray@VCArc@@ABV1@@@6B@ 00580368     FreePcbDoc.obj
 0003:00014380       ??_R3?$CArray@VCArc@@ABV1@@@8 00580380     FreePcbDoc.obj
 0003:00014394       ??_R2?$CArray@VCArc@@ABV1@@@8 00580394     FreePcbDoc.obj
 0003:000143a0       ??_R1A@?0A@EA@?$CArray@VCArc@@ABV1@@@8 005803a0     FreePcbDoc.obj
 0003:000143c4       ??_R4CDocumentAdapter@CDocument@@6B@ 005803c4     FreePcbDoc.obj
 0003:000143dc       ??_R3CDocumentAdapter@CDocument@@8 005803dc     FreePcbDoc.obj
 0003:000143f0       ??_R2CDocumentAdapter@CDocument@@8 005803f0     FreePcbDoc.obj
 0003:000143fc       ??_R1A@?0A@EA@CDocumentAdapter@CDocument@@8 005803fc     FreePcbDoc.obj
 0003:00014420       ??_R1A@?0A@EA@IDocument@ATL@@8 00580420     FreePcbDoc.obj
 0003:00014444       ??_R3IDocument@ATL@@8      00580444     FreePcbDoc.obj
 0003:00014458       ??_R2IDocument@ATL@@8      00580458     FreePcbDoc.obj
 0003:00014460       ??_R4IDocument@ATL@@6B@    00580460     FreePcbDoc.obj
 0003:00014478       ??_R4StrList@@6B@          00580478     FreePcbDoc.obj
 0003:00014490       ??_R3StrList@@8            00580490     FreePcbDoc.obj
 0003:000144a4       ??_R2StrList@@8            005804a4     FreePcbDoc.obj
 0003:000144ac       ??_R1A@?0A@EA@StrList@@8   005804ac     FreePcbDoc.obj
 0003:000144d0       ??_R4?$CArray@HABH@@6B@    005804d0     FreePcbDoc.obj
 0003:000144e8       ??_R3?$CArray@HABH@@8      005804e8     FreePcbDoc.obj
 0003:000144fc       ??_R2?$CArray@HABH@@8      005804fc     FreePcbDoc.obj
 0003:00014508       ??_R1A@?0A@EA@?$CArray@HABH@@8 00580508     FreePcbDoc.obj
 0003:0001452c       ??_R4CFreePcbView@@6B@     0058052c     FreePcbView.obj
 0003:00014544       ??_R3CFreePcbView@@8       00580544     FreePcbView.obj
 0003:00014558       ??_R2CFreePcbView@@8       00580558     FreePcbView.obj
 0003:00014574       ??_R1A@?0A@EA@CFreePcbView@@8 00580574     FreePcbView.obj
 0003:00014598       ??_R1A@?0A@EA@CView@@8     00580598     FreePcbView.obj
 0003:000145bc       ??_R3CView@@8              005805bc     FreePcbView.obj
 0003:000145d0       ??_R2CView@@8              005805d0     FreePcbView.obj
 0003:000145e4       ??_R4?$CArray@Vid@@ABV1@@@6B@ 005805e4     FreePcbView.obj
 0003:000145fc       ??_R3?$CArray@Vid@@ABV1@@@8 005805fc     FreePcbView.obj
 0003:00014610       ??_R2?$CArray@Vid@@ABV1@@@8 00580610     FreePcbView.obj
 0003:0001461c       ??_R1A@?0A@EA@?$CArray@Vid@@ABV1@@@8 0058061c     FreePcbView.obj
 0003:00014640       ??_R4CFreePcbApp@@6B@      00580640     FreeSch.obj
 0003:00014658       ??_R3CFreePcbApp@@8        00580658     FreeSch.obj
 0003:0001466c       ??_R2CFreePcbApp@@8        0058066c     FreeSch.obj
 0003:00014688       ??_R1A@?0A@EA@CFreePcbApp@@8 00580688     FreeSch.obj
 0003:000146ac       ??_R1A@?0A@EA@CWinApp@@8   005806ac     FreeSch.obj
 0003:000146d0       ??_R3CWinApp@@8            005806d0     FreeSch.obj
 0003:000146e4       ??_R2CWinApp@@8            005806e4     FreeSch.obj
 0003:000146f8       ??_R1A@?0A@EA@CWinThread@@8 005806f8     FreeSch.obj
 0003:0001471c       ??_R3CWinThread@@8         0058071c     FreeSch.obj
 0003:00014730       ??_R2CWinThread@@8         00580730     FreeSch.obj
 0003:00014740       ??_R4CAboutDlg@@6B@        00580740     FreeSch.obj
 0003:00014758       ??_R3CAboutDlg@@8          00580758     FreeSch.obj
 0003:0001476c       ??_R2CAboutDlg@@8          0058076c     FreeSch.obj
 0003:00014788       ??_R1A@?0A@EA@CAboutDlg@@8 00580788     FreeSch.obj
 0003:000147ac       ??_R4?$CArray@VCAperture@@V1@@@6B@ 005807ac     Gerber.obj
 0003:000147c4       ??_R3?$CArray@VCAperture@@V1@@@8 005807c4     Gerber.obj
 0003:000147d8       ??_R2?$CArray@VCAperture@@V1@@@8 005807d8     Gerber.obj
 0003:000147e4       ??_R1A@?0A@EA@?$CArray@VCAperture@@V1@@@8 005807e4     Gerber.obj
 0003:00014808       ??_R4CMainFrame@@6B@       00580808     MainFrm.obj
 0003:00014820       ??_R3CMainFrame@@8         00580820     MainFrm.obj
 0003:00014834       ??_R2CMainFrame@@8         00580834     MainFrm.obj
 0003:00014850       ??_R1A@?0A@EA@CMainFrame@@8 00580850     MainFrm.obj
 0003:00014874       ??_R1A@?0A@EA@CFrameWnd@@8 00580874     MainFrm.obj
 0003:00014898       ??_R3CFrameWnd@@8          00580898     MainFrm.obj
 0003:000148ac       ??_R2CFrameWnd@@8          005808ac     MainFrm.obj
 0003:000148c0       ??_R4CMyToolBar@@6B@       005808c0     MyToolBar.obj
 0003:000148d8       ??_R3CMyToolBar@@8         005808d8     MyToolBar.obj
 0003:000148ec       ??_R2CMyToolBar@@8         005808ec     MyToolBar.obj
 0003:0001490c       ??_R1A@?0A@EA@CMyToolBar@@8 0058090c     MyToolBar.obj
 0003:00014930       ??_R1A@?0A@EA@CToolBar@@8  00580930     MyToolBar.obj
 0003:00014954       ??_R3CToolBar@@8           00580954     MyToolBar.obj
 0003:00014968       ??_R2CToolBar@@8           00580968     MyToolBar.obj
 0003:00014984       ??_R1A@?0A@EA@CControlBar@@8 00580984     MyToolBar.obj
 0003:000149a8       ??_R3CControlBar@@8        005809a8     MyToolBar.obj
 0003:000149bc       ??_R2CControlBar@@8        005809bc     MyToolBar.obj
 0003:000149d0       ??_R4CPathDialog@@6B@      005809d0     PathDialog.obj
 0003:000149e8       ??_R3CPathDialog@@8        005809e8     PathDialog.obj
 0003:000149fc       ??_R2CPathDialog@@8        005809fc     PathDialog.obj
 0003:00014a04       ??_R1A@?0A@EA@CPathDialog@@8 00580a04     PathDialog.obj
 0003:00014a28       ??_R4CPathDialogSub@@6B@   00580a28     PathDialog.obj
 0003:00014a40       ??_R3CPathDialogSub@@8     00580a40     PathDialog.obj
 0003:00014a54       ??_R2CPathDialogSub@@8     00580a54     PathDialog.obj
 0003:00014a68       ??_R1A@?0A@EA@CPathDialogSub@@8 00580a68     PathDialog.obj
 0003:00014a8c       ??_R4?$CArray@PAVdl_element@@ABQAV1@@@6B@ 00580a8c     PolyLine.obj
 0003:00014aa4       ??_R3?$CArray@PAVdl_element@@ABQAV1@@@8 00580aa4     PolyLine.obj
 0003:00014ab8       ??_R2?$CArray@PAVdl_element@@ABQAV1@@@8 00580ab8     PolyLine.obj
 0003:00014ac4       ??_R1A@?0A@EA@?$CArray@PAVdl_element@@ABQAV1@@@8 00580ac4     PolyLine.obj
 0003:00014ae8       ??_R4?$CArray@VCPolyPt@@ABV1@@@6B@ 00580ae8     PolyLine.obj
 0003:00014b00       ??_R3?$CArray@VCPolyPt@@ABV1@@@8 00580b00     PolyLine.obj
 0003:00014b14       ??_R2?$CArray@VCPolyPt@@ABV1@@@8 00580b14     PolyLine.obj
 0003:00014b20       ??_R1A@?0A@EA@?$CArray@VCPolyPt@@ABV1@@@8 00580b20     PolyLine.obj
 0003:00014b44       ??_R4?$CArray@VCContourData@@ABV1@@@6B@ 00580b44     PolyLine.obj
 0003:00014b5c       ??_R3?$CArray@VCContourData@@ABV1@@@8 00580b5c     PolyLine.obj
 0003:00014b70       ??_R2?$CArray@VCContourData@@ABV1@@@8 00580b70     PolyLine.obj
 0003:00014b7c       ??_R1A@?0A@EA@?$CArray@VCContourData@@ABV1@@@8 00580b7c     PolyLine.obj
 0003:00014ba0       ??_R4?$CTypedPtrArray@VCPtrArray@@PAVSMCharacter@@@@6B@ 00580ba0     smfontutil.obj
 0003:00014bb8       ??_R3?$CTypedPtrArray@VCPtrArray@@PAVSMCharacter@@@@8 00580bb8     smfontutil.obj
 0003:00014bcc       ??_R2?$CTypedPtrArray@VCPtrArray@@PAVSMCharacter@@@@8 00580bcc     smfontutil.obj
 0003:00014bdc       ??_R1A@?0A@EA@?$CTypedPtrArray@VCPtrArray@@PAVSMCharacter@@@@8 00580bdc     smfontutil.obj
 0003:00014c00       ??_R1A@?0A@EA@CPtrArray@@8 00580c00     smfontutil.obj
 0003:00014c24       ??_R3CPtrArray@@8          00580c24     smfontutil.obj
 0003:00014c38       ??_R2CPtrArray@@8          00580c38     smfontutil.obj
 0003:00014c44       ??_R4Thank_you@Define_the_symbol__ATL_MIXED@@6B@ 00580c44     StdAfx.obj
 0003:00014c5c       ??_R3Thank_you@Define_the_symbol__ATL_MIXED@@8 00580c5c     StdAfx.obj
 0003:00014c70       ??_R2Thank_you@Define_the_symbol__ATL_MIXED@@8 00580c70     StdAfx.obj
 0003:00014c78       ??_R1A@?0A@EA@Thank_you@Define_the_symbol__ATL_MIXED@@8 00580c78     StdAfx.obj
 0003:00014c9c       ??_R4?$CArray@PAVCText@@ABQAV1@@@6B@ 00580c9c     TextList.obj
 0003:00014cb4       ??_R3?$CArray@PAVCText@@ABQAV1@@@8 00580cb4     TextList.obj
 0003:00014cc8       ??_R2?$CArray@PAVCText@@ABQAV1@@@8 00580cc8     TextList.obj
 0003:00014cd4       ??_R1A@?0A@EA@?$CArray@PAVCText@@ABQAV1@@@8 00580cd4     TextList.obj
 0003:00014cf8       ??_R4type_info@@6B@        00580cf8     msvcrtd:ti_inst.obj
 0003:00014d10       ??_R3type_info@@8          00580d10     msvcrtd:ti_inst.obj
 0003:00014d24       ??_R2type_info@@8          00580d24     msvcrtd:ti_inst.obj
 0003:00014d2c       ??_R1A@?0A@EA@type_info@@8 00580d2c     msvcrtd:ti_inst.obj
 0003:00014efc       ___rtc_iaa                 00580efc     msvcrtd:_initsect_.obj
 0003:0001520c       ___rtc_izz                 0058120c     msvcrtd:_initsect_.obj
 0003:00015310       ___rtc_taa                 00581310     msvcrtd:_initsect_.obj
 0003:00015620       ___rtc_tzz                 00581620     msvcrtd:_initsect_.obj
 0003:000189ec       __TI3PAV?$CStringT@DV?$StrTraitMFC_DLL@DV?$ChTraitsCRT@D@ATL@@@@@ATL@@ 005849ec     FreePcbDoc.obj
 0003:00018a74       __CTA3PAV?$CStringT@DV?$StrTraitMFC_DLL@DV?$ChTraitsCRT@D@ATL@@@@@ATL@@ 00584a74     FreePcbDoc.obj
 0003:00018a88       __CT??_R0PAV?$CStringT@DV?$StrTraitMFC_DLL@DV?$ChTraitsCRT@D@ATL@@@@@ATL@@@84 00584a88     FreePcbDoc.obj
 0003:00018aa8       __CT??_R0PAV?$CSimpleStringT@D$00@ATL@@@84 00584aa8     FreePcbDoc.obj
 0003:00018ac8       __CT??_R0PAX@84            00584ac8     FreePcbDoc.obj
 0003:0001b16c       __TI1H                     0058716c     PathDialog.obj
 0003:0001b1ec       __CTA1H                    005871ec     PathDialog.obj
 0003:0001b1f4       __CT??_R0H@84              005871f4     PathDialog.obj
 0003:0001bcd8       __TI1?AVCAtlException@ATL@@ 00587cd8     atlsd:Externs.obj
 0003:0001bcec       __CTA1?AVCAtlException@ATL@@ 00587cec     atlsd:Externs.obj
 0003:0001bcf4       __CT??_R0?AVCAtlException@ATL@@@84 00587cf4     atlsd:Externs.obj
 0003:0001c860       ___pobjMapEntryFirst       00588860     StdAfx.obj
 0003:0001c964       ___pobjMapEntryLast        00588964     StdAfx.obj
 0004:00000000       ?__LINE__Var@?1???0Cuid@@QAE@XZ@4JA 00589000     Cuid.obj
 0004:00000004       ?__LINE__Var@?1??GetNewUID@Cuid@@QAEHXZ@4JA 00589004     Cuid.obj
 0004:00000008       ?__LINE__Var@?1??ReleaseUID@Cuid@@QAEXI@Z@4JA 00589008     Cuid.obj
 0004:0000000c       ?__LINE__Var@?1??Add@DRErrorList@@QAEPAVDRError@@PAV?$CStringT@DV?$StrTraitMFC_DLL@DV?$ChTraitsCRT@D@ATL@@@@@ATL@@00Vid@@1HHHHHH@Z@4JA 0058900c     DesignRules.obj
 0004:00000010       ?__LINE__Var@?1??Add@CDisplayList@@QAEPAVdl_element@@Vid@@PAXHHHPAUtagRECT@@HPAVCPoint@@HH@Z@4JA 00589010     DisplayList.obj
 0004:00000014       ?__LINE__Var@?1??Draw@CDisplayList@@QAEXPAVCDC@@H@Z@4JA 00589014     DisplayList.obj
 0004:00000018       ?__LINE__Var@?1??Drag@CDisplayList@@QAEXPAVCDC@@HH@Z@4JA 00589018     DisplayList.obj
 0004:0000001c       ??_R0?AV?$CArray@VCPoint@@ABV1@@@@8 0058901c     DisplayList.obj
 0004:0000004c       ??_R0?AVCObject@@@8        0058904c     DisplayList.obj
 0004:00000a04       ??_R0?AVCDlgAddMaskCutout@@@8 00589a04     DlgAddMaskCutout.obj
 0004:00000a2c       ??_R0?AVCDialog@@@8        00589a2c     DlgAddMaskCutout.obj
 0004:00000a48       ??_R0?AVCWnd@@@8           00589a48     DlgAddMaskCutout.obj
 0004:00000a60       ??_R0?AVCCmdTarget@@@8     00589a60     DlgAddMaskCutout.obj
 0004:00000a80       ?__LINE__Var@?1??DoDataExchange@CDlgAddMaskCutout@@MAEXPAVCDataExchange@@@Z@4JA 00589a80     DlgAddMaskCutout.obj
 0004:00000a84       ??_R0?AVCDlgAddMerge@@@8   00589a84     DlgAddMerge.obj
 0004:00000aa4       ??_R0?AVCDlgAddPoly@@@8    00589aa4     DlgAddPoly.obj
 0004:00000ac8       ?gLastHeight@@3HA          00589ac8     DlgAddText.obj
 0004:00000acc       ?gLastWidth@@3HA           00589acc     DlgAddText.obj
 0004:00000ad0       ?gUseDefaultWidth@@3HA     00589ad0     DlgAddText.obj
 0004:00000ad4       ?gLastLayer@@3HA           00589ad4     DlgAddText.obj
 0004:00001474       ??_R0?AVCDlgAddText@@@8    0058a474     DlgAddText.obj
 0004:00001494       ??_R0?AVCDlgAddWidth@@@8   0058a494     DlgAddWidth.obj
 0004:000014b4       ??_R0?AVCDlgCAD@@@8        0058a4b4     DlgCAD.obj
 0004:000014d0       ??_R0?AVCDlgChangeLayer@@@8 0058a4d0     DlgChangeLayer.obj
 0004:000014f4       ??_R0?AVCDlgChooseNetName@@@8 0058a4f4     DlgChooseNetName.obj
 0004:0000151c       ??_R0?AVDlgDRC@@@8         0058a51c     DlgDRC.obj
 0004:00001538       ??_R0?AVCDlgDupFootprintName@@@8 0058a538     DlgDupFootprintName.obj
 0004:00001564       ??_R0?AVDlgEditBoardCorner@@@8 0058a564     DlgEditBoardCorner.obj
 0004:0000158c       ??_R0?AVCDlgExportDsn@@@8  0058a58c     DlgExportDsn.obj
 0004:000015b0       ??_R0?AVCDlgFindPart@@@8   0058a5b0     DlgFindPart.obj
 0004:000015d0       ??_R0?AVCDlgHole@@@8       0058a5d0     DlgHole.obj
 0004:000015ec       ??_R0?AVCDlgImportOptions@@@8 0058a5ec     DlgImportOptions.obj
 0004:00001614       ??_R0?AVCDlgImportSes@@@8  0058a614     DlgImportSes.obj
 0004:00001638       ??_R0?AVCDlgIndexing@@@8   0058a638     DlgIndexing.obj
 0004:00001658       ??_R0?AVCDlgLayers@@@8     0058a658     DlgLayers.obj
 0004:00001678       ??_R0?AVCCommonDialog@@@8  0058a678     DlgLayers.obj
 0004:0000169c       ??_R0?AVCDlgLog@@@8        0058a69c     DlgLog.obj
 0004:000016b8       ??_R0?AVCDlgMoveOrigin@@@8 0058a6b8     DlgMoveOrigin.obj
 0004:000016dc       ??_R0?AVCDlgMyMessageBox@@@8 0058a6dc     DlgMyMessageBox.obj
 0004:00001704       ??_R0?AVCDlgMyMessageBox2@@@8 0058a704     DlgMyMessageBox2.obj
 0004:0000172c       ??_R0?AVCDlgProjectOptions@@@8 0058a72c     DlgProjectOptions.obj
 0004:00001754       ?__LINE__Var@?1??Init@CDlgProjectOptions@@QAEXHPAV?$CStringT@DV?$StrTraitMFC_DLL@DV?$ChTraitsCRT@D@ATL@@@@@ATL@@000HHHHHHHHH@Z@4JA 0058a754     DlgProjectOptions.obj
 0004:000020f4       ??_R0?AVCDlgReassignLayers@@@8 0058b0f4     DlgReassignLayers.obj
 0004:0000211c       ??_R0?AVCDlgReport@@@8     0058b11c     DlgReport.obj
 0004:0000213c       ??_R0?AV?$CMap@HHHH@@@8    0058b13c     DlgReport.obj
 0004:0000215c       ??_R0?AVCDlgSaveLib@@@8    0058b15c     DlgSaveLib.obj
 0004:0000217c       ?__LINE__Var@?1??Initialize@CDlgSaveLib@@QAEXPAV?$CArray@V?$CStringT@DV?$StrTraitMFC_DLL@DV?$ChTraitsCRT@D@ATL@@@@@ATL@@ABV12@@@@Z@4JA 0058b17c     DlgSaveLib.obj
 0004:00002180       ??_R0?AV?$CArray@V?$CStringT@DV?$StrTraitMFC_DLL@DV?$ChTraitsCRT@D@ATL@@@@@ATL@@ABV12@@@@8 0058b180     DlgSaveLib.obj
 0004:000021f0       ??_R0?AVCDlgSetAreaHatch@@@8 0058b1f0     DlgSetAreaHatch.obj
 0004:00002218       ??_R0?AVDlgSetSegmentWidth@@@8 0058b218     DlgSetSegmentWidth.obj
 0004:00002240       ??_R0?AVCDlgSetTraceWidths@@@8 0058b240     DlgSetTraceWidths.obj
 0004:00002268       ??_R0?AVCDlgShortcuts@@@8  0058b268     DlgShortcuts.obj
 0004:0000228c       ??_R0?AVCDlgSideStyle@@@8  0058b28c     DlgSideStyle.obj
 0004:000022b0       ??_R0?AVCDlgAttr@@@8       0058b2b0     DlgAttr.obj
 0004:000022cc       ?__LINE__Var@?1??my_atoi@@YAHPAV?$CStringT@DV?$StrTraitMFC_DLL@DV?$ChTraitsCRT@D@ATL@@@@@ATL@@@Z@4JA 0058b2cc     file_io.obj
 0004:000022d0       ?__LINE__Var@?1??my_atof@@YANPAV?$CStringT@DV?$StrTraitMFC_DLL@DV?$ChTraitsCRT@D@ATL@@@@@ATL@@@Z@4JA 0058b2d0     file_io.obj
 0004:00002c98       ?__LINE__Var@?1???0CFreePcbDoc@@IAE@XZ@4JA 0058bc98     FreePcbDoc.obj
 0004:00002c9c       ??_R0?AVCFreePcbDoc@@@8    0058bc9c     FreePcbDoc.obj
 0004:00002cbc       ??_R0?AVCDocument@@@8      0058bcbc     FreePcbDoc.obj
 0004:00002cd8       ?__LINE__Var@?1??FileOpen@CFreePcbDoc@@QAEHPBD@Z@4JA 0058bcd8     FreePcbDoc.obj
 0004:00002ce0       ??_R0PAV?$CStringT@DV?$StrTraitMFC_DLL@DV?$ChTraitsCRT@D@ATL@@@@@ATL@@@8 0058bce0     FreePcbDoc.obj
 0004:00002d3c       ??_R0PAVCFileException@@@8 0058bd3c     FreePcbDoc.obj
 0004:00002d60       ?__LINE__Var@?1??WriteOutlinesPoly@CFreePcbDoc@@QAEXPAVCStdioFile@@H@Z@4JA 0058bd60     FreePcbDoc.obj
 0004:00002d64       ??_R0PAV?$CSimpleStringT@D$00@ATL@@@8 0058bd64     FreePcbDoc.obj
 0004:00002d94       ??_R0PAX@8                 0058bd94     FreePcbDoc.obj
 0004:00002da4       ?__LINE__Var@?1??ReadGraphics@CFreePcbDoc@@QAEXPAVCStdioFile@@PAV?$CArray@VCPolyLine@@ABV1@@@@Z@4JA 0058bda4     FreePcbDoc.obj
 0004:00002da8       ?__LINE__Var@?1??ReadOptions@CFreePcbDoc@@QAEHPAVCStdioFile@@H@Z@4JA 0058bda8     FreePcbDoc.obj
 0004:00002dac       ?__LINE__Var@?1??WriteOptions@CFreePcbDoc@@QAEXPAVCStdioFile@@H@Z@4JA 0058bdac     FreePcbDoc.obj
 0004:00002db0       ?__LINE__Var@?1??CreateMoveOriginUndoRecord@CFreePcbDoc@@QAEPAUundo_move_origin@@HH@Z@4JA 0058bdb0     FreePcbDoc.obj
 0004:00002db4       ?__LINE__Var@?1??CombineBoardOutlines@CFreePcbDoc@@QAEHHH@Z@4JA 0058bdb4     FreePcbDoc.obj
 0004:00002db8       ?__LINE__Var@?1??ClipOP@CFreePcbDoc@@QAEXH@Z@4JA 0058bdb8     FreePcbDoc.obj
 0004:00002dbc       ??_R0?AV?$CArray@PAVCPolyLine@@ABQAV1@@@@8 0058bdbc     FreePcbDoc.obj
 0004:00002df4       ??_R0?AV?$CArray@VCPolyLine@@ABV1@@@@8 0058bdf4     FreePcbDoc.obj
 0004:00002e28       ??_R0?AV?$CArray@NABN@@@8  0058be28     FreePcbDoc.obj
 0004:00002e4c       ??_R0?AV?$CArray@VCArc@@ABV1@@@@8 0058be4c     FreePcbDoc.obj
 0004:00002e78       ??_R0PAVCException@@@8     0058be78     FreePcbDoc.obj
 0004:00002e98       ??_R0?AVCDocumentAdapter@CDocument@@@8 0058be98     FreePcbDoc.obj
 0004:00002ecc       ??_R0?AUIDocument@ATL@@@8  0058becc     FreePcbDoc.obj
 0004:00002ef0       ??_R0?AVStrList@@@8        0058bef0     FreePcbDoc.obj
 0004:00002f0c       ??_R0?AV?$CArray@HABH@@@8  0058bf0c     FreePcbDoc.obj
 0004:00003adc       ??_R0?AVCFreePcbView@@@8   0058cadc     FreePcbView.obj
 0004:00003afc       ??_R0?AVCView@@@8          0058cafc     FreePcbView.obj
 0004:00003b14       ?__LINE__Var@?1??InitInstance@CFreePcbView@@QAEXXZ@4JA 0058cb14     FreePcbView.obj
 0004:00003b18       ?__LINE__Var@?1??InitializeView@CFreePcbView@@QAEXXZ@4JA 0058cb18     FreePcbView.obj
 0004:00003b1c       ?__LINE__Var@?1??GetDocument@CFreePcbView@@QAEPAVCFreePcbDoc@@XZ@4JA 0058cb1c     FreePcbView.obj
 0004:00003b20       ?__LINE__Var@?1??OnContextMenu@CFreePcbView@@QAEXPAVCWnd@@VCPoint@@@Z@4JA 0058cb20     FreePcbView.obj
 0004:00003b24       ?__LINE__Var@?1??OnTextEdit@CFreePcbView@@QAEXXZ@4JA 0058cb24     FreePcbView.obj
 0004:00003b28       ?__LINE__Var@?1??OnOPSetAttributes@CFreePcbView@@QAEXXZ@4JA 0058cb28     FreePcbView.obj
 0004:00003b2c       ?__LINE__Var@?1??SnapCursorPoint@CFreePcbView@@QAEXVCPoint@@I@Z@4JA 0058cb2c     FreePcbView.obj
 0004:00003b30       ?__LINE__Var@?1??OnChangeTextGrid@CFreePcbView@@QAEJIJ@Z@4JA 0058cb30     FreePcbView.obj
 0004:00003b34       ?__LINE__Var@?1??OnChangeSnapAngle@CFreePcbView@@QAEJIJ@Z@4JA 0058cb34     FreePcbView.obj
 0004:00003b38       ?__LINE__Var@?1??OnChangeUnits@CFreePcbView@@QAEJIJ@Z@4JA 0058cb38     FreePcbView.obj
 0004:00003b3c       ?__LINE__Var@?1??SaveUndoInfoForGroup@CFreePcbView@@QAEHPAVCUndoList@@HH@Z@4JA 0058cb3c     FreePcbView.obj
 0004:00003b40       ?__LINE__Var@?1??CreateUndoDescriptor@CFreePcbView@@QAEPAXPAVCUndoList@@HPAV?$CStringT@DV?$StrTraitMFC_DLL@DV?$ChTraitsCRT@D@ATL@@@@@ATL@@1HH1PAX@Z@4JA 0058cb40     FreePcbView.obj
 0004:00003b44       ?__LINE__Var@?1??UndoCallback@CFreePcbView@@SAXPAXH@Z@4JA@035e5e64 0058cb44     FreePcbView.obj
 0004:00003b48       ?__LINE__Var@?1??OnSetClearance@CFreePcbView@@QAEXXZ@4JA 0058cb48     FreePcbView.obj
 0004:00003b4c       ?__LINE__Var@?1??FindNEXTSegmentOfGroup@CFreePcbView@@QAEXMPAVid@@0@Z@4JA 0058cb4c     FreePcbView.obj
 0004:00003b50       ?__LINE__Var@?1??ArcApp@CFreePcbView@@QAEHPAVCPolyLine@@HH@Z@4JA 0058cb50     FreePcbView.obj
 0004:00003b54       ?__LINE__Var@?1??OnInfoBoxSendMess@CFreePcbView@@QAEPAVCWnd@@V?$CStringT@DV?$StrTraitMFC_DLL@DV?$ChTraitsCRT@D@ATL@@@@@ATL@@@Z@4JA 0058cb54     FreePcbView.obj
 0004:00003b58       ??_R0?AV?$CArray@Vid@@ABV1@@@@8 0058cb58     FreePcbView.obj
 0004:00003b9c       ??_R0?AVCFreePcbApp@@@8    0058cb9c     FreeSch.obj
 0004:00003bbc       ??_R0?AVCWinApp@@@8        0058cbbc     FreeSch.obj
 0004:00003bd8       ??_R0?AVCWinThread@@@8     0058cbd8     FreeSch.obj
 0004:00003bf8       ?__LINE__Var@?1??InitInstance@CFreePcbApp@@UAEHXZ@4JA 0058cbf8     FreeSch.obj
 0004:00003bfc       ??_R0?AVCAboutDlg@@@8      0058cbfc     FreeSch.obj
 0004:00003c18       ?__LINE__Var@?1??OnFileMruFile1@CFreePcbApp@@QAEXXZ@4JA 0058cc18     FreeSch.obj
 0004:00003c1c       ?__LINE__Var@?1??OnFileMruFile2@CFreePcbApp@@QAEXXZ@4JA 0058cc1c     FreeSch.obj
 0004:00003c20       ?__LINE__Var@?1??OnFileMruFile3@CFreePcbApp@@QAEXXZ@4JA 0058cc20     FreeSch.obj
 0004:00003c24       ?__LINE__Var@?1??OnFileMruFile4@CFreePcbApp@@QAEXXZ@4JA 0058cc24     FreeSch.obj
 0004:00003c28       ?__LINE__Var@?1??OnFileMruFile5@CFreePcbApp@@QAEXXZ@4JA 0058cc28     FreeSch.obj
 0004:00003c2c       ?__LINE__Var@?1??OnFileMruFile6@CFreePcbApp@@QAEXXZ@4JA 0058cc2c     FreeSch.obj
 0004:00003c30       ?__LINE__Var@?1??OnFileMruFile7@CFreePcbApp@@QAEXXZ@4JA 0058cc30     FreeSch.obj
 0004:00003c34       ?__LINE__Var@?1??OnHelpKeyboardshortcuts@CFreePcbApp@@QAEXXZ@4JA 0058cc34     FreeSch.obj
 0004:00003c38       ?__LINE__Var@?1???ACRecentFileList@@QAEAAV?$CStringT@DV?$StrTraitMFC_DLL@DV?$ChTraitsCRT@D@ATL@@@@@ATL@@H@Z@4JA 0058cc38     FreeSch.obj
 0004:000045dc       ?__LINE__Var@?1??FindInArray@CAperture@@QAEHPAV?$CArray@VCAperture@@V1@@@H@Z@4JA 0058d5dc     Gerber.obj
 0004:000045e0       ?__LINE__Var@?1??WriteMoveTo@@YAXPAVCStdioFile@@HHH@Z@4JA 0058d5e0     Gerber.obj
 0004:000045e4       ?__LINE__Var@?1??WritePolygonSide@@YAXPAVCStdioFile@@HHHHHHH@Z@4JA 0058d5e4     Gerber.obj
 0004:000045e8       ?__LINE__Var@?1??WriteTiltPolygon@@YAXHHHHHHHHHPAVCStdioFile@@@Z@4JA 0058d5e8     Gerber.obj
 0004:000045ec       ?__LINE__Var@?1??WriteGerberFile@@YAHPAVCStdioFile@@HHPAVCDlgLog@@HHHHPAV?$CArray@VCPolyLine@@ABV1@@@PAUCAttrib@@PAVCDisplayList@@PAVStrList@@@Z@4JA 0058d5ec     Gerber.obj
 0004:000045f0       ??_R0?AV?$CArray@VCAperture@@V1@@@@8 0058d5f0     Gerber.obj
 0004:00004664       ??_R0?AVCMainFrame@@@8     0058d664     MainFrm.obj
 0004:00004684       ??_R0?AVCFrameWnd@@@8      0058d684     MainFrm.obj
 0004:000046a0       ?__LINE__Var@?1??OnCreate@CMainFrame@@IAEHPAUtagCREATESTRUCTA@@@Z@4JA 0058d6a0     MainFrm.obj
 0004:000046a4       ??_R0?AVCMyToolBar@@@8     0058d6a4     MyToolBar.obj
 0004:000046c4       ??_R0?AVCToolBar@@@8       0058d6c4     MyToolBar.obj
 0004:000046e0       ??_R0?AVCControlBar@@@8    0058d6e0     MyToolBar.obj
 0004:00004720       ??_R0?AVCPathDialog@@@8    0058d720     PathDialog.obj
 0004:00004740       ??_R0?AVCPathDialogSub@@@8 0058d740     PathDialog.obj
 0004:00004764       ?__LINE__Var@?1??BrowseCallbackProc@CPathDialog@@CGHPAUHWND__@@IJJ@Z@4JA@d653f993 0058d764     PathDialog.obj
 0004:00004768       ??_R0H@8                   0058d768     PathDialog.obj
 0004:00004778       ?__LINE__Var@?1??addv@polygon@@QAEXNNNNH@Z@4JA 0058d778     php_polygon.obj
 0004:0000477c       ?__LINE__Var@?1??copy_poly@polygon@@QAEPAV2@XZ@4JA 0058d77c     php_polygon.obj
 0004:00004780       ?__LINE__Var@?1??ints@polygon@@QAEHPAVvertex@@000PAHQAN222@Z@4JA 0058d780     php_polygon.obj
 0004:00004784       ?__LINE__Var@?1??isInside@polygon@@QAEHPAVvertex@@@Z@4JA 0058d784     php_polygon.obj
 0004:00004788       ?__LINE__Var@?1??boolean@polygon@@QAEPAV2@PAV2@H@Z@4JA 0058d788     php_polygon.obj
 0004:0000478c       ?__LINE__Var@?1???0vertex@@QAE@NNNNNPAV1@0PAVpolygon@@H0NHH@Z@4JA 0058d78c     php_polygon_vertex.obj
 0004:00004790       ?__LINE__Var@?1???0CPolyLine@@QAE@PAVCDisplayList@@@Z@4JA 0058d790     PolyLine.obj
 0004:00004794       ?__LINE__Var@?1???0CPolyLine@@QAE@XZ@4JA 0058d794     PolyLine.obj
 0004:00004798       ?__LINE__Var@?1??NormalizeWithGpc@CPolyLine@@QAEHPAV?$CArray@PAVCPolyLine@@ABQAV1@@@H@Z@4JA 0058d798     PolyLine.obj
 0004:0000479c       ?__LINE__Var@?1??MakeGpcPoly@CPolyLine@@QAEHHPAV?$CArray@VCArc@@ABV1@@@@Z@4JA 0058d79c     PolyLine.obj
 0004:000047a0       ?__LINE__Var@?1??RemoveContour@CPolyLine@@QAEXHH@Z@4JA 0058d7a0     PolyLine.obj
 0004:000047a4       ?__LINE__Var@?1??StartDraggingToInsertCorner@CPolyLine@@QAEXPAVCDC@@HHHH@Z@4JA 0058d7a4     PolyLine.obj
 0004:000047a8       ?__LINE__Var@?1??CancelDraggingToInsertCorner@CPolyLine@@QAEXH@Z@4JA 0058d7a8     PolyLine.obj
 0004:000047ac       ?__LINE__Var@?1??StartDraggingToMoveCorner@CPolyLine@@QAEXPAVCDC@@HHHH@Z@4JA 0058d7ac     PolyLine.obj
 0004:000047b0       ?__LINE__Var@?1??CancelDraggingToMoveCorner@CPolyLine@@QAEXH@Z@4JA 0058d7b0     PolyLine.obj
 0004:000047b4       ?__LINE__Var@?1??HighlightSide@CPolyLine@@QAEXHHH@Z@4JA 0058d7b4     PolyLine.obj
 0004:000047b8       ?__LINE__Var@?1??HighlightCorner@CPolyLine@@QAEPAVdl_element@@HH@Z@4JA 0058d7b8     PolyLine.obj
 0004:000047bc       ?__LINE__Var@?1??GetSel@CPolyLine@@QAEHH@Z@4JA 0058d7bc     PolyLine.obj
 0004:000047c0       ?__LINE__Var@?1??GetSideSel@CPolyLine@@QAEHH@Z@4JA 0058d7c0     PolyLine.obj
 0004:000047c4       ?__LINE__Var@?1??ClipGpcPolygon@CPolyLine@@QAEXW4gpc_op@@PAV2@@Z@4JA 0058d7c4     PolyLine.obj
 0004:000047c8       ??_R0?AV?$CArray@PAVdl_element@@ABQAV1@@@@8 0058d7c8     PolyLine.obj
 0004:00004800       ??_R0?AV?$CArray@VCPolyPt@@ABV1@@@@8 0058d800     PolyLine.obj
 0004:00004830       ??_R0?AV?$CArray@VCContourData@@ABV1@@@@8 0058d830     PolyLine.obj
 0004:00004864       ?__LINE__Var@?1???0SMCharacter@@QAE@PAV1@@Z@4JA 0058d864     smcharacter.obj
 0004:00004868       ?__LINE__Var@?1??Read@SMCharacter@@QAEXPAU_iobuf@@@Z@4JA 0058d868     smcharacter.obj
 0004:0000486c       ?__LINE__Var@?1??ReadOldStyle@SMCharacter@@QAEHPAU_iobuf@@@Z@4JA 0058d86c     smcharacter.obj
 0004:00004870       ?__LINE__Var@?1???0SMFontUtil@@QAE@PAV?$CStringT@DV?$StrTraitMFC_DLL@DV?$ChTraitsCRT@D@ATL@@@@@ATL@@@Z@4JA 0058d870     smfontutil.obj
 0004:00004874       ??_R0?AV?$CTypedPtrArray@VCPtrArray@@PAVSMCharacter@@@@@8 0058d874     smfontutil.obj
 0004:000048bc       ??_R0?AVCPtrArray@@@8      0058d8bc     smfontutil.obj
 0004:000048d8       ?__LINE__Var@?1??LoadFontData@SMFontUtil@@IAEHXZ@4JA 0058d8d8     smfontutil.obj
 0004:000048dc       ?__LINE__Var@?1??LoadOldStyleFile@SMFontUtil@@IAEXXZ@4JA 0058d8dc     smfontutil.obj
 0004:000048e0       __pIncludeInitManaged      0058d8e0     StdAfx.obj
 0004:00005938       ??_R0?AUThank_you@Define_the_symbol__ATL_MIXED@@@8 0058e938     StdAfx.obj
 0004:00005978       ?__LINE__Var@?1??AddText@CTextList@@QAEPAVCText@@HHHHHHPAV?$CStringT@DV?$StrTraitMFC_DLL@DV?$ChTraitsCRT@D@ATL@@@@@ATL@@H@Z@4JA 0058e978     TextList.obj
 0004:0000597c       ?__LINE__Var@?1??CreateUndoRecord@CTextList@@QAEPAUundo_text@@PAVCText@@@Z@4JA 0058e97c     TextList.obj
 0004:00005980       ?__LINE__Var@?1??GetNumDifferentTexts@CTextList@@QAEHXZ@4JA 0058e980     TextList.obj
 0004:00005984       ??_R0?AV?$CArray@PAVCText@@ABQAV1@@@@8 0058e984     TextList.obj
 0004:000059b8       ?__LINE__Var@?1??Push@CUndoList@@QAEXPAXP6AX0H@ZH@Z@4JA 0058e9b8     UndoList.obj
 0004:000059bc       ?__LINE__Var@?1??Pop@CUndoList@@QAEHXZ@4JA 0058e9bc     UndoList.obj
 0004:000059c0       ?__LINE__Var@?1??GetInflectionPoint@@YA?AVCPoint@@V2@0H@Z@4JA 0058e9c0     utility.obj
 0004:000059c4       ?__LINE__Var@?1??Generate_Arc@@YAHHHHHHPAVCPoint@@H@Z@4JA 0058e9c4     utility.obj
 0004:000059c8       ?__LINE__Var@?1??SwellPolygon@@YAHPAVCPoint@@H0H@Z@4JA 0058e9c8     utility.obj
 0004:000059cc       ?__LINE__Var@?1??MakeCStringFromDimension@@YAXPAV?$CStringT@DV?$StrTraitMFC_DLL@DV?$ChTraitsCRT@D@ATL@@@@@ATL@@HHHHHHH@Z@4JA 0058e9cc     utility.obj
 0004:000059d0       ?__LINE__Var@?1??FindLineSegmentIntersection@@YAHNNHHHHHPAN0000@Z@4JA 0058e9d0     utility.obj
 0004:000059d4       ?__LINE__Var@?1??CalibrateTimer@@YAXXZ@4JA 0058e9d4     utility.obj
 0004:000059d8       ?__LINE__Var@?1??DrawArc@@YAXPAVCDC@@HHHHHH@Z@4JA 0058e9d8     utility.obj
 0004:000059dc       ?__LINE__Var@?1??DrawCurve@@YAXPAVCDC@@HHHHHH@Z@4JA 0058e9dc     utility.obj
 0004:000059e0       ?__LINE__Var@?1??GetClearanceBetweenSegments@@YAHHHHHHHHHHHHHHPAH0@Z@4JA 0058e9e0     utility.obj
 0004:000059e4       ?__LINE__Var@?1??GetArcIntersections@@YAHPAUEllipseTag@@0PAN111@Z@4JA 0058e9e4     utility.obj
 0004:000059e8       ?__LINE__Var@?1??GetArcClearance@@YANPAUEllipseTag@@0PAN1@Z@4JA 0058e9e8     utility.obj
 0004:000059ec       ?_RTC_ErrorLevels@@3PAHA   0058e9ec     msvcrtd:_error_.obj
 0004:00005a04       ___security_cookie         0058ea04     msvcrtd:gs_cookie.obj
 0004:00005a08       ___security_cookie_complement 0058ea08     msvcrtd:gs_cookie.obj
 0004:00005a10       ??_R0?AVtype_info@@@8      0058ea10     msvcrtd:ti_inst.obj
 0004:00005a30       ___globallocalestatus      0058ea30     msvcrtd:xthdloc.obj
 0004:00005a34       ___defaultmatherr          0058ea34     msvcrtd:merr.obj
 0004:00005a38       ___native_dllmain_reason   0058ea38     msvcrtd:natstart.obj
 0004:00005a3c       ___native_vcclrit_reason   0058ea3c     msvcrtd:natstart.obj
 0004:00005a44       ?g_pszUpdateEventName@@3PBDB 0058ea44     atlsd:Externs.obj
 0004:00005a48       ?g_pszAllocFileMapName@@3PBDB 0058ea48     atlsd:Externs.obj
 0004:00005a4c       ?g_pszKernelObjFmt@@3PBDB  0058ea4c     atlsd:Externs.obj
 0004:00005a54       ??_R0?AVCAtlException@ATL@@@8 0058ea54     atlsd:Externs.obj
 0004:00005c34       ?gMirror@@3HA              0058ec34     DlgAddText.obj
 0004:00005c38       ?gNegative@@3HA            0058ec38     DlgAddText.obj
 0004:00005c40       ?g_bVerbose@@3HA           0058ec40     DlgExportDsn.obj
 0004:00005c44       ?g_bInfo@@3HA              0058ec44     DlgExportDsn.obj
 0004:00005c48       ?g_FromToType@@3HA         0058ec48     DlgExportDsn.obj
 0004:00005c50       ?g_bSesVerbose@@3HA        0058ec50     DlgImportSes.obj
 0004:00005c54       ?this_Doc@@3PAVCFreePcbDoc@@A 0058ec54     FreePcbDoc.obj
 0004:00005ca4       ?t_pressed@@3HA            0058eca4     FreePcbView.obj
 0004:00005ca8       ?n_pressed@@3HA            0058eca8     FreePcbView.obj
 0004:00005cac       ?gTotalArrowMoveX@@3HA     0058ecac     FreePcbView.obj
 0004:00005cb0       ?gTotalArrowMoveY@@3HA     0058ecb0     FreePcbView.obj
 0004:00005cb4       ?gShiftKeyDown@@3HA        0058ecb4     FreePcbView.obj
 0004:00005cb8       ?gLastKeyWasArrow@@3HA     0058ecb8     FreePcbView.obj
 0004:00005cbc       ?prev_sel_count@@3HA       0058ecbc     FreePcbView.obj
 0004:00005cc0       ?groupAverageX@@3_JA       0058ecc0     FreePcbView.obj
 0004:00005cc8       ?groupAverageY@@3_JA       0058ecc8     FreePcbView.obj
 0004:00005cd0       ?groupNumberItems@@3HA     0058ecd0     FreePcbView.obj
 0004:00005cdc       ?my_cursor@@3PAUHICON__@@A 0058ecdc     FreePcbView.obj
 0004:00005d08       ?theApp@@3VCFreePcbApp@@A  0058ed08     FreeSch.obj
 0004:00005ec4       ?THERMAL_W@@3HA            0058eec4     Gerber.obj
 0004:00005ef0       ?std_err@?1??instance@CQAFDebug@@KAAAV2@XZ@4V2@A 0058eef0     QAFDebug.obj
 0004:00006054       ??_B?1??instance@CQAFDebug@@KAAAV1@XZ@51 0058f054     QAFDebug.obj
 0004:00006058       ?QAF_LOG_DIR@@3V?$CStringT@DV?$StrTraitMFC_DLL@DV?$ChTraitsCRT@D@ATL@@@@@ATL@@A 0058f058     QAFDebug.obj
 0004:0000605c       ?smfpath@@3V?$CStringT@DV?$StrTraitMFC_DLL@DV?$ChTraitsCRT@D@ATL@@@@@ATL@@A 0058f05c     smfontutil.obj
 0004:00006060       ?smffile@@3V?$CStringT@DV?$StrTraitMFC_DLL@DV?$ChTraitsCRT@D@ATL@@@@@ATL@@A 0058f060     smfontutil.obj
 0004:00006064       ?xtbfile@@3V?$CStringT@DV?$StrTraitMFC_DLL@DV?$ChTraitsCRT@D@ATL@@@@@ATL@@A 0058f064     smfontutil.obj
 0004:0000606c       ?_pAtlAutoThreadModule@ATL@@3PAUIAtlAutoThreadModule@1@A 0058f06c     StdAfx.obj
 0004:00006070       ?s_pfnPrevHook@CNoUIAssertHook@ATL@@0P6AHHPADPAH@ZA 0058f070     StdAfx.obj
 0004:00006074       ?m_bInitFailed@CAtlBaseModule@ATL@@2_NA 0058f074     StdAfx.obj
 0004:00006078       ?s_pLog@CFixedStringMgr@ATL@@2PAVIFixedStringLog@2@A 0058f078     StdAfx.obj
 0004:0000607c       ?_pPerfRegFunc@ATL@@3P6AJPAUHINSTANCE__@@@ZA 0058f07c     StdAfx.obj
 0004:00006080       ?_pPerfUnRegFunc@ATL@@3P6AJXZA 0058f080     StdAfx.obj
 0004:00006084       ?_AtlRegisterPerUser@ATL@@3_NA 0058f084     StdAfx.obj
 0004:00006088       ?_pAtlModule@ATL@@3PAVCAtlModule@1@A 0058f088     StdAfx.obj
 0004:0000608c       ?m_libid@CAtlModule@ATL@@2U_GUID@@A 0058f08c     StdAfx.obj
 0004:000060a0       ?_pModule@ATL@@3PAVCComModule@1@A 0058f0a0     StdAfx.obj
 0004:000060a4       ?ATL_CREATE_OBJECT@CComApartment@ATL@@2IA 0058f0a4     StdAfx.obj
 0004:000060a8       ?WM_DESTROYMODELESS@CDHtmlDialog@@1IA 0058f0a8     StdAfx.obj
 0004:000060ac       ?clash@Define_the_symbol__ATL_MIXED@@3UThank_you@1@A 0058f0ac     StdAfx.obj
 0004:000060b0       ?clash@Inconsistent_definition_of_symbol__ATL_MIXED@@3U_Please_define_it_the_same_throughout_your_project@1@A 0058f0b0     StdAfx.obj
 0004:000060d8       ?OverheadTicks@@3HA        0058f0d8     utility.obj
 0004:000060dc       ?PerfFreqAdjust@@3HA       0058f0dc     utility.obj
 0004:000060e0       ?tStop@@3T_LARGE_INTEGER@@A 0058f0e0     utility.obj
 0004:000060e8       ?tStart@@3T_LARGE_INTEGER@@A 0058f0e8     utility.obj
 0004:000060f0       ?PerfFreq@@3T_LARGE_INTEGER@@A 0058f0f0     utility.obj
 0004:00006244       __afxForceEXCLUDE          0058f244     mfcs100d:nolib.obj
 0004:00006248       __afxForceSTDAFX           0058f248     mfcs100d:stdafx.obj
 0004:00006250       ?wsprintffp@@3P6AHPADPBDZZA 0058f250     msvcrtd:_error_.obj
 0004:00006654       __commode                  0058f654     msvcrtd:xncommod.obj
 0004:00006658       __fmode                    0058f658     msvcrtd:xtxtmode.obj
 0004:0000665c       __dowildcard               0058f65c     msvcrtd:wildcard.obj
 0004:00006660       __newmode                  0058f660     msvcrtd:_newmode.obj
 0004:00006664       ?g_Allocator@@3VCAtlAllocator@@A 0058f664     atlsd:Externs.obj
 0004:00006698       ?s_trace@CTrace@ATL@@2V12@A 0058f698     atlsd:Externs.obj
 0004:000066ac       ?atlTraceGeneral@ATL@@3VCTraceCategory@1@A 0058f6ac     atlsd:atltrace.obj
 0004:000066b0       ?atlTraceCOM@ATL@@3VCTraceCategory@1@A 0058f6b0     atlsd:atltrace.obj
 0004:000066b4       ?atlTraceQI@ATL@@3VCTraceCategory@1@A 0058f6b4     atlsd:atltrace.obj
 0004:000066b8       ?atlTraceRegistrar@ATL@@3VCTraceCategory@1@A 0058f6b8     atlsd:atltrace.obj
 0004:000066bc       ?atlTraceRefcount@ATL@@3VCTraceCategory@1@A 0058f6bc     atlsd:atltrace.obj
 0004:000066c0       ?atlTraceWindowing@ATL@@3VCTraceCategory@1@A 0058f6c0     atlsd:atltrace.obj
 0004:000066c4       ?atlTraceControls@ATL@@3VCTraceCategory@1@A 0058f6c4     atlsd:atltrace.obj
 0004:000066c8       ?atlTraceHosting@ATL@@3VCTraceCategory@1@A 0058f6c8     atlsd:atltrace.obj
 0004:000066cc       ?atlTraceDBClient@ATL@@3VCTraceCategory@1@A 0058f6cc     atlsd:atltrace.obj
 0004:000066d0       ?atlTraceDBProvider@ATL@@3VCTraceCategory@1@A 0058f6d0     atlsd:atltrace.obj
 0004:000066d4       ?atlTraceSnapin@ATL@@3VCTraceCategory@1@A 0058f6d4     atlsd:atltrace.obj
 0004:000066d8       ?atlTraceNotImpl@ATL@@3VCTraceCategory@1@A 0058f6d8     atlsd:atltrace.obj
 0004:000066dc       ?atlTraceAllocation@ATL@@3VCTraceCategory@1@A 0058f6dc     atlsd:atltrace.obj
 0004:000066e0       ?atlTraceException@ATL@@3VCTraceCategory@1@A 0058f6e0     atlsd:atltrace.obj
 0004:000066e4       ?atlTraceTime@ATL@@3VCTraceCategory@1@A 0058f6e4     atlsd:atltrace.obj
 0004:000066e8       ?atlTraceCache@ATL@@3VCTraceCategory@1@A 0058f6e8     atlsd:atltrace.obj
 0004:000066ec       ?atlTraceStencil@ATL@@3VCTraceCategory@1@A 0058f6ec     atlsd:atltrace.obj
 0004:000066f0       ?atlTraceString@ATL@@3VCTraceCategory@1@A 0058f6f0     atlsd:atltrace.obj
 0004:000066f4       ?atlTraceMap@ATL@@3VCTraceCategory@1@A 0058f6f4     atlsd:atltrace.obj
 0004:000066f8       ?atlTraceUtil@ATL@@3VCTraceCategory@1@A 0058f6f8     atlsd:atltrace.obj
 0004:000066fc       ?atlTraceSecurity@ATL@@3VCTraceCategory@1@A 0058f6fc     atlsd:atltrace.obj
 0004:00006700       ?atlTraceSync@ATL@@3VCTraceCategory@1@A 0058f700     atlsd:atltrace.obj
 0004:00006704       ?atlTraceISAPI@ATL@@3VCTraceCategory@1@A 0058f704     atlsd:atltrace.obj
 0004:00006708       ?atlTraceUser@ATL@@3VCTraceCategory@1@A 0058f708     atlsd:atltrace.obj
 0004:0000670c       ?atlTraceUser2@ATL@@3VCTraceCategory@1@A 0058f70c     atlsd:atltrace.obj
 0004:00006710       ?atlTraceUser3@ATL@@3VCTraceCategory@1@A 0058f710     atlsd:atltrace.obj
 0004:00006714       ?atlTraceUser4@ATL@@3VCTraceCategory@1@A 0058f714     atlsd:atltrace.obj
 0004:0000672d       ?_afxInitAppState@@3DA     0058f72d     mfcs100d:appmodul.obj
 0004:00006730       ___native_startup_state    0058f730     <common>
 0004:00006740       ___native_startup_lock     0058f740     <common>
 0004:00006744       ___sse2_available          0058f744     <common>
 0004:00006750       __NoHeapEnableTerminationOnCorruption 0058f750     <common>
 0004:00006754       ___dyn_tls_init_callback   0058f754     <common>
 0004:00006758       ___onexitend               0058f758     <common>
 0004:00006768       ___onexitbegin             0058f768     <common>
 0005:00000000       __IMPORT_DESCRIPTOR_RPCRT4 00590000     rpcrt4:RPCRT4.dll
 0005:00000014       __IMPORT_DESCRIPTOR_mfc100d 00590014     mfc100d:mfc100d.dll
 0005:00000028       __IMPORT_DESCRIPTOR_MSVCR100D 00590028     msvcrtd:MSVCR100D.dll
 0005:0000003c       __IMPORT_DESCRIPTOR_KERNEL32 0059003c     kernel32:KERNEL32.dll
 0005:00000050       __IMPORT_DESCRIPTOR_USER32 00590050     user32:USER32.dll
 0005:00000064       __IMPORT_DESCRIPTOR_GDI32  00590064     gdi32:GDI32.dll
 0005:00000078       __IMPORT_DESCRIPTOR_SHELL32 00590078     shell32:SHELL32.dll
 0005:0000008c       __IMPORT_DESCRIPTOR_OLEAUT32 0059008c     oleaut32:OLEAUT32.dll
 0005:000000a0       __IMPORT_DESCRIPTOR_ADVAPI32 005900a0     advapi32:ADVAPI32.dll
 0005:000000b4       __NULL_IMPORT_DESCRIPTOR   005900b4     rpcrt4:RPCRT4.dll
 0005:00001260       __imp__SetThreadToken@8    00591260     advapi32:ADVAPI32.dll
 0005:00001264       __imp__RevertToSelf@0      00591264     advapi32:ADVAPI32.dll
 0005:00001268       __imp__OpenThreadToken@16  00591268     advapi32:ADVAPI32.dll
 0005:0000126c       \177ADVAPI32_NULL_THUNK_DATA 0059126c     advapi32:ADVAPI32.dll
 0005:00001298       __imp__GetStockObject@4    00591298     gdi32:GDI32.dll
 0005:0000129c       __imp__SelectObject@8      0059129c     gdi32:GDI32.dll
 0005:000012a0       \177GDI32_NULL_THUNK_DATA  005912a0     gdi32:GDI32.dll
 0005:000012cc       __imp__OpenFileMappingA@12 005912cc     kernel32:KERNEL32.dll
 0005:000012d0       __imp__GetSystemInfo@4     005912d0     kernel32:KERNEL32.dll
 0005:000012d4       __imp__VirtualAlloc@16     005912d4     kernel32:KERNEL32.dll
 0005:000012d8       __imp__OutputDebugStringW@4 005912d8     kernel32:KERNEL32.dll
 0005:000012dc       __imp__OpenEventA@12       005912dc     kernel32:KERNEL32.dll
 0005:000012e0       __imp__SetEvent@4          005912e0     kernel32:KERNEL32.dll
 0005:000012e4       __imp__LocalFileTimeToFileTime@8 005912e4     kernel32:KERNEL32.dll
 0005:000012e8       __imp__FileTimeToLocalFileTime@8 005912e8     kernel32:KERNEL32.dll
 0005:000012ec       __imp__FileTimeToSystemTime@8 005912ec     kernel32:KERNEL32.dll
 0005:000012f0       __imp__MulDiv@12           005912f0     kernel32:KERNEL32.dll
 0005:000012f4       __imp__GetCommandLineA@0   005912f4     kernel32:KERNEL32.dll
 0005:000012f8       __imp__FindFirstFileA@8    005912f8     kernel32:KERNEL32.dll
 0005:000012fc       __imp__Sleep@4             005912fc     kernel32:KERNEL32.dll
 0005:00001300       __imp__GlobalAlloc@8       00591300     kernel32:KERNEL32.dll
 0005:00001304       __imp__CopyFileA@12        00591304     kernel32:KERNEL32.dll
 0005:00001308       __imp__GetLastError@0      00591308     kernel32:KERNEL32.dll
 0005:0000130c       __imp__GetFileAttributesA@4 0059130c     kernel32:KERNEL32.dll
 0005:00001310       __imp__InterlockedIncrement@4 00591310     kernel32:KERNEL32.dll
 0005:00001314       __imp__InterlockedDecrement@4 00591314     kernel32:KERNEL32.dll
 0005:00001318       __imp__GetCurrentDirectoryA@8 00591318     kernel32:KERNEL32.dll
 0005:0000131c       __imp__CreateDirectoryA@8  0059131c     kernel32:KERNEL32.dll
 0005:00001320       __imp__FreeLibrary@4       00591320     kernel32:KERNEL32.dll
 0005:00001324       __imp__GetProcAddress@8    00591324     kernel32:KERNEL32.dll
 0005:00001328       __imp__LoadLibraryA@4      00591328     kernel32:KERNEL32.dll
 0005:0000132c       __imp__EnterCriticalSection@4 0059132c     kernel32:KERNEL32.dll
 0005:00001330       __imp__InitializeCriticalSection@4 00591330     kernel32:KERNEL32.dll
 0005:00001334       __imp__DeleteCriticalSection@4 00591334     kernel32:KERNEL32.dll
 0005:00001338       __imp__FindNextFileA@8     00591338     kernel32:KERNEL32.dll
 0005:0000133c       __imp__DeleteFileA@4       0059133c     kernel32:KERNEL32.dll
 0005:00001340       __imp__GetFullPathNameA@16 00591340     kernel32:KERNEL32.dll
 0005:00001344       __imp__GetSystemTimeAsFileTime@4 00591344     kernel32:KERNEL32.dll
 0005:00001348       __imp__GetTickCount@0      00591348     kernel32:KERNEL32.dll
 0005:0000134c       __imp__IsProcessorFeaturePresent@4 0059134c     kernel32:KERNEL32.dll
 0005:00001350       __imp__SetUnhandledExceptionFilter@4 00591350     kernel32:KERNEL32.dll
 0005:00001354       __imp__UnhandledExceptionFilter@4 00591354     kernel32:KERNEL32.dll
 0005:00001358       __imp__TerminateProcess@8  00591358     kernel32:KERNEL32.dll
 0005:0000135c       __imp__VirtualQuery@12     0059135c     kernel32:KERNEL32.dll
 0005:00001360       __imp__GetModuleFileNameW@12 00591360     kernel32:KERNEL32.dll
 0005:00001364       __imp__GetProcessHeap@0    00591364     kernel32:KERNEL32.dll
 0005:00001368       __imp__HeapAlloc@12        00591368     kernel32:KERNEL32.dll
 0005:0000136c       __imp__HeapFree@12         0059136c     kernel32:KERNEL32.dll
 0005:00001370       __imp__GetStartupInfoW@4   00591370     kernel32:KERNEL32.dll
 0005:00001374       __imp__HeapSetInformation@16 00591374     kernel32:KERNEL32.dll
 0005:00001378       __imp__InterlockedCompareExchange@12 00591378     kernel32:KERNEL32.dll
 0005:0000137c       __imp__InterlockedExchange@8 0059137c     kernel32:KERNEL32.dll
 0005:00001380       __imp__DecodePointer@4     00591380     kernel32:KERNEL32.dll
 0005:00001384       __imp__EncodePointer@4     00591384     kernel32:KERNEL32.dll
 0005:00001388       __imp__LoadLibraryW@4      00591388     kernel32:KERNEL32.dll
 0005:0000138c       __imp__lstrlenA@4          0059138c     kernel32:KERNEL32.dll
 0005:00001390       __imp__RaiseException@16   00591390     kernel32:KERNEL32.dll
 0005:00001394       __imp__MultiByteToWideChar@24 00591394     kernel32:KERNEL32.dll
 0005:00001398       __imp__IsDebuggerPresent@0 00591398     kernel32:KERNEL32.dll
 0005:0000139c       __imp__WideCharToMultiByte@32 0059139c     kernel32:KERNEL32.dll
 0005:000013a0       __imp__GetCurrentThread@0  005913a0     kernel32:KERNEL32.dll
 0005:000013a4       __imp__SetThreadPriority@8 005913a4     kernel32:KERNEL32.dll
 0005:000013a8       __imp__QueryPerformanceCounter@4 005913a8     kernel32:KERNEL32.dll
 0005:000013ac       __imp__QueryPerformanceFrequency@4 005913ac     kernel32:KERNEL32.dll
 0005:000013b0       __imp__ReadFile@20         005913b0     kernel32:KERNEL32.dll
 0005:000013b4       __imp__CreatePipe@16       005913b4     kernel32:KERNEL32.dll
 0005:000013b8       __imp__GetCurrentProcess@0 005913b8     kernel32:KERNEL32.dll
 0005:000013bc       __imp__DuplicateHandle@28  005913bc     kernel32:KERNEL32.dll
 0005:000013c0       __imp__GetStdHandle@4      005913c0     kernel32:KERNEL32.dll
 0005:000013c4       __imp__CreateProcessA@40   005913c4     kernel32:KERNEL32.dll
 0005:000013c8       __imp__UnmapViewOfFile@4   005913c8     kernel32:KERNEL32.dll
 0005:000013cc       __imp__GetEnvironmentVariableA@12 005913cc     kernel32:KERNEL32.dll
 0005:000013d0       __imp__FormatMessageA@28   005913d0     kernel32:KERNEL32.dll
 0005:000013d4       __imp__LocalFree@4         005913d4     kernel32:KERNEL32.dll
 0005:000013d8       __imp__CreateFileA@28      005913d8     kernel32:KERNEL32.dll
 0005:000013dc       __imp__GetFileSize@8       005913dc     kernel32:KERNEL32.dll
 0005:000013e0       __imp__MoveFileExA@12      005913e0     kernel32:KERNEL32.dll
 0005:000013e4       __imp__GetLocalTime@4      005913e4     kernel32:KERNEL32.dll
 0005:000013e8       __imp__GetCurrentProcessId@0 005913e8     kernel32:KERNEL32.dll
 0005:000013ec       __imp__GetCurrentThreadId@0 005913ec     kernel32:KERNEL32.dll
 0005:000013f0       __imp__GetModuleFileNameA@12 005913f0     kernel32:KERNEL32.dll
 0005:000013f4       __imp__SetFilePointer@16   005913f4     kernel32:KERNEL32.dll
 0005:000013f8       __imp__WriteFile@20        005913f8     kernel32:KERNEL32.dll
 0005:000013fc       __imp__CloseHandle@4       005913fc     kernel32:KERNEL32.dll
 0005:00001400       __imp__OutputDebugStringA@4 00591400     kernel32:KERNEL32.dll
 0005:00001404       __imp__CreateMutexA@12     00591404     kernel32:KERNEL32.dll
 0005:00001408       __imp__CreateFileMappingA@24 00591408     kernel32:KERNEL32.dll
 0005:0000140c       __imp__MapViewOfFile@20    0059140c     kernel32:KERNEL32.dll
 0005:00001410       __imp__ReleaseMutex@4      00591410     kernel32:KERNEL32.dll
 0005:00001414       __imp__WaitForSingleObject@8 00591414     kernel32:KERNEL32.dll
 0005:00001418       __imp__LeaveCriticalSection@4 00591418     kernel32:KERNEL32.dll
 0005:0000141c       \177KERNEL32_NULL_THUNK_DATA 0059141c     kernel32:KERNEL32.dll
 0005:00001488       __imp__feof                00591488     msvcrtd:MSVCR100D.dll
 0005:0000148c       __imp__srand               0059148c     msvcrtd:MSVCR100D.dll
 0005:00001490       __imp___mktime64           00591490     msvcrtd:MSVCR100D.dll
 0005:00001494       __imp___gmtime64_s         00591494     msvcrtd:MSVCR100D.dll
 0005:00001498       __imp___localtime64_s      00591498     msvcrtd:MSVCR100D.dll
 0005:0000149c       __imp___snprintf_s         0059149c     msvcrtd:MSVCR100D.dll
 0005:000014a0       __imp___errno              005914a0     msvcrtd:MSVCR100D.dll
 0005:000014a4       __imp__wcscpy              005914a4     msvcrtd:MSVCR100D.dll
 0005:000014a8       __imp___vsnprintf_s        005914a8     msvcrtd:MSVCR100D.dll
 0005:000014ac       __imp___vsnwprintf_s       005914ac     msvcrtd:MSVCR100D.dll
 0005:000014b0       __imp___snwprintf_s        005914b0     msvcrtd:MSVCR100D.dll
 0005:000014b4       __imp__wcscpy_s            005914b4     msvcrtd:MSVCR100D.dll
 0005:000014b8       __imp__wcsncpy_s           005914b8     msvcrtd:MSVCR100D.dll
 0005:000014bc       __imp___recalloc           005914bc     msvcrtd:MSVCR100D.dll
 0005:000014c0       __imp___wcsicmp            005914c0     msvcrtd:MSVCR100D.dll
 0005:000014c4       __imp__wcslen              005914c4     msvcrtd:MSVCR100D.dll
 0005:000014c8       __imp___setmbcp            005914c8     msvcrtd:MSVCR100D.dll
 0005:000014cc       __imp___wassert            005914cc     msvcrtd:MSVCR100D.dll
 0005:000014d0       __imp__rand                005914d0     msvcrtd:MSVCR100D.dll
 0005:000014d4       __imp____CxxFrameHandler3  005914d4     msvcrtd:MSVCR100D.dll
 0005:000014d8       __imp___invoke_watson      005914d8     msvcrtd:MSVCR100D.dll
 0005:000014dc       __imp___controlfp_s        005914dc     msvcrtd:MSVCR100D.dll
 0005:000014e0       __imp_?_type_info_dtor_internal_method@type_info@@QAEXXZ 005914e0     msvcrtd:MSVCR100D.dll
 0005:000014e4       __imp___crt_debugger_hook  005914e4     msvcrtd:MSVCR100D.dll
 0005:000014e8       __imp___except_handler4_common 005914e8     msvcrtd:MSVCR100D.dll
 0005:000014ec       __imp___initterm_e         005914ec     msvcrtd:MSVCR100D.dll
 0005:000014f0       __imp___initterm           005914f0     msvcrtd:MSVCR100D.dll
 0005:000014f4       __imp___CrtDbgReportW      005914f4     msvcrtd:MSVCR100D.dll
 0005:000014f8       __imp___CrtSetCheckCount   005914f8     msvcrtd:MSVCR100D.dll
 0005:000014fc       __imp___acmdln             005914fc     msvcrtd:MSVCR100D.dll
 0005:00001500       __imp___ismbblead          00591500     msvcrtd:MSVCR100D.dll
 0005:00001504       __imp___cexit              00591504     msvcrtd:MSVCR100D.dll
 0005:00001508       __imp___XcptFilter         00591508     msvcrtd:MSVCR100D.dll
 0005:0000150c       __imp____getmainargs       0059150c     msvcrtd:MSVCR100D.dll
 0005:00001510       __imp___amsg_exit          00591510     msvcrtd:MSVCR100D.dll
 0005:00001514       __imp____set_app_type      00591514     msvcrtd:MSVCR100D.dll
 0005:00001518       __imp___fmode              00591518     msvcrtd:MSVCR100D.dll
 0005:0000151c       __imp___commode            0059151c     msvcrtd:MSVCR100D.dll
 0005:00001520       __imp____setusermatherr    00591520     msvcrtd:MSVCR100D.dll
 0005:00001524       __imp___configthreadlocale 00591524     msvcrtd:MSVCR100D.dll
 0005:00001528       __imp___onexit             00591528     msvcrtd:MSVCR100D.dll
 0005:0000152c       __imp___lock               0059152c     msvcrtd:MSVCR100D.dll
 0005:00001530       __imp____dllonexit         00591530     msvcrtd:MSVCR100D.dll
 0005:00001534       __imp___unlock             00591534     msvcrtd:MSVCR100D.dll
 0005:00001538       __imp_?terminate@@YAXXZ    00591538     msvcrtd:MSVCR100D.dll
 0005:0000153c       __imp___CRT_RTC_INITW      0059153c     msvcrtd:MSVCR100D.dll
 0005:00001540       __imp__llabs               00591540     msvcrtd:MSVCR100D.dll
 0005:00001544       __imp__atan                00591544     msvcrtd:MSVCR100D.dll
 0005:00001548       __imp__memcmp              00591548     msvcrtd:MSVCR100D.dll
 0005:0000154c       __imp___exit               0059154c     msvcrtd:MSVCR100D.dll
 0005:00001550       __imp__fopen               00591550     msvcrtd:MSVCR100D.dll
 0005:00001554       __imp__fclose              00591554     msvcrtd:MSVCR100D.dll
 0005:00001558       __imp___CrtDbgReport       00591558     msvcrtd:MSVCR100D.dll
 0005:0000155c       __imp__fgets               0059155c     msvcrtd:MSVCR100D.dll
 0005:00001560       __imp__sscanf              00591560     msvcrtd:MSVCR100D.dll
 0005:00001564       __imp__fwrite              00591564     msvcrtd:MSVCR100D.dll
 0005:00001568       __imp__fread               00591568     msvcrtd:MSVCR100D.dll
 0005:0000156c       __imp___mbsrchr            0059156c     msvcrtd:MSVCR100D.dll
 0005:00001570       __imp__strcpy              00591570     msvcrtd:MSVCR100D.dll
 0005:00001574       __imp__memmove_s           00591574     msvcrtd:MSVCR100D.dll
 0005:00001578       __imp__asin                00591578     msvcrtd:MSVCR100D.dll
 0005:0000157c       __imp__acos                0059157c     msvcrtd:MSVCR100D.dll
 0005:00001580       __imp__strcat              00591580     msvcrtd:MSVCR100D.dll
 0005:00001584       __imp___access             00591584     msvcrtd:MSVCR100D.dll
 0005:00001588       __imp__fscanf              00591588     msvcrtd:MSVCR100D.dll
 0005:0000158c       __imp____iob_func          0059158c     msvcrtd:MSVCR100D.dll
 0005:00001590       __imp__fprintf             00591590     msvcrtd:MSVCR100D.dll
 0005:00001594       __imp__exit                00591594     msvcrtd:MSVCR100D.dll
 0005:00001598       __imp__strcpy_s            00591598     msvcrtd:MSVCR100D.dll
 0005:0000159c       __imp__tan                 0059159c     msvcrtd:MSVCR100D.dll
 0005:000015a0       __imp__modf                005915a0     msvcrtd:MSVCR100D.dll
 0005:000015a4       __imp__atan2               005915a4     msvcrtd:MSVCR100D.dll
 0005:000015a8       __imp__cos                 005915a8     msvcrtd:MSVCR100D.dll
 0005:000015ac       __imp__sin                 005915ac     msvcrtd:MSVCR100D.dll
 0005:000015b0       __imp__fmod                005915b0     msvcrtd:MSVCR100D.dll
 0005:000015b4       __imp__fabs                005915b4     msvcrtd:MSVCR100D.dll
 0005:000015b8       __imp__sqrt                005915b8     msvcrtd:MSVCR100D.dll
 0005:000015bc       __imp___purecall           005915bc     msvcrtd:MSVCR100D.dll
 0005:000015c0       __imp__labs                005915c0     msvcrtd:MSVCR100D.dll
 0005:000015c4       __imp__malloc              005915c4     msvcrtd:MSVCR100D.dll
 0005:000015c8       __imp___CxxThrowException@8 005915c8     msvcrtd:MSVCR100D.dll
 0005:000015cc       __imp____sys_errlist       005915cc     msvcrtd:MSVCR100D.dll
 0005:000015d0       __imp__remove              005915d0     msvcrtd:MSVCR100D.dll
 0005:000015d4       __imp__memcpy              005915d4     msvcrtd:MSVCR100D.dll
 0005:000015d8       __imp___fullpath           005915d8     msvcrtd:MSVCR100D.dll
 0005:000015dc       __imp__strlen              005915dc     msvcrtd:MSVCR100D.dll
 0005:000015e0       __imp__atoi                005915e0     msvcrtd:MSVCR100D.dll
 0005:000015e4       __imp__ldiv                005915e4     msvcrtd:MSVCR100D.dll
 0005:000015e8       __imp___time64             005915e8     msvcrtd:MSVCR100D.dll
 0005:000015ec       __imp___localtime64        005915ec     msvcrtd:MSVCR100D.dll
 0005:000015f0       __imp___stat64i32          005915f0     msvcrtd:MSVCR100D.dll
 0005:000015f4       __imp___mkdir              005915f4     msvcrtd:MSVCR100D.dll
 0005:000015f8       __imp___chdir              005915f8     msvcrtd:MSVCR100D.dll
 0005:000015fc       __imp__atof                005915fc     msvcrtd:MSVCR100D.dll
 0005:00001600       __imp__memcpy_s            00591600     msvcrtd:MSVCR100D.dll
 0005:00001604       __imp__memset              00591604     msvcrtd:MSVCR100D.dll
 0005:00001608       __imp__calloc              00591608     msvcrtd:MSVCR100D.dll
 0005:0000160c       __imp__floor               0059160c     msvcrtd:MSVCR100D.dll
 0005:00001610       __imp__abs                 00591610     msvcrtd:MSVCR100D.dll
 0005:00001614       __imp__free                00591614     msvcrtd:MSVCR100D.dll
 0005:00001618       \177MSVCR100D_NULL_THUNK_DATA 00591618     msvcrtd:MSVCR100D.dll
 0005:00001694       __imp__SysFreeString@4     00591694     oleaut32:OLEAUT32.dll
 0005:00001698       \177OLEAUT32_NULL_THUNK_DATA 00591698     oleaut32:OLEAUT32.dll
 0005:000016c4       __imp__UuidToStringA@8     005916c4     rpcrt4:RPCRT4.dll
 0005:000016c8       __imp__UuidFromStringA@8   005916c8     rpcrt4:RPCRT4.dll
 0005:000016cc       __imp__UuidCreate@4        005916cc     rpcrt4:RPCRT4.dll
 0005:000016d0       \177RPCRT4_NULL_THUNK_DATA 005916d0     rpcrt4:RPCRT4.dll
 0005:000016fc       __imp__ShellExecuteA@24    005916fc     shell32:SHELL32.dll
 0005:00001700       __imp__DragFinish@4        00591700     shell32:SHELL32.dll
 0005:00001704       __imp__DragQueryFileA@16   00591704     shell32:SHELL32.dll
 0005:00001708       __imp__SHGetPathFromIDListA@8 00591708     shell32:SHELL32.dll
 0005:0000170c       __imp__SHBrowseForFolderA@4 0059170c     shell32:SHELL32.dll
 0005:00001710       __imp__SHGetMalloc@4       00591710     shell32:SHELL32.dll
 0005:00001714       __imp__ShellExecuteExA@4   00591714     shell32:SHELL32.dll
 0005:00001718       \177SHELL32_NULL_THUNK_DATA 00591718     shell32:SHELL32.dll
 0005:00001748       __imp__PtInRect@12         00591748     user32:USER32.dll
 0005:0000174c       __imp__CopyRect@8          0059174c     user32:USER32.dll
 0005:00001750       __imp__SetRect@20          00591750     user32:USER32.dll
 0005:00001754       __imp__SetRectEmpty@4      00591754     user32:USER32.dll
 0005:00001758       __imp__EqualRect@8         00591758     user32:USER32.dll
 0005:0000175c       __imp__InflateRect@12      0059175c     user32:USER32.dll
 0005:00001760       __imp__OffsetRect@12       00591760     user32:USER32.dll
 0005:00001764       __imp__IntersectRect@12    00591764     user32:USER32.dll
 0005:00001768       __imp__IsRectEmpty@4       00591768     user32:USER32.dll
 0005:0000176c       __imp__SubtractRect@12     0059176c     user32:USER32.dll
 0005:00001770       __imp__MessageBoxA@16      00591770     user32:USER32.dll
 0005:00001774       __imp__wsprintfA           00591774     user32:USER32.dll
 0005:00001778       __imp__SetWindowTextA@8    00591778     user32:USER32.dll
 0005:0000177c       __imp__GetWindowRect@8     0059177c     user32:USER32.dll
 0005:00001780       __imp__ScreenToClient@8    00591780     user32:USER32.dll
 0005:00001784       __imp__CreateWindowExA@48  00591784     user32:USER32.dll
 0005:00001788       __imp__GetDlgItem@8        00591788     user32:USER32.dll
 0005:0000178c       __imp__GetWindowTextA@12   0059178c     user32:USER32.dll
 0005:00001790       __imp__EndDialog@8         00591790     user32:USER32.dll
 0005:00001794       __imp__SetFocus@4          00591794     user32:USER32.dll
 0005:00001798       __imp__SetCursor@4         00591798     user32:USER32.dll
 0005:0000179c       __imp__GetWindowLongA@8    0059179c     user32:USER32.dll
 0005:000017a0       __imp__SetWindowLongA@12   005917a0     user32:USER32.dll
 0005:000017a4       __imp__LoadCursorA@8       005917a4     user32:USER32.dll
 0005:000017a8       __imp__GetCursorPos@4      005917a8     user32:USER32.dll
 0005:000017ac       __imp__GetKeyState@4       005917ac     user32:USER32.dll
 0005:000017b0       __imp__SetCursorPos@8      005917b0     user32:USER32.dll
 0005:000017b4       __imp__OpenClipboard@4     005917b4     user32:USER32.dll
 0005:000017b8       __imp__EmptyClipboard@0    005917b8     user32:USER32.dll
 0005:000017bc       __imp__SetClipboardData@8  005917bc     user32:USER32.dll
 0005:000017c0       __imp__CloseClipboard@0    005917c0     user32:USER32.dll
 0005:000017c4       __imp__FindWindowA@8       005917c4     user32:USER32.dll
 0005:000017c8       __imp__ShowWindow@8        005917c8     user32:USER32.dll
 0005:000017cc       __imp__SendMessageA@16     005917cc     user32:USER32.dll
 0005:000017d0       __imp__SetForegroundWindow@4 005917d0     user32:USER32.dll
 0005:000017d4       __imp__UpdateWindow@4      005917d4     user32:USER32.dll
 0005:000017d8       __imp__ShowCursor@4        005917d8     user32:USER32.dll
 0005:000017dc       __imp__PeekMessageA@20     005917dc     user32:USER32.dll
 0005:000017e0       __imp__PostQuitMessage@4   005917e0     user32:USER32.dll
 0005:000017e4       __imp__UnionRect@12        005917e4     user32:USER32.dll
 0005:000017e8       \177USER32_NULL_THUNK_DATA 005917e8     user32:USER32.dll
 0005:00001834       __imp_?GetMessageMap@CCommonDialog@@MBEPBUAFX_MSGMAP@@XZ 00591834     mfc100d:mfc100d.dll
 0005:00001838       __imp_?OnOK@CCommonDialog@@MAEXXZ 00591838     mfc100d:mfc100d.dll
 0005:0000183c       __imp_?OnCancel@CCommonDialog@@MAEXXZ 0059183c     mfc100d:mfc100d.dll
 0005:00001840       __imp_?LimitText@CEdit@@QAEXH@Z 00591840     mfc100d:mfc100d.dll
 0005:00001844       __imp_?MoveWindow@CWnd@@QAEXPBUtagRECT@@H@Z 00591844     mfc100d:mfc100d.dll
 0005:00001848       __imp_?GetWindowRect@CWnd@@QBEXPAUtagRECT@@@Z 00591848     mfc100d:mfc100d.dll
 0005:0000184c       __imp_?ReplaceSel@CEdit@@QAEXPBDH@Z 0059184c     mfc100d:mfc100d.dll
 0005:00001850       __imp_?SetSel@CEdit@@QAEXHHH@Z 00591850     mfc100d:mfc100d.dll
 0005:00001854       __imp_?AfxGetMainWnd@@YGPAVCWnd@@XZ 00591854     mfc100d:mfc100d.dll
 0005:00001858       __imp_?OnSetCursor@CWnd@@IAEHPAV1@II@Z 00591858     mfc100d:mfc100d.dll
 0005:0000185c       __imp_??1CListCtrl@@UAE@XZ 0059185c     mfc100d:mfc100d.dll
 0005:00001860       __imp_??0CListCtrl@@QAE@XZ 00591860     mfc100d:mfc100d.dll
 0005:00001864       __imp_?DDV_MinMaxInt@@YGXPAVCDataExchange@@HHH@Z 00591864     mfc100d:mfc100d.dll
 0005:00001868       __imp_?DDX_Text@@YGXPAVCDataExchange@@HAAH@Z 00591868     mfc100d:mfc100d.dll
 0005:0000186c       __imp_?InsertColumn@CListCtrl@@QAEHHPBDHHH@Z 0059186c     mfc100d:mfc100d.dll
 0005:00001870       __imp_?SetExtendedStyle@CListCtrl@@QAEKK@Z 00591870     mfc100d:mfc100d.dll
 0005:00001874       __imp_?GetExtendedStyle@CListCtrl@@QBEKXZ 00591874     mfc100d:mfc100d.dll
 0005:00001878       __imp_?SortItems@CListCtrl@@QAEHP6GHJJJ@ZK@Z 00591878     mfc100d:mfc100d.dll
 0005:0000187c       __imp_?SetItem@CListCtrl@@QAEHHHIPBDHIIJ@Z 0059187c     mfc100d:mfc100d.dll
 0005:00001880       __imp_?InsertItem@CListCtrl@@QAEHHPBD@Z 00591880     mfc100d:mfc100d.dll
 0005:00001884       __imp_?GetItemCount@CListCtrl@@QBEHXZ 00591884     mfc100d:mfc100d.dll
 0005:00001888       __imp_?DeleteItem@CListCtrl@@QAEHH@Z 00591888     mfc100d:mfc100d.dll
 0005:0000188c       __imp_?GetItemText@CListCtrl@@QBEHHHPADH@Z 0059188c     mfc100d:mfc100d.dll
 0005:00001890       __imp_?GetNextSelectedItem@CListCtrl@@QBEHAAPAU__POSITION@@@Z 00591890     mfc100d:mfc100d.dll
 0005:00001894       __imp_?GetFirstSelectedItemPosition@CListCtrl@@QBEPAU__POSITION@@XZ 00591894     mfc100d:mfc100d.dll
 0005:00001898       __imp_?DDX_Radio@@YGXPAVCDataExchange@@HAAH@Z 00591898     mfc100d:mfc100d.dll
 0005:0000189c       __imp_?FreeDataChain@CPlex@@QAEXXZ 0059189c     mfc100d:mfc100d.dll
 0005:000018a0       __imp_?Create@CPlex@@SGPAU1@AAPAU1@II@Z 005918a0     mfc100d:mfc100d.dll
 0005:000018a4       __imp_?SetItemData@CListBox@@QAEHHK@Z 005918a4     mfc100d:mfc100d.dll
 0005:000018a8       __imp_?DeleteString@CListBox@@QAEHI@Z 005918a8     mfc100d:mfc100d.dll
 0005:000018ac       __imp_?GetItemData@CListBox@@QBEKH@Z 005918ac     mfc100d:mfc100d.dll
 0005:000018b0       __imp_?GetText@CListBox@@QBEXHAAV?$CStringT@DV?$StrTraitMFC_DLL@DV?$ChTraitsCRT@D@ATL@@@@@ATL@@@Z 005918b0     mfc100d:mfc100d.dll
 0005:000018b4       __imp_?GetCount@CListBox@@QBEHXZ 005918b4     mfc100d:mfc100d.dll
 0005:000018b8       __imp_?GetSelItems@CListBox@@QBEHHPAH@Z 005918b8     mfc100d:mfc100d.dll
 0005:000018bc       __imp_?GetSelCount@CListBox@@QBEHXZ 005918bc     mfc100d:mfc100d.dll
 0005:000018c0       __imp_?SetSel@CListBox@@QAEHHH@Z 005918c0     mfc100d:mfc100d.dll
 0005:000018c4       __imp_??$SerializeElements@V?$CStringT@DV?$StrTraitMFC_DLL@DV?$ChTraitsCRT@D@ATL@@@@@ATL@@@@YGXAAVCArchive@@PAV?$CStringT@DV?$StrTraitMFC_DLL@DV?$ChTraitsCRT@D@ATL@@@@@ATL@@H@Z 005918c4     mfc100d:mfc100d.dll
 0005:000018c8       __imp_?DDX_CBString@@YGXPAVCDataExchange@@HAAV?$CStringT@DV?$StrTraitMFC_DLL@DV?$ChTraitsCRT@D@ATL@@@@@ATL@@@Z 005918c8     mfc100d:mfc100d.dll
 0005:000018cc       __imp_?FindString@CComboBox@@QBEHHPBD@Z 005918cc     mfc100d:mfc100d.dll
 0005:000018d0       __imp_?GetLBText@CComboBox@@QBEXHAAV?$CStringT@DV?$StrTraitMFC_DLL@DV?$ChTraitsCRT@D@ATL@@@@@ATL@@@Z 005918d0     mfc100d:mfc100d.dll
 0005:000018d4       __imp_?Insert@?$CStringT@DV?$StrTraitMFC_DLL@DV?$ChTraitsCRT@D@ATL@@@@@ATL@@QAEHHPBD@Z 005918d4     mfc100d:mfc100d.dll
 0005:000018d8       __imp_?Delete@?$CStringT@DV?$StrTraitMFC_DLL@DV?$ChTraitsCRT@D@ATL@@@@@ATL@@QAEHHH@Z 005918d8     mfc100d:mfc100d.dll
 0005:000018dc       __imp_?AppendChar@?$CSimpleStringT@D$00@ATL@@QAEXD@Z 005918dc     mfc100d:mfc100d.dll
 0005:000018e0       __imp_??A?$CSimpleStringT@D$00@ATL@@QBEDH@Z 005918e0     mfc100d:mfc100d.dll
 0005:000018e4       __imp_?Tokenize@?$CStringT@DV?$StrTraitMFC_DLL@DV?$ChTraitsCRT@D@ATL@@@@@ATL@@QBE?AV12@PBDAAH@Z 005918e4     mfc100d:mfc100d.dll
 0005:000018e8       __imp_?GetThisMessageMap@CDocument@@KGPBUAFX_MSGMAP@@XZ 005918e8     mfc100d:mfc100d.dll
 0005:000018ec       __imp_??3CObject@@SGXPAXPBDH@Z 005918ec     mfc100d:mfc100d.dll
 0005:000018f0       __imp_??2CObject@@SGPAXIPBDH@Z 005918f0     mfc100d:mfc100d.dll
 0005:000018f4       __imp_?GetThisClass@CDocument@@SGPAUCRuntimeClass@@XZ 005918f4     mfc100d:mfc100d.dll
 0005:000018f8       __imp_??1CDocument@@UAE@XZ 005918f8     mfc100d:mfc100d.dll
 0005:000018fc       __imp_??0CDocument@@QAE@XZ 005918fc     mfc100d:mfc100d.dll
 0005:00001900       __imp_?OnCmdMsg@CDocument@@UAEHIHPAXPAUAFX_CMDHANDLERINFO@@@Z 00591900     mfc100d:mfc100d.dll
 0005:00001904       __imp_?OnFinalRelease@CDocument@@UAEXXZ 00591904     mfc100d:mfc100d.dll
 0005:00001908       __imp_?GetInterfaceMap@CCmdTarget@@MBEPBUAFX_INTERFACEMAP@@XZ 00591908     mfc100d:mfc100d.dll
 0005:0000190c       __imp_?SetTitle@CDocument@@UAEXPBD@Z 0059190c     mfc100d:mfc100d.dll
 0005:00001910       __imp_?SetPathName@CDocument@@UAEXPBDH@Z 00591910     mfc100d:mfc100d.dll
 0005:00001914       __imp_?ClearPathName@CDocument@@UAEXXZ 00591914     mfc100d:mfc100d.dll
 0005:00001918       __imp_?IsModified@CDocument@@UAEHXZ 00591918     mfc100d:mfc100d.dll
 0005:0000191c       __imp_?SetModifiedFlag@CDocument@@UAEXH@Z 0059191c     mfc100d:mfc100d.dll
 0005:00001920       __imp_?GetFirstViewPosition@CDocument@@UBEPAU__POSITION@@XZ 00591920     mfc100d:mfc100d.dll
 0005:00001924       __imp_?GetNextView@CDocument@@UBEPAVCView@@AAPAU__POSITION@@@Z 00591924     mfc100d:mfc100d.dll
 0005:00001928       __imp_?OnChangedViewList@CDocument@@UAEXXZ 00591928     mfc100d:mfc100d.dll
 0005:0000192c       __imp_?DeleteContents@CDocument@@UAEXXZ 0059192c     mfc100d:mfc100d.dll
 0005:00001930       __imp_?OnOpenDocument@CDocument@@UAEHPBD@Z 00591930     mfc100d:mfc100d.dll
 0005:00001934       __imp_?OnCloseDocument@CDocument@@UAEXXZ 00591934     mfc100d:mfc100d.dll
 0005:00001938       __imp_?ReportSaveLoadException@CDocument@@UAEXPBDPAVCException@@HI@Z 00591938     mfc100d:mfc100d.dll
 0005:0000193c       __imp_?GetFile@CDocument@@UAEPAVCFile@@PBDIPAVCFileException@@@Z 0059193c     mfc100d:mfc100d.dll
 0005:00001940       __imp_?ReleaseFile@CDocument@@UAEXPAVCFile@@H@Z 00591940     mfc100d:mfc100d.dll
 0005:00001944       __imp_?OnRichPreviewUnload@CDocument@@UAEXXZ 00591944     mfc100d:mfc100d.dll
 0005:00001948       __imp_?LoadDocumentFromStream@CDocument@@UAEJPAUIStream@@K@Z 00591948     mfc100d:mfc100d.dll
 0005:0000194c       __imp_?GetThumbnail@CDocument@@UAEHIPAPAUHBITMAP__@@PAW4WTS_ALPHATYPE@@@Z 0059194c     mfc100d:mfc100d.dll
 0005:00001950       __imp_?ClearChunkList@CDocument@@UAEXXZ 00591950     mfc100d:mfc100d.dll
 0005:00001954       __imp_?SetChunkValue@CDocument@@UAEHPAUIFilterChunkValue@ATL@@@Z 00591954     mfc100d:mfc100d.dll
 0005:00001958       __imp_?BeginReadChunks@CDocument@@UAEXXZ 00591958     mfc100d:mfc100d.dll
 0005:0000195c       __imp_?ReadNextChunkValue@CDocument@@UAEHPAPAUIFilterChunkValue@ATL@@@Z 0059195c     mfc100d:mfc100d.dll
 0005:00001960       __imp_?RemoveChunk@CDocument@@UAEXABU_GUID@@K@Z 00591960     mfc100d:mfc100d.dll
 0005:00001964       __imp_?FindChunk@CDocument@@UAEPAU__POSITION@@ABU_GUID@@K@Z 00591964     mfc100d:mfc100d.dll
 0005:00001968       __imp_?OnDocumentEvent@CDocument@@UAEXW4DocumentEvent@1@@Z 00591968     mfc100d:mfc100d.dll
 0005:0000196c       __imp_?CanCloseFrame@CDocument@@UAEHPAVCFrameWnd@@@Z 0059196c     mfc100d:mfc100d.dll
 0005:00001970       __imp_?SaveModified@CDocument@@UAEHXZ 00591970     mfc100d:mfc100d.dll
 0005:00001974       __imp_?PreCloseFrame@CDocument@@UAEXPAVCFrameWnd@@@Z 00591974     mfc100d:mfc100d.dll
 0005:00001978       __imp_?DoSave@CDocument@@UAEHPBDH@Z 00591978     mfc100d:mfc100d.dll
 0005:0000197c       __imp_?DoFileSave@CDocument@@UAEHXZ 0059197c     mfc100d:mfc100d.dll
 0005:00001980       __imp_?UpdateFrameCounts@CDocument@@UAEXXZ 00591980     mfc100d:mfc100d.dll
 0005:00001984       __imp_?GetDefaultMenu@CDocument@@UAEPAUHMENU__@@XZ 00591984     mfc100d:mfc100d.dll
 0005:00001988       __imp_?GetDefaultAccelerator@CDocument@@UAEPAUHACCEL__@@XZ 00591988     mfc100d:mfc100d.dll
 0005:0000198c       __imp_?OnIdle@CDocument@@UAEXXZ 0059198c     mfc100d:mfc100d.dll
 0005:00001990       __imp_?OnLoadDocumentFromStream@CDocument@@UAEJPAUIStream@@K@Z 00591990     mfc100d:mfc100d.dll
 0005:00001994       __imp_?OnPreviewHandlerQueryFocus@CDocument@@UAEJPAPAUHWND__@@@Z 00591994     mfc100d:mfc100d.dll
 0005:00001998       __imp_?OnPreviewHandlerTranslateAccelerator@CDocument@@UAEJPAUtagMSG@@@Z 00591998     mfc100d:mfc100d.dll
 0005:0000199c       __imp_?OnCreatePreviewFrame@CDocument@@UAEHXZ 0059199c     mfc100d:mfc100d.dll
 0005:000019a0       __imp_?OnUnloadHandler@CDocument@@UAEXXZ 005919a0     mfc100d:mfc100d.dll
 0005:000019a4       __imp_?OnDrawThumbnail@CDocument@@UAEXAAVCDC@@PAUtagRECT@@@Z 005919a4     mfc100d:mfc100d.dll
 0005:000019a8       __imp_?SendInitialUpdate@CDocument@@QAEXXZ 005919a8     mfc100d:mfc100d.dll
 0005:000019ac       __imp_?OnNewDocument@CDocument@@UAEHXZ 005919ac     mfc100d:mfc100d.dll
 0005:000019b0       __imp_?AssertValid@CDocument@@UBEXXZ 005919b0     mfc100d:mfc100d.dll
 0005:000019b4       __imp_?Dump@CDocument@@UBEXAAVCDumpContext@@@Z 005919b4     mfc100d:mfc100d.dll
 0005:000019b8       __imp_?OnSaveDocument@CDocument@@UAEHPBD@Z 005919b8     mfc100d:mfc100d.dll
 0005:000019bc       __imp_?DrawMenuBar@CWnd@@QAEXXZ 005919bc     mfc100d:mfc100d.dll
 0005:000019c0       __imp_?GetSubMenu@CMenu@@QBEPAV1@H@Z 005919c0     mfc100d:mfc100d.dll
 0005:000019c4       __imp_?EnableMenuItem@CMenu@@QAEIII@Z 005919c4     mfc100d:mfc100d.dll
 0005:000019c8       __imp_?ReadString@CStdioFile@@UAEHAAV?$CStringT@DV?$StrTraitMFC_DLL@DV?$ChTraitsCRT@D@ATL@@@@@ATL@@@Z 005919c8     mfc100d:mfc100d.dll
 0005:000019cc       __imp_?GetSafeHwnd@CWnd@@QBEPAUHWND__@@XZ 005919cc     mfc100d:mfc100d.dll
 0005:000019d0       __imp_?GetMainWnd@CWinThread@@UAEPAVCWnd@@XZ 005919d0     mfc100d:mfc100d.dll
 0005:000019d4       __imp_?ReleaseDC@CWnd@@QAEHPAVCDC@@@Z 005919d4     mfc100d:mfc100d.dll
 0005:000019d8       __imp_?GetDC@CWnd@@QAEPAVCDC@@XZ 005919d8     mfc100d:mfc100d.dll
 0005:000019dc       __imp_?GetActiveWindow@CWnd@@SGPAV1@XZ 005919dc     mfc100d:mfc100d.dll
 0005:000019e0       __imp_?AfxGetApp@@YGPAVCWinApp@@XZ 005919e0     mfc100d:mfc100d.dll
 0005:000019e4       __imp_??1CFileFind@@UAE@XZ 005919e4     mfc100d:mfc100d.dll
 0005:000019e8       __imp_?Close@CFileFind@@QAEXXZ 005919e8     mfc100d:mfc100d.dll
 0005:000019ec       __imp_?GetLastWriteTime@CFileFind@@UBEHAAVCTime@ATL@@@Z 005919ec     mfc100d:mfc100d.dll
 0005:000019f0       __imp_?IsDirectory@CFileFind@@QBEHXZ 005919f0     mfc100d:mfc100d.dll
 0005:000019f4       __imp_?GetFileName@CFileFind@@UBE?AV?$CStringT@DV?$StrTraitMFC_DLL@DV?$ChTraitsCRT@D@ATL@@@@@ATL@@XZ 005919f4     mfc100d:mfc100d.dll
 0005:000019f8       __imp_?FindNextFileA@CFileFind@@UAEHXZ 005919f8     mfc100d:mfc100d.dll
 0005:000019fc       __imp_?FindFile@CFileFind@@UAEHPBDK@Z 005919fc     mfc100d:mfc100d.dll
 0005:00001a00       __imp_??0CFileFind@@QAE@XZ 00591a00     mfc100d:mfc100d.dll
 0005:00001a04       __imp_??1CMapStringToPtr@@UAE@XZ 00591a04     mfc100d:mfc100d.dll
 0005:00001a08       __imp_??0CMapStringToPtr@@QAE@H@Z 00591a08     mfc100d:mfc100d.dll
 0005:00001a0c       __imp_?SendMessageA@CWnd@@QBEJIIJ@Z 00591a0c     mfc100d:mfc100d.dll
 0005:00001a10       __imp_?Seek@CStdioFile@@UAE_K_JI@Z 00591a10     mfc100d:mfc100d.dll
 0005:00001a14       __imp_??Y?$CStringT@DV?$StrTraitMFC_DLL@DV?$ChTraitsCRT@D@ATL@@@@@ATL@@QAEAAV01@ABV?$CSimpleStringT@D$00@1@@Z 00591a14     mfc100d:mfc100d.dll
 0005:00001a18       __imp_?GetFilePath@CFileFind@@UBE?AV?$CStringT@DV?$StrTraitMFC_DLL@DV?$ChTraitsCRT@D@ATL@@@@@ATL@@XZ 00591a18     mfc100d:mfc100d.dll
 0005:00001a1c       __imp_?IsDots@CFileFind@@UBEHXZ 00591a1c     mfc100d:mfc100d.dll
 0005:00001a20       __imp_?Delete@CException@@QAEXXZ 00591a20     mfc100d:mfc100d.dll
 0005:00001a24       __imp_??2@YAPAXI@Z         00591a24     mfc100d:mfc100d.dll
 0005:00001a28       __imp_?GetThisMessageMap@CView@@KGPBUAFX_MSGMAP@@XZ 00591a28     mfc100d:mfc100d.dll
 0005:00001a2c       __imp_?OnMove@CWnd@@IAEXHH@Z 00591a2c     mfc100d:mfc100d.dll
 0005:00001a30       __imp_?GetThisClass@CView@@SGPAUCRuntimeClass@@XZ 00591a30     mfc100d:mfc100d.dll
 0005:00001a34       __imp_??1CDC@@UAE@XZ       00591a34     mfc100d:mfc100d.dll
 0005:00001a38       __imp_??1CRgn@@UAE@XZ      00591a38     mfc100d:mfc100d.dll
 0005:00001a3c       __imp_??1CFont@@UAE@XZ     00591a3c     mfc100d:mfc100d.dll
 0005:00001a40       __imp_??1CView@@UAE@XZ     00591a40     mfc100d:mfc100d.dll
 0005:00001a44       __imp_?CreateFontA@CFont@@QAEHHHHHHEEEEEEEEPBD@Z 00591a44     mfc100d:mfc100d.dll
 0005:00001a48       __imp_??0CDC@@QAE@XZ       00591a48     mfc100d:mfc100d.dll
 0005:00001a4c       __imp_??0CRgn@@QAE@XZ      00591a4c     mfc100d:mfc100d.dll
 0005:00001a50       __imp_??0CFont@@QAE@XZ     00591a50     mfc100d:mfc100d.dll
 0005:00001a54       __imp_??0CView@@IAE@XZ     00591a54     mfc100d:mfc100d.dll
 0005:00001a58       __imp_?OnCmdMsg@CView@@UAEHIHPAXPAUAFX_CMDHANDLERINFO@@@Z 00591a58     mfc100d:mfc100d.dll
 0005:00001a5c       __imp_?CalcWindowRect@CView@@UAEXPAUtagRECT@@I@Z 00591a5c     mfc100d:mfc100d.dll
 0005:00001a60       __imp_?GetScrollBarCtrl@CView@@UBEPAVCScrollBar@@H@Z 00591a60     mfc100d:mfc100d.dll
 0005:00001a64       __imp_?PreTranslateMessage@CWnd@@UAEHPAUtagMSG@@@Z 00591a64     mfc100d:mfc100d.dll
 0005:00001a68       __imp_?PostNcDestroy@CView@@MAEXXZ 00591a68     mfc100d:mfc100d.dll
 0005:00001a6c       __imp_?CheckAutoCenter@CWnd@@UAEHXZ 00591a6c     mfc100d:mfc100d.dll
 0005:00001a70       __imp_?SetOccDialogInfo@CWnd@@MAEHPAU_AFX_OCC_DIALOG_INFO@@@Z 00591a70     mfc100d:mfc100d.dll
 0005:00001a74       __imp_?GetOccDialogInfo@CWnd@@MAEPAU_AFX_OCC_DIALOG_INFO@@XZ 00591a74     mfc100d:mfc100d.dll
 0005:00001a78       __imp_?IsSelected@CView@@UBEHPBVCObject@@@Z 00591a78     mfc100d:mfc100d.dll
 0005:00001a7c       __imp_?OnScroll@CView@@UAEHIIH@Z 00591a7c     mfc100d:mfc100d.dll
 0005:00001a80       __imp_?OnScrollBy@CView@@UAEHVCSize@@H@Z 00591a80     mfc100d:mfc100d.dll
 0005:00001a84       __imp_?OnDragEnter@CView@@UAEKPAVCOleDataObject@@KVCPoint@@@Z 00591a84     mfc100d:mfc100d.dll
 0005:00001a88       __imp_?OnDragOver@CView@@UAEKPAVCOleDataObject@@KVCPoint@@@Z 00591a88     mfc100d:mfc100d.dll
 0005:00001a8c       __imp_?OnDragLeave@CView@@UAEXXZ 00591a8c     mfc100d:mfc100d.dll
 0005:00001a90       __imp_?OnDrop@CView@@UAEHPAVCOleDataObject@@KVCPoint@@@Z 00591a90     mfc100d:mfc100d.dll
 0005:00001a94       __imp_?OnDropEx@CView@@UAEKPAVCOleDataObject@@KKVCPoint@@@Z 00591a94     mfc100d:mfc100d.dll
 0005:00001a98       __imp_?OnDragScroll@CView@@UAEKKVCPoint@@@Z 00591a98     mfc100d:mfc100d.dll
 0005:00001a9c       __imp_?OnPrepareDC@CView@@UAEXPAVCDC@@PAUCPrintInfo@@@Z 00591a9c     mfc100d:mfc100d.dll
 0005:00001aa0       __imp_?OnInitialUpdate@CView@@UAEXXZ 00591aa0     mfc100d:mfc100d.dll
 0005:00001aa4       __imp_?OnActivateView@CView@@MAEXHPAV1@0@Z 00591aa4     mfc100d:mfc100d.dll
 0005:00001aa8       __imp_?OnActivateFrame@CView@@MAEXIPAVCFrameWnd@@@Z 00591aa8     mfc100d:mfc100d.dll
 0005:00001aac       __imp_?OnUpdate@CView@@MAEXPAV1@JPAVCObject@@@Z 00591aac     mfc100d:mfc100d.dll
 0005:00001ab0       __imp_?OnPrint@CView@@MAEXPAVCDC@@PAUCPrintInfo@@@Z 00591ab0     mfc100d:mfc100d.dll
 0005:00001ab4       __imp_?OnEndPrintPreview@CView@@MAEXPAVCDC@@PAUCPrintInfo@@UtagPOINT@@PAVCPreviewView@@@Z 00591ab4     mfc100d:mfc100d.dll
 0005:00001ab8       __imp_?PreCreateWindow@CView@@MAEHAAUtagCREATESTRUCTA@@@Z 00591ab8     mfc100d:mfc100d.dll
 0005:00001abc       __imp_?SelectClipRgn@CDC@@QAEHPAVCRgn@@@Z 00591abc     mfc100d:mfc100d.dll
 0005:00001ac0       __imp_?FillSolidRect@CDC@@QAEXPBUtagRECT@@K@Z 00591ac0     mfc100d:mfc100d.dll
 0005:00001ac4       __imp_?GetClientRect@CWnd@@QBEXPAUtagRECT@@@Z 00591ac4     mfc100d:mfc100d.dll
 0005:00001ac8       __imp_?DoPreparePrinting@CView@@QAEHPAUCPrintInfo@@@Z 00591ac8     mfc100d:mfc100d.dll
 0005:00001acc       __imp_?AssertValid@CView@@UBEXXZ 00591acc     mfc100d:mfc100d.dll
 0005:00001ad0       __imp_?Dump@CView@@UBEXAAVCDumpContext@@@Z 00591ad0     mfc100d:mfc100d.dll
 0005:00001ad4       __imp_?IsKindOf@CObject@@QBEHPBUCRuntimeClass@@@Z 00591ad4     mfc100d:mfc100d.dll
 0005:00001ad8       __imp_?CreateCompatibleBitmap@CBitmap@@QAEHPAVCDC@@HH@Z 00591ad8     mfc100d:mfc100d.dll
 0005:00001adc       __imp_?CreateCompatibleDC@CDC@@QAEHPAV1@@Z 00591adc     mfc100d:mfc100d.dll
 0005:00001ae0       __imp_?CreateRectRgn@CRgn@@QAEHHHHH@Z 00591ae0     mfc100d:mfc100d.dll
 0005:00001ae4       __imp_?OnSize@CWnd@@IAEXIHH@Z 00591ae4     mfc100d:mfc100d.dll
 0005:00001ae8       __imp_?OnLButtonUp@CWnd@@IAEXIVCPoint@@@Z 00591ae8     mfc100d:mfc100d.dll
 0005:00001aec       __imp_?OnLButtonDblClk@CWnd@@IAEXIVCPoint@@@Z 00591aec     mfc100d:mfc100d.dll
 0005:00001af0       __imp_?OnRButtonDown@CWnd@@IAEXIVCPoint@@@Z 00591af0     mfc100d:mfc100d.dll
 0005:00001af4       __imp_?OnSysKeyDown@CWnd@@IAEXIII@Z 00591af4     mfc100d:mfc100d.dll
 0005:00001af8       __imp_?OnSysKeyUp@CWnd@@IAEXIII@Z 00591af8     mfc100d:mfc100d.dll
 0005:00001afc       __imp_?OnKeyUp@CWnd@@IAEXIII@Z 00591afc     mfc100d:mfc100d.dll
 0005:00001b00       __imp_?OnKeyDown@CWnd@@IAEXIII@Z 00591b00     mfc100d:mfc100d.dll
 0005:00001b04       __imp_?DrawDragRect@CDC@@QAEXPBUtagRECT@@UtagSIZE@@01PAVCBrush@@2@Z 00591b04     mfc100d:mfc100d.dll
 0005:00001b08       __imp_?OnMouseWheel@CWnd@@IAEHIFVCPoint@@@Z 00591b08     mfc100d:mfc100d.dll
 0005:00001b0c       __imp_??1CMenu@@UAE@XZ     00591b0c     mfc100d:mfc100d.dll
 0005:00001b10       __imp_?TrackPopupMenu@CMenu@@QAEHIHHPAVCWnd@@PBUtagRECT@@@Z 00591b10     mfc100d:mfc100d.dll
 0005:00001b14       __imp_?LoadMenuA@CMenu@@QAEHI@Z 00591b14     mfc100d:mfc100d.dll
 0005:00001b18       __imp_?EnableWindow@CWnd@@QAEHH@Z 00591b18     mfc100d:mfc100d.dll
 0005:00001b1c       __imp_?SetFocus@CWnd@@QAEPAV1@XZ 00591b1c     mfc100d:mfc100d.dll
 0005:00001b20       __imp_?OnLButtonDown@CWnd@@IAEXIVCPoint@@@Z 00591b20     mfc100d:mfc100d.dll
 0005:00001b24       __imp_?FindWindowA@CWnd@@SGPAV1@PBD0@Z 00591b24     mfc100d:mfc100d.dll
 0005:00001b28       __imp_?GetThisMessageMap@CWinApp@@KGPBUAFX_MSGMAP@@XZ 00591b28     mfc100d:mfc100d.dll
 0005:00001b2c       __imp_?OnFilePrintSetup@CWinApp@@IAEXXZ 00591b2c     mfc100d:mfc100d.dll
 0005:00001b30       __imp_?OnFileOpen@CWinApp@@IAEXXZ 00591b30     mfc100d:mfc100d.dll
 0005:00001b34       __imp_?OnFileNew@CWinApp@@IAEXXZ 00591b34     mfc100d:mfc100d.dll
 0005:00001b38       __imp_??1CWinApp@@UAE@XZ   00591b38     mfc100d:mfc100d.dll
 0005:00001b3c       __imp_??0CWinApp@@QAE@PBD@Z 00591b3c     mfc100d:mfc100d.dll
 0005:00001b40       __imp_?GetRuntimeClass@CWinApp@@UBEPAUCRuntimeClass@@XZ 00591b40     mfc100d:mfc100d.dll
 0005:00001b44       __imp_?AssertValid@CWinApp@@UBEXXZ 00591b44     mfc100d:mfc100d.dll
 0005:00001b48       __imp_?Dump@CWinApp@@UBEXAAVCDumpContext@@@Z 00591b48     mfc100d:mfc100d.dll
 0005:00001b4c       __imp_?OnCmdMsg@CCmdTarget@@UAEHIHPAXPAUAFX_CMDHANDLERINFO@@@Z 00591b4c     mfc100d:mfc100d.dll
 0005:00001b50       __imp_?OnFinalRelease@CCmdTarget@@UAEXXZ 00591b50     mfc100d:mfc100d.dll
 0005:00001b54       __imp_?Run@CWinApp@@UAEHXZ 00591b54     mfc100d:mfc100d.dll
 0005:00001b58       __imp_?PreTranslateMessage@CWinThread@@UAEHPAUtagMSG@@@Z 00591b58     mfc100d:mfc100d.dll
 0005:00001b5c       __imp_?PumpMessage@CWinThread@@UAEHXZ 00591b5c     mfc100d:mfc100d.dll
 0005:00001b60       __imp_?OnIdle@CWinApp@@UAEHJ@Z 00591b60     mfc100d:mfc100d.dll
 0005:00001b64       __imp_?IsIdleMessage@CWinThread@@UAEHPAUtagMSG@@@Z 00591b64     mfc100d:mfc100d.dll
 0005:00001b68       __imp_?ProcessWndProcException@CWinApp@@UAEJPAVCException@@PBUtagMSG@@@Z 00591b68     mfc100d:mfc100d.dll
 0005:00001b6c       __imp_?ProcessMessageFilter@CWinThread@@UAEHHPAUtagMSG@@@Z 00591b6c     mfc100d:mfc100d.dll
 0005:00001b70       __imp_?Delete@CWinThread@@UAEXXZ 00591b70     mfc100d:mfc100d.dll
 0005:00001b74       __imp_?GetProfileIntA@CWinApp@@UAEIPBD0H@Z 00591b74     mfc100d:mfc100d.dll
 0005:00001b78       __imp_?WriteProfileInt@CWinApp@@UAEHPBD0H@Z 00591b78     mfc100d:mfc100d.dll
 0005:00001b7c       __imp_?GetProfileStringA@CWinApp@@UAE?AV?$CStringT@DV?$StrTraitMFC_DLL@DV?$ChTraitsCRT@D@ATL@@@@@ATL@@PBD00@Z 00591b7c     mfc100d:mfc100d.dll
 0005:00001b80       __imp_?WriteProfileStringA@CWinApp@@UAEHPBD00@Z 00591b80     mfc100d:mfc100d.dll
 0005:00001b84       __imp_?GetProfileBinary@CWinApp@@UAEHPBD0PAPAEPAI@Z 00591b84     mfc100d:mfc100d.dll
 0005:00001b88       __imp_?WriteProfileBinary@CWinApp@@UAEHPBD0PAEI@Z 00591b88     mfc100d:mfc100d.dll
 0005:00001b8c       __imp_?InitLibId@CWinApp@@UAEXXZ 00591b8c     mfc100d:mfc100d.dll
 0005:00001b90       __imp_?Register@CWinApp@@UAEHXZ 00591b90     mfc100d:mfc100d.dll
 0005:00001b94       __imp_?Unregister@CWinApp@@UAEHXZ 00591b94     mfc100d:mfc100d.dll
 0005:00001b98       __imp_?OpenDocumentFile@CWinApp@@UAEPAVCDocument@@PBDH@Z 00591b98     mfc100d:mfc100d.dll
 0005:00001b9c       __imp_?OpenDocumentFile@CWinApp@@UAEPAVCDocument@@PBD@Z 00591b9c     mfc100d:mfc100d.dll
 0005:00001ba0       __imp_?AddToRecentFileList@CWinApp@@UAEXPBD@Z 00591ba0     mfc100d:mfc100d.dll
 0005:00001ba4       __imp_?InitApplication@CWinApp@@UAEHXZ 00591ba4     mfc100d:mfc100d.dll
 0005:00001ba8       __imp_?SaveAllModified@CWinApp@@UAEHXZ 00591ba8     mfc100d:mfc100d.dll
 0005:00001bac       __imp_?DoWaitCursor@CWinApp@@UAEXH@Z 00591bac     mfc100d:mfc100d.dll
 0005:00001bb0       __imp_?OnDDECommand@CWinApp@@UAEHPAD@Z 00591bb0     mfc100d:mfc100d.dll
 0005:00001bb4       __imp_?WinHelpA@CWinApp@@UAEXKI@Z 00591bb4     mfc100d:mfc100d.dll
 0005:00001bb8       __imp_?HtmlHelpA@CWinApp@@UAEXKI@Z 00591bb8     mfc100d:mfc100d.dll
